LX51 LINKER/LOCATER V4.66.87.0                                                          10/15/2020  10:36:21  PAGE 1


LX51 LINKER/LOCATER V4.66.87.0, INVOKED BY:
D:\PROGRAM FILES\KEIL\C51\BIN\LX51.EXE .\Objects\STARTUP_M5.obj, .\Objects\sys.obj, .\Objects\timer.obj, .\Objects\uart.
>> obj, .\Objects\main.obj, .\Objects\weight.obj, .\Objects\control.obj, .\Objects\page.obj, .\Objects\key.obj, .\Object
>> s\fixdata.obj, .\Objects\error.obj TO .\Objects\T5L51 PRINT (.\Listings\T5L51.map) CLASSES (XDATA (X:0X8000-X:0XFFFF)
>> , HDATA (X:0X8000-X:0XFFFF), CODE (C:0X100-C:0XFEFF), CONST (C:0X100-C:0XFEFF), ECODE (C:0X100-C:0XFEFF), HCONST (C:0
>> X100-C:0XFEFF))


CPU MODE:     8051 MODE
MEMORY MODEL: LARGE


INPUT MODULES INCLUDED:
  .\Objects\STARTUP_M5.obj (STARTUP_M5)
         COMMENT TYPE 1: A51 / ASM51 Assembler
  .\Objects\sys.obj (SYS)
         COMMENT TYPE 0: C51 V9.57.0.0
  .\Objects\timer.obj (TIMER)
         COMMENT TYPE 0: C51 V9.57.0.0
  .\Objects\uart.obj (UART)
         COMMENT TYPE 0: C51 V9.57.0.0
  .\Objects\main.obj (MAIN)
         COMMENT TYPE 0: C51 V9.57.0.0
  .\Objects\weight.obj (WEIGHT)
         COMMENT TYPE 0: C51 V9.57.0.0
  .\Objects\control.obj (CONTROL)
         COMMENT TYPE 0: C51 V9.57.0.0
  .\Objects\page.obj (PAGE)
         COMMENT TYPE 0: C51 V9.57.0.0
  .\Objects\key.obj (KEY)
         COMMENT TYPE 0: C51 V9.57.0.0
  .\Objects\fixdata.obj (FIXDATA)
         COMMENT TYPE 0: C51 V9.57.0.0
  .\Objects\error.obj (ERROR)
         COMMENT TYPE 0: C51 V9.57.0.0
  D:\PROGRAM FILES\KEIL\C51\LIB\C51L.LIB (?C_STARTUP)
         COMMENT TYPE 1: A51 / ASM51 Assembler
  D:\PROGRAM FILES\KEIL\C51\LIB\C51L.LIB (?C?CLDPTR)
         COMMENT TYPE 1: A51 / ASM51 Assembler
  D:\PROGRAM FILES\KEIL\C51\LIB\C51L.LIB (?C?CLDOPTR)
         COMMENT TYPE 1: A51 / ASM51 Assembler
  D:\PROGRAM FILES\KEIL\C51\LIB\C51L.LIB (?C?CSTPTR)
         COMMENT TYPE 1: A51 / ASM51 Assembler
  D:\PROGRAM FILES\KEIL\C51\LIB\C51L.LIB (?C?CSTOPTR)
         COMMENT TYPE 1: A51 / ASM51 Assembler
  D:\PROGRAM FILES\KEIL\C51\LIB\C51L.LIB (?C?IMUL)
         COMMENT TYPE 1: A51 / ASM51 Assembler
  D:\PROGRAM FILES\KEIL\C51\LIB\C51L.LIB (?C?UIDIV)
         COMMENT TYPE 1: A51 / ASM51 Assembler
  D:\PROGRAM FILES\KEIL\C51\LIB\C51L.LIB (?C?ILDIX)
         COMMENT TYPE 1: A51 / ASM51 Assembler
  D:\PROGRAM FILES\KEIL\C51\LIB\C51L.LIB (?C?ILDPTR)
         COMMENT TYPE 1: A51 / ASM51 Assembler
  D:\PROGRAM FILES\KEIL\C51\LIB\C51L.LIB (?C?ILDOPTR)
         COMMENT TYPE 1: A51 / ASM51 Assembler
  D:\PROGRAM FILES\KEIL\C51\LIB\C51L.LIB (?C?IILDPTR)
         COMMENT TYPE 1: A51 / ASM51 Assembler
  D:\PROGRAM FILES\KEIL\C51\LIB\C51L.LIB (?C?IILDOPTR)
         COMMENT TYPE 1: A51 / ASM51 Assembler
  D:\PROGRAM FILES\KEIL\C51\LIB\C51L.LIB (?C?ISTPTR)
         COMMENT TYPE 1: A51 / ASM51 Assembler
  D:\PROGRAM FILES\KEIL\C51\LIB\C51L.LIB (?C?ISTOPTR)
         COMMENT TYPE 1: A51 / ASM51 Assembler
  D:\PROGRAM FILES\KEIL\C51\LIB\C51L.LIB (?C?LMUL)
         COMMENT TYPE 1: A51 / ASM51 Assembler
  D:\PROGRAM FILES\KEIL\C51\LIB\C51L.LIB (?C?ULDIV)
LX51 LINKER/LOCATER V4.66.87.0                                                        10/15/2020  10:36:21  PAGE 2


         COMMENT TYPE 1: A51 / ASM51 Assembler
  D:\PROGRAM FILES\KEIL\C51\LIB\C51L.LIB (?C?ULCMP)
         COMMENT TYPE 1: A51 / ASM51 Assembler
  D:\PROGRAM FILES\KEIL\C51\LIB\C51L.LIB (?C?ULSHR)
         COMMENT TYPE 1: A51 / ASM51 Assembler
  D:\PROGRAM FILES\KEIL\C51\LIB\C51L.LIB (?C?LSHL)
         COMMENT TYPE 1: A51 / ASM51 Assembler
  D:\PROGRAM FILES\KEIL\C51\LIB\C51L.LIB (?C?LSTXDATA)
         COMMENT TYPE 1: A51 / ASM51 Assembler
  D:\PROGRAM FILES\KEIL\C51\LIB\C51L.LIB (?C?LSTKXDATA)
         COMMENT TYPE 1: A51 / ASM51 Assembler
  D:\PROGRAM FILES\KEIL\C51\LIB\C51L.LIB (?C?CCASE)
         COMMENT TYPE 1: A51 / ASM51 Assembler
  D:\PROGRAM FILES\KEIL\C51\LIB\C51L.LIB (?C?ICALL)
         COMMENT TYPE 1: A51 / ASM51 Assembler
  D:\PROGRAM FILES\KEIL\C51\LIB\C51L.LIB (?C?LIMUL)
         COMMENT TYPE 1: A51 / ASM51 Assembler
  D:\PROGRAM FILES\KEIL\C51\LIB\C51L.LIB (?C?IILDX)
         COMMENT TYPE 1: A51 / ASM51 Assembler


ACTIVE MEMORY CLASSES OF MODULE:  .\Objects\T5L51 (STARTUP_M5)

BASE        START       END         USED      MEMORY CLASS
==========================================================
X:000000H   X:008000H   X:00FFFFH   00188CH   XDATA
X:000000H   X:008000H   X:00FFFFH             HDATA
C:000000H   C:000100H   C:00FEFFH   00CF19H   CODE
C:000000H   C:000100H   C:00FEFFH   00039AH   CONST
C:000000H   C:000100H   C:00FEFFH             ECODE
B00:0000H   C:000100H   C:00FEFFH             HCONST
I:000000H   I:000000H   I:00007FH   000009H   DATA
I:000000H   I:000000H   I:0000FFH   000001H   IDATA


MEMORY MAP OF MODULE:  .\Objects\T5L51 (STARTUP_M5)


START     STOP      LENGTH    ALIGN  RELOC    MEMORY CLASS   SEGMENT NAME
=========================================================================

* * * * * * * * * * *   D A T A   M E M O R Y   * * * * * * * * * * * * *
000000H   000007H   000008H   ---    AT..     DATA           "REG BANK 0"
000008H   000008H   000001H   BYTE   UNIT     DATA           _DATA_GROUP_
000009H   000009H   000001H   BYTE   UNIT     IDATA          ?STACK

* * * * * * * * * * *   C O D E   M E M O R Y   * * * * * * * * * * * * *
000000H   000002H   000003H   ---    OFFS..   CODE           ?CO??C_STARTUP?0
000003H   00000AH   000008H   ---    ---      **GAP**
00000BH   00000DH   000003H   BYTE   OFFS..   CODE           ?TIMER?0000B
00000EH   000022H   000015H   ---    ---      **GAP**
000023H   000025H   000003H   BYTE   OFFS..   CODE           ?UART?00023
000026H   00002AH   000005H   ---    ---      **GAP**
00002BH   00002DH   000003H   BYTE   OFFS..   CODE           ?TIMER?0002B
00002EH   000052H   000025H   ---    ---      **GAP**
000053H   000055H   000003H   BYTE   OFFS..   CODE           ?UART?00053
000056H   00005AH   000005H   ---    ---      **GAP**
00005BH   00005DH   000003H   BYTE   OFFS..   CODE           ?UART?0005B
00005EH   000062H   000005H   ---    ---      **GAP**
000063H   000065H   000003H   BYTE   OFFS..   CODE           ?UART?00063
000066H   00006AH   000005H   ---    ---      **GAP**
00006BH   00006DH   000003H   BYTE   OFFS..   CODE           ?UART?0006B
00006EH   000082H   000015H   ---    ---      **GAP**
000083H   000085H   000003H   BYTE   OFFS..   CODE           ?UART?00083
000086H   0000F7H   000072H   ---    ---      **GAP**
LX51 LINKER/LOCATER V4.66.87.0                                                        10/15/2020  10:36:21  PAGE 3


0000F8H   000102H   00000BH   ---    OFFS..   CODE           ?CO?STARTUP_M5?0
000103H   001527H   001425H   BYTE   UNIT     CODE           ?PR?GET_TXT?PAGE
001528H   001EBDH   000996H   BYTE   UNIT     CODE           ?PR?PAGE129?PAGE
001EBEH   0026E5H   000828H   BYTE   UNIT     CODE           ?PR?PAGE141?PAGE
0026E6H   002E7EH   000799H   BYTE   UNIT     CODE           ?PR?PAGE125?PAGE
002E7FH   0033F0H   000572H   BYTE   UNIT     CODE           ?PR?PAGE126?PAGE
0033F1H   003962H   000572H   BYTE   UNIT     CODE           ?PR?PAGE127?PAGE
003963H   003E72H   000510H   BYTE   UNIT     CODE           ?PR?PAGE118?PAGE
003E73H   00432BH   0004B9H   BYTE   UNIT     CODE           ?PR?PAGE128?PAGE
00432CH   004780H   000455H   BYTE   UNIT     CODE           ?PR?DISPLAY_TXT?PAGE
004781H   004BD0H   000450H   BYTE   UNIT     CODE           ?PR?PAGE_POS?PAGE
004BD1H   004FFBH   00042BH   BYTE   UNIT     CODE           ?C?LIB_CODE
004FFCH   005357H   00035CH   BYTE   UNIT     CODE           ?PR?P120_TOUCH?PAGE
005358H   005687H   000330H   BYTE   UNIT     CODE           ?PR?PRO_0X11?CONTROL
005688H   005994H   00030DH   BYTE   UNIT     CODE           ?PR?_DISPLAY_MENU?PAGE
005995H   005C32H   00029EH   BYTE   UNIT     CODE           ?PR?P116_TOUCH?PAGE
005C33H   005EC0H   00028EH   BYTE   UNIT     CODE           ?PR?P120_VSLIDE?PAGE
005EC1H   006130H   000270H   BYTE   UNIT     CODE           ?PR?_INCREASEICON?PAGE
006131H   00638BH   00025BH   BYTE   UNIT     CODE           ?PR?WEIGHT_RECEIVE?WEIGHT
00638CH   0065E1H   000256H   BYTE   UNIT     CODE           ?PR?ERRORDISPLAY?ERROR
0065E2H   006832H   000251H   BYTE   UNIT     CODE           ?PR?_DECREASEICON?PAGE
006833H   006A63H   000231H   BYTE   UNIT     CODE           ?PR?_SEARCH_MENU?PAGE
006A64H   006C90H   00022DH   BYTE   UNIT     CODE           ?PR?_PMOREPAGE?KEY
006C91H   006EB9H   000229H   BYTE   UNIT     CODE           ?PR?STARTMENUSTEP?PAGE
006EBAH   0070DAH   000221H   BYTE   UNIT     CODE           ?PR?_PAGE_TOUCHJUDGE?PAGE
0070DBH   0072F9H   00021FH   BYTE   UNIT     CODE           ?PR?P148_TOUCH?PAGE
0072FAH   007514H   00021BH   BYTE   UNIT     CODE           ?PR?_GET_SEND?PAGE
007515H   00772DH   000219H   BYTE   UNIT     CODE           ?PR?P117_TOUCH?PAGE
00772EH   00793DH   000210H   BYTE   UNIT     CODE           ?PR?PAGE116?PAGE
00793EH   007B4BH   00020EH   BYTE   UNIT     CODE           ?PR?_WRITE_DGUS_VP?SYS
007B4CH   007D46H   0001FBH   BYTE   UNIT     CODE           ?PR?KEY_ACTION?KEY
007D47H   007F39H   0001F3H   BYTE   UNIT     CODE           ?PR?_MENUPARATRANS?PAGE
007F3AH   008121H   0001E8H   BYTE   UNIT     CODE           ?PR?_STEPDATA?PAGE
008122H   0082F8H   0001D7H   BYTE   UNIT     CODE           ?PR?_PWEIGHTPAGE?KEY
0082F9H   0084CDH   0001D5H   BYTE   UNIT     CODE           ?PR?_READ_DGUS_VP?SYS
0084CEH   00869BH   0001CEH   BYTE   UNIT     CODE           ?PR?PAGE100?PAGE
00869CH   008866H   0001CBH   BYTE   UNIT     CODE           ?PR?_MENUAUTOSLIDEACTION?PAGE
008867H   008A30H   0001CAH   BYTE   UNIT     CODE           ?PR?PAGE151?PAGE
008A31H   008BF5H   0001C5H   BYTE   UNIT     CODE           ?PR?PAGE_INIT?PAGE
008BF6H   008DB1H   0001BCH   BYTE   UNIT     CODE           ?PR?PAGE104?PAGE
008DB2H   008F6CH   0001BBH   BYTE   UNIT     CODE           ?PR?PAGE131?PAGE
008F6DH   009125H   0001B9H   BYTE   UNIT     CODE           ?PR?PAGE114?PAGE
009126H   0092CCH   0001A7H   BYTE   UNIT     CODE           ?PR?TXTAUTOSLIDEACTION?PAGE
0092CDH   00942CH   000160H   BYTE   UNIT     CODE           ?PR?_DISPLAYHMENUDIRECT?PAGE
00942DH   009580H   000154H   BYTE   UNIT     CODE           ?PR?T0_ISR_PC?TIMER
009581H   0096D4H   000154H   BYTE   UNIT     CODE           ?PR?_DISPLAYMENUDIRECT?PAGE
0096D5H   009819H   000145H   BYTE   UNIT     CODE           ?PR?TIMEVARY?PAGE
00981AH   00995EH   000145H   BYTE   UNIT     CODE           ?PR?PAGE130?PAGE
00995FH   009AA1H   000143H   BYTE   UNIT     CODE           ?PR?PAGE145?PAGE
009AA2H   009BE0H   00013FH   BYTE   UNIT     CODE           ?PR?_SEND_CONTROL?CONTROL
009BE1H   009D0EH   00012EH   BYTE   UNIT     CODE           ?PR?_PARATRANS?PAGE
009D0FH   009E39H   00012BH   BYTE   UNIT     CODE           ?PR?P99TOUCH?PAGE
009E3AH   009F5FH   000126H   BYTE   UNIT     CODE           ?PR?SPIFLASH_ACTION?SYS
009F60H   00A083H   000124H   BYTE   UNIT     CODE           ?PR?PAGE101?PAGE
00A084H   00A1A7H   000124H   BYTE   UNIT     CODE           ?PR?P133TOUCH?PAGE
00A1A8H   00A2BDH   000116H   BYTE   UNIT     CODE           ?PR?_UATR_SEND_DATA?UART
00A2BEH   00A3D2H   000115H   BYTE   UNIT     CODE           ?PR?_PPOWERPAGE?KEY
00A3D3H   00A4E1H   00010FH   BYTE   UNIT     CODE           ?PR?PAGE102?PAGE
00A4E2H   00A5EEH   00010DH   BYTE   UNIT     CODE           ?PR?PAGE150?PAGE
00A5EFH   00A6F8H   00010AH   BYTE   UNIT     CODE           ?PR?_GETMENUDIRECT?PAGE
00A6F9H   00A800H   000108H   BYTE   UNIT     CODE           ?PR?_FUNTION_POWER?PAGE
00A801H   00A908H   000108H   BYTE   UNIT     CODE           ?PR?PAGE103?PAGE
00A909H   00AA0AH   000102H   BYTE   UNIT     CODE           ?PR?NORFLASH_ACTION?SYS
00AA0BH   00AB07H   0000FDH   BYTE   UNIT     CODE           ?PR?PAGE_ACTION?PAGE
00AB08H   00AC00H   0000F9H   BYTE   UNIT     CODE           ?PR?INIT_PARA?PAGE
LX51 LINKER/LOCATER V4.66.87.0                                                        10/15/2020  10:36:21  PAGE 4


00AC01H   00ACF4H   0000F4H   BYTE   UNIT     CODE           ?PR?_GET_MENU?PAGE
00ACF5H   00ADE3H   0000EFH   BYTE   UNIT     CODE           ?PR?_GETHMENUDIRECT?PAGE
00ADE4H   00AECCH   0000E9H   BYTE   UNIT     CODE           ?PR?PAGE113?PAGE
00AECDH   00AFB4H   0000E8H   BYTE   UNIT     CODE           ?PR?PAGE121?PAGE
00AFB5H   00B09BH   0000E7H   BYTE   UNIT     CODE           ?PR?_P116_HSLIDE?PAGE
00B09CH   00B181H   0000E6H   BYTE   UNIT     CODE           ?PR?SETPAGEDISPLAY?PAGE
00B182H   00B25EH   0000DDH   BYTE   UNIT     CODE           ?PR?P116TOUCH?PAGE
00B25FH   00B33BH   0000DDH   BYTE   UNIT     CODE           ?PR?P117TOUCH?PAGE
00B33CH   00B410H   0000D5H   BYTE   UNIT     CODE           ?PR?PAGE112?PAGE
00B411H   00B4E1H   0000D1H   BYTE   UNIT     CODE           ?PR?GET_MENUALLPARA?PAGE
00B4E2H   00B5AFH   0000CEH   BYTE   UNIT     CODE           ?PR?_GETWEIGHTVALUE?WEIGHT
00B5B0H   00B67AH   0000CBH   BYTE   UNIT     CODE           ?PR?P148TOUCH?PAGE
00B67BH   00B744H   0000CAH   BYTE   UNIT     CODE           ?PR?_FUNCTION_TIME?PAGE
00B745H   00B80EH   0000CAH   BYTE   UNIT     CODE           ?PR?_FUNCTION_STIR?PAGE
00B80FH   00B8D7H   0000C9H   BYTE   UNIT     CODE           ?PR?_PMAINPAGE?KEY
00B8D8H   00B99EH   0000C7H   BYTE   UNIT     CODE           ?PR?CONTROL_RECEIVE?CONTROL
00B99FH   00BA65H   0000C7H   BYTE   UNIT     CODE           ?PR?PAGE136?PAGE
00BA66H   00BB1DH   0000B8H   BYTE   UNIT     CODE           ?PR?P99_HSLIDE?PAGE
00BB1EH   00BBD5H   0000B8H   BYTE   UNIT     CODE           ?PR?P133_HSLIDE?PAGE
00BBD6H   00BC8BH   0000B6H   BYTE   UNIT     CODE           ?PR?_CALCULATE_CRC16?CONTROL
00BC8CH   00BD36H   0000ABH   BYTE   UNIT     CODE           ?PR?KEY_INIT?KEY
00BD37H   00BDD6H   0000A0H   BYTE   UNIT     CODE           ?PR?PAGE115?PAGE
00BDD7H   00BE6EH   000098H   BYTE   UNIT     CODE           ?PR?PAGE149?PAGE
00BE6FH   00BF05H   000097H   BYTE   UNIT     CODE           ?PR?PRO_0X12?CONTROL
00BF06H   00BF98H   000093H   BYTE   UNIT     CODE           ?PR?_PINOUTPUT?SYS
00BF99H   00C027H   00008FH   BYTE   UNIT     CODE           ?PR?P148_HSLIDE?PAGE
00C028H   00C0B4H   00008DH   BYTE   UNIT     CODE           ?PR?STEPDATAINCREASE?PAGE
00C0B5H   00C13DH   000089H   BYTE   UNIT     CODE           ?PR?MAIN?MAIN
00C13EH   00C1BDH   000080H   BYTE   UNIT     CODE           ?PR?P120TOUCH?PAGE
00C1BEH   00C23BH   00007EH   BYTE   UNIT     CODE           ?PR?_PAGE_CHANGE?SYS
00C23CH   00C2B9H   00007EH   BYTE   UNIT     CODE           ?PR?GET_WEIGHT?WEIGHT
00C2BAH   00C32EH   000075H   BYTE   UNIT     CODE           ?PR?CONTROL_ACTION?CONTROL
00C32FH   00C3A0H   000072H   BYTE   UNIT     CODE           ?PR?UART3_ISR?UART
00C3A1H   00C410H   000070H   BYTE   UNIT     CODE           ?PR?PAGE_BACK?PAGE
00C411H   00C47FH   00006FH   BYTE   UNIT     CODE           ?PR?_MUSIC_PLAY?PAGE
00C480H   00C4EDH   00006EH   BYTE   UNIT     CODE           ?PR?PAGE132?PAGE
00C4EEH   00C553H   000066H   BYTE   UNIT     CODE           ?PR?UART2_ISR?UART
00C554H   00C5B9H   000066H   BYTE   UNIT     CODE           ?PR?STEPDATADECREASE?PAGE
00C5BAH   00C619H   000060H   BYTE   UNIT     CODE           ?PR?P120_HSLIDE?PAGE
00C61AH   00C676H   00005DH   BYTE   UNIT     CODE           ?PR?_COMPARETEXT?PAGE
00C677H   00C6D1H   00005BH   BYTE   UNIT     CODE           ?PR?_UART2_INIT?UART
00C6D2H   00C728H   000057H   BYTE   UNIT     CODE           ?PR?MUSICANCTION?SYS
00C729H   00C77FH   000057H   BYTE   UNIT     CODE           ?PR?PAGE143?PAGE
00C780H   00C7D6H   000057H   BYTE   UNIT     CODE           ?PR?PAGE148?PAGE
00C7D7H   00C82CH   000056H   BYTE   UNIT     CODE           ?PR?_UART3_INIT?UART
00C82DH   00C881H   000055H   BYTE   UNIT     CODE           ?PR?_GETPININ?SYS
00C882H   00C8D6H   000055H   BYTE   UNIT     CODE           ?PR?_SEND_TEST?CONTROL
00C8D7H   00C92AH   000054H   BYTE   UNIT     CODE           ?PR?_TOUCHSWITCH?SYS
00C92BH   00C976H   00004CH   BYTE   UNIT     CODE           ?PR?_SETPININ?SYS
00C977H   00C9C0H   00004AH   BYTE   UNIT     CODE           ?PR?SEND_STOP?CONTROL
00C9C1H   00CA0AH   00004AH   BYTE   UNIT     CODE           ?PR?PAGETOUCH?PAGE
00CA0BH   00CA52H   000048H   BYTE   UNIT     CODE           ?PR?_DELAY_MS?SYS
00CA53H   00CA9AH   000048H   BYTE   UNIT     CODE           ?PR?_SETPINOUT?SYS
00CA9BH   00CAE1H   000047H   BYTE   UNIT     CODE           ?PR?UART4T_ISR?UART
00CAE2H   00CB28H   000047H   BYTE   UNIT     CODE           ?PR?UART5T_ISR?UART
00CB29H   00CB6FH   000047H   BYTE   UNIT     CODE           ?PR?WEIGHT_INIT?WEIGHT
00CB70H   00CBB5H   000046H   BYTE   UNIT     CODE           ?PR?PAGE117?PAGE
00CBB6H   00CBF9H   000044H   BYTE   UNIT     CODE           ?PR?SEND_HEART?CONTROL
00CBFAH   00CC3BH   000042H   BYTE   UNIT     CODE           ?PR?SEND_PAIQI?CONTROL
00CC3CH   00CC7BH   000040H   BYTE   UNIT     CODE           ?PR?CONTROL_INIT?CONTROL
00CC7CH   00CCB4H   000039H   BYTE   UNIT     CODE           ?PR?PRO_0X13?CONTROL
00CCB5H   00CCE9H   000035H   BYTE   UNIT     CODE           ?PR?_STARTTIMER?TIMER
00CCEAH   00CD1EH   000035H   BYTE   UNIT     CODE           ?PR?_UART4_INIT?UART
00CD1FH   00CD53H   000035H   BYTE   UNIT     CODE           ?PR?_UART5_INIT?UART
00CD54H   00CD88H   000035H   BYTE   UNIT     CODE           ?PR?PAGE134?PAGE
LX51 LINKER/LOCATER V4.66.87.0                                                        10/15/2020  10:36:21  PAGE 5


00CD89H   00CDBCH   000034H   BYTE   UNIT     CODE           ?PR?_MUSICDIRECTPLAY?SYS
00CDBDH   00CDF0H   000034H   BYTE   UNIT     CODE           ?PR?PAGE88?PAGE
00CDF1H   00CE20H   000030H   BYTE   UNIT     CODE           ?PR?UART4R_ISR?UART
00CE21H   00CE50H   000030H   BYTE   UNIT     CODE           ?PR?UART5R_ISR?UART
00CE51H   00CE7CH   00002CH   BYTE   UNIT     CODE           ?PR?T0_INIT?TIMER
00CE7DH   00CEA7H   00002BH   BYTE   UNIT     CODE           ?PR?_GET_TOUCH?PAGE
00CEA8H   00CECEH   000027H   BYTE   UNIT     CODE           ?PR?INIT_CPU?SYS
00CECFH   00CEF2H   000024H   BYTE   UNIT     CODE           ?PR?_KILLTIMER?TIMER
00CEF3H   00CF15H   000023H   BYTE   UNIT     CODE           ?PR?CLR_TOUCH?PAGE
00CF16H   00CF31H   00001CH   BYTE   UNIT     CODE           ?PR?GETPAGEID?SYS
00CF32H   00CF4DH   00001CH   BYTE   UNIT     CODE           ?PR?GETCODE?CONTROL
00CF4EH   00CF66H   000019H   BYTE   UNIT     CODE           ?PR?_DELAY_US?SYS
00CF67H   00CF7DH   000017H   BYTE   UNIT     CODE           ?PR?_GETTIMEOUTFLAG?TIMER
00CF7EH   00CF91H   000014H   BYTE   UNIT     CODE           ?PR?WEIGHT_ERROR?WEIGHT
00CF92H   00CFA5H   000014H   BYTE   UNIT     CODE           ?PR?CONTROL_ERROR?CONTROL
00CFA6H   00CFB7H   000012H   BYTE   UNIT     CODE           ?PR?PAGE74?PAGE
00CFB8H   00CFC7H   000010H   BYTE   UNIT     CODE           ?PR?ERRORINIT?ERROR
00CFC8H   00CFD5H   00000EH   BYTE   UNIT     CODE           ?PR?PAGE0?PAGE
00CFD6H   00CFE2H   00000DH   BYTE   UNIT     CODE           ?PR?CALIBRATION_3KG?WEIGHT
00CFE3H   00CFEEH   00000CH   BYTE   UNIT     CODE           ?C_C51STARTUP
00CFEFH   00CFF5H   000007H   BYTE   UNIT     CODE           ?PR?TIMER2_ISR?TIMER
00CFF6H   00D1CCH   0001D7H   BYTE   UNIT     CONST          ?CO?PAGE
00D1CDH   00D374H   0001A8H   BYTE   UNIT     CONST          ?CO?FIXDATA
00D375H   00D383H   00000FH   BYTE   UNIT     CONST          ?CO?WEIGHT
00D384H   00D38FH   00000CH   BYTE   UNIT     CONST          ?CO?KEY

* * * * * * * * * * *  X D A T A   M E M O R Y  * * * * * * * * * * * * *
008000H   008C43H   000C44H   BYTE   UNIT     XDATA          ?XD?PAGE
008C44H   009457H   000814H   BYTE   UNIT     XDATA          ?XD?UART
009458H   00972CH   0002D5H   BYTE   UNIT     XDATA          _XDATA_GROUP_
00972DH   0097A8H   00007CH   BYTE   UNIT     XDATA          ?XD?CONTROL
0097A9H   009801H   000059H   BYTE   UNIT     XDATA          ?XD?TIMER
009802H   009840H   00003FH   BYTE   UNIT     XDATA          ?XD?SYS
009841H   009868H   000028H   BYTE   UNIT     XDATA          ?XD?KEY
009869H   009875H   00000DH   BYTE   UNIT     XDATA          ?XD?_TOUCHSWITCH?SYS
009876H   00987FH   00000AH   BYTE   UNIT     XDATA          ?XD?WEIGHT
009880H   009883H   000004H   BYTE   UNIT     XDATA          ?XD?ERRORDISPLAY?ERROR
009884H   009887H   000004H   BYTE   UNIT     XDATA          ?XD?ERROR
009888H   009889H   000002H   BYTE   UNIT     XDATA          ?XD?_UART3_INIT?UART
00988AH   00988BH   000002H   BYTE   UNIT     XDATA          ?XD?_GETMENUDIRECT?PAGE



OVERLAY MAP OF MODULE:   .\Objects\T5L51 (STARTUP_M5)


FUNCTION/MODULE                DATA_GROUP   XDATA_GROUP
--> CALLED FUNCTION/MODULE     START  STOP  START  STOP
=======================================================
T0_ISR_PC/TIMER                ----- -----  ----- -----

*** NEW ROOT *****************

TIMER2_ISR/TIMER               ----- -----  ----- -----

*** NEW ROOT *****************

UART2_ISR/UART                 ----- -----  ----- -----

*** NEW ROOT *****************

UART4T_ISR/UART                ----- -----  ----- -----

*** NEW ROOT *****************

LX51 LINKER/LOCATER V4.66.87.0                                                        10/15/2020  10:36:21  PAGE 6


UART4R_ISR/UART                ----- -----  ----- -----

*** NEW ROOT *****************

UART5T_ISR/UART                ----- -----  ----- -----

*** NEW ROOT *****************

UART5R_ISR/UART                ----- -----  ----- -----

*** NEW ROOT *****************

UART3_ISR/UART                 ----- -----  ----- -----

*** NEW ROOT *****************

?C_C51STARTUP                  ----- -----  ----- -----
  +--> MAIN/MAIN

MAIN/MAIN                      ----- -----  9458H 9458H
  +--> INIT_CPU/SYS
  +--> _DELAY_MS/SYS
  +--> _MUSICDIRECTPLAY/SYS
  +--> _UART2_INIT/UART
  +--> _UART4_INIT/UART
  +--> T0_INIT/TIMER
  +--> WEIGHT_INIT/WEIGHT
  +--> CONTROL_INIT/CONTROL
  +--> KEY_INIT/KEY
  +--> PAGE_INIT/PAGE
  +--> ERRORINIT/ERROR
  +--> _STARTTIMER/TIMER
  +--> _GETTIMEOUTFLAG/TIMER
  +--> MUSICANCTION/SYS
  +--> PAGE_ACTION/PAGE
  +--> KEY_ACTION/KEY
  +--> CONTROL_ACTION/CONTROL
  +--> GET_WEIGHT/WEIGHT
  +--> CONTROL_ERROR/CONTROL
  +--> WEIGHT_ERROR/WEIGHT
  +--> PAGE_POS/PAGE
  +--> PAGETOUCH/PAGE
  +--> WEIGHT_RECEIVE/WEIGHT
  +--> CONTROL_RECEIVE/CONTROL

INIT_CPU/SYS                   ----- -----  ----- -----

_DELAY_MS/SYS                  ----- -----  9459H 945CH
  +--> _DELAY_US/SYS

_DELAY_US/SYS                  ----- -----  ----- -----

_MUSICDIRECTPLAY/SYS           ----- -----  9459H 945DH
  +--> _READ_DGUS_VP/SYS
  +--> _WRITE_DGUS_VP/SYS

_READ_DGUS_VP/SYS              ----- -----  9711H 9723H
  +--> _DELAY_US/SYS

_WRITE_DGUS_VP/SYS             ----- -----  971AH 972CH
  +--> _DELAY_US/SYS

_UART2_INIT/UART               ----- -----  9459H 945AH
  +--> _SETPINOUT/SYS
  +--> _SETPININ/SYS
LX51 LINKER/LOCATER V4.66.87.0                                                        10/15/2020  10:36:21  PAGE 7



_SETPINOUT/SYS                 ----- -----  ----- -----

_SETPININ/SYS                  ----- -----  ----- -----

_UART4_INIT/UART               ----- -----  ----- -----

T0_INIT/TIMER                  ----- -----  ----- -----

WEIGHT_INIT/WEIGHT             ----- -----  9459H 945CH
  +--> _WRITE_DGUS_VP/SYS

CONTROL_INIT/CONTROL           ----- -----  ----- -----

KEY_INIT/KEY                   0008H 0008H  ----- -----

PAGE_INIT/PAGE                 ----- -----  9459H 945CH
  +--> NORFLASH_ACTION/SYS
  +--> _WRITE_DGUS_VP/SYS
  +--> _READ_DGUS_VP/SYS

NORFLASH_ACTION/SYS            ----- -----  9709H 9710H
  +--> _WRITE_DGUS_VP/SYS
  +--> _DELAY_US/SYS
  +--> _READ_DGUS_VP/SYS

ERRORINIT/ERROR                ----- -----  ----- -----

_STARTTIMER/TIMER              ----- -----  ----- -----

_GETTIMEOUTFLAG/TIMER          ----- -----  ----- -----

MUSICANCTION/SYS               ----- -----  9459H 945CH
  +--> _READ_DGUS_VP/SYS
  +--> _WRITE_DGUS_VP/SYS

PAGE_ACTION/PAGE               ----- -----  9459H 945DH
  +--> _WRITE_DGUS_VP/SYS
  +--> GETPAGEID/SYS
  +--> SEND_STOP/CONTROL

PAGE0/PAGE                     ----- -----  ----- -----
  +--> _PAGE_CHANGE/SYS

_PAGE_CHANGE/SYS               ----- -----  9502H 9507H
  +--> _WRITE_DGUS_VP/SYS
  +--> _DELAY_US/SYS
  +--> _READ_DGUS_VP/SYS

PAGE74/PAGE                    ----- -----  ----- -----
  +--> _PAGE_CHANGE/SYS

PAGE88/PAGE                    ----- -----  945EH 9461H
  +--> _GET_TOUCH/PAGE
  +--> _PAGE_CHANGE/SYS
  +--> CLR_TOUCH/PAGE
  +--> _MUSIC_PLAY/PAGE

_GET_TOUCH/PAGE                ----- -----  ----- -----

CLR_TOUCH/PAGE                 ----- -----  ----- -----

_MUSIC_PLAY/PAGE               ----- -----  9502H 9504H

PAGE100/PAGE                   ----- -----  945EH 9461H
LX51 LINKER/LOCATER V4.66.87.0                                                        10/15/2020  10:36:21  PAGE 8


  +--> _GET_TOUCH/PAGE
  +--> _MUSIC_PLAY/PAGE
  +--> _GETHMENUDIRECT/PAGE
  +--> _DISPLAYHMENUDIRECT/PAGE
  +--> _GET_MENU/PAGE
  +--> _DISPLAY_MENU/PAGE
  +--> _WRITE_DGUS_VP/SYS
  +--> _PAGE_CHANGE/SYS
  +--> CLR_TOUCH/PAGE

_GETHMENUDIRECT/PAGE           ----- -----  9462H 9463H
  +--> NORFLASH_ACTION/SYS

_DISPLAYHMENUDIRECT/PAGE       ----- -----  9463H 946FH
  +--> _WRITE_DGUS_VP/SYS

_GET_MENU/PAGE                 ----- -----  9482H 9483H
  +--> NORFLASH_ACTION/SYS

_DISPLAY_MENU/PAGE             ----- -----  9709H 9719H
  +--> _WRITE_DGUS_VP/SYS

PAGE101/PAGE                   ----- -----  945EH 9465H
  +--> _GET_TOUCH/PAGE
  +--> _PAGE_CHANGE/SYS
  +--> _FUNCTION_TIME/PAGE
  +--> _MUSIC_PLAY/PAGE
  +--> _FUNTION_POWER/PAGE
  +--> _FUNCTION_STIR/PAGE
  +--> _GET_SEND/PAGE
  +--> _SEND_CONTROL/CONTROL
  +--> _WRITE_DGUS_VP/SYS
  +--> CLR_TOUCH/PAGE
  +--> INIT_PARA/PAGE

_FUNCTION_TIME/PAGE            ----- -----  946EH 9482H
  +--> _PARATRANS/PAGE
  +--> TIMEVARY/PAGE
  +--> _WRITE_DGUS_VP/SYS
  +--> _PAGE_CHANGE/SYS

_PARATRANS/PAGE                ----- -----  9483H 9493H
  +--> _READ_DGUS_VP/SYS
  +--> _WRITE_DGUS_VP/SYS

TIMEVARY/PAGE                  ----- -----  94A1H 94ACH
  +--> _READ_DGUS_VP/SYS
  +--> _WRITE_DGUS_VP/SYS

_FUNTION_POWER/PAGE            ----- -----  946EH 9482H
  +--> _PARATRANS/PAGE
  +--> TIMEVARY/PAGE
  +--> _WRITE_DGUS_VP/SYS
  +--> _PAGE_CHANGE/SYS

_FUNCTION_STIR/PAGE            ----- -----  946EH 9482H
  +--> _PARATRANS/PAGE
  +--> TIMEVARY/PAGE
  +--> _WRITE_DGUS_VP/SYS
  +--> _PAGE_CHANGE/SYS

_GET_SEND/PAGE                 ----- -----  94A1H 94B3H
  +--> _READ_DGUS_VP/SYS
  +--> _WRITE_DGUS_VP/SYS

LX51 LINKER/LOCATER V4.66.87.0                                                        10/15/2020  10:36:21  PAGE 9


_SEND_CONTROL/CONTROL          ----- -----  ----- -----

INIT_PARA/PAGE                 ----- -----  9471H 9480H
  +--> _WRITE_DGUS_VP/SYS

PAGE102/PAGE                   ----- -----  945EH 9465H
  +--> _GET_TOUCH/PAGE
  +--> _FUNCTION_TIME/PAGE
  +--> _FUNTION_POWER/PAGE
  +--> _FUNCTION_STIR/PAGE
  +--> _GET_SEND/PAGE
  +--> _SEND_CONTROL/CONTROL
  +--> _MUSIC_PLAY/PAGE
  +--> _WRITE_DGUS_VP/SYS
  +--> _PAGE_CHANGE/SYS
  +--> CLR_TOUCH/PAGE
  +--> INIT_PARA/PAGE

PAGE104/PAGE                   ----- -----  945EH 946EH
  +--> _GET_TOUCH/PAGE
  +--> _WRITE_DGUS_VP/SYS
  +--> _PAGE_CHANGE/SYS
  +--> CLR_TOUCH/PAGE

PAGE103/PAGE                   ----- -----  945EH 9465H
  +--> _GET_TOUCH/PAGE
  +--> _FUNCTION_TIME/PAGE
  +--> _FUNTION_POWER/PAGE
  +--> _FUNCTION_STIR/PAGE
  +--> _GET_SEND/PAGE
  +--> _SEND_CONTROL/CONTROL
  +--> _MUSIC_PLAY/PAGE
  +--> _WRITE_DGUS_VP/SYS
  +--> _PAGE_CHANGE/SYS
  +--> CLR_TOUCH/PAGE
  +--> INIT_PARA/PAGE

PAGE112/PAGE                   ----- -----  945EH 946FH
  +--> _GET_TOUCH/PAGE
  +--> _PAGE_CHANGE/SYS
  +--> _SEARCH_MENU/PAGE
  +--> _DISPLAY_MENU/PAGE
  +--> CLR_TOUCH/PAGE

_SEARCH_MENU/PAGE              ----- -----  9470H 967FH
  +--> SPIFLASH_ACTION/SYS
  +--> _COMPARETEXT/PAGE

SPIFLASH_ACTION/SYS            ----- -----  9680H 968BH
  +--> _WRITE_DGUS_VP/SYS
  +--> _DELAY_US/SYS
  +--> _READ_DGUS_VP/SYS

_COMPARETEXT/PAGE              ----- -----  9680H 9685H

PAGE113/PAGE                   ----- -----  945EH 946DH
  +--> _GET_TOUCH/PAGE
  +--> _PAGE_CHANGE/SYS
  +--> _READ_DGUS_VP/SYS
  +--> _SEARCH_MENU/PAGE
  +--> _DISPLAY_MENU/PAGE
  +--> CLR_TOUCH/PAGE
  +--> _WRITE_DGUS_VP/SYS

PAGE114/PAGE                   ----- -----  945EH 9461H
LX51 LINKER/LOCATER V4.66.87.0                                                        10/15/2020  10:36:21  PAGE 10


  +--> _GET_TOUCH/PAGE
  +--> _GET_MENU/PAGE
  +--> _DISPLAY_MENU/PAGE
  +--> _WRITE_DGUS_VP/SYS
  +--> _PAGE_CHANGE/SYS
  +--> SETPAGEDISPLAY/PAGE
  +--> CLR_TOUCH/PAGE

SETPAGEDISPLAY/PAGE            ----- -----  9463H 9474H
  +--> _WRITE_DGUS_VP/SYS

PAGE115/PAGE                   ----- -----  945EH 9461H
  +--> _GET_TOUCH/PAGE
  +--> _PAGE_CHANGE/SYS
  +--> _MUSIC_PLAY/PAGE
  +--> CLR_TOUCH/PAGE

PAGE116/PAGE                   ----- -----  945EH 9481H
  +--> _GET_TOUCH/PAGE
  +--> _MUSIC_PLAY/PAGE
  +--> _PAGE_CHANGE/SYS
  +--> _WRITE_DGUS_VP/SYS
  +--> _READ_DGUS_VP/SYS
  +--> _GET_MENU/PAGE
  +--> _DISPLAY_MENU/PAGE
  +--> CLR_TOUCH/PAGE

PAGE117/PAGE                   ----- -----  945EH 9461H
  +--> _GET_TOUCH/PAGE
  +--> _WRITE_DGUS_VP/SYS
  +--> _PAGE_CHANGE/SYS
  +--> CLR_TOUCH/PAGE

PAGE118/PAGE                   ----- -----  945EH 94A0H
  +--> _GET_TOUCH/PAGE
  +--> _READ_DGUS_VP/SYS
  +--> _WRITE_DGUS_VP/SYS
  +--> _GET_SEND/PAGE
  +--> _SEND_CONTROL/CONTROL
  +--> _MUSIC_PLAY/PAGE
  +--> _PAGE_CHANGE/SYS
  +--> STEPDATADECREASE/PAGE
  +--> STEPDATAINCREASE/PAGE
  +--> _MENUPARATRANS/PAGE
  +--> STARTMENUSTEP/PAGE
  +--> CLR_TOUCH/PAGE

STEPDATADECREASE/PAGE          ----- -----  94A1H 94B0H
  +--> _MUSIC_PLAY/PAGE
  +--> _READ_DGUS_VP/SYS
  +--> _STEPDATA/PAGE
  +--> _PAGE_CHANGE/SYS

_STEPDATA/PAGE                 ----- -----  94B1H 94C2H
  +--> _WRITE_DGUS_VP/SYS
  +--> _READ_DGUS_VP/SYS
  +--> _PAGE_CHANGE/SYS

STEPDATAINCREASE/PAGE          ----- -----  94A1H 94B0H
  +--> _READ_DGUS_VP/SYS
  +--> _STEPDATA/PAGE
  +--> _WRITE_DGUS_VP/SYS
  +--> _PAGE_CHANGE/SYS
  +--> _MUSIC_PLAY/PAGE

LX51 LINKER/LOCATER V4.66.87.0                                                        10/15/2020  10:36:21  PAGE 11


_MENUPARATRANS/PAGE            ----- -----  94A1H 94E0H
  +--> _READ_DGUS_VP/SYS
  +--> _WRITE_DGUS_VP/SYS

STARTMENUSTEP/PAGE             ----- -----  94A1H 9501H
  +--> _READ_DGUS_VP/SYS
  +--> _SEND_CONTROL/CONTROL
  +--> _MUSIC_PLAY/PAGE
  +--> _WRITE_DGUS_VP/SYS
  +--> _PAGE_CHANGE/SYS
  +--> _INCREASEICON/PAGE

_INCREASEICON/PAGE             ----- -----  9502H 9708H
  +--> NORFLASH_ACTION/SYS
  +--> _READ_DGUS_VP/SYS
  +--> _DISPLAY_MENU/PAGE

PAGE121/PAGE                   ----- -----  945EH 9465H
  +--> _GET_TOUCH/PAGE
  +--> _FUNCTION_TIME/PAGE
  +--> _FUNTION_POWER/PAGE
  +--> _FUNCTION_STIR/PAGE
  +--> _GET_SEND/PAGE
  +--> _SEND_CONTROL/CONTROL
  +--> _MUSIC_PLAY/PAGE
  +--> _PAGE_CHANGE/SYS
  +--> _WRITE_DGUS_VP/SYS
  +--> CLR_TOUCH/PAGE

PAGE125/PAGE                   ----- -----  945EH 94A0H
  +--> _GET_TOUCH/PAGE
  +--> _READ_DGUS_VP/SYS
  +--> _WRITE_DGUS_VP/SYS
  +--> _GET_SEND/PAGE
  +--> _SEND_CONTROL/CONTROL
  +--> _MUSIC_PLAY/PAGE
  +--> _PAGE_CHANGE/SYS
  +--> STEPDATADECREASE/PAGE
  +--> STEPDATAINCREASE/PAGE
  +--> _MENUPARATRANS/PAGE
  +--> STARTMENUSTEP/PAGE
  +--> CLR_TOUCH/PAGE
  +--> TIMEVARY/PAGE

PAGE126/PAGE                   ----- -----  945EH 94A0H
  +--> _GET_TOUCH/PAGE
  +--> _READ_DGUS_VP/SYS
  +--> _WRITE_DGUS_VP/SYS
  +--> _GET_SEND/PAGE
  +--> _SEND_CONTROL/CONTROL
  +--> _MUSIC_PLAY/PAGE
  +--> _PAGE_CHANGE/SYS
  +--> STEPDATADECREASE/PAGE
  +--> STEPDATAINCREASE/PAGE
  +--> _MENUPARATRANS/PAGE
  +--> STARTMENUSTEP/PAGE
  +--> CLR_TOUCH/PAGE

PAGE127/PAGE                   ----- -----  945EH 94A0H
  +--> _GET_TOUCH/PAGE
  +--> _READ_DGUS_VP/SYS
  +--> _WRITE_DGUS_VP/SYS
  +--> _GET_SEND/PAGE
  +--> _SEND_CONTROL/CONTROL
  +--> _MUSIC_PLAY/PAGE
LX51 LINKER/LOCATER V4.66.87.0                                                        10/15/2020  10:36:21  PAGE 12


  +--> _PAGE_CHANGE/SYS
  +--> STEPDATADECREASE/PAGE
  +--> STEPDATAINCREASE/PAGE
  +--> _MENUPARATRANS/PAGE
  +--> STARTMENUSTEP/PAGE
  +--> CLR_TOUCH/PAGE

PAGE128/PAGE                   ----- -----  945EH 94A0H
  +--> _GET_TOUCH/PAGE
  +--> _READ_DGUS_VP/SYS
  +--> _WRITE_DGUS_VP/SYS
  +--> _GET_SEND/PAGE
  +--> _SEND_CONTROL/CONTROL
  +--> _MUSIC_PLAY/PAGE
  +--> _PAGE_CHANGE/SYS
  +--> STEPDATADECREASE/PAGE
  +--> STEPDATAINCREASE/PAGE
  +--> _MENUPARATRANS/PAGE
  +--> STARTMENUSTEP/PAGE
  +--> CLR_TOUCH/PAGE

PAGE129/PAGE                   ----- -----  945EH 9470H
  +--> _MUSIC_PLAY/PAGE
  +--> _READ_DGUS_VP/SYS
  +--> _WRITE_DGUS_VP/SYS
  +--> _PAGE_CHANGE/SYS
  +--> _GET_TOUCH/PAGE
  +--> INIT_PARA/PAGE
  +--> PAGE_BACK/PAGE
  +--> SEND_STOP/CONTROL
  +--> CLR_TOUCH/PAGE

PAGE_BACK/PAGE                 ----- -----  9471H 9480H
  +--> _READ_DGUS_VP/SYS
  +--> _PAGE_CHANGE/SYS

SEND_STOP/CONTROL              ----- -----  ----- -----

PAGE130/PAGE                   ----- -----  945EH 946DH
  +--> _GET_TOUCH/PAGE
  +--> _FUNCTION_TIME/PAGE
  +--> _FUNTION_POWER/PAGE
  +--> _FUNCTION_STIR/PAGE
  +--> _GET_SEND/PAGE
  +--> _SEND_CONTROL/CONTROL
  +--> _MUSIC_PLAY/PAGE
  +--> _PAGE_CHANGE/SYS
  +--> _WRITE_DGUS_VP/SYS
  +--> INIT_PARA/PAGE
  +--> PAGE_BACK/PAGE
  +--> CLR_TOUCH/PAGE

PAGE131/PAGE                   ----- -----  945EH 9469H
  +--> _GET_TOUCH/PAGE
  +--> INIT_PARA/PAGE
  +--> PAGE_BACK/PAGE
  +--> CLR_TOUCH/PAGE
  +--> _WRITE_DGUS_VP/SYS
  +--> _READ_DGUS_VP/SYS

PAGE132/PAGE                   ----- -----  945EH 9465H
  +--> _GET_TOUCH/PAGE
  +--> SEND_PAIQI/CONTROL
  +--> _WRITE_DGUS_VP/SYS
  +--> CLR_TOUCH/PAGE
LX51 LINKER/LOCATER V4.66.87.0                                                        10/15/2020  10:36:21  PAGE 13



SEND_PAIQI/CONTROL             ----- -----  ----- -----

PAGE134/PAGE                   ----- -----  945EH 9465H
  +--> _GET_TOUCH/PAGE
  +--> CALIBRATION_3KG/WEIGHT
  +--> _PAGE_CHANGE/SYS
  +--> CLR_TOUCH/PAGE

CALIBRATION_3KG/WEIGHT         ----- -----  ----- -----
  +--> _UATR_SEND_DATA/UART

_UATR_SEND_DATA/UART           ----- -----  9469H 946DH

PAGE136/PAGE                   ----- -----  945EH 946DH
  +--> _GET_TOUCH/PAGE
  +--> STEPDATADECREASE/PAGE
  +--> STEPDATAINCREASE/PAGE
  +--> _MUSIC_PLAY/PAGE
  +--> STARTMENUSTEP/PAGE
  +--> _MENUPARATRANS/PAGE
  +--> _PAGE_CHANGE/SYS
  +--> CLR_TOUCH/PAGE

PAGE141/PAGE                   ----- -----  945EH 9472H
  +--> _WRITE_DGUS_VP/SYS
  +--> _PAGE_CHANGE/SYS
  +--> _MUSIC_PLAY/PAGE
  +--> _READ_DGUS_VP/SYS
  +--> _GET_TOUCH/PAGE
  +--> SEND_STOP/CONTROL
  +--> CLR_TOUCH/PAGE

PAGE143/PAGE                   ----- -----  945EH 9465H
  +--> _GET_TOUCH/PAGE
  +--> _MUSIC_PLAY/PAGE
  +--> _READ_DGUS_VP/SYS
  +--> _STEPDATA/PAGE
  +--> _PAGE_CHANGE/SYS
  +--> CLR_TOUCH/PAGE

PAGE145/PAGE                   ----- -----  945EH 9465H
  +--> _GET_TOUCH/PAGE
  +--> _WRITE_DGUS_VP/SYS
  +--> SEND_STOP/CONTROL
  +--> _READ_DGUS_VP/SYS
  +--> _SEND_TEST/CONTROL
  +--> _PAGE_CHANGE/SYS
  +--> CLR_TOUCH/PAGE

_SEND_TEST/CONTROL             ----- -----  ----- -----

PAGE148/PAGE                   ----- -----  945EH 947DH
  +--> _GET_TOUCH/PAGE
  +--> _MUSIC_PLAY/PAGE
  +--> _PAGE_CHANGE/SYS
  +--> CLR_TOUCH/PAGE

PAGE149/PAGE                   ----- -----  945EH 947EH
  +--> _GET_TOUCH/PAGE
  +--> _WRITE_DGUS_VP/SYS
  +--> CLR_TOUCH/PAGE
  +--> NORFLASH_ACTION/SYS

PAGE150/PAGE                   ----- -----  945EH 946FH
LX51 LINKER/LOCATER V4.66.87.0                                                        10/15/2020  10:36:21  PAGE 14


  +--> _GET_TOUCH/PAGE
  +--> _READ_DGUS_VP/SYS
  +--> _WRITE_DGUS_VP/SYS
  +--> _PAGE_CHANGE/SYS
  +--> CLR_TOUCH/PAGE

PAGE151/PAGE                   ----- -----  945EH 946FH
  +--> _GET_TOUCH/PAGE
  +--> _PAGE_CHANGE/SYS
  +--> CLR_TOUCH/PAGE
  +--> _WRITE_DGUS_VP/SYS
  +--> _GET_SEND/PAGE
  +--> _SEND_CONTROL/CONTROL
  +--> _MUSIC_PLAY/PAGE

GETPAGEID/SYS                  ----- -----  9463H 9464H
  +--> _READ_DGUS_VP/SYS

KEY_ACTION/KEY                 ----- -----  9459H 947BH
  +--> _WRITE_DGUS_VP/SYS
  +--> _PAGE_CHANGE/SYS

_PWEIGHTPAGE/KEY               ----- -----  947CH 947CH
  +--> _MUSIC_PLAY/PAGE
  +--> _PAGE_CHANGE/SYS

_PPOWERPAGE/KEY                ----- -----  947CH 947FH
  +--> _PAGE_CHANGE/SYS
  +--> _WRITE_DGUS_VP/SYS
  +--> _MUSIC_PLAY/PAGE
  +--> _READ_DGUS_VP/SYS

_PMAINPAGE/KEY                 ----- -----  947CH 947EH
  +--> _MUSIC_PLAY/PAGE
  +--> _PAGE_CHANGE/SYS
  +--> _WRITE_DGUS_VP/SYS

_PMOREPAGE/KEY                 ----- -----  947CH 9484H
  +--> _MUSIC_PLAY/PAGE
  +--> _READ_DGUS_VP/SYS
  +--> _PAGE_CHANGE/SYS

CONTROL_ACTION/CONTROL         ----- -----  ----- -----
  +--> _CALCULATE_CRC16/CONTROL
  +--> _UATR_SEND_DATA/UART
  +--> GETCODE/CONTROL

_CALCULATE_CRC16/CONTROL       ----- -----  9459H 945FH

GETCODE/CONTROL                ----- -----  ----- -----

GET_WEIGHT/WEIGHT              ----- -----  9459H 9468H
  +--> _UATR_SEND_DATA/UART
  +--> _WRITE_DGUS_VP/SYS

CONTROL_ERROR/CONTROL          ----- -----  ----- -----

WEIGHT_ERROR/WEIGHT            ----- -----  ----- -----

PAGE_POS/PAGE                  ----- -----  9459H 9462H
  +--> _READ_DGUS_VP/SYS
  +--> GETPAGEID/SYS
  +--> _WRITE_DGUS_VP/SYS
  +--> _DISPLAY_MENU/PAGE
  +--> DISPLAY_TXT/PAGE
LX51 LINKER/LOCATER V4.66.87.0                                                        10/15/2020  10:36:21  PAGE 15


  +--> _DISPLAYMENUDIRECT/PAGE
  +--> SETPAGEDISPLAY/PAGE
  +--> _DISPLAYHMENUDIRECT/PAGE

DISPLAY_TXT/PAGE               ----- -----  947CH 9482H
  +--> _WRITE_DGUS_VP/SYS

_DISPLAYMENUDIRECT/PAGE        ----- -----  9463H 946FH
  +--> _WRITE_DGUS_VP/SYS

PAGETOUCH/PAGE                 ----- -----  ----- -----
  +--> P99TOUCH/PAGE
  +--> P116TOUCH/PAGE
  +--> P117TOUCH/PAGE
  +--> P120TOUCH/PAGE
  +--> P133TOUCH/PAGE
  +--> P148TOUCH/PAGE

P99TOUCH/PAGE                  ----- -----  9459H 945BH
  +--> _PAGE_TOUCHJUDGE/PAGE
  +--> P99_HSLIDE/PAGE

_PAGE_TOUCHJUDGE/PAGE          ----- -----  945CH 945CH

P99_HSLIDE/PAGE                ----- -----  ----- -----

P116TOUCH/PAGE                 ----- -----  ----- -----
  +--> _PAGE_TOUCHJUDGE/PAGE
  +--> P116_TOUCH/PAGE
  +--> _P116_HSLIDE/PAGE
  +--> _MENUAUTOSLIDEACTION/PAGE

P116_TOUCH/PAGE                ----- -----  9459H 9473H
  +--> _MUSIC_PLAY/PAGE
  +--> NORFLASH_ACTION/SYS
  +--> _WRITE_DGUS_VP/SYS
  +--> GET_TXT/PAGE
  +--> DISPLAY_TXT/PAGE
  +--> _PAGE_CHANGE/SYS

GET_TXT/PAGE                   ----- -----  9474H 94B9H
  +--> SPIFLASH_ACTION/SYS
  +--> _WRITE_DGUS_VP/SYS
  +--> _READ_DGUS_VP/SYS

_P116_HSLIDE/PAGE              ----- -----  9459H 9459H

_MENUAUTOSLIDEACTION/PAGE      ----- -----  ----- -----

P117TOUCH/PAGE                 ----- -----  ----- -----
  +--> _PAGE_TOUCHJUDGE/PAGE
  +--> P117_TOUCH/PAGE
  +--> _P116_HSLIDE/PAGE
  +--> _MENUAUTOSLIDEACTION/PAGE

P117_TOUCH/PAGE                ----- -----  9459H 945BH
  +--> NORFLASH_ACTION/SYS

P120TOUCH/PAGE                 ----- -----  ----- -----
  +--> _PAGE_TOUCHJUDGE/PAGE
  +--> P120_TOUCH/PAGE
  +--> P120_HSLIDE/PAGE
  +--> P120_VSLIDE/PAGE

P120_TOUCH/PAGE                ----- -----  9459H 9461H
LX51 LINKER/LOCATER V4.66.87.0                                                        10/15/2020  10:36:21  PAGE 16


  +--> _READ_DGUS_VP/SYS
  +--> _WRITE_DGUS_VP/SYS
  +--> _PAGE_CHANGE/SYS
  +--> NORFLASH_ACTION/SYS

P120_HSLIDE/PAGE               ----- -----  ----- -----

P120_VSLIDE/PAGE               ----- -----  9459H 9460H
  +--> _WRITE_DGUS_VP/SYS
  +--> _READ_DGUS_VP/SYS
  +--> NORFLASH_ACTION/SYS

P133TOUCH/PAGE                 ----- -----  9459H 945BH
  +--> _PAGE_TOUCHJUDGE/PAGE

P148TOUCH/PAGE                 ----- -----  9459H 9459H
  +--> _PAGE_TOUCHJUDGE/PAGE
  +--> P148_TOUCH/PAGE
  +--> P148_HSLIDE/PAGE
  +--> TXTAUTOSLIDEACTION/PAGE
  +--> _INCREASEICON/PAGE

P148_TOUCH/PAGE                ----- -----  945AH 947BH
  +--> _MUSIC_PLAY/PAGE
  +--> _READ_DGUS_VP/SYS
  +--> _WRITE_DGUS_VP/SYS
  +--> NORFLASH_ACTION/SYS
  +--> _INCREASEICON/PAGE
  +--> _DECREASEICON/PAGE
  +--> _PAGE_CHANGE/SYS
  +--> GET_MENUALLPARA/PAGE
  +--> DISPLAY_TXT/PAGE

_DECREASEICON/PAGE             ----- -----  947CH 9682H
  +--> NORFLASH_ACTION/SYS
  +--> _READ_DGUS_VP/SYS
  +--> _DISPLAY_MENU/PAGE

GET_MENUALLPARA/PAGE           ----- -----  947CH 947FH
  +--> SPIFLASH_ACTION/SYS
  +--> _WRITE_DGUS_VP/SYS
  +--> _STEPDATA/PAGE

P148_HSLIDE/PAGE               ----- -----  ----- -----

TXTAUTOSLIDEACTION/PAGE        ----- -----  ----- -----

WEIGHT_RECEIVE/WEIGHT          ----- -----  9459H 9460H
  +--> _WRITE_DGUS_VP/SYS
  +--> _GETWEIGHTVALUE/WEIGHT
  +--> _UATR_SEND_DATA/UART

_GETWEIGHTVALUE/WEIGHT         ----- -----  9461H 946BH

CONTROL_RECEIVE/CONTROL        ----- -----  ----- -----
  +--> _CALCULATE_CRC16/CONTROL
  +--> PRO_0X11/CONTROL
  +--> PRO_0X12/CONTROL
  +--> PRO_0X13/CONTROL

PRO_0X11/CONTROL               ----- -----  9459H 947CH
  +--> _WRITE_DGUS_VP/SYS
  +--> SEND_HEART/CONTROL

SEND_HEART/CONTROL             ----- -----  ----- -----
LX51 LINKER/LOCATER V4.66.87.0                                                        10/15/2020  10:36:21  PAGE 17



PRO_0X12/CONTROL               ----- -----  9459H 945CH
  +--> _WRITE_DGUS_VP/SYS

PRO_0X13/CONTROL               ----- -----  9459H 9478H
  +--> _WRITE_DGUS_VP/SYS



PUBLIC SYMBOLS OF MODULE:  .\Objects\T5L51 (STARTUP_M5)


      VALUE       CLASS    TYPE      PUBLIC SYMBOL NAME
      =================================================
      02009680H   XDATA    BYTE      ?_CompareText?BYTE
      02009711H   XDATA    BYTE      ?_read_dgus_vp?BYTE
      02009869H   XDATA    BYTE      ?_TouchSwitch?BYTE
      0200971AH   XDATA    BYTE      ?_write_dgus_vp?BYTE
      01004F8DH   CODE     ---       ?C?CCASE
      01004BEAH   CODE     ---       ?C?CLDOPTR
      01004BD1H   CODE     ---       ?C?CLDPTR
      00000000H   NUMBER   ---       ?C?CODESEG
      01004C29H   CODE     ---       ?C?CSTOPTR
      01004C17H   CODE     ---       ?C?CSTPTR
      01004FB3H   CODE     ---       ?C?ICALL
      01004FB7H   CODE     ---       ?C?ICALL2
      01004D63H   CODE     ---       ?C?IILDOPTR
      01004D2BH   CODE     ---       ?C?IILDPTR
      01004FE6H   CODE     ---       ?C?IILDX
      01004CB2H   CODE     ---       ?C?ILDIX
      01004CF3H   CODE     ---       ?C?ILDOPTR
      01004CC8H   CODE     ---       ?C?ILDPTR
      01004C4BH   CODE     ---       ?C?IMUL
      01004DCFH   CODE     ---       ?C?ISTOPTR
      01004DB0H   CODE     ---       ?C?ISTPTR
      01004FB9H   CODE     ---       ?C?LIMUL
      01004DFCH   CODE     ---       ?C?LMUL
      01004F3DH   CODE     ---       ?C?LSHL
      01004F5CH   CODE     ---       ?C?LSTKXDATA
      01004F50H   CODE     ---       ?C?LSTXDATA
      01004C5DH   CODE     ---       ?C?UIDIV
      01004F19H   CODE     ---       ?C?ULCMP
      01004E87H   CODE     ---       ?C?ULDIV
      01004F2AH   CODE     ---       ?C?ULSHR
      00000000H   NUMBER   ---       ?C?XDATASEG
      0100C0B5H   CODE     ---       ?C_START
      01000000H   CODE     ---       ?C_STARTUP
      0100BBD6H   CODE     ---       _Calculate_CRC16
      0100C61AH   CODE     ---       _CompareText
      010065E2H   CODE     ---       _DecreaseIcon
      0100CA0BH   CODE     ---       _delay_ms
      0100CF52H   CODE     ---       _delay_us
      0100568CH   CODE     ---       _Display_Menu
      010092CDH   CODE     ---       _DisplayHMenuDirect
      01009581H   CODE     ---       _DisplayMenuDirect
      0100B74BH   CODE     ---       _Function_Stir
      0100B681H   CODE     ---       _Function_Time
      0100A6FFH   CODE     ---       _Funtion_Power
      0100AC01H   CODE     ---       _Get_Menu
      010072FAH   CODE     ---       _Get_Send
      0100CE7DH   CODE     ---       _Get_Touch
      0100ACF5H   CODE     ---       _GetHMenuDirect
      0100A5EFH   CODE     ---       _GetMenuDirect
      0100C82DH   CODE     ---       _GetPinIn
      0100CF67H   CODE     ---       _GetTimeOutFlag
LX51 LINKER/LOCATER V4.66.87.0                                                        10/15/2020  10:36:21  PAGE 18


      0100B4E2H   CODE     ---       _GetWeightValue
      01005EC1H   CODE     ---       _IncreaseIcon
      0100CECFH   CODE     ---       _KillTimer
      0100869CH   CODE     ---       _MenuAutoSlideAction
      01007D47H   CODE     ---       _MenuParaTrans
      0100C41EH   CODE     ---       _Music_Play
      0100CD89H   CODE     ---       _MusicDirectPlay
      0100AFB5H   CODE     ---       _P116_HSlide
      0100C1BEH   CODE     ---       _Page_Change
      01006EBAH   CODE     ---       _Page_TouchJudge
      0100D384H   CONST    ---       _pagekey
      01009BE1H   CODE     ---       _ParaTrans
      0100BF06H   CODE     ---       _PinOutput
      0100B80FH   CODE     ---       _PMainPage
      01006A64H   CODE     ---       _PMorePage
      0100A2BEH   CODE     ---       _PPowerPage
      01008122H   CODE     ---       _PWeightPage
      0100830CH   CODE     ---       _read_dgus_vp
      01006833H   CODE     ---       _Search_Menu
      01009AA2H   CODE     ---       _Send_Control
      0100C882H   CODE     ---       _Send_Test
      0100C92BH   CODE     ---       _SetPinIn
      0100CA53H   CODE     ---       _SetPinOut
      0100CCB5H   CODE     ---       _StartTimer
      01007F3AH   CODE     ---       _StepData
      0100C8D7H   CODE     ---       _TouchSwitch
      0100C677H   CODE     ---       _UART2_Init
      0100C7D7H   CODE     ---       _UART3_Init
      0100CCEAH   CODE     ---       _UART4_Init
      0100CD1FH   CODE     ---       _UART5_Init
      0100A1A8H   CODE     ---       _Uatr_Send_Data
      01007962H   CODE     ---       _write_dgus_vp
*SFR* 000000D0H.6 DATA     BIT       AC
*SFR* 000000E0H   DATA     BYTE      ACC
*SFR* 000000D8H   DATA     BYTE      ADCON
*SFR* 000000F1H   DATA     BYTE      ADR_H
*SFR* 000000F4H   DATA     BYTE      ADR_INC
*SFR* 000000F3H   DATA     BYTE      ADR_L
*SFR* 000000F2H   DATA     BYTE      ADR_M
      0100CFF6H   CONST    ---       allpage
*SFR* 000000F8H.4 DATA     BIT       APP_ACK
*SFR* 000000F8H.6 DATA     BIT       APP_EN
*SFR* 000000F8H.7 DATA     BIT       APP_REQ
*SFR* 000000F8H.5 DATA     BIT       APP_RW
      0100D2AEH   CONST    ---       Appontment
*SFR* 000000EFH   DATA     BYTE      ARCON
*SFR* 000000F0H   DATA     BYTE      B
*SFR* 000000D8H.7 DATA     BIT       BD
*SFR* 000000D9H   DATA     BYTE      BODE2_DIV_H
*SFR* 000000E7H   DATA     BYTE      BODE2_DIV_L
*SFR* 000000AEH   DATA     BYTE      BODE3_DIV_H
*SFR* 000000AFH   DATA     BYTE      BODE3_DIV_L
      0100CFD6H   CODE     ---       Calibration_3Kg
*SFR* 0000008FH   DATA     BYTE      CAN_CR
*SFR* 000000E8H   DATA     BYTE      CAN_ET
*SFR* 00000091H   DATA     BYTE      CAN_IR
*SFR* 000000C1H   DATA     BYTE      CCEN
*SFR* 000000C3H   DATA     BYTE      CCH1
*SFR* 000000C5H   DATA     BYTE      CCH2
*SFR* 000000C7H   DATA     BYTE      CCH3
*SFR* 000000C2H   DATA     BYTE      CCL1
*SFR* 000000C4H   DATA     BYTE      CCL2
*SFR* 000000C6H   DATA     BYTE      CCL3
      020097A1H   XDATA    BYTE      CError
      0100D37FH   CONST    ---       change_weight
LX51 LINKER/LOCATER V4.66.87.0                                                        10/15/2020  10:36:21  PAGE 19


*SFR* 0000008EH   DATA     BYTE      CKCON
      0100CEF3H   CODE     ---       Clr_Touch
      020097A6H   XDATA    BYTE      CodeReady
      0100C2BAH   CODE     ---       Control_Action
      0100CF92H   CODE     ---       Control_Error
      0100CC3CH   CODE     ---       Control_Init
      0100B8D8H   CODE     ---       Control_Receive
      02008001H   XDATA    DWORD     Cook_Time
      02008B73H   XDATA    DWORD     CookTimeDownCnt
      0100D2BDH   CONST    ---       Cover
*SFR* 000000D0H.7 DATA     BIT       CY
*SFR* 00000095H   DATA     BYTE      D_PAGESEL
*SFR* 000000FDH   DATA     BYTE      DATA0
*SFR* 000000FCH   DATA     BYTE      DATA1
*SFR* 000000FBH   DATA     BYTE      DATA2
*SFR* 000000FAH   DATA     BYTE      DATA3
      0100D272H   CONST    ---       Default_Para
      01004332H   CODE     ---       Display_TXT
      020086B9H   XDATA    ---       DisplayHeader
      02008B8BH   XDATA    ---       DisplayIcon
      02008B6EH   XDATA    ---       DisplayTXT
*SFR* 000000E6H   DATA     BYTE      DIV_MODE
*SFR* 000000B1H   DATA     BYTE      DMAC0
*SFR* 000000B2H   DATA     BYTE      DMAC1
*SFR* 000000B3H   DATA     BYTE      DMAC2
*SFR* 000000B5H   DATA     BYTE      DMAM0
*SFR* 000000B6H   DATA     BYTE      DMAM1
*SFR* 000000A1H   DATA     BYTE      DMAS0
*SFR* 000000A2H   DATA     BYTE      DMAS1
*SFR* 000000A3H   DATA     BYTE      DMAS2
*SFR* 000000B4H   DATA     BYTE      DMASEL
*SFR* 000000A4H   DATA     BYTE      DMAT0
*SFR* 000000A5H   DATA     BYTE      DMAT1
*SFR* 000000A6H   DATA     BYTE      DMAT2
*SFR* 00000093H   DATA     BYTE      DPC
*SFR* 00000083H   DATA     BYTE      DPH
*SFR* 00000085H   DATA     BYTE      DPH1
*SFR* 00000082H   DATA     BYTE      DPL
*SFR* 00000084H   DATA     BYTE      DPL1
*SFR* 00000092H   DATA     BYTE      DPSEL
*SFR* 000000A8H.7 DATA     BIT       EA
*SFR* 000000B8H.1 DATA     BIT       ECAN
      020097DCH   XDATA    BYTE      EnablePWM
      020097E1H   XDATA    BYTE      EnableTimer
      02009779H   XDATA    BYTE      error_code
      02009887H   XDATA    BYTE      ErrorBackup
      02009885H   XDATA    WORD      ErrorCnt
      0100638CH   CODE     ---       ErrorDisplay
      0100CFB8H   CODE     ---       ErrorInit
      02008498H   XDATA    BYTE      ErrPageBack
*SFR* 000000A8H.4 DATA     BIT       ES0
*SFR* 000000B8H.3 DATA     BIT       ES2R
*SFR* 000000B8H.2 DATA     BIT       ES2T
*SFR* 000000B8H.5 DATA     BIT       ES3R
*SFR* 000000B8H.4 DATA     BIT       ES3T
*SFR* 000000A8H.1 DATA     BIT       ET0
*SFR* 000000A8H.3 DATA     BIT       ET1
*SFR* 000000A8H.5 DATA     BIT       ET2
*SFR* 000000A8H.0 DATA     BIT       EX0
*SFR* 000000A8H.2 DATA     BIT       EX1
*SFR* 000000B8H.0 DATA     BIT       EX7
*SFR* 000000FEH   DATA     BYTE      EXADR
*SFR* 000000FFH   DATA     BYTE      EXDATA
*SFR* 000000B8H.7 DATA     BIT       EXEN2
*SFR* 000000C0H.7 DATA     BIT       EXF2
LX51 LINKER/LOCATER V4.66.87.0                                                        10/15/2020  10:36:21  PAGE 20


*SFR* 000000D0H.5 DATA     BIT       F0
*SFR* 000000D0H.1 DATA     BIT       F1
      02009852H   XDATA    ---       Flick_Enable
      02009841H   XDATA    ---       Flick_Now
      02009865H   XDATA    ---       Flick_Num
      0200972EH   XDATA    BYTE      FunctionNow
      0100D254H   CONST    ---       FunctionType
      0100D263H   CONST    ---       gaizi
      02009734H   XDATA    BYTE      gaizi_error
      02008953H   XDATA    BYTE      gaizi_type
      0100B411H   CODE     ---       Get_MenuAllPara
      01000103H   CODE     ---       Get_TXT
      0100C23CH   CODE     ---       Get_Weight
      0100CF32H   CODE     ---       GetCode
      0100CF16H   CODE     ---       GetPageID
      02009735H   XDATA    ---       GuoCode
*SFR* 000000DBH   DATA     BYTE      I2CADR
*SFR* 000000DCH   DATA     BYTE      I2CCON
*SFR* 000000DAH   DATA     BYTE      I2CDAT
*SFR* 000000DDH   DATA     BYTE      I2CSTA
*SFR* 000000C8H.5 DATA     BIT       I2FR
*SFR* 000000C8H.6 DATA     BIT       I3FR
*SFR* 000000C0H.0 DATA     BIT       IADC
      02008266H   XDATA    ---       IconPara
      02008958H   XDATA    ---       IconParaTmp
      0100D245H   CONST    ---       IconType
*SFR* 00000088H.1 DATA     BIT       IE0
*SFR* 00000088H.3 DATA     BIT       IE1
*SFR* 000000A8H   DATA     BYTE      IEN0
*SFR* 000000B8H   DATA     BYTE      IEN1
*SFR* 0000009AH   DATA     BYTE      IEN2
*SFR* 000000D1H   DATA     BYTE      IEN4
*SFR* 000000C0H.1 DATA     BIT       IEX2
*SFR* 000000C0H.2 DATA     BIT       IEX3
*SFR* 000000C0H.3 DATA     BIT       IEX4
*SFR* 000000C0H.4 DATA     BIT       IEX5
*SFR* 000000C0H.5 DATA     BIT       IEX6
      0100CEA8H   CODE     ---       INIT_CPU
      0100AB0CH   CODE     ---       Init_Para
      02008B66H   XDATA    WORD      init_weight_all_time
      020086C2H   XDATA    BYTE      init_weight_count
      02008B8FH   XDATA    BYTE      init_weight_enable
*SFR* 000000A9H   DATA     BYTE      IP0
*SFR* 000000B9H   DATA     BYTE      IP1
*SFR* 000000C0H   DATA     BYTE      IRCON
*SFR* 000000BFH   DATA     BYTE      IRCON2
*SFR* 000000F5H   DATA     BYTE      ISCHEADER2
*SFR* 000000F6H   DATA     BYTE      ISCHEADER3
*SFR* 00000088H.0 DATA     BIT       IT0
*SFR* 00000088H.2 DATA     BIT       IT1
*SFR* 00000090H.2 DATA     BIT       key1
      020097A9H   XDATA    BYTE      Key1Cnt
*SFR* 00000090H.3 DATA     BIT       key2
      020097AAH   XDATA    BYTE      Key2Cnt
*SFR* 00000090H.4 DATA     BIT       key3
      020097ABH   XDATA    BYTE      Key3Cnt
*SFR* 00000090H.5 DATA     BIT       key4
      01007B4CH   CODE     ---       Key_Action
      0200985EH   XDATA    ---       Key_Enable
      0100BC8CH   CODE     ---       Key_Init
      02009846H   XDATA    ---       Key_Touch_Time
      0200984AH   XDATA    ---       Key_Value
      020097A4H   XDATA    BYTE      Load_State
*SFR* 000000E5H   DATA     BYTE      MAC_MODE
      0100C0B5H   CODE     ---       main
LX51 LINKER/LOCATER V4.66.87.0                                                        10/15/2020  10:36:21  PAGE 21


      0100D34DH   CONST    ---       ManualMusicType
*SFR* 000000E9H   DATA     BYTE      MD0
*SFR* 000000EAH   DATA     BYTE      MD1
*SFR* 000000EBH   DATA     BYTE      MD2
*SFR* 000000ECH   DATA     BYTE      MD3
*SFR* 000000EDH   DATA     BYTE      MD4
*SFR* 000000EEH   DATA     BYTE      MD5
      0200972FH   XDATA    DWORD     Menu_Time
      02008B7BH   XDATA    ---       MenuHeader
      02008484H   XDATA    ---       MenuHeaderTmp
      0100D2FDH   CONST    ---       MenuMFunction
      0100D325H   CONST    ---       MenuMusicType
      02008704H   XDATA    BYTE      mFunction
      0100C6D2H   CODE     ---       MusicAnction
      0200981EH   XDATA    ---       MusicBuf
      02008699H   XDATA    ---       MusicList
*SFR* 000000C9H   DATA     BYTE      MUX_SEL
      02009812H   XDATA    ---       Nor_Flash
      0100A909H   CODE     ---       NorFlash_Action
      020097DFH   XDATA    BYTE      OutTimeFlag
*SFR* 000000D0H.2 DATA     BIT       OV
*SFR* 000000D0H.0 DATA     BIT       P
*SFR* 00000080H   DATA     BYTE      P0
*SFR* 00000080H.0 DATA     BIT       P00
*SFR* 00000080H.1 DATA     BIT       P01
*SFR* 00000080H.2 DATA     BIT       P02
*SFR* 00000080H.3 DATA     BIT       P03
*SFR* 00000080H.4 DATA     BIT       P04
*SFR* 00000080H.5 DATA     BIT       P05
*SFR* 00000080H.6 DATA     BIT       P06
*SFR* 00000080H.7 DATA     BIT       P07
*SFR* 000000B7H   DATA     BYTE      P0MDOUT
*SFR* 00000090H   DATA     BYTE      P1
*SFR* 00000090H.0 DATA     BIT       P10
*SFR* 00000090H.1 DATA     BIT       P11
      01005995H   CODE     ---       P116_Touch
      0100B182H   CODE     ---       P116Touch
      01007515H   CODE     ---       P117_Touch
      0100B25FH   CODE     ---       P117Touch
*SFR* 00000090H.2 DATA     BIT       P12
      0100C5BAH   CODE     ---       P120_HSlide
      01004FFCH   CODE     ---       P120_Touch
      01005C33H   CODE     ---       P120_VSlide
      0100C13EH   CODE     ---       P120Touch
*SFR* 00000090H.3 DATA     BIT       P13
      0100BB1EH   CODE     ---       P133_HSlide
      0100A084H   CODE     ---       P133Touch
*SFR* 00000090H.4 DATA     BIT       P14
      0100BF99H   CODE     ---       P148_HSlide
      010070DBH   CODE     ---       P148_Touch
      0100B5B0H   CODE     ---       P148Touch
*SFR* 00000090H.5 DATA     BIT       P15
*SFR* 00000090H.6 DATA     BIT       P16
*SFR* 00000090H.7 DATA     BIT       P17
*SFR* 000000BCH   DATA     BYTE      P1MDOUT
*SFR* 000000A0H   DATA     BYTE      P2
*SFR* 000000A0H.0 DATA     BIT       P20
*SFR* 000000A0H.1 DATA     BIT       P21
*SFR* 000000A0H.2 DATA     BIT       P22
*SFR* 000000A0H.3 DATA     BIT       P23
*SFR* 000000A0H.4 DATA     BIT       P24
*SFR* 000000A0H.5 DATA     BIT       P25
*SFR* 000000A0H.6 DATA     BIT       P26
*SFR* 000000A0H.7 DATA     BIT       P27
*SFR* 000000BDH   DATA     BYTE      P2MDOUT
LX51 LINKER/LOCATER V4.66.87.0                                                        10/15/2020  10:36:21  PAGE 22


*SFR* 000000B0H   DATA     BYTE      P3
*SFR* 000000B0H.0 DATA     BIT       P30
*SFR* 000000B0H.1 DATA     BIT       P31
*SFR* 000000B0H.2 DATA     BIT       P32
*SFR* 000000B0H.3 DATA     BIT       P33
*SFR* 000000B0H.4 DATA     BIT       P34
*SFR* 000000B0H.5 DATA     BIT       P35
*SFR* 000000B0H.6 DATA     BIT       P36
*SFR* 000000B0H.7 DATA     BIT       P37
*SFR* 000000BEH   DATA     BYTE      P3MDOUT
      0100BA66H   CODE     ---       P99_HSlide
      01009D0FH   CODE     ---       P99Touch
      0100CFC8H   CODE     ---       Page0
      010084CEH   CODE     ---       Page100
      01009F60H   CODE     ---       Page101
      0100A3D3H   CODE     ---       Page102
      0100A801H   CODE     ---       Page103
      01008BF6H   CODE     ---       Page104
      0100B33CH   CODE     ---       Page112
      0100ADE4H   CODE     ---       Page113
      01008F6DH   CODE     ---       Page114
      0100BD37H   CODE     ---       Page115
      0100772EH   CODE     ---       Page116
      0100CB70H   CODE     ---       Page117
      01003963H   CODE     ---       Page118
      0100AECDH   CODE     ---       Page121
      010026E6H   CODE     ---       Page125
      01002E7FH   CODE     ---       Page126
      010033F1H   CODE     ---       Page127
      01003E73H   CODE     ---       Page128
      01001528H   CODE     ---       Page129
      0100981AH   CODE     ---       Page130
      01008DB2H   CODE     ---       Page131
      0100C480H   CODE     ---       Page132
      0100CD54H   CODE     ---       Page134
      0100B99FH   CODE     ---       Page136
      01001EBEH   CODE     ---       Page141
      0100C729H   CODE     ---       Page143
      0100995FH   CODE     ---       Page145
      0100C780H   CODE     ---       Page148
      0100BDD7H   CODE     ---       Page149
      0100A4E2H   CODE     ---       Page150
      01008867H   CODE     ---       Page151
      0100CFA6H   CODE     ---       Page74
      0100CDBDH   CODE     ---       Page88
      0100AA0BH   CODE     ---       Page_Action
      0100C3A1H   CODE     ---       Page_Back
      01008A31H   CODE     ---       page_init
      01004781H   CODE     ---       Page_Pos
*SFR* 00000094H   DATA     BYTE      PAGESEL
      0100C9C1H   CODE     ---       PageTouch
      02009858H   XDATA    BYTE      PageToWeight
      020097A8H   XDATA    BYTE      PaiPressure
      0200972DH   XDATA    BYTE      PaiqiStatus
      0200984FH   XDATA    WORD      PclibCnt
      02009857H   XDATA    BYTE      PclibEn
      02009863H   XDATA    BYTE      PclibSeria
*SFR* 00000087H   DATA     BYTE      PCON
      0200987FH   XDATA    BYTE      Peel_Count
      02009878H   XDATA    BYTE      Peel_Enable
      0100D375H   CONST    ---       peel_pro
      0200985DH   XDATA    BYTE      PMainBack
      0200800DH   XDATA    BYTE      Pmenu
      02009864H   XDATA    BYTE      PmenuWeight
      02009862H   XDATA    BYTE      PMoreBack
LX51 LINKER/LOCATER V4.66.87.0                                                        10/15/2020  10:36:21  PAGE 23


*SFR* 000000F9H   DATA     BYTE      PORTDRV
      0100D1CDH   CONST    ---       PowerLimit
      02009851H   XDATA    BYTE      PowerState
      01005358H   CODE     ---       Pro_0x11
      0100BE6FH   CODE     ---       Pro_0x12
      0100CC7CH   CODE     ---       Pro_0x13
*SFR* 000000D0H   DATA     BYTE      PSW
      0200985AH   XDATA    WORD      PtestCnt
      0200985CH   XDATA    BYTE      PtestEn
      02009859H   XDATA    BYTE      PWeightBack
      02009845H   XDATA    BYTE      PweithtMenu
      020097CCH   XDATA    ---       PWMLow
      020097C4H   XDATA    ---       PWMPin
      020097BCH   XDATA    ---       PWMPort
      020097E2H   XDATA    ---       PWMTicks
      020097F2H   XDATA    ---       PWMTotal
      02009856H   XDATA    BYTE      PwrokState
*SFR* 000000F8H   DATA     BYTE      RAMMODE
*SFR* 00000098H.2 DATA     BIT       RB80
*SFR* 00000098H.4 DATA     BIT       REN0
*SFR* 00000098H.0 DATA     BIT       RI0
*SFR* 000000D0H.3 DATA     BIT       RS0
*SFR* 000000D0H.4 DATA     BIT       RS1
      0200977DH   XDATA    ---       Rx_Buf
*SFR* 00000099H   DATA     BYTE      SBUF0
*SFR* 0000009CH   DATA     BYTE      SBUF1
*SFR* 0000009FH   DATA     BYTE      SBUF2_RX
*SFR* 0000009EH   DATA     BYTE      SBUF2_TX
*SFR* 000000ADH   DATA     BYTE      SBUF3_RX
*SFR* 000000ACH   DATA     BYTE      SBUF3_TX
*SFR* 00000098H   DATA     BYTE      SCON0
*SFR* 0000009BH   DATA     BYTE      SCON1
*SFR* 00000097H   DATA     BYTE      SCON2R
*SFR* 00000096H   DATA     BYTE      SCON2T
*SFR* 000000ABH   DATA     BYTE      SCON3R
*SFR* 000000A7H   DATA     BYTE      SCON3T
      02009755H   XDATA    ---       Send_buf
      0100CBB6H   CODE     ---       Send_Heart
      0100CBFAH   CODE     ---       Send_Paiqi
      0100C977H   CODE     ---       Send_Stop
      0100B09CH   CODE     ---       SetPageDisplay
*SFR* 00000098H.7 DATA     BIT       SM0
*SFR* 00000098H.6 DATA     BIT       SM1
*SFR* 00000098H.5 DATA     BIT       SM20
*SFR* 00000081H   DATA     BYTE      SP
*SFR* 000000E2H   DATA     BYTE      SPCON
*SFR* 000000E3H   DATA     BYTE      SPDAT
      02009802H   XDATA    ---       Spi_Flash
      01009E3AH   CODE     ---       SPIFlash_Action
*SFR* 000000E4H   DATA     BYTE      SPSSN
*SFR* 000000E1H   DATA     BYTE      SPSTA
*SFR* 000000BAH   DATA     BYTE      SREL0H
*SFR* 000000AAH   DATA     BYTE      SREL0L
*SFR* 000000BBH   DATA     BYTE      SREL1H
*SFR* 0000009DH   DATA     BYTE      SREL1L
*SFR* 000000F7H   DATA     BYTE      SRST
      01006C91H   CODE     ---       StartMenuStep
      0100C554H   CODE     ---       StepDataDecrease
      0100C028H   CODE     ---       StepDataIncrease
      0100D2F9H   CONST    ---       StirType
*SFR* 000000B8H.6 DATA     BIT       SWDT
      02008B91H   XDATA    ---       Sys_CFG
      020097E0H   XDATA    BYTE      SysTick
      020097DDH   XDATA    WORD      SysTouch
      0100CE51H   CODE     ---       T0_Init
LX51 LINKER/LOCATER V4.66.87.0                                                        10/15/2020  10:36:21  PAGE 24


      0100942DH   CODE     ---       T0_ISR_PC
*SFR* 000000C8H.2 DATA     BIT       T2CM
*SFR* 000000C8H   DATA     BYTE      T2CON
*SFR* 000000C8H.0 DATA     BIT       T2I0
*SFR* 000000C8H.1 DATA     BIT       T2I1
*SFR* 000000C8H.7 DATA     BIT       T2PS
*SFR* 000000C8H.3 DATA     BIT       T2R0
*SFR* 000000C8H.4 DATA     BIT       T2R1
*SFR* 00000098H.3 DATA     BIT       TB80
*SFR* 00000088H   DATA     BYTE      TCON
*SFR* 00000088H.5 DATA     BIT       TF0
*SFR* 00000088H.7 DATA     BIT       TF1
*SFR* 000000C0H.6 DATA     BIT       TF2
*SFR* 0000008CH   DATA     BYTE      TH0
*SFR* 0000008DH   DATA     BYTE      TH1
*SFR* 000000CDH   DATA     BYTE      TH2
      0100D37AH   CONST    ---       three_KG_pro
*SFR* 00000098H.1 DATA     BIT       TI0
      0100D1EBH   CONST    ---       TimeLimit
      0100CFEFH   CODE     ---       timer2_Isr
      020097ACH   XDATA    ---       TimerTime
      010096D5H   CODE     ---       TimeVary
*SFR* 0000008AH   DATA     BYTE      TL0
*SFR* 0000008BH   DATA     BYTE      TL1
*SFR* 000000CCH   DATA     BYTE      TL2
*SFR* 00000089H   DATA     BYTE      TMOD
*SFR* 00000088H.4 DATA     BIT       TR0
*SFR* 00000088H.6 DATA     BIT       TR1
*SFR* 000000CBH   DATA     BYTE      TRL2H
*SFR* 000000CAH   DATA     BYTE      TRL2L
      0200977BH   XDATA    BYTE      Tx_Count
      020097A7H   XDATA    BYTE      Tx_Enable
      020097A3H   XDATA    BYTE      Tx_Num
      01009126H   CODE     ---       TXTAutoSlideAction
      0200800EH   XDATA    ---       TXTPara
      02008709H   XDATA    ---       TXTParaTmp
      0100C4EEH   CODE     ---       uart2_Isr
      0100C32FH   CODE     ---       uart3_Isr
      0100CDF1H   CODE     ---       uart4r_Isr
      0100CA9BH   CODE     ---       uart4t_Isr
      0100CE21H   CODE     ---       uart5r_Isr
      0100CAE2H   CODE     ---       uart5t_Isr
      02008C44H   XDATA    ---       Uart_Struct
*SFR* 000000A8H.6 DATA     BIT       WDT
*SFR* 00000086H   DATA     BYTE      WDTREL
      0200987CH   XDATA    BYTE      Weight_Count
      0100CF7EH   CODE     ---       Weight_Error
      0100CB29H   CODE     ---       Weight_Init
      01006131H   CODE     ---       Weight_Receive
      0200987BH   XDATA    BYTE      Weight_Status
      02009879H   XDATA    INT       Weight_Value
      0200987EH   XDATA    BYTE      WError
      02009733H   XDATA    BYTE      Work_State
      0200977AH   XDATA    BYTE      Work_SubState



SYMBOL TABLE OF MODULE:  .\Objects\T5L51 (STARTUP_M5)

      VALUE       REP       CLASS    TYPE      SYMBOL NAME
      ====================================================
      ---         MODULE    ---      ---       STARTUP_M5
      01000100H   LINE      CODE     ---       #30

      ---         MODULE    ---      ---       SYS
LX51 LINKER/LOCATER V4.66.87.0                                                        10/15/2020  10:36:21  PAGE 25


      0200981EH   PUBLIC    XDATA    ---       MusicBuf
      02009812H   PUBLIC    XDATA    ---       Nor_Flash
      02009802H   PUBLIC    XDATA    ---       Spi_Flash
      0100C82DH   PUBLIC    CODE     ---       _GetPinIn
      0100BF06H   PUBLIC    CODE     ---       _PinOutput
      0100C92BH   PUBLIC    CODE     ---       _SetPinIn
      0100CA53H   PUBLIC    CODE     ---       _SetPinOut
      0100CA0BH   PUBLIC    CODE     ---       _delay_ms
      0100C1BEH   PUBLIC    CODE     ---       _Page_Change
      0100CF16H   PUBLIC    CODE     ---       GetPageID
      01009E3AH   PUBLIC    CODE     ---       SPIFlash_Action
      0100A909H   PUBLIC    CODE     ---       NorFlash_Action
      0100C6D2H   PUBLIC    CODE     ---       MusicAnction
      0100CD89H   PUBLIC    CODE     ---       _MusicDirectPlay
      02009869H   PUBLIC    XDATA    BYTE      ?_TouchSwitch?BYTE
      0100C8D7H   PUBLIC    CODE     ---       _TouchSwitch
      0100CF52H   PUBLIC    CODE     ---       _delay_us
      0100CEA8H   PUBLIC    CODE     ---       INIT_CPU
      0200971AH   PUBLIC    XDATA    BYTE      ?_write_dgus_vp?BYTE
      01007962H   PUBLIC    CODE     ---       _write_dgus_vp
      02009711H   PUBLIC    XDATA    BYTE      ?_read_dgus_vp?BYTE
      0100830CH   PUBLIC    CODE     ---       _read_dgus_vp
      00000098H.3 SFRSYM    DATA     BIT       TB80
      000000C8H.0 SFRSYM    DATA     BIT       T2I0
      000000F1H   SFRSYM    DATA     BYTE      ADR_H
      000000C3H   SFRSYM    DATA     BYTE      CCH1
      00000080H   SFRSYM    DATA     BYTE      P0
      000000C8H.1 SFRSYM    DATA     BIT       T2I1
      000000C5H   SFRSYM    DATA     BYTE      CCH2
      00000090H   SFRSYM    DATA     BYTE      P1
      000000C7H   SFRSYM    DATA     BYTE      CCH3
      000000A0H   SFRSYM    DATA     BYTE      P2
      00000098H.5 SFRSYM    DATA     BIT       SM20
      000000B0H   SFRSYM    DATA     BYTE      P3
      000000D0H.6 SFRSYM    DATA     BIT       AC
      000000F3H   SFRSYM    DATA     BYTE      ADR_L
      000000C2H   SFRSYM    DATA     BYTE      CCL1
      00000094H   SFRSYM    DATA     BYTE      PAGESEL
      000000F2H   SFRSYM    DATA     BYTE      ADR_M
      000000E2H   SFRSYM    DATA     BYTE      SPCON
      000000C4H   SFRSYM    DATA     BYTE      CCL2
      000000D8H.7 SFRSYM    DATA     BIT       BD
      000000A8H.7 SFRSYM    DATA     BIT       EA
      000000C6H   SFRSYM    DATA     BYTE      CCL3
      000000F8H   SFRSYM    DATA     BYTE      RAMMODE
      000000C8H.3 SFRSYM    DATA     BIT       T2R0
      000000C8H.4 SFRSYM    DATA     BIT       T2R1
      000000B7H   SFRSYM    DATA     BYTE      P0MDOUT
      000000E1H   SFRSYM    DATA     BYTE      SPSTA
      000000BCH   SFRSYM    DATA     BYTE      P1MDOUT
      000000A8H   SFRSYM    DATA     BYTE      IEN0
      000000BDH   SFRSYM    DATA     BYTE      P2MDOUT
      000000B8H   SFRSYM    DATA     BYTE      IEN1
      00000085H   SFRSYM    DATA     BYTE      DPH1
      000000BEH   SFRSYM    DATA     BYTE      P3MDOUT
      0000009AH   SFRSYM    DATA     BYTE      IEN2
      000000D1H   SFRSYM    DATA     BYTE      IEN4
      000000F8H.4 SFRSYM    DATA     BIT       APP_ACK
      000000C0H.0 SFRSYM    DATA     BIT       IADC
      00000084H   SFRSYM    DATA     BYTE      DPL1
      000000F4H   SFRSYM    DATA     BYTE      ADR_INC
      000000C8H.5 SFRSYM    DATA     BIT       I2FR
      000000C8H.6 SFRSYM    DATA     BIT       I3FR
      000000C0H.7 SFRSYM    DATA     BIT       EXF2
      00000098H.4 SFRSYM    DATA     BIT       REN0
LX51 LINKER/LOCATER V4.66.87.0                                                        10/15/2020  10:36:21  PAGE 26


      000000C8H.2 SFRSYM    DATA     BIT       T2CM
      000000DBH   SFRSYM    DATA     BYTE      I2CADR
      000000B8H.1 SFRSYM    DATA     BIT       ECAN
      000000C0H.1 SFRSYM    DATA     BIT       IEX2
      000000E4H   SFRSYM    DATA     BYTE      SPSSN
      000000DAH   SFRSYM    DATA     BYTE      I2CDAT
      000000C0H.2 SFRSYM    DATA     BIT       IEX3
      000000C1H   SFRSYM    DATA     BYTE      CCEN
      000000C0H.3 SFRSYM    DATA     BIT       IEX4
      000000C0H.4 SFRSYM    DATA     BIT       IEX5
      000000D0H.7 SFRSYM    DATA     BIT       CY
      000000C0H.5 SFRSYM    DATA     BIT       IEX6
      000000B8H.3 SFRSYM    DATA     BIT       ES2R
      000000B8H.5 SFRSYM    DATA     BIT       ES3R
      000000B8H.2 SFRSYM    DATA     BIT       ES2T
      000000B8H.4 SFRSYM    DATA     BIT       ES3T
      000000DCH   SFRSYM    DATA     BYTE      I2CCON
      00000081H   SFRSYM    DATA     BYTE      SP
      000000D0H.2 SFRSYM    DATA     BIT       OV
      000000DDH   SFRSYM    DATA     BYTE      I2CSTA
      00000095H   SFRSYM    DATA     BYTE      D_PAGESEL
      000000C8H.7 SFRSYM    DATA     BIT       T2PS
      000000F8H.7 SFRSYM    DATA     BIT       APP_REQ
      000000BFH   SFRSYM    DATA     BYTE      IRCON2
      00000080H.0 SFRSYM    DATA     BIT       P00
      000000BAH   SFRSYM    DATA     BYTE      SREL0H
      00000090H.0 SFRSYM    DATA     BIT       P10
      00000080H.1 SFRSYM    DATA     BIT       P01
      000000BBH   SFRSYM    DATA     BYTE      SREL1H
      00000087H   SFRSYM    DATA     BYTE      PCON
      000000A0H.0 SFRSYM    DATA     BIT       P20
      00000090H.1 SFRSYM    DATA     BIT       P11
      00000080H.2 SFRSYM    DATA     BIT       P02
      000000B0H.0 SFRSYM    DATA     BIT       P30
      000000A0H.1 SFRSYM    DATA     BIT       P21
      00000090H.2 SFRSYM    DATA     BIT       P12
      00000080H.3 SFRSYM    DATA     BIT       P03
      000000B0H.1 SFRSYM    DATA     BIT       P31
      000000A0H.2 SFRSYM    DATA     BIT       P22
      00000090H.3 SFRSYM    DATA     BIT       P13
      00000080H.4 SFRSYM    DATA     BIT       P04
      000000F9H   SFRSYM    DATA     BYTE      PORTDRV
      000000AAH   SFRSYM    DATA     BYTE      SREL0L
      000000B0H.2 SFRSYM    DATA     BIT       P32
      000000A0H.3 SFRSYM    DATA     BIT       P23
      00000090H.4 SFRSYM    DATA     BIT       P14
      00000080H.5 SFRSYM    DATA     BIT       P05
      0000009DH   SFRSYM    DATA     BYTE      SREL1L
      00000089H   SFRSYM    DATA     BYTE      TMOD
      00000088H   SFRSYM    DATA     BYTE      TCON
      000000B0H.3 SFRSYM    DATA     BIT       P33
      000000A0H.4 SFRSYM    DATA     BIT       P24
      00000090H.5 SFRSYM    DATA     BIT       P15
      00000080H.6 SFRSYM    DATA     BIT       P06
      000000B0H.4 SFRSYM    DATA     BIT       P34
      000000A0H.5 SFRSYM    DATA     BIT       P25
      00000090H.6 SFRSYM    DATA     BIT       P16
      00000080H.7 SFRSYM    DATA     BIT       P07
      000000B0H.5 SFRSYM    DATA     BIT       P35
      000000A0H.6 SFRSYM    DATA     BIT       P26
      00000090H.7 SFRSYM    DATA     BIT       P17
      000000B4H   SFRSYM    DATA     BYTE      DMASEL
      000000B0H.6 SFRSYM    DATA     BIT       P36
      000000A0H.7 SFRSYM    DATA     BIT       P27
      000000FFH   SFRSYM    DATA     BYTE      EXDATA
LX51 LINKER/LOCATER V4.66.87.0                                                        10/15/2020  10:36:21  PAGE 27


      00000097H   SFRSYM    DATA     BYTE      SCON2R
      000000B0H.7 SFRSYM    DATA     BIT       P37
      000000D9H   SFRSYM    DATA     BYTE      BODE2_DIV_H
      000000ABH   SFRSYM    DATA     BYTE      SCON3R
      000000AEH   SFRSYM    DATA     BYTE      BODE3_DIV_H
      00000096H   SFRSYM    DATA     BYTE      SCON2T
      000000A7H   SFRSYM    DATA     BYTE      SCON3T
      00000088H.1 SFRSYM    DATA     BIT       IE0
      000000F5H   SFRSYM    DATA     BYTE      ISCHEADER2
      000000E7H   SFRSYM    DATA     BYTE      BODE2_DIV_L
      00000088H.3 SFRSYM    DATA     BIT       IE1
      000000F6H   SFRSYM    DATA     BYTE      ISCHEADER3
      000000AFH   SFRSYM    DATA     BYTE      BODE3_DIV_L
      000000C9H   SFRSYM    DATA     BYTE      MUX_SEL
      000000F0H   SFRSYM    DATA     BYTE      B
      000000E9H   SFRSYM    DATA     BYTE      MD0
      000000EAH   SFRSYM    DATA     BYTE      MD1
      000000B8H.6 SFRSYM    DATA     BIT       SWDT
      000000EBH   SFRSYM    DATA     BYTE      MD2
      000000ECH   SFRSYM    DATA     BYTE      MD3
      000000EDH   SFRSYM    DATA     BYTE      MD4
      000000EEH   SFRSYM    DATA     BYTE      MD5
      000000B1H   SFRSYM    DATA     BYTE      DMAC0
      000000E0H   SFRSYM    DATA     BYTE      ACC
      000000B2H   SFRSYM    DATA     BYTE      DMAC1
      000000A8H.4 SFRSYM    DATA     BIT       ES0
      000000B3H   SFRSYM    DATA     BYTE      DMAC2
      0000008FH   SFRSYM    DATA     BYTE      CAN_CR
      000000A8H.1 SFRSYM    DATA     BIT       ET0
      000000A9H   SFRSYM    DATA     BYTE      IP0
      000000A8H.3 SFRSYM    DATA     BIT       ET1
      00000088H.5 SFRSYM    DATA     BIT       TF0
      000000B9H   SFRSYM    DATA     BYTE      IP1
      000000A8H.5 SFRSYM    DATA     BIT       ET2
      00000098H.0 SFRSYM    DATA     BIT       RI0
      00000088H.7 SFRSYM    DATA     BIT       TF1
      000000FDH   SFRSYM    DATA     BYTE      DATA0
      000000C0H.6 SFRSYM    DATA     BIT       TF2
      000000FCH   SFRSYM    DATA     BYTE      DATA1
      000000E8H   SFRSYM    DATA     BYTE      CAN_ET
      0000008CH   SFRSYM    DATA     BYTE      TH0
      000000A8H.0 SFRSYM    DATA     BIT       EX0
      00000098H.1 SFRSYM    DATA     BIT       TI0
      00000088H.0 SFRSYM    DATA     BIT       IT0
      000000FBH   SFRSYM    DATA     BYTE      DATA2
      000000F7H   SFRSYM    DATA     BYTE      SRST
      0000008DH   SFRSYM    DATA     BYTE      TH1
      000000A8H.2 SFRSYM    DATA     BIT       EX1
      00000088H.2 SFRSYM    DATA     BIT       IT1
      000000FAH   SFRSYM    DATA     BYTE      DATA3
      000000CDH   SFRSYM    DATA     BYTE      TH2
      00000091H   SFRSYM    DATA     BYTE      CAN_IR
      000000D0H.0 SFRSYM    DATA     BIT       P
      00000098H.7 SFRSYM    DATA     BIT       SM0
      000000B5H   SFRSYM    DATA     BYTE      DMAM0
      0000008AH   SFRSYM    DATA     BYTE      TL0
      00000098H.6 SFRSYM    DATA     BIT       SM1
      000000B6H   SFRSYM    DATA     BYTE      DMAM1
      0000008BH   SFRSYM    DATA     BYTE      TL1
      000000CCH   SFRSYM    DATA     BYTE      TL2
      000000B8H.0 SFRSYM    DATA     BIT       EX7
      00000086H   SFRSYM    DATA     BYTE      WDTREL
      000000F8H.6 SFRSYM    DATA     BIT       APP_EN
      000000D0H.3 SFRSYM    DATA     BIT       RS0
      00000088H.4 SFRSYM    DATA     BIT       TR0
LX51 LINKER/LOCATER V4.66.87.0                                                        10/15/2020  10:36:21  PAGE 28


      000000D0H.4 SFRSYM    DATA     BIT       RS1
      000000A1H   SFRSYM    DATA     BYTE      DMAS0
      00000088H.6 SFRSYM    DATA     BIT       TR1
      000000A4H   SFRSYM    DATA     BYTE      DMAT0
      000000A2H   SFRSYM    DATA     BYTE      DMAS1
      00000093H   SFRSYM    DATA     BYTE      DPC
      000000E5H   SFRSYM    DATA     BYTE      MAC_MODE
      000000A5H   SFRSYM    DATA     BYTE      DMAT1
      000000A3H   SFRSYM    DATA     BYTE      DMAS2
      000000A6H   SFRSYM    DATA     BYTE      DMAT2
      00000083H   SFRSYM    DATA     BYTE      DPH
      00000082H   SFRSYM    DATA     BYTE      DPL
      00000099H   SFRSYM    DATA     BYTE      SBUF0
      0000009CH   SFRSYM    DATA     BYTE      SBUF1
      000000B8H.7 SFRSYM    DATA     BIT       EXEN2
      00000098H   SFRSYM    DATA     BYTE      SCON0
      0000009BH   SFRSYM    DATA     BYTE      SCON1
      000000D8H   SFRSYM    DATA     BYTE      ADCON
      000000C8H   SFRSYM    DATA     BYTE      T2CON
      000000E6H   SFRSYM    DATA     BYTE      DIV_MODE
      000000F8H.5 SFRSYM    DATA     BIT       APP_RW
      000000CBH   SFRSYM    DATA     BYTE      TRL2H
      0000009FH   SFRSYM    DATA     BYTE      SBUF2_RX
      000000A8H.6 SFRSYM    DATA     BIT       WDT
      000000ADH   SFRSYM    DATA     BYTE      SBUF3_RX
      0000008EH   SFRSYM    DATA     BYTE      CKCON
      0000009EH   SFRSYM    DATA     BYTE      SBUF2_TX
      000000CAH   SFRSYM    DATA     BYTE      TRL2L
      000000ACH   SFRSYM    DATA     BYTE      SBUF3_TX
      000000EFH   SFRSYM    DATA     BYTE      ARCON
      000000D0H.5 SFRSYM    DATA     BIT       F0
      000000FEH   SFRSYM    DATA     BYTE      EXADR
      000000D0H.1 SFRSYM    DATA     BIT       F1
      00000092H   SFRSYM    DATA     BYTE      DPSEL
      000000D0H   SFRSYM    DATA     BYTE      PSW
      00000098H.2 SFRSYM    DATA     BIT       RB80
      000000C0H   SFRSYM    DATA     BYTE      IRCON
      000000E3H   SFRSYM    DATA     BYTE      SPDAT

      010082F9H   BLOCK     CODE     ---       LVL=0
      ---         BLOCKEND  ---      ---       LVL=0

      0100830CH   BLOCK     CODE     ---       LVL=0
      02009711H   SYMBOL    XDATA    DWORD     addr
      02009715H   SYMBOL    XDATA    ---       buf
      02009718H   SYMBOL    XDATA    WORD      len
      0200971AH   SYMBOL    XDATA    DWORD     OS_addr
      0200971EH   SYMBOL    XDATA    DWORD     OS_addr_offset
      00000006H   SYMBOL    DATA     WORD      OS_len
      02009722H   SYMBOL    XDATA    WORD      OS_len_offset
      0100831DH   BLOCK     CODE     NEAR LAB  LVL=1
      0200971AH   SYMBOL    XDATA    DWORD     OS_addr
      0200971EH   SYMBOL    XDATA    DWORD     OS_addr_offset
      00000006H   SYMBOL    DATA     WORD      OS_len
      02009722H   SYMBOL    XDATA    WORD      OS_len_offset
      ---         BLOCKEND  ---      ---       LVL=1
      0100830CH   LINE      CODE     ---       #33
      0100831DH   LINE      CODE     ---       #34
      0100831DH   LINE      CODE     ---       #40
      0100831FH   LINE      CODE     ---       #41
      0100833CH   LINE      CODE     ---       #42
      01008350H   LINE      CODE     ---       #43
      01008366H   LINE      CODE     ---       #44
      0100837CH   LINE      CODE     ---       #45
      01008385H   LINE      CODE     ---       #46
LX51 LINKER/LOCATER V4.66.87.0                                                        10/15/2020  10:36:21  PAGE 29


      01008388H   LINE      CODE     ---       #47
      0100838BH   LINE      CODE     ---       #48
      010083A3H   LINE      CODE     ---       #49
      010083A3H   LINE      CODE     ---       #50
      010083A6H   LINE      CODE     ---       #51
      010083A8H   LINE      CODE     ---       #52
      010083ABH   LINE      CODE     ---       #53
      010083C0H   LINE      CODE     ---       #54
      010083D5H   LINE      CODE     ---       #55
      010083E3H   LINE      CODE     ---       #56
      010083EDH   LINE      CODE     ---       #57
      010083EDH   LINE      CODE     ---       #58
      010083FCH   LINE      CODE     ---       #59
      0100840AH   LINE      CODE     ---       #60
      0100840EH   LINE      CODE     ---       #61
      0100840EH   LINE      CODE     ---       #62
      01008413H   LINE      CODE     ---       #63
      01008413H   LINE      CODE     ---       #64
      01008420H   LINE      CODE     ---       #65
      01008420H   LINE      CODE     ---       #66
      01008430H   LINE      CODE     ---       #67
      01008430H   LINE      CODE     ---       #68
      01008433H   LINE      CODE     ---       #69
      01008435H   LINE      CODE     ---       #70
      01008438H   LINE      CODE     ---       #71
      0100844DH   LINE      CODE     ---       #72
      01008462H   LINE      CODE     ---       #73
      01008464H   LINE      CODE     ---       #74
      01008464H   LINE      CODE     ---       #75
      01008467H   LINE      CODE     ---       #76
      01008469H   LINE      CODE     ---       #77
      0100846CH   LINE      CODE     ---       #78
      01008481H   LINE      CODE     ---       #79
      01008496H   LINE      CODE     ---       #80
      010084ABH   LINE      CODE     ---       #81
      010084C0H   LINE      CODE     ---       #82
      010084C3H   LINE      CODE     ---       #83
      010084C6H   LINE      CODE     ---       #84
      010084C8H   LINE      CODE     ---       #85
      ---         BLOCKEND  ---      ---       LVL=0

      0100793EH   BLOCK     CODE     ---       LVL=0
      ---         BLOCKEND  ---      ---       LVL=0

      01007962H   BLOCK     CODE     ---       LVL=0
      0200971AH   SYMBOL    XDATA    DWORD     addr
      0200971EH   SYMBOL    XDATA    ---       buf
      02009721H   SYMBOL    XDATA    WORD      len
      02009723H   SYMBOL    XDATA    DWORD     OS_addr
      02009727H   SYMBOL    XDATA    DWORD     OS_addr_offset
      00000006H   SYMBOL    DATA     WORD      OS_len
      0200972BH   SYMBOL    XDATA    WORD      OS_len_offset
      01007973H   BLOCK     CODE     NEAR LAB  LVL=1
      02009723H   SYMBOL    XDATA    DWORD     OS_addr
      02009727H   SYMBOL    XDATA    DWORD     OS_addr_offset
      00000006H   SYMBOL    DATA     WORD      OS_len
      0200972BH   SYMBOL    XDATA    WORD      OS_len_offset
      ---         BLOCKEND  ---      ---       LVL=1
      01007962H   LINE      CODE     ---       #101
      01007973H   LINE      CODE     ---       #102
      01007973H   LINE      CODE     ---       #108
      01007975H   LINE      CODE     ---       #109
      01007992H   LINE      CODE     ---       #110
      010079A6H   LINE      CODE     ---       #111
      010079BCH   LINE      CODE     ---       #112
LX51 LINKER/LOCATER V4.66.87.0                                                        10/15/2020  10:36:21  PAGE 30


      010079D2H   LINE      CODE     ---       #113
      010079DBH   LINE      CODE     ---       #114
      010079DEH   LINE      CODE     ---       #115
      010079E1H   LINE      CODE     ---       #116
      010079F9H   LINE      CODE     ---       #117
      010079F9H   LINE      CODE     ---       #118
      010079FBH   LINE      CODE     ---       #119
      010079FEH   LINE      CODE     ---       #120
      01007A01H   LINE      CODE     ---       #121
      01007A03H   LINE      CODE     ---       #122
      01007A06H   LINE      CODE     ---       #123
      01007A09H   LINE      CODE     ---       #124
      01007A0CH   LINE      CODE     ---       #125
      01007A0FH   LINE      CODE     ---       #126
      01007A24H   LINE      CODE     ---       #127
      01007A39H   LINE      CODE     ---       #128
      01007A3BH   LINE      CODE     ---       #129
      01007A3EH   LINE      CODE     ---       #130
      01007A4CH   LINE      CODE     ---       #131
      01007A56H   LINE      CODE     ---       #132
      01007A56H   LINE      CODE     ---       #133
      01007A65H   LINE      CODE     ---       #134
      01007A73H   LINE      CODE     ---       #135
      01007A77H   LINE      CODE     ---       #136
      01007A77H   LINE      CODE     ---       #137
      01007A7CH   LINE      CODE     ---       #138
      01007A7CH   LINE      CODE     ---       #139
      01007A89H   LINE      CODE     ---       #140
      01007A89H   LINE      CODE     ---       #141
      01007A99H   LINE      CODE     ---       #142
      01007A99H   LINE      CODE     ---       #143
      01007A9BH   LINE      CODE     ---       #144
      01007A9EH   LINE      CODE     ---       #145
      01007AA1H   LINE      CODE     ---       #146
      01007AA3H   LINE      CODE     ---       #147
      01007AA6H   LINE      CODE     ---       #148
      01007AA9H   LINE      CODE     ---       #149
      01007AACH   LINE      CODE     ---       #150
      01007AAFH   LINE      CODE     ---       #151
      01007AC4H   LINE      CODE     ---       #152
      01007AD9H   LINE      CODE     ---       #153
      01007ADBH   LINE      CODE     ---       #154
      01007AE0H   LINE      CODE     ---       #155
      01007AE0H   LINE      CODE     ---       #156
      01007AE0H   LINE      CODE     ---       #157
      01007AE3H   LINE      CODE     ---       #158
      01007AF8H   LINE      CODE     ---       #159
      01007B0DH   LINE      CODE     ---       #160
      01007B22H   LINE      CODE     ---       #161
      01007B37H   LINE      CODE     ---       #162
      01007B39H   LINE      CODE     ---       #163
      01007B41H   LINE      CODE     ---       #164
      01007B41H   LINE      CODE     ---       #165
      01007B44H   LINE      CODE     ---       #166
      01007B46H   LINE      CODE     ---       #167
      ---         BLOCKEND  ---      ---       LVL=0

      0100CEA8H   BLOCK     CODE     ---       LVL=0
      0100CEA8H   LINE      CODE     ---       #182
      0100CEA8H   LINE      CODE     ---       #183
      0100CEA8H   LINE      CODE     ---       #184
      0100CEAAH   LINE      CODE     ---       #185
      0100CEACH   LINE      CODE     ---       #186
      0100CEAEH   LINE      CODE     ---       #188
      0100CEB1H   LINE      CODE     ---       #189
LX51 LINKER/LOCATER V4.66.87.0                                                        10/15/2020  10:36:21  PAGE 31


      0100CEB4H   LINE      CODE     ---       #190
      0100CEB6H   LINE      CODE     ---       #191
      0100CEB9H   LINE      CODE     ---       #192
      0100CEBCH   LINE      CODE     ---       #193
      0100CEBFH   LINE      CODE     ---       #194
      0100CEC1H   LINE      CODE     ---       #195
      0100CEC4H   LINE      CODE     ---       #196
      0100CEC6H   LINE      CODE     ---       #197
      0100CEC8H   LINE      CODE     ---       #198
      0100CECAH   LINE      CODE     ---       #199
      0100CECCH   LINE      CODE     ---       #200
      0100CECEH   LINE      CODE     ---       #204
      ---         BLOCKEND  ---      ---       LVL=0

      0100CF4EH   BLOCK     CODE     ---       LVL=0
      ---         BLOCKEND  ---      ---       LVL=0

      0100CF52H   BLOCK     CODE     ---       LVL=0
      00000006H   SYMBOL    DATA     WORD      t
      00000005H   SYMBOL    DATA     BYTE      i
      0100CF52H   BLOCK     CODE     NEAR LAB  LVL=1
      00000005H   SYMBOL    DATA     BYTE      i
      ---         BLOCKEND  ---      ---       LVL=1
      0100CF52H   LINE      CODE     ---       #206
      0100CF52H   LINE      CODE     ---       #207
      0100CF52H   LINE      CODE     ---       #210
      0100CF56H   LINE      CODE     ---       #211
      0100CF56H   LINE      CODE     ---       #212
      0100CF58H   LINE      CODE     ---       #213
      0100CF5FH   LINE      CODE     ---       #214
      0100CF64H   LINE      CODE     ---       #215
      0100CF66H   LINE      CODE     ---       #216
      ---         BLOCKEND  ---      ---       LVL=0

      0100C8D7H   BLOCK     CODE     ---       LVL=0
      00000006H   SYMBOL    DATA     WORD      PageID
      00000005H   SYMBOL    DATA     BYTE      TouchType
      00000003H   SYMBOL    DATA     BYTE      TouchID
      0200986DH   SYMBOL    XDATA    BYTE      Status
      0100C8D7H   BLOCK     CODE     NEAR LAB  LVL=1
      0200986EH   SYMBOL    XDATA    ---       k_data
      ---         BLOCKEND  ---      ---       LVL=1
      0100C8D7H   LINE      CODE     ---       #218
      0100C8D7H   LINE      CODE     ---       #219
      0100C8D7H   LINE      CODE     ---       #222
      0100C8E1H   LINE      CODE     ---       #223
      0100C8E7H   LINE      CODE     ---       #224
      0100C8EAH   LINE      CODE     ---       #225
      0100C8EDH   LINE      CODE     ---       #226
      0100C8FAH   LINE      CODE     ---       #227
      0100C90EH   LINE      CODE     ---       #229
      0100C90EH   LINE      CODE     ---       #230
      0100C911H   LINE      CODE     ---       #231
      0100C924H   LINE      CODE     ---       #232
      0100C92AH   LINE      CODE     ---       #233
      ---         BLOCKEND  ---      ---       LVL=0

      0100CD89H   BLOCK     CODE     ---       LVL=0
      02009459H   SYMBOL    XDATA    BYTE      MusicId
      0100CD8EH   BLOCK     CODE     NEAR LAB  LVL=1
      0200945AH   SYMBOL    XDATA    ---       k_data
      ---         BLOCKEND  ---      ---       LVL=1
      0100CD89H   LINE      CODE     ---       #235
      0100CD8EH   LINE      CODE     ---       #236
      0100CD8EH   LINE      CODE     ---       #239
LX51 LINKER/LOCATER V4.66.87.0                                                        10/15/2020  10:36:21  PAGE 32


      0100CD95H   LINE      CODE     ---       #240
      0100CD9BH   LINE      CODE     ---       #241
      0100CD9FH   LINE      CODE     ---       #242
      0100CDA4H   LINE      CODE     ---       #243
      ---         BLOCKEND  ---      ---       LVL=0

      0100C6D2H   BLOCK     CODE     ---       LVL=0
      0100C6D2H   BLOCK     CODE     NEAR LAB  LVL=1
      02009459H   SYMBOL    XDATA    ---       k_data
      ---         BLOCKEND  ---      ---       LVL=1
      0100C6D2H   LINE      CODE     ---       #246
      0100C6D2H   LINE      CODE     ---       #247
      0100C6D2H   LINE      CODE     ---       #250
      0100C6D8H   LINE      CODE     ---       #251
      0100C6D8H   LINE      CODE     ---       #252
      0100C6DAH   LINE      CODE     ---       #253
      0100C6E6H   LINE      CODE     ---       #254
      0100C6E9H   LINE      CODE     ---       #255
      0100C6E9H   LINE      CODE     ---       #256
      0100C6E9H   LINE      CODE     ---       #257
      0100C6ECH   LINE      CODE     ---       #258
      0100C6F2H   LINE      CODE     ---       #259
      0100C6F3H   LINE      CODE     ---       #260
      0100C6FFH   LINE      CODE     ---       #261
      0100C6FFH   LINE      CODE     ---       #262
      0100C706H   LINE      CODE     ---       #263
      0100C70EH   LINE      CODE     ---       #264
      0100C70EH   LINE      CODE     ---       #265
      0100C71BH   LINE      CODE     ---       #266
      0100C71BH   LINE      CODE     ---       #267
      0100C71BH   LINE      CODE     ---       #268
      0100C71EH   LINE      CODE     ---       #269
      0100C724H   LINE      CODE     ---       #270
      0100C728H   LINE      CODE     ---       #271
      0100C728H   LINE      CODE     ---       #272
      0100C728H   LINE      CODE     ---       #273
      ---         BLOCKEND  ---      ---       LVL=0

      0100A909H   BLOCK     CODE     ---       LVL=0
      0100A909H   BLOCK     CODE     NEAR LAB  LVL=1
      02009709H   SYMBOL    XDATA    ---       buf
      ---         BLOCKEND  ---      ---       LVL=1
      0100A909H   LINE      CODE     ---       #275
      0100A909H   LINE      CODE     ---       #276
      0100A909H   LINE      CODE     ---       #279
      0100A912H   LINE      CODE     ---       #280
      0100A92AH   LINE      CODE     ---       #281
      0100A942H   LINE      CODE     ---       #282
      0100A94DH   LINE      CODE     ---       #283
      0100A95AH   LINE      CODE     ---       #284
      0100A95DH   LINE      CODE     ---       #285
      0100A96AH   LINE      CODE     ---       #286
      0100A96DH   LINE      CODE     ---       #287
      0100A971H   LINE      CODE     ---       #288
      0100A971H   LINE      CODE     ---       #289
      0100A99DH   LINE      CODE     ---       #290
      0100A99DH   LINE      CODE     ---       #291
      0100A9B1H   LINE      CODE     ---       #293
      0100A9B1H   LINE      CODE     ---       #294
      0100A9B4H   LINE      CODE     ---       #295
      0100A9C7H   LINE      CODE     ---       #296
      0100A9CDH   LINE      CODE     ---       #297
      0100A9D4H   LINE      CODE     ---       #298
      0100A9D4H   LINE      CODE     ---       #299
      0100A9E2H   LINE      CODE     ---       #300
LX51 LINKER/LOCATER V4.66.87.0                                                        10/15/2020  10:36:21  PAGE 33


      0100AA0AH   LINE      CODE     ---       #301
      0100AA0AH   LINE      CODE     ---       #302
      ---         BLOCKEND  ---      ---       LVL=0

      01009E3AH   BLOCK     CODE     ---       LVL=0
      01009E3AH   BLOCK     CODE     NEAR LAB  LVL=1
      02009680H   SYMBOL    XDATA    ---       buf
      ---         BLOCKEND  ---      ---       LVL=1
      01009E3AH   LINE      CODE     ---       #304
      01009E3AH   LINE      CODE     ---       #305
      01009E3AH   LINE      CODE     ---       #308
      01009E40H   LINE      CODE     ---       #309
      01009E48H   LINE      CODE     ---       #310
      01009E4CH   LINE      CODE     ---       #311
      01009E4CH   LINE      CODE     ---       #312
      01009E55H   LINE      CODE     ---       #313
      01009E6DH   LINE      CODE     ---       #314
      01009E85H   LINE      CODE     ---       #315
      01009E90H   LINE      CODE     ---       #316
      01009E9DH   LINE      CODE     ---       #317
      01009EA0H   LINE      CODE     ---       #318
      01009EADH   LINE      CODE     ---       #319
      01009EB0H   LINE      CODE     ---       #320
      01009EB1H   LINE      CODE     ---       #321
      01009EB1H   LINE      CODE     ---       #322
      01009EB3H   LINE      CODE     ---       #323
      01009EBBH   LINE      CODE     ---       #324
      01009EBBH   LINE      CODE     ---       #325
      01009EC6H   LINE      CODE     ---       #326
      01009EC9H   LINE      CODE     ---       #327
      01009ED6H   LINE      CODE     ---       #328
      01009ED9H   LINE      CODE     ---       #329
      01009EE6H   LINE      CODE     ---       #330
      01009EE9H   LINE      CODE     ---       #331
      01009EECH   LINE      CODE     ---       #332
      01009EEEH   LINE      CODE     ---       #333
      01009EF0H   LINE      CODE     ---       #334
      01009EF2H   LINE      CODE     ---       #335
      01009EF2H   LINE      CODE     ---       #336
      01009F06H   LINE      CODE     ---       #338
      01009F06H   LINE      CODE     ---       #339
      01009F09H   LINE      CODE     ---       #340
      01009F1CH   LINE      CODE     ---       #341
      01009F22H   LINE      CODE     ---       #342
      01009F29H   LINE      CODE     ---       #343
      01009F29H   LINE      CODE     ---       #344
      01009F37H   LINE      CODE     ---       #345
      01009F5FH   LINE      CODE     ---       #346
      01009F5FH   LINE      CODE     ---       #347
      ---         BLOCKEND  ---      ---       LVL=0

      0100CF16H   BLOCK     CODE     ---       LVL=0
      0100CF16H   BLOCK     CODE     NEAR LAB  LVL=1
      02009463H   SYMBOL    XDATA    WORD      nPage
      ---         BLOCKEND  ---      ---       LVL=1
      0100CF16H   LINE      CODE     ---       #350
      0100CF16H   LINE      CODE     ---       #351
      0100CF16H   LINE      CODE     ---       #353
      0100CF29H   LINE      CODE     ---       #354
      0100CF31H   LINE      CODE     ---       #355
      ---         BLOCKEND  ---      ---       LVL=0

      0100C1BEH   BLOCK     CODE     ---       LVL=0
      02009502H   SYMBOL    XDATA    WORD      PageID
      0100C1C6H   BLOCK     CODE     NEAR LAB  LVL=1
LX51 LINKER/LOCATER V4.66.87.0                                                        10/15/2020  10:36:21  PAGE 34


      02009504H   SYMBOL    XDATA    ---       buf
      ---         BLOCKEND  ---      ---       LVL=1
      0100C1BEH   LINE      CODE     ---       #357
      0100C1C6H   LINE      CODE     ---       #358
      0100C1C6H   LINE      CODE     ---       #361
      0100C1CAH   LINE      CODE     ---       #362
      0100C1CEH   LINE      CODE     ---       #363
      0100C1DBH   LINE      CODE     ---       #364
      0100C1DEH   LINE      CODE     ---       #365
      0100C1F2H   LINE      CODE     ---       #367
      0100C1F2H   LINE      CODE     ---       #368
      0100C1F5H   LINE      CODE     ---       #369
      0100C209H   LINE      CODE     ---       #370
      0100C21AH   LINE      CODE     ---       #371
      0100C21DH   LINE      CODE     ---       #372
      0100C21FH   LINE      CODE     ---       #373
      0100C221H   LINE      CODE     ---       #374
      0100C223H   LINE      CODE     ---       #375
      ---         BLOCKEND  ---      ---       LVL=0

      0100CA0BH   BLOCK     CODE     ---       LVL=0
      02009459H   SYMBOL    XDATA    WORD      t
      0100CA13H   BLOCK     CODE     NEAR LAB  LVL=1
      0200945BH   SYMBOL    XDATA    WORD      i
      00000002H   SYMBOL    DATA     WORD      j
      ---         BLOCKEND  ---      ---       LVL=1
      0100CA0BH   LINE      CODE     ---       #378
      0100CA13H   LINE      CODE     ---       #379
      0100CA13H   LINE      CODE     ---       #381
      0100CA2DH   LINE      CODE     ---       #382
      0100CA2DH   LINE      CODE     ---       #383
      0100CA30H   LINE      CODE     ---       #384
      0100CA42H   LINE      CODE     ---       #385
      0100CA52H   LINE      CODE     ---       #386
      ---         BLOCKEND  ---      ---       LVL=0

      0100CA53H   BLOCK     CODE     ---       LVL=0
      00000007H   SYMBOL    DATA     BYTE      Port
      00000005H   SYMBOL    DATA     BYTE      Pin
      0100CA53H   LINE      CODE     ---       #388
      0100CA53H   LINE      CODE     ---       #389
      0100CA53H   LINE      CODE     ---       #390
      0100CA61H   LINE      CODE     ---       #391
      0100CA61H   LINE      CODE     ---       #392
      0100CA6EH   LINE      CODE     ---       #393
      0100CA6FH   LINE      CODE     ---       #394
      0100CA7CH   LINE      CODE     ---       #395
      0100CA7DH   LINE      CODE     ---       #396
      0100CA8AH   LINE      CODE     ---       #397
      0100CA8BH   LINE      CODE     ---       #398
      0100CA9AH   LINE      CODE     ---       #399
      0100CA9AH   LINE      CODE     ---       #400
      0100CA9AH   LINE      CODE     ---       #401
      0100CA9AH   LINE      CODE     ---       #403
      ---         BLOCKEND  ---      ---       LVL=0

      0100C92BH   BLOCK     CODE     ---       LVL=0
      00000007H   SYMBOL    DATA     BYTE      Port
      00000005H   SYMBOL    DATA     BYTE      Pin
      0100C92BH   LINE      CODE     ---       #405
      0100C92BH   LINE      CODE     ---       #406
      0100C92BH   LINE      CODE     ---       #407
      0100C939H   LINE      CODE     ---       #408
      0100C939H   LINE      CODE     ---       #409
      0100C947H   LINE      CODE     ---       #410
LX51 LINKER/LOCATER V4.66.87.0                                                        10/15/2020  10:36:21  PAGE 35


      0100C948H   LINE      CODE     ---       #411
      0100C956H   LINE      CODE     ---       #412
      0100C957H   LINE      CODE     ---       #413
      0100C965H   LINE      CODE     ---       #414
      0100C966H   LINE      CODE     ---       #415
      0100C976H   LINE      CODE     ---       #416
      0100C976H   LINE      CODE     ---       #417
      0100C976H   LINE      CODE     ---       #418
      0100C976H   LINE      CODE     ---       #420
      ---         BLOCKEND  ---      ---       LVL=0

      0100BF06H   BLOCK     CODE     ---       LVL=0
      00000007H   SYMBOL    DATA     BYTE      Port
      00000005H   SYMBOL    DATA     BYTE      Pin
      00000003H   SYMBOL    DATA     BYTE      value
      0100BF06H   LINE      CODE     ---       #424
      0100BF06H   LINE      CODE     ---       #425
      0100BF06H   LINE      CODE     ---       #426
      0100BF17H   LINE      CODE     ---       #427
      0100BF17H   LINE      CODE     ---       #428
      0100BF28H   LINE      CODE     ---       #429
      0100BF36H   LINE      CODE     ---       #430
      0100BF37H   LINE      CODE     ---       #431
      0100BF48H   LINE      CODE     ---       #432
      0100BF56H   LINE      CODE     ---       #433
      0100BF57H   LINE      CODE     ---       #434
      0100BF68H   LINE      CODE     ---       #435
      0100BF76H   LINE      CODE     ---       #436
      0100BF77H   LINE      CODE     ---       #437
      0100BF88H   LINE      CODE     ---       #438
      0100BF98H   LINE      CODE     ---       #439
      0100BF98H   LINE      CODE     ---       #440
      0100BF98H   LINE      CODE     ---       #441
      0100BF98H   LINE      CODE     ---       #442
      ---         BLOCKEND  ---      ---       LVL=0

      0100C82DH   BLOCK     CODE     ---       LVL=0
      00000007H   SYMBOL    DATA     BYTE      Port
      00000005H   SYMBOL    DATA     BYTE      Pin
      0100C82DH   BLOCK     CODE     NEAR LAB  LVL=1
      00000006H   SYMBOL    DATA     BYTE      value
      ---         BLOCKEND  ---      ---       LVL=1
      0100C82DH   LINE      CODE     ---       #446
      0100C82DH   LINE      CODE     ---       #447
      0100C82DH   LINE      CODE     ---       #449
      0100C83BH   LINE      CODE     ---       #450
      0100C83BH   LINE      CODE     ---       #451
      0100C849H   LINE      CODE     ---       #452
      0100C84BH   LINE      CODE     ---       #453
      0100C859H   LINE      CODE     ---       #454
      0100C85BH   LINE      CODE     ---       #455
      0100C869H   LINE      CODE     ---       #456
      0100C86BH   LINE      CODE     ---       #457
      0100C87BH   LINE      CODE     ---       #458
      0100C87DH   LINE      CODE     ---       #459
      0100C87DH   LINE      CODE     ---       #460
      0100C87FH   LINE      CODE     ---       #461
      0100C87FH   LINE      CODE     ---       #462
      0100C87FH   LINE      CODE     ---       #463
      0100C881H   LINE      CODE     ---       #464
      ---         BLOCKEND  ---      ---       LVL=0

      ---         MODULE    ---      ---       TIMER
      020097F2H   PUBLIC    XDATA    ---       PWMTotal
      020097E2H   PUBLIC    XDATA    ---       PWMTicks
LX51 LINKER/LOCATER V4.66.87.0                                                        10/15/2020  10:36:21  PAGE 36


      020097E1H   PUBLIC    XDATA    BYTE      EnableTimer
      020097E0H   PUBLIC    XDATA    BYTE      SysTick
      020097DFH   PUBLIC    XDATA    BYTE      OutTimeFlag
      020097DDH   PUBLIC    XDATA    WORD      SysTouch
      020097DCH   PUBLIC    XDATA    BYTE      EnablePWM
      020097CCH   PUBLIC    XDATA    ---       PWMLow
      020097C4H   PUBLIC    XDATA    ---       PWMPin
      020097BCH   PUBLIC    XDATA    ---       PWMPort
      020097ACH   PUBLIC    XDATA    ---       TimerTime
      020097ABH   PUBLIC    XDATA    BYTE      Key3Cnt
      020097AAH   PUBLIC    XDATA    BYTE      Key2Cnt
      020097A9H   PUBLIC    XDATA    BYTE      Key1Cnt
      0100CF67H   PUBLIC    CODE     ---       _GetTimeOutFlag
      0100CECFH   PUBLIC    CODE     ---       _KillTimer
      0100CCB5H   PUBLIC    CODE     ---       _StartTimer
      0100CFEFH   PUBLIC    CODE     ---       timer2_Isr
      0100942DH   PUBLIC    CODE     ---       T0_ISR_PC
      0100CE51H   PUBLIC    CODE     ---       T0_Init
      00000090H.5 SFRSYM    DATA     BIT       key4
      00000098H.3 SFRSYM    DATA     BIT       TB80
      000000C8H.0 SFRSYM    DATA     BIT       T2I0
      000000F1H   SFRSYM    DATA     BYTE      ADR_H
      000000C3H   SFRSYM    DATA     BYTE      CCH1
      00000080H   SFRSYM    DATA     BYTE      P0
      000000C8H.1 SFRSYM    DATA     BIT       T2I1
      000000C5H   SFRSYM    DATA     BYTE      CCH2
      00000090H   SFRSYM    DATA     BYTE      P1
      000000C7H   SFRSYM    DATA     BYTE      CCH3
      000000A0H   SFRSYM    DATA     BYTE      P2
      00000098H.5 SFRSYM    DATA     BIT       SM20
      000000B0H   SFRSYM    DATA     BYTE      P3
      000000D0H.6 SFRSYM    DATA     BIT       AC
      000000F3H   SFRSYM    DATA     BYTE      ADR_L
      000000C2H   SFRSYM    DATA     BYTE      CCL1
      00000094H   SFRSYM    DATA     BYTE      PAGESEL
      000000F2H   SFRSYM    DATA     BYTE      ADR_M
      000000E2H   SFRSYM    DATA     BYTE      SPCON
      000000C4H   SFRSYM    DATA     BYTE      CCL2
      000000D8H.7 SFRSYM    DATA     BIT       BD
      000000A8H.7 SFRSYM    DATA     BIT       EA
      000000C6H   SFRSYM    DATA     BYTE      CCL3
      000000F8H   SFRSYM    DATA     BYTE      RAMMODE
      000000C8H.3 SFRSYM    DATA     BIT       T2R0
      000000C8H.4 SFRSYM    DATA     BIT       T2R1
      000000B7H   SFRSYM    DATA     BYTE      P0MDOUT
      000000E1H   SFRSYM    DATA     BYTE      SPSTA
      000000BCH   SFRSYM    DATA     BYTE      P1MDOUT
      000000A8H   SFRSYM    DATA     BYTE      IEN0
      000000BDH   SFRSYM    DATA     BYTE      P2MDOUT
      000000B8H   SFRSYM    DATA     BYTE      IEN1
      00000085H   SFRSYM    DATA     BYTE      DPH1
      000000BEH   SFRSYM    DATA     BYTE      P3MDOUT
      0000009AH   SFRSYM    DATA     BYTE      IEN2
      000000D1H   SFRSYM    DATA     BYTE      IEN4
      000000F8H.4 SFRSYM    DATA     BIT       APP_ACK
      000000C0H.0 SFRSYM    DATA     BIT       IADC
      00000084H   SFRSYM    DATA     BYTE      DPL1
      000000F4H   SFRSYM    DATA     BYTE      ADR_INC
      000000C8H.5 SFRSYM    DATA     BIT       I2FR
      000000C8H.6 SFRSYM    DATA     BIT       I3FR
      000000C0H.7 SFRSYM    DATA     BIT       EXF2
      00000098H.4 SFRSYM    DATA     BIT       REN0
      000000C8H.2 SFRSYM    DATA     BIT       T2CM
      000000DBH   SFRSYM    DATA     BYTE      I2CADR
      000000B8H.1 SFRSYM    DATA     BIT       ECAN
LX51 LINKER/LOCATER V4.66.87.0                                                        10/15/2020  10:36:21  PAGE 37


      000000C0H.1 SFRSYM    DATA     BIT       IEX2
      000000E4H   SFRSYM    DATA     BYTE      SPSSN
      000000DAH   SFRSYM    DATA     BYTE      I2CDAT
      000000C0H.2 SFRSYM    DATA     BIT       IEX3
      000000C1H   SFRSYM    DATA     BYTE      CCEN
      000000C0H.3 SFRSYM    DATA     BIT       IEX4
      000000C0H.4 SFRSYM    DATA     BIT       IEX5
      000000D0H.7 SFRSYM    DATA     BIT       CY
      000000C0H.5 SFRSYM    DATA     BIT       IEX6
      000000B8H.3 SFRSYM    DATA     BIT       ES2R
      000000B8H.5 SFRSYM    DATA     BIT       ES3R
      000000B8H.2 SFRSYM    DATA     BIT       ES2T
      000000B8H.4 SFRSYM    DATA     BIT       ES3T
      000000DCH   SFRSYM    DATA     BYTE      I2CCON
      00000081H   SFRSYM    DATA     BYTE      SP
      000000D0H.2 SFRSYM    DATA     BIT       OV
      000000DDH   SFRSYM    DATA     BYTE      I2CSTA
      00000095H   SFRSYM    DATA     BYTE      D_PAGESEL
      000000C8H.7 SFRSYM    DATA     BIT       T2PS
      000000F8H.7 SFRSYM    DATA     BIT       APP_REQ
      000000BFH   SFRSYM    DATA     BYTE      IRCON2
      00000080H.0 SFRSYM    DATA     BIT       P00
      000000BAH   SFRSYM    DATA     BYTE      SREL0H
      00000090H.0 SFRSYM    DATA     BIT       P10
      00000080H.1 SFRSYM    DATA     BIT       P01
      000000BBH   SFRSYM    DATA     BYTE      SREL1H
      00000087H   SFRSYM    DATA     BYTE      PCON
      000000A0H.0 SFRSYM    DATA     BIT       P20
      00000090H.1 SFRSYM    DATA     BIT       P11
      00000080H.2 SFRSYM    DATA     BIT       P02
      000000B0H.0 SFRSYM    DATA     BIT       P30
      000000A0H.1 SFRSYM    DATA     BIT       P21
      00000090H.2 SFRSYM    DATA     BIT       P12
      00000080H.3 SFRSYM    DATA     BIT       P03
      000000B0H.1 SFRSYM    DATA     BIT       P31
      000000A0H.2 SFRSYM    DATA     BIT       P22
      00000090H.3 SFRSYM    DATA     BIT       P13
      00000080H.4 SFRSYM    DATA     BIT       P04
      000000F9H   SFRSYM    DATA     BYTE      PORTDRV
      000000AAH   SFRSYM    DATA     BYTE      SREL0L
      000000B0H.2 SFRSYM    DATA     BIT       P32
      000000A0H.3 SFRSYM    DATA     BIT       P23
      00000090H.4 SFRSYM    DATA     BIT       P14
      00000080H.5 SFRSYM    DATA     BIT       P05
      0000009DH   SFRSYM    DATA     BYTE      SREL1L
      00000089H   SFRSYM    DATA     BYTE      TMOD
      00000088H   SFRSYM    DATA     BYTE      TCON
      000000B0H.3 SFRSYM    DATA     BIT       P33
      000000A0H.4 SFRSYM    DATA     BIT       P24
      00000090H.5 SFRSYM    DATA     BIT       P15
      00000080H.6 SFRSYM    DATA     BIT       P06
      000000B0H.4 SFRSYM    DATA     BIT       P34
      000000A0H.5 SFRSYM    DATA     BIT       P25
      00000090H.6 SFRSYM    DATA     BIT       P16
      00000080H.7 SFRSYM    DATA     BIT       P07
      000000B0H.5 SFRSYM    DATA     BIT       P35
      000000A0H.6 SFRSYM    DATA     BIT       P26
      00000090H.7 SFRSYM    DATA     BIT       P17
      000000B4H   SFRSYM    DATA     BYTE      DMASEL
      000000B0H.6 SFRSYM    DATA     BIT       P36
      000000A0H.7 SFRSYM    DATA     BIT       P27
      000000FFH   SFRSYM    DATA     BYTE      EXDATA
      00000097H   SFRSYM    DATA     BYTE      SCON2R
      000000B0H.7 SFRSYM    DATA     BIT       P37
      000000D9H   SFRSYM    DATA     BYTE      BODE2_DIV_H
LX51 LINKER/LOCATER V4.66.87.0                                                        10/15/2020  10:36:21  PAGE 38


      000000ABH   SFRSYM    DATA     BYTE      SCON3R
      000000AEH   SFRSYM    DATA     BYTE      BODE3_DIV_H
      00000096H   SFRSYM    DATA     BYTE      SCON2T
      000000A7H   SFRSYM    DATA     BYTE      SCON3T
      00000088H.1 SFRSYM    DATA     BIT       IE0
      000000F5H   SFRSYM    DATA     BYTE      ISCHEADER2
      000000E7H   SFRSYM    DATA     BYTE      BODE2_DIV_L
      00000088H.3 SFRSYM    DATA     BIT       IE1
      000000F6H   SFRSYM    DATA     BYTE      ISCHEADER3
      000000AFH   SFRSYM    DATA     BYTE      BODE3_DIV_L
      000000C9H   SFRSYM    DATA     BYTE      MUX_SEL
      000000F0H   SFRSYM    DATA     BYTE      B
      000000E9H   SFRSYM    DATA     BYTE      MD0
      000000EAH   SFRSYM    DATA     BYTE      MD1
      000000B8H.6 SFRSYM    DATA     BIT       SWDT
      000000EBH   SFRSYM    DATA     BYTE      MD2
      000000ECH   SFRSYM    DATA     BYTE      MD3
      000000EDH   SFRSYM    DATA     BYTE      MD4
      000000EEH   SFRSYM    DATA     BYTE      MD5
      000000B1H   SFRSYM    DATA     BYTE      DMAC0
      000000E0H   SFRSYM    DATA     BYTE      ACC
      000000B2H   SFRSYM    DATA     BYTE      DMAC1
      000000A8H.4 SFRSYM    DATA     BIT       ES0
      000000B3H   SFRSYM    DATA     BYTE      DMAC2
      0000008FH   SFRSYM    DATA     BYTE      CAN_CR
      000000A8H.1 SFRSYM    DATA     BIT       ET0
      000000A9H   SFRSYM    DATA     BYTE      IP0
      000000A8H.3 SFRSYM    DATA     BIT       ET1
      00000088H.5 SFRSYM    DATA     BIT       TF0
      000000B9H   SFRSYM    DATA     BYTE      IP1
      000000A8H.5 SFRSYM    DATA     BIT       ET2
      00000098H.0 SFRSYM    DATA     BIT       RI0
      00000088H.7 SFRSYM    DATA     BIT       TF1
      000000FDH   SFRSYM    DATA     BYTE      DATA0
      000000C0H.6 SFRSYM    DATA     BIT       TF2
      000000FCH   SFRSYM    DATA     BYTE      DATA1
      000000E8H   SFRSYM    DATA     BYTE      CAN_ET
      0000008CH   SFRSYM    DATA     BYTE      TH0
      000000A8H.0 SFRSYM    DATA     BIT       EX0
      00000098H.1 SFRSYM    DATA     BIT       TI0
      00000088H.0 SFRSYM    DATA     BIT       IT0
      000000FBH   SFRSYM    DATA     BYTE      DATA2
      000000F7H   SFRSYM    DATA     BYTE      SRST
      0000008DH   SFRSYM    DATA     BYTE      TH1
      000000A8H.2 SFRSYM    DATA     BIT       EX1
      00000088H.2 SFRSYM    DATA     BIT       IT1
      000000FAH   SFRSYM    DATA     BYTE      DATA3
      000000CDH   SFRSYM    DATA     BYTE      TH2
      00000091H   SFRSYM    DATA     BYTE      CAN_IR
      000000D0H.0 SFRSYM    DATA     BIT       P
      00000098H.7 SFRSYM    DATA     BIT       SM0
      000000B5H   SFRSYM    DATA     BYTE      DMAM0
      0000008AH   SFRSYM    DATA     BYTE      TL0
      00000098H.6 SFRSYM    DATA     BIT       SM1
      000000B6H   SFRSYM    DATA     BYTE      DMAM1
      0000008BH   SFRSYM    DATA     BYTE      TL1
      000000CCH   SFRSYM    DATA     BYTE      TL2
      000000B8H.0 SFRSYM    DATA     BIT       EX7
      00000086H   SFRSYM    DATA     BYTE      WDTREL
      000000F8H.6 SFRSYM    DATA     BIT       APP_EN
      000000D0H.3 SFRSYM    DATA     BIT       RS0
      00000088H.4 SFRSYM    DATA     BIT       TR0
      000000D0H.4 SFRSYM    DATA     BIT       RS1
      000000A1H   SFRSYM    DATA     BYTE      DMAS0
      00000088H.6 SFRSYM    DATA     BIT       TR1
LX51 LINKER/LOCATER V4.66.87.0                                                        10/15/2020  10:36:21  PAGE 39


      000000A4H   SFRSYM    DATA     BYTE      DMAT0
      000000A2H   SFRSYM    DATA     BYTE      DMAS1
      00000093H   SFRSYM    DATA     BYTE      DPC
      000000E5H   SFRSYM    DATA     BYTE      MAC_MODE
      000000A5H   SFRSYM    DATA     BYTE      DMAT1
      000000A3H   SFRSYM    DATA     BYTE      DMAS2
      000000A6H   SFRSYM    DATA     BYTE      DMAT2
      00000083H   SFRSYM    DATA     BYTE      DPH
      00000082H   SFRSYM    DATA     BYTE      DPL
      00000099H   SFRSYM    DATA     BYTE      SBUF0
      0000009CH   SFRSYM    DATA     BYTE      SBUF1
      000000B8H.7 SFRSYM    DATA     BIT       EXEN2
      00000098H   SFRSYM    DATA     BYTE      SCON0
      0000009BH   SFRSYM    DATA     BYTE      SCON1
      000000D8H   SFRSYM    DATA     BYTE      ADCON
      000000C8H   SFRSYM    DATA     BYTE      T2CON
      000000E6H   SFRSYM    DATA     BYTE      DIV_MODE
      000000F8H.5 SFRSYM    DATA     BIT       APP_RW
      000000CBH   SFRSYM    DATA     BYTE      TRL2H
      0000009FH   SFRSYM    DATA     BYTE      SBUF2_RX
      000000A8H.6 SFRSYM    DATA     BIT       WDT
      000000ADH   SFRSYM    DATA     BYTE      SBUF3_RX
      0000008EH   SFRSYM    DATA     BYTE      CKCON
      0000009EH   SFRSYM    DATA     BYTE      SBUF2_TX
      000000CAH   SFRSYM    DATA     BYTE      TRL2L
      000000ACH   SFRSYM    DATA     BYTE      SBUF3_TX
      000000EFH   SFRSYM    DATA     BYTE      ARCON
      000000D0H.5 SFRSYM    DATA     BIT       F0
      000000FEH   SFRSYM    DATA     BYTE      EXADR
      000000D0H.1 SFRSYM    DATA     BIT       F1
      00000092H   SFRSYM    DATA     BYTE      DPSEL
      000000D0H   SFRSYM    DATA     BYTE      PSW
      00000090H.2 SFRSYM    DATA     BIT       key1
      00000090H.3 SFRSYM    DATA     BIT       key2
      00000098H.2 SFRSYM    DATA     BIT       RB80
      000000C0H   SFRSYM    DATA     BYTE      IRCON
      00000090H.4 SFRSYM    DATA     BIT       key3
      000000E3H   SFRSYM    DATA     BYTE      SPDAT

      0100CE51H   BLOCK     CODE     ---       LVL=0
      0100CE51H   LINE      CODE     ---       #49
      0100CE51H   LINE      CODE     ---       #50
      0100CE51H   LINE      CODE     ---       #52
      0100CE54H   LINE      CODE     ---       #54
      0100CE57H   LINE      CODE     ---       #55
      0100CE59H   LINE      CODE     ---       #56
      0100CE5BH   LINE      CODE     ---       #59
      0100CE5FH   LINE      CODE     ---       #60
      0100CE63H   LINE      CODE     ---       #62
      0100CE66H   LINE      CODE     ---       #63
      0100CE69H   LINE      CODE     ---       #64
      0100CE6CH   LINE      CODE     ---       #65
      0100CE6EH   LINE      CODE     ---       #67
      0100CE70H   LINE      CODE     ---       #68
      0100CE74H   LINE      CODE     ---       #69
      0100CE78H   LINE      CODE     ---       #70
      0100CE7CH   LINE      CODE     ---       #71
      ---         BLOCKEND  ---      ---       LVL=0

      0100942DH   BLOCK     CODE     ---       LVL=0
      0100942DH   LINE      CODE     ---       #82
      0100943AH   LINE      CODE     ---       #84
      0100943CH   LINE      CODE     ---       #85
      0100943FH   LINE      CODE     ---       #86
      01009442H   LINE      CODE     ---       #87
LX51 LINKER/LOCATER V4.66.87.0                                                        10/15/2020  10:36:21  PAGE 40


      01009448H   LINE      CODE     ---       #88
      01009456H   LINE      CODE     ---       #89
      0100945EH   LINE      CODE     ---       #90
      0100945EH   LINE      CODE     ---       #91
      0100946CH   LINE      CODE     ---       #92
      01009473H   LINE      CODE     ---       #93
      01009473H   LINE      CODE     ---       #94
      0100947AH   LINE      CODE     ---       #95
      01009481H   LINE      CODE     ---       #96
      01009481H   LINE      CODE     ---       #97
      01009481H   LINE      CODE     ---       #98
      01009484H   LINE      CODE     ---       #99
      01009484H   LINE      CODE     ---       #100
      0100948AH   LINE      CODE     ---       #101
      01009490H   LINE      CODE     ---       #102
      01009490H   LINE      CODE     ---       #103
      01009492H   LINE      CODE     ---       #104
      01009499H   LINE      CODE     ---       #105
      01009499H   LINE      CODE     ---       #106
      0100949BH   LINE      CODE     ---       #107
      010094A0H   LINE      CODE     ---       #108
      010094A2H   LINE      CODE     ---       #110
      010094A2H   LINE      CODE     ---       #111
      010094A8H   LINE      CODE     ---       #112
      010094AEH   LINE      CODE     ---       #113
      010094AEH   LINE      CODE     ---       #114
      010094B0H   LINE      CODE     ---       #115
      010094B6H   LINE      CODE     ---       #116
      010094B6H   LINE      CODE     ---       #117
      010094B6H   LINE      CODE     ---       #118
      010094B6H   LINE      CODE     ---       #119
      010094B8H   LINE      CODE     ---       #121
      010094B8H   LINE      CODE     ---       #122
      010094BDH   LINE      CODE     ---       #123
      010094C2H   LINE      CODE     ---       #124
      010094C2H   LINE      CODE     ---       #125
      010094C5H   LINE      CODE     ---       #126
      010094C5H   LINE      CODE     ---       #127
      010094CBH   LINE      CODE     ---       #128
      010094D1H   LINE      CODE     ---       #129
      010094D1H   LINE      CODE     ---       #130
      010094D3H   LINE      CODE     ---       #131
      010094DAH   LINE      CODE     ---       #132
      010094DAH   LINE      CODE     ---       #133
      010094DCH   LINE      CODE     ---       #134
      010094E1H   LINE      CODE     ---       #135
      010094E6H   LINE      CODE     ---       #136
      010094E8H   LINE      CODE     ---       #138
      010094E8H   LINE      CODE     ---       #139
      010094EEH   LINE      CODE     ---       #140
      010094F4H   LINE      CODE     ---       #141
      010094F4H   LINE      CODE     ---       #142
      010094F6H   LINE      CODE     ---       #143
      010094FCH   LINE      CODE     ---       #144
      010094FCH   LINE      CODE     ---       #145
      010094FCH   LINE      CODE     ---       #146
      010094FCH   LINE      CODE     ---       #147
      010094FEH   LINE      CODE     ---       #149
      010094FEH   LINE      CODE     ---       #150
      01009503H   LINE      CODE     ---       #151
      01009508H   LINE      CODE     ---       #152
      01009508H   LINE      CODE     ---       #153
      0100950BH   LINE      CODE     ---       #154
      0100950BH   LINE      CODE     ---       #155
      01009511H   LINE      CODE     ---       #156
LX51 LINKER/LOCATER V4.66.87.0                                                        10/15/2020  10:36:21  PAGE 41


      01009517H   LINE      CODE     ---       #157
      01009517H   LINE      CODE     ---       #158
      01009519H   LINE      CODE     ---       #159
      01009520H   LINE      CODE     ---       #160
      01009520H   LINE      CODE     ---       #161
      01009522H   LINE      CODE     ---       #162
      01009527H   LINE      CODE     ---       #163
      01009529H   LINE      CODE     ---       #165
      01009529H   LINE      CODE     ---       #166
      0100952FH   LINE      CODE     ---       #167
      01009535H   LINE      CODE     ---       #168
      01009535H   LINE      CODE     ---       #169
      01009537H   LINE      CODE     ---       #170
      0100953DH   LINE      CODE     ---       #171
      0100953DH   LINE      CODE     ---       #172
      0100953DH   LINE      CODE     ---       #173
      0100953DH   LINE      CODE     ---       #174
      0100953FH   LINE      CODE     ---       #176
      0100953FH   LINE      CODE     ---       #177
      01009544H   LINE      CODE     ---       #178
      01009549H   LINE      CODE     ---       #179
      01009549H   LINE      CODE     ---       #180
      0100954CH   LINE      CODE     ---       #181
      0100954CH   LINE      CODE     ---       #182
      01009552H   LINE      CODE     ---       #183
      01009558H   LINE      CODE     ---       #184
      01009558H   LINE      CODE     ---       #185
      0100955AH   LINE      CODE     ---       #186
      01009561H   LINE      CODE     ---       #187
      01009561H   LINE      CODE     ---       #188
      01009563H   LINE      CODE     ---       #189
      01009568H   LINE      CODE     ---       #190
      01009568H   LINE      CODE     ---       #191
      01009568H   LINE      CODE     ---       #192
      0100956AH   LINE      CODE     ---       #194
      0100956AH   LINE      CODE     ---       #195
      0100956FH   LINE      CODE     ---       #196
      01009574H   LINE      CODE     ---       #197
      01009574H   LINE      CODE     ---       #198
      01009576H   LINE      CODE     ---       #199
      ---         BLOCKEND  ---      ---       LVL=0

      0100CFEFH   BLOCK     CODE     ---       LVL=0
      0100CFEFH   LINE      CODE     ---       #201
      0100CFEFH   LINE      CODE     ---       #203
      0100CFF1H   LINE      CODE     ---       #204
      0100CFF3H   LINE      CODE     ---       #205
      0100CFF5H   LINE      CODE     ---       #206
      ---         BLOCKEND  ---      ---       LVL=0

      0100CCB5H   BLOCK     CODE     ---       LVL=0
      00000002H   SYMBOL    DATA     BYTE      ID
      00000004H   SYMBOL    DATA     WORD      nTime
      0100CCB5H   LINE      CODE     ---       #221
      0100CCB7H   LINE      CODE     ---       #222
      0100CCB7H   LINE      CODE     ---       #223
      0100CCB9H   LINE      CODE     ---       #224
      0100CCCBH   LINE      CODE     ---       #225
      0100CCDCH   LINE      CODE     ---       #226
      0100CCE7H   LINE      CODE     ---       #227
      0100CCE9H   LINE      CODE     ---       #228
      ---         BLOCKEND  ---      ---       LVL=0

      0100CECFH   BLOCK     CODE     ---       LVL=0
      00000004H   SYMBOL    DATA     BYTE      ID
LX51 LINKER/LOCATER V4.66.87.0                                                        10/15/2020  10:36:21  PAGE 42


      0100CECFH   LINE      CODE     ---       #241
      0100CED1H   LINE      CODE     ---       #242
      0100CED1H   LINE      CODE     ---       #243
      0100CED3H   LINE      CODE     ---       #244
      0100CEEAH   LINE      CODE     ---       #245
      0100CEF0H   LINE      CODE     ---       #246
      0100CEF2H   LINE      CODE     ---       #247
      ---         BLOCKEND  ---      ---       LVL=0

      0100CF67H   BLOCK     CODE     ---       LVL=0
      00000007H   SYMBOL    DATA     BYTE      ID
      0100CF67H   BLOCK     CODE     NEAR LAB  LVL=1
      00000007H   SYMBOL    DATA     BYTE      flag
      ---         BLOCKEND  ---      ---       LVL=1
      0100CF67H   LINE      CODE     ---       #259
      0100CF67H   LINE      CODE     ---       #260
      0100CF67H   LINE      CODE     ---       #262
      0100CF69H   LINE      CODE     ---       #263
      0100CF7BH   LINE      CODE     ---       #264
      0100CF7DH   LINE      CODE     ---       #265
      0100CF7DH   LINE      CODE     ---       #267
      ---         BLOCKEND  ---      ---       LVL=0

      ---         MODULE    ---      ---       UART
      02008C44H   PUBLIC    XDATA    ---       Uart_Struct
      0100C32FH   PUBLIC    CODE     ---       uart3_Isr
      0100CE21H   PUBLIC    CODE     ---       uart5r_Isr
      0100CAE2H   PUBLIC    CODE     ---       uart5t_Isr
      0100CDF1H   PUBLIC    CODE     ---       uart4r_Isr
      0100CA9BH   PUBLIC    CODE     ---       uart4t_Isr
      0100C4EEH   PUBLIC    CODE     ---       uart2_Isr
      0100A1A8H   PUBLIC    CODE     ---       _Uatr_Send_Data
      0100CD1FH   PUBLIC    CODE     ---       _UART5_Init
      0100CCEAH   PUBLIC    CODE     ---       _UART4_Init
      0100C7D7H   PUBLIC    CODE     ---       _UART3_Init
      0100C677H   PUBLIC    CODE     ---       _UART2_Init
      00000098H.3 SFRSYM    DATA     BIT       TB80
      000000C8H.0 SFRSYM    DATA     BIT       T2I0
      000000F1H   SFRSYM    DATA     BYTE      ADR_H
      000000C3H   SFRSYM    DATA     BYTE      CCH1
      00000080H   SFRSYM    DATA     BYTE      P0
      000000C8H.1 SFRSYM    DATA     BIT       T2I1
      000000C5H   SFRSYM    DATA     BYTE      CCH2
      00000090H   SFRSYM    DATA     BYTE      P1
      000000C7H   SFRSYM    DATA     BYTE      CCH3
      000000A0H   SFRSYM    DATA     BYTE      P2
      00000098H.5 SFRSYM    DATA     BIT       SM20
      000000B0H   SFRSYM    DATA     BYTE      P3
      000000D0H.6 SFRSYM    DATA     BIT       AC
      000000F3H   SFRSYM    DATA     BYTE      ADR_L
      000000C2H   SFRSYM    DATA     BYTE      CCL1
      00000094H   SFRSYM    DATA     BYTE      PAGESEL
      000000F2H   SFRSYM    DATA     BYTE      ADR_M
      000000E2H   SFRSYM    DATA     BYTE      SPCON
      000000C4H   SFRSYM    DATA     BYTE      CCL2
      000000D8H.7 SFRSYM    DATA     BIT       BD
      000000A8H.7 SFRSYM    DATA     BIT       EA
      000000C6H   SFRSYM    DATA     BYTE      CCL3
      000000F8H   SFRSYM    DATA     BYTE      RAMMODE
      000000C8H.3 SFRSYM    DATA     BIT       T2R0
      000000C8H.4 SFRSYM    DATA     BIT       T2R1
      000000B7H   SFRSYM    DATA     BYTE      P0MDOUT
      000000E1H   SFRSYM    DATA     BYTE      SPSTA
      000000BCH   SFRSYM    DATA     BYTE      P1MDOUT
      000000A8H   SFRSYM    DATA     BYTE      IEN0
LX51 LINKER/LOCATER V4.66.87.0                                                        10/15/2020  10:36:21  PAGE 43


      000000BDH   SFRSYM    DATA     BYTE      P2MDOUT
      000000B8H   SFRSYM    DATA     BYTE      IEN1
      00000085H   SFRSYM    DATA     BYTE      DPH1
      000000BEH   SFRSYM    DATA     BYTE      P3MDOUT
      0000009AH   SFRSYM    DATA     BYTE      IEN2
      000000D1H   SFRSYM    DATA     BYTE      IEN4
      000000F8H.4 SFRSYM    DATA     BIT       APP_ACK
      000000C0H.0 SFRSYM    DATA     BIT       IADC
      00000084H   SFRSYM    DATA     BYTE      DPL1
      000000F4H   SFRSYM    DATA     BYTE      ADR_INC
      000000C8H.5 SFRSYM    DATA     BIT       I2FR
      000000C8H.6 SFRSYM    DATA     BIT       I3FR
      000000C0H.7 SFRSYM    DATA     BIT       EXF2
      00000098H.4 SFRSYM    DATA     BIT       REN0
      000000C8H.2 SFRSYM    DATA     BIT       T2CM
      000000DBH   SFRSYM    DATA     BYTE      I2CADR
      000000B8H.1 SFRSYM    DATA     BIT       ECAN
      000000C0H.1 SFRSYM    DATA     BIT       IEX2
      000000E4H   SFRSYM    DATA     BYTE      SPSSN
      000000DAH   SFRSYM    DATA     BYTE      I2CDAT
      000000C0H.2 SFRSYM    DATA     BIT       IEX3
      000000C1H   SFRSYM    DATA     BYTE      CCEN
      000000C0H.3 SFRSYM    DATA     BIT       IEX4
      000000C0H.4 SFRSYM    DATA     BIT       IEX5
      000000D0H.7 SFRSYM    DATA     BIT       CY
      000000C0H.5 SFRSYM    DATA     BIT       IEX6
      000000B8H.3 SFRSYM    DATA     BIT       ES2R
      000000B8H.5 SFRSYM    DATA     BIT       ES3R
      000000B8H.2 SFRSYM    DATA     BIT       ES2T
      000000B8H.4 SFRSYM    DATA     BIT       ES3T
      000000DCH   SFRSYM    DATA     BYTE      I2CCON
      00000081H   SFRSYM    DATA     BYTE      SP
      000000D0H.2 SFRSYM    DATA     BIT       OV
      000000DDH   SFRSYM    DATA     BYTE      I2CSTA
      00000095H   SFRSYM    DATA     BYTE      D_PAGESEL
      000000C8H.7 SFRSYM    DATA     BIT       T2PS
      000000F8H.7 SFRSYM    DATA     BIT       APP_REQ
      000000BFH   SFRSYM    DATA     BYTE      IRCON2
      00000080H.0 SFRSYM    DATA     BIT       P00
      000000BAH   SFRSYM    DATA     BYTE      SREL0H
      00000090H.0 SFRSYM    DATA     BIT       P10
      00000080H.1 SFRSYM    DATA     BIT       P01
      000000BBH   SFRSYM    DATA     BYTE      SREL1H
      00000087H   SFRSYM    DATA     BYTE      PCON
      000000A0H.0 SFRSYM    DATA     BIT       P20
      00000090H.1 SFRSYM    DATA     BIT       P11
      00000080H.2 SFRSYM    DATA     BIT       P02
      000000B0H.0 SFRSYM    DATA     BIT       P30
      000000A0H.1 SFRSYM    DATA     BIT       P21
      00000090H.2 SFRSYM    DATA     BIT       P12
      00000080H.3 SFRSYM    DATA     BIT       P03
      000000B0H.1 SFRSYM    DATA     BIT       P31
      000000A0H.2 SFRSYM    DATA     BIT       P22
      00000090H.3 SFRSYM    DATA     BIT       P13
      00000080H.4 SFRSYM    DATA     BIT       P04
      000000F9H   SFRSYM    DATA     BYTE      PORTDRV
      000000AAH   SFRSYM    DATA     BYTE      SREL0L
      000000B0H.2 SFRSYM    DATA     BIT       P32
      000000A0H.3 SFRSYM    DATA     BIT       P23
      00000090H.4 SFRSYM    DATA     BIT       P14
      00000080H.5 SFRSYM    DATA     BIT       P05
      0000009DH   SFRSYM    DATA     BYTE      SREL1L
      00000089H   SFRSYM    DATA     BYTE      TMOD
      00000088H   SFRSYM    DATA     BYTE      TCON
      000000B0H.3 SFRSYM    DATA     BIT       P33
LX51 LINKER/LOCATER V4.66.87.0                                                        10/15/2020  10:36:21  PAGE 44


      000000A0H.4 SFRSYM    DATA     BIT       P24
      00000090H.5 SFRSYM    DATA     BIT       P15
      00000080H.6 SFRSYM    DATA     BIT       P06
      000000B0H.4 SFRSYM    DATA     BIT       P34
      000000A0H.5 SFRSYM    DATA     BIT       P25
      00000090H.6 SFRSYM    DATA     BIT       P16
      00000080H.7 SFRSYM    DATA     BIT       P07
      000000B0H.5 SFRSYM    DATA     BIT       P35
      000000A0H.6 SFRSYM    DATA     BIT       P26
      00000090H.7 SFRSYM    DATA     BIT       P17
      000000B4H   SFRSYM    DATA     BYTE      DMASEL
      000000B0H.6 SFRSYM    DATA     BIT       P36
      000000A0H.7 SFRSYM    DATA     BIT       P27
      000000FFH   SFRSYM    DATA     BYTE      EXDATA
      00000097H   SFRSYM    DATA     BYTE      SCON2R
      000000B0H.7 SFRSYM    DATA     BIT       P37
      000000D9H   SFRSYM    DATA     BYTE      BODE2_DIV_H
      000000ABH   SFRSYM    DATA     BYTE      SCON3R
      000000AEH   SFRSYM    DATA     BYTE      BODE3_DIV_H
      00000096H   SFRSYM    DATA     BYTE      SCON2T
      000000A7H   SFRSYM    DATA     BYTE      SCON3T
      00000088H.1 SFRSYM    DATA     BIT       IE0
      000000F5H   SFRSYM    DATA     BYTE      ISCHEADER2
      000000E7H   SFRSYM    DATA     BYTE      BODE2_DIV_L
      00000088H.3 SFRSYM    DATA     BIT       IE1
      000000F6H   SFRSYM    DATA     BYTE      ISCHEADER3
      000000AFH   SFRSYM    DATA     BYTE      BODE3_DIV_L
      000000C9H   SFRSYM    DATA     BYTE      MUX_SEL
      000000F0H   SFRSYM    DATA     BYTE      B
      000000E9H   SFRSYM    DATA     BYTE      MD0
      000000EAH   SFRSYM    DATA     BYTE      MD1
      000000B8H.6 SFRSYM    DATA     BIT       SWDT
      000000EBH   SFRSYM    DATA     BYTE      MD2
      000000ECH   SFRSYM    DATA     BYTE      MD3
      000000EDH   SFRSYM    DATA     BYTE      MD4
      000000EEH   SFRSYM    DATA     BYTE      MD5
      000000B1H   SFRSYM    DATA     BYTE      DMAC0
      000000E0H   SFRSYM    DATA     BYTE      ACC
      000000B2H   SFRSYM    DATA     BYTE      DMAC1
      000000A8H.4 SFRSYM    DATA     BIT       ES0
      000000B3H   SFRSYM    DATA     BYTE      DMAC2
      0000008FH   SFRSYM    DATA     BYTE      CAN_CR
      000000A8H.1 SFRSYM    DATA     BIT       ET0
      000000A9H   SFRSYM    DATA     BYTE      IP0
      000000A8H.3 SFRSYM    DATA     BIT       ET1
      00000088H.5 SFRSYM    DATA     BIT       TF0
      000000B9H   SFRSYM    DATA     BYTE      IP1
      000000A8H.5 SFRSYM    DATA     BIT       ET2
      00000098H.0 SFRSYM    DATA     BIT       RI0
      00000088H.7 SFRSYM    DATA     BIT       TF1
      000000FDH   SFRSYM    DATA     BYTE      DATA0
      000000C0H.6 SFRSYM    DATA     BIT       TF2
      000000FCH   SFRSYM    DATA     BYTE      DATA1
      000000E8H   SFRSYM    DATA     BYTE      CAN_ET
      0000008CH   SFRSYM    DATA     BYTE      TH0
      000000A8H.0 SFRSYM    DATA     BIT       EX0
      00000098H.1 SFRSYM    DATA     BIT       TI0
      00000088H.0 SFRSYM    DATA     BIT       IT0
      000000FBH   SFRSYM    DATA     BYTE      DATA2
      000000F7H   SFRSYM    DATA     BYTE      SRST
      0000008DH   SFRSYM    DATA     BYTE      TH1
      000000A8H.2 SFRSYM    DATA     BIT       EX1
      00000088H.2 SFRSYM    DATA     BIT       IT1
      000000FAH   SFRSYM    DATA     BYTE      DATA3
      000000CDH   SFRSYM    DATA     BYTE      TH2
LX51 LINKER/LOCATER V4.66.87.0                                                        10/15/2020  10:36:21  PAGE 45


      00000091H   SFRSYM    DATA     BYTE      CAN_IR
      000000D0H.0 SFRSYM    DATA     BIT       P
      00000098H.7 SFRSYM    DATA     BIT       SM0
      000000B5H   SFRSYM    DATA     BYTE      DMAM0
      0000008AH   SFRSYM    DATA     BYTE      TL0
      00000098H.6 SFRSYM    DATA     BIT       SM1
      000000B6H   SFRSYM    DATA     BYTE      DMAM1
      0000008BH   SFRSYM    DATA     BYTE      TL1
      000000CCH   SFRSYM    DATA     BYTE      TL2
      000000B8H.0 SFRSYM    DATA     BIT       EX7
      00000086H   SFRSYM    DATA     BYTE      WDTREL
      000000F8H.6 SFRSYM    DATA     BIT       APP_EN
      000000D0H.3 SFRSYM    DATA     BIT       RS0
      00000088H.4 SFRSYM    DATA     BIT       TR0
      000000D0H.4 SFRSYM    DATA     BIT       RS1
      000000A1H   SFRSYM    DATA     BYTE      DMAS0
      00000088H.6 SFRSYM    DATA     BIT       TR1
      000000A4H   SFRSYM    DATA     BYTE      DMAT0
      000000A2H   SFRSYM    DATA     BYTE      DMAS1
      00000093H   SFRSYM    DATA     BYTE      DPC
      000000E5H   SFRSYM    DATA     BYTE      MAC_MODE
      000000A5H   SFRSYM    DATA     BYTE      DMAT1
      000000A3H   SFRSYM    DATA     BYTE      DMAS2
      000000A6H   SFRSYM    DATA     BYTE      DMAT2
      00000083H   SFRSYM    DATA     BYTE      DPH
      00000082H   SFRSYM    DATA     BYTE      DPL
      00000099H   SFRSYM    DATA     BYTE      SBUF0
      0000009CH   SFRSYM    DATA     BYTE      SBUF1
      000000B8H.7 SFRSYM    DATA     BIT       EXEN2
      00000098H   SFRSYM    DATA     BYTE      SCON0
      0000009BH   SFRSYM    DATA     BYTE      SCON1
      000000D8H   SFRSYM    DATA     BYTE      ADCON
      000000C8H   SFRSYM    DATA     BYTE      T2CON
      000000E6H   SFRSYM    DATA     BYTE      DIV_MODE
      000000F8H.5 SFRSYM    DATA     BIT       APP_RW
      000000CBH   SFRSYM    DATA     BYTE      TRL2H
      0000009FH   SFRSYM    DATA     BYTE      SBUF2_RX
      000000A8H.6 SFRSYM    DATA     BIT       WDT
      000000ADH   SFRSYM    DATA     BYTE      SBUF3_RX
      0000008EH   SFRSYM    DATA     BYTE      CKCON
      0000009EH   SFRSYM    DATA     BYTE      SBUF2_TX
      000000CAH   SFRSYM    DATA     BYTE      TRL2L
      000000ACH   SFRSYM    DATA     BYTE      SBUF3_TX
      000000EFH   SFRSYM    DATA     BYTE      ARCON
      000000D0H.5 SFRSYM    DATA     BIT       F0
      000000FEH   SFRSYM    DATA     BYTE      EXADR
      000000D0H.1 SFRSYM    DATA     BIT       F1
      00000092H   SFRSYM    DATA     BYTE      DPSEL
      000000D0H   SFRSYM    DATA     BYTE      PSW
      00000098H.2 SFRSYM    DATA     BIT       RB80
      000000C0H   SFRSYM    DATA     BYTE      IRCON
      000000E3H   SFRSYM    DATA     BYTE      SPDAT

      0100C677H   BLOCK     CODE     ---       LVL=0
      00000004H   SYMBOL    DATA     DWORD     bdt
      0100C677H   BLOCK     CODE     NEAR LAB  LVL=1
      02009459H   SYMBOL    XDATA    WORD      tmp
      ---         BLOCKEND  ---      ---       LVL=1
      0100C677H   LINE      CODE     ---       #32
      0100C677H   LINE      CODE     ---       #33
      0100C677H   LINE      CODE     ---       #35
      0100C698H   LINE      CODE     ---       #36
      0100C69BH   LINE      CODE     ---       #38
      0100C6A2H   LINE      CODE     ---       #39
      0100C6A9H   LINE      CODE     ---       #40
LX51 LINKER/LOCATER V4.66.87.0                                                        10/15/2020  10:36:21  PAGE 46


      0100C6ACH   LINE      CODE     ---       #42
      0100C6AFH   LINE      CODE     ---       #43
      0100C6B2H   LINE      CODE     ---       #44
      0100C6BDH   LINE      CODE     ---       #45
      0100C6BFH   LINE      CODE     ---       #47
      0100C6C2H   LINE      CODE     ---       #49
      0100C6C4H   LINE      CODE     ---       #50
      0100C6C9H   LINE      CODE     ---       #51
      0100C6CBH   LINE      CODE     ---       #52
      0100C6CDH   LINE      CODE     ---       #53
      0100C6CFH   LINE      CODE     ---       #54
      0100C6D1H   LINE      CODE     ---       #56
      ---         BLOCKEND  ---      ---       LVL=0

      0100C7D7H   BLOCK     CODE     ---       LVL=0
      00000004H   SYMBOL    DATA     DWORD     bdt
      0100C7D7H   BLOCK     CODE     NEAR LAB  LVL=1
      02009888H   SYMBOL    XDATA    WORD      tmp
      ---         BLOCKEND  ---      ---       LVL=1
      0100C7D7H   LINE      CODE     ---       #67
      0100C7D7H   LINE      CODE     ---       #68
      0100C7D7H   LINE      CODE     ---       #70
      0100C7F8H   LINE      CODE     ---       #72
      0100C7FBH   LINE      CODE     ---       #74
      0100C802H   LINE      CODE     ---       #75
      0100C809H   LINE      CODE     ---       #76
      0100C80CH   LINE      CODE     ---       #78
      0100C80FH   LINE      CODE     ---       #79
      0100C81AH   LINE      CODE     ---       #80
      0100C81CH   LINE      CODE     ---       #81
      0100C81FH   LINE      CODE     ---       #82
      0100C824H   LINE      CODE     ---       #83
      0100C826H   LINE      CODE     ---       #84
      0100C828H   LINE      CODE     ---       #85
      0100C82AH   LINE      CODE     ---       #86
      0100C82CH   LINE      CODE     ---       #87
      ---         BLOCKEND  ---      ---       LVL=0

      0100CCEAH   BLOCK     CODE     ---       LVL=0
      00000004H   SYMBOL    DATA     DWORD     bdt
      0100CCEAH   BLOCK     CODE     NEAR LAB  LVL=1
      00000004H   SYMBOL    DATA     WORD      tmp
      ---         BLOCKEND  ---      ---       LVL=1
      0100CCEAH   LINE      CODE     ---       #98
      0100CCEAH   LINE      CODE     ---       #99
      0100CCEAH   LINE      CODE     ---       #101
      0100CCEDH   LINE      CODE     ---       #102
      0100CCF0H   LINE      CODE     ---       #103
      0100CD07H   LINE      CODE     ---       #104
      0100CD0AH   LINE      CODE     ---       #105
      0100CD0EH   LINE      CODE     ---       #107
      0100CD11H   LINE      CODE     ---       #108
      0100CD16H   LINE      CODE     ---       #109
      0100CD18H   LINE      CODE     ---       #110
      0100CD1AH   LINE      CODE     ---       #111
      0100CD1CH   LINE      CODE     ---       #112
      0100CD1EH   LINE      CODE     ---       #113
      ---         BLOCKEND  ---      ---       LVL=0

      0100CD1FH   BLOCK     CODE     ---       LVL=0
      00000004H   SYMBOL    DATA     DWORD     bdt
      0100CD1FH   BLOCK     CODE     NEAR LAB  LVL=1
      00000004H   SYMBOL    DATA     WORD      tmp
      ---         BLOCKEND  ---      ---       LVL=1
      0100CD1FH   LINE      CODE     ---       #124
LX51 LINKER/LOCATER V4.66.87.0                                                        10/15/2020  10:36:21  PAGE 47


      0100CD1FH   LINE      CODE     ---       #125
      0100CD1FH   LINE      CODE     ---       #127
      0100CD22H   LINE      CODE     ---       #128
      0100CD25H   LINE      CODE     ---       #130
      0100CD3CH   LINE      CODE     ---       #131
      0100CD3FH   LINE      CODE     ---       #132
      0100CD43H   LINE      CODE     ---       #134
      0100CD46H   LINE      CODE     ---       #135
      0100CD4BH   LINE      CODE     ---       #136
      0100CD4DH   LINE      CODE     ---       #137
      0100CD4FH   LINE      CODE     ---       #138
      0100CD51H   LINE      CODE     ---       #139
      0100CD53H   LINE      CODE     ---       #140
      ---         BLOCKEND  ---      ---       LVL=0

      0100A1A8H   BLOCK     CODE     ---       LVL=0
      02009469H   SYMBOL    XDATA    BYTE      str
      0200946AH   SYMBOL    XDATA    BYTE      len
      0200946BH   SYMBOL    XDATA    ---       buf
      0100A1B9H   BLOCK     CODE     NEAR LAB  LVL=1
      00000007H   SYMBOL    DATA     BYTE      i
      ---         BLOCKEND  ---      ---       LVL=1
      0100A1A8H   LINE      CODE     ---       #152
      0100A1B9H   LINE      CODE     ---       #153
      0100A1B9H   LINE      CODE     ---       #156
      0100A1C5H   LINE      CODE     ---       #157
      0100A1C5H   LINE      CODE     ---       #158
      0100A215H   LINE      CODE     ---       #159
      0100A232H   LINE      CODE     ---       #160
      0100A235H   LINE      CODE     ---       #161
      0100A246H   LINE      CODE     ---       #162
      0100A246H   LINE      CODE     ---       #163
      0100A246H   LINE      CODE     ---       #164
      0100A24CH   LINE      CODE     ---       #165
      0100A24CH   LINE      CODE     ---       #166
      0100A24EH   LINE      CODE     ---       #167
      0100A25EH   LINE      CODE     ---       #168
      0100A261H   LINE      CODE     ---       #169
      0100A261H   LINE      CODE     ---       #170
      0100A261H   LINE      CODE     ---       #171
      0100A263H   LINE      CODE     ---       #172
      0100A263H   LINE      CODE     ---       #173
      0100A269H   LINE      CODE     ---       #174
      0100A269H   LINE      CODE     ---       #175
      0100A26BH   LINE      CODE     ---       #176
      0100A27BH   LINE      CODE     ---       #177
      0100A27EH   LINE      CODE     ---       #178
      0100A27EH   LINE      CODE     ---       #179
      0100A27EH   LINE      CODE     ---       #180
      0100A280H   LINE      CODE     ---       #181
      0100A280H   LINE      CODE     ---       #182
      0100A286H   LINE      CODE     ---       #183
      0100A286H   LINE      CODE     ---       #184
      0100A288H   LINE      CODE     ---       #185
      0100A298H   LINE      CODE     ---       #186
      0100A29BH   LINE      CODE     ---       #187
      0100A29BH   LINE      CODE     ---       #188
      0100A29BH   LINE      CODE     ---       #189
      0100A29DH   LINE      CODE     ---       #190
      0100A29DH   LINE      CODE     ---       #191
      0100A2A3H   LINE      CODE     ---       #192
      0100A2A3H   LINE      CODE     ---       #193
      0100A2A5H   LINE      CODE     ---       #194
      0100A2B5H   LINE      CODE     ---       #195
      0100A2BBH   LINE      CODE     ---       #196
LX51 LINKER/LOCATER V4.66.87.0                                                        10/15/2020  10:36:21  PAGE 48


      0100A2BDH   LINE      CODE     ---       #197
      0100A2BDH   LINE      CODE     ---       #198
      0100A2BDH   LINE      CODE     ---       #199
      0100A2BDH   LINE      CODE     ---       #200
      0100A2BDH   LINE      CODE     ---       #201
      0100A2BDH   LINE      CODE     ---       #202
      ---         BLOCKEND  ---      ---       LVL=0

      0100C4EEH   BLOCK     CODE     ---       LVL=0
      0100C4EEH   LINE      CODE     ---       #204
      0100C4FBH   LINE      CODE     ---       #206
      0100C4FDH   LINE      CODE     ---       #207
      0100C500H   LINE      CODE     ---       #208
      0100C500H   LINE      CODE     ---       #209
      0100C502H   LINE      CODE     ---       #210
      0100C512H   LINE      CODE     ---       #211
      0100C518H   LINE      CODE     ---       #212
      0100C51AH   LINE      CODE     ---       #213
      0100C51AH   LINE      CODE     ---       #214
      0100C51DH   LINE      CODE     ---       #215
      0100C51DH   LINE      CODE     ---       #216
      0100C51FH   LINE      CODE     ---       #217
      0100C52BH   LINE      CODE     ---       #218
      0100C52BH   LINE      CODE     ---       #219
      0100C538H   LINE      CODE     ---       #220
      0100C53EH   LINE      CODE     ---       #221
      0100C540H   LINE      CODE     ---       #222
      0100C542H   LINE      CODE     ---       #224
      0100C542H   LINE      CODE     ---       #225
      0100C547H   LINE      CODE     ---       #226
      0100C547H   LINE      CODE     ---       #227
      0100C547H   LINE      CODE     ---       #228
      0100C549H   LINE      CODE     ---       #229
      ---         BLOCKEND  ---      ---       LVL=0

      0100CA9BH   BLOCK     CODE     ---       LVL=0
      0100CA9BH   LINE      CODE     ---       #231
      0100CAA8H   LINE      CODE     ---       #233
      0100CAAAH   LINE      CODE     ---       #234
      0100CAADH   LINE      CODE     ---       #235
      0100CAB9H   LINE      CODE     ---       #236
      0100CAB9H   LINE      CODE     ---       #237
      0100CAC6H   LINE      CODE     ---       #238
      0100CACCH   LINE      CODE     ---       #239
      0100CACEH   LINE      CODE     ---       #240
      0100CAD0H   LINE      CODE     ---       #242
      0100CAD0H   LINE      CODE     ---       #243
      0100CAD5H   LINE      CODE     ---       #244
      0100CAD5H   LINE      CODE     ---       #245
      0100CAD7H   LINE      CODE     ---       #246
      ---         BLOCKEND  ---      ---       LVL=0

      0100CDF1H   BLOCK     CODE     ---       LVL=0
      0100CDF1H   LINE      CODE     ---       #248
      0100CDF9H   LINE      CODE     ---       #250
      0100CDFBH   LINE      CODE     ---       #251
      0100CDFEH   LINE      CODE     ---       #252
      0100CE0EH   LINE      CODE     ---       #253
      0100CE14H   LINE      CODE     ---       #254
      0100CE16H   LINE      CODE     ---       #255
      0100CE18H   LINE      CODE     ---       #256
      ---         BLOCKEND  ---      ---       LVL=0

      0100CAE2H   BLOCK     CODE     ---       LVL=0
      0100CAE2H   LINE      CODE     ---       #258
LX51 LINKER/LOCATER V4.66.87.0                                                        10/15/2020  10:36:21  PAGE 49


      0100CAEFH   LINE      CODE     ---       #260
      0100CAF1H   LINE      CODE     ---       #261
      0100CAF4H   LINE      CODE     ---       #262
      0100CB00H   LINE      CODE     ---       #263
      0100CB00H   LINE      CODE     ---       #264
      0100CB0DH   LINE      CODE     ---       #265
      0100CB13H   LINE      CODE     ---       #266
      0100CB15H   LINE      CODE     ---       #267
      0100CB17H   LINE      CODE     ---       #269
      0100CB17H   LINE      CODE     ---       #270
      0100CB1CH   LINE      CODE     ---       #271
      0100CB1CH   LINE      CODE     ---       #272
      0100CB1EH   LINE      CODE     ---       #273
      ---         BLOCKEND  ---      ---       LVL=0

      0100CE21H   BLOCK     CODE     ---       LVL=0
      0100CE21H   LINE      CODE     ---       #275
      0100CE29H   LINE      CODE     ---       #277
      0100CE2BH   LINE      CODE     ---       #278
      0100CE2EH   LINE      CODE     ---       #279
      0100CE3EH   LINE      CODE     ---       #280
      0100CE44H   LINE      CODE     ---       #281
      0100CE46H   LINE      CODE     ---       #282
      0100CE48H   LINE      CODE     ---       #283
      ---         BLOCKEND  ---      ---       LVL=0

      0100C32FH   BLOCK     CODE     ---       LVL=0
      0100C32FH   LINE      CODE     ---       #285
      0100C33CH   LINE      CODE     ---       #287
      0100C33EH   LINE      CODE     ---       #288
      0100C343H   LINE      CODE     ---       #289
      0100C343H   LINE      CODE     ---       #290
      0100C346H   LINE      CODE     ---       #291
      0100C349H   LINE      CODE     ---       #292
      0100C359H   LINE      CODE     ---       #293
      0100C35FH   LINE      CODE     ---       #294
      0100C361H   LINE      CODE     ---       #295
      0100C361H   LINE      CODE     ---       #296
      0100C366H   LINE      CODE     ---       #297
      0100C366H   LINE      CODE     ---       #298
      0100C369H   LINE      CODE     ---       #299
      0100C36CH   LINE      CODE     ---       #300
      0100C378H   LINE      CODE     ---       #301
      0100C378H   LINE      CODE     ---       #302
      0100C385H   LINE      CODE     ---       #303
      0100C38BH   LINE      CODE     ---       #304
      0100C38DH   LINE      CODE     ---       #305
      0100C38FH   LINE      CODE     ---       #307
      0100C38FH   LINE      CODE     ---       #308
      0100C394H   LINE      CODE     ---       #309
      0100C394H   LINE      CODE     ---       #310
      0100C394H   LINE      CODE     ---       #311
      0100C396H   LINE      CODE     ---       #312
      ---         BLOCKEND  ---      ---       LVL=0

      ---         MODULE    ---      ---       MAIN
      0100C0B5H   PUBLIC    CODE     ---       main
      00000090H.5 SFRSYM    DATA     BIT       key4
      00000098H.3 SFRSYM    DATA     BIT       TB80
      000000C8H.0 SFRSYM    DATA     BIT       T2I0
      000000F1H   SFRSYM    DATA     BYTE      ADR_H
      000000C3H   SFRSYM    DATA     BYTE      CCH1
      00000080H   SFRSYM    DATA     BYTE      P0
      000000C8H.1 SFRSYM    DATA     BIT       T2I1
      000000C5H   SFRSYM    DATA     BYTE      CCH2
LX51 LINKER/LOCATER V4.66.87.0                                                        10/15/2020  10:36:21  PAGE 50


      00000090H   SFRSYM    DATA     BYTE      P1
      000000C7H   SFRSYM    DATA     BYTE      CCH3
      000000A0H   SFRSYM    DATA     BYTE      P2
      00000098H.5 SFRSYM    DATA     BIT       SM20
      000000B0H   SFRSYM    DATA     BYTE      P3
      000000D0H.6 SFRSYM    DATA     BIT       AC
      000000F3H   SFRSYM    DATA     BYTE      ADR_L
      000000C2H   SFRSYM    DATA     BYTE      CCL1
      00000094H   SFRSYM    DATA     BYTE      PAGESEL
      000000F2H   SFRSYM    DATA     BYTE      ADR_M
      000000E2H   SFRSYM    DATA     BYTE      SPCON
      000000C4H   SFRSYM    DATA     BYTE      CCL2
      000000D8H.7 SFRSYM    DATA     BIT       BD
      000000A8H.7 SFRSYM    DATA     BIT       EA
      000000C6H   SFRSYM    DATA     BYTE      CCL3
      000000F8H   SFRSYM    DATA     BYTE      RAMMODE
      000000C8H.3 SFRSYM    DATA     BIT       T2R0
      000000C8H.4 SFRSYM    DATA     BIT       T2R1
      000000B7H   SFRSYM    DATA     BYTE      P0MDOUT
      000000E1H   SFRSYM    DATA     BYTE      SPSTA
      000000BCH   SFRSYM    DATA     BYTE      P1MDOUT
      000000A8H   SFRSYM    DATA     BYTE      IEN0
      000000BDH   SFRSYM    DATA     BYTE      P2MDOUT
      000000B8H   SFRSYM    DATA     BYTE      IEN1
      00000085H   SFRSYM    DATA     BYTE      DPH1
      000000BEH   SFRSYM    DATA     BYTE      P3MDOUT
      0000009AH   SFRSYM    DATA     BYTE      IEN2
      000000D1H   SFRSYM    DATA     BYTE      IEN4
      000000F8H.4 SFRSYM    DATA     BIT       APP_ACK
      000000C0H.0 SFRSYM    DATA     BIT       IADC
      00000084H   SFRSYM    DATA     BYTE      DPL1
      000000F4H   SFRSYM    DATA     BYTE      ADR_INC
      000000C8H.5 SFRSYM    DATA     BIT       I2FR
      000000C8H.6 SFRSYM    DATA     BIT       I3FR
      000000C0H.7 SFRSYM    DATA     BIT       EXF2
      00000098H.4 SFRSYM    DATA     BIT       REN0
      000000C8H.2 SFRSYM    DATA     BIT       T2CM
      000000DBH   SFRSYM    DATA     BYTE      I2CADR
      000000B8H.1 SFRSYM    DATA     BIT       ECAN
      000000C0H.1 SFRSYM    DATA     BIT       IEX2
      000000E4H   SFRSYM    DATA     BYTE      SPSSN
      000000DAH   SFRSYM    DATA     BYTE      I2CDAT
      000000C0H.2 SFRSYM    DATA     BIT       IEX3
      000000C1H   SFRSYM    DATA     BYTE      CCEN
      000000C0H.3 SFRSYM    DATA     BIT       IEX4
      000000C0H.4 SFRSYM    DATA     BIT       IEX5
      000000D0H.7 SFRSYM    DATA     BIT       CY
      000000C0H.5 SFRSYM    DATA     BIT       IEX6
      000000B8H.3 SFRSYM    DATA     BIT       ES2R
      000000B8H.5 SFRSYM    DATA     BIT       ES3R
      000000B8H.2 SFRSYM    DATA     BIT       ES2T
      000000B8H.4 SFRSYM    DATA     BIT       ES3T
      000000DCH   SFRSYM    DATA     BYTE      I2CCON
      00000081H   SFRSYM    DATA     BYTE      SP
      000000D0H.2 SFRSYM    DATA     BIT       OV
      000000DDH   SFRSYM    DATA     BYTE      I2CSTA
      00000095H   SFRSYM    DATA     BYTE      D_PAGESEL
      000000C8H.7 SFRSYM    DATA     BIT       T2PS
      000000F8H.7 SFRSYM    DATA     BIT       APP_REQ
      000000BFH   SFRSYM    DATA     BYTE      IRCON2
      00000080H.0 SFRSYM    DATA     BIT       P00
      000000BAH   SFRSYM    DATA     BYTE      SREL0H
      00000090H.0 SFRSYM    DATA     BIT       P10
      00000080H.1 SFRSYM    DATA     BIT       P01
      000000BBH   SFRSYM    DATA     BYTE      SREL1H
LX51 LINKER/LOCATER V4.66.87.0                                                        10/15/2020  10:36:21  PAGE 51


      00000087H   SFRSYM    DATA     BYTE      PCON
      000000A0H.0 SFRSYM    DATA     BIT       P20
      00000090H.1 SFRSYM    DATA     BIT       P11
      00000080H.2 SFRSYM    DATA     BIT       P02
      000000B0H.0 SFRSYM    DATA     BIT       P30
      000000A0H.1 SFRSYM    DATA     BIT       P21
      00000090H.2 SFRSYM    DATA     BIT       P12
      00000080H.3 SFRSYM    DATA     BIT       P03
      000000B0H.1 SFRSYM    DATA     BIT       P31
      000000A0H.2 SFRSYM    DATA     BIT       P22
      00000090H.3 SFRSYM    DATA     BIT       P13
      00000080H.4 SFRSYM    DATA     BIT       P04
      000000F9H   SFRSYM    DATA     BYTE      PORTDRV
      000000AAH   SFRSYM    DATA     BYTE      SREL0L
      000000B0H.2 SFRSYM    DATA     BIT       P32
      000000A0H.3 SFRSYM    DATA     BIT       P23
      00000090H.4 SFRSYM    DATA     BIT       P14
      00000080H.5 SFRSYM    DATA     BIT       P05
      0000009DH   SFRSYM    DATA     BYTE      SREL1L
      00000089H   SFRSYM    DATA     BYTE      TMOD
      00000088H   SFRSYM    DATA     BYTE      TCON
      000000B0H.3 SFRSYM    DATA     BIT       P33
      000000A0H.4 SFRSYM    DATA     BIT       P24
      00000090H.5 SFRSYM    DATA     BIT       P15
      00000080H.6 SFRSYM    DATA     BIT       P06
      000000B0H.4 SFRSYM    DATA     BIT       P34
      000000A0H.5 SFRSYM    DATA     BIT       P25
      00000090H.6 SFRSYM    DATA     BIT       P16
      00000080H.7 SFRSYM    DATA     BIT       P07
      000000B0H.5 SFRSYM    DATA     BIT       P35
      000000A0H.6 SFRSYM    DATA     BIT       P26
      00000090H.7 SFRSYM    DATA     BIT       P17
      000000B4H   SFRSYM    DATA     BYTE      DMASEL
      000000B0H.6 SFRSYM    DATA     BIT       P36
      000000A0H.7 SFRSYM    DATA     BIT       P27
      000000FFH   SFRSYM    DATA     BYTE      EXDATA
      00000097H   SFRSYM    DATA     BYTE      SCON2R
      000000B0H.7 SFRSYM    DATA     BIT       P37
      000000D9H   SFRSYM    DATA     BYTE      BODE2_DIV_H
      000000ABH   SFRSYM    DATA     BYTE      SCON3R
      000000AEH   SFRSYM    DATA     BYTE      BODE3_DIV_H
      00000096H   SFRSYM    DATA     BYTE      SCON2T
      000000A7H   SFRSYM    DATA     BYTE      SCON3T
      00000088H.1 SFRSYM    DATA     BIT       IE0
      000000F5H   SFRSYM    DATA     BYTE      ISCHEADER2
      000000E7H   SFRSYM    DATA     BYTE      BODE2_DIV_L
      00000088H.3 SFRSYM    DATA     BIT       IE1
      000000F6H   SFRSYM    DATA     BYTE      ISCHEADER3
      000000AFH   SFRSYM    DATA     BYTE      BODE3_DIV_L
      000000C9H   SFRSYM    DATA     BYTE      MUX_SEL
      000000F0H   SFRSYM    DATA     BYTE      B
      000000E9H   SFRSYM    DATA     BYTE      MD0
      000000EAH   SFRSYM    DATA     BYTE      MD1
      000000B8H.6 SFRSYM    DATA     BIT       SWDT
      000000EBH   SFRSYM    DATA     BYTE      MD2
      000000ECH   SFRSYM    DATA     BYTE      MD3
      000000EDH   SFRSYM    DATA     BYTE      MD4
      000000EEH   SFRSYM    DATA     BYTE      MD5
      000000B1H   SFRSYM    DATA     BYTE      DMAC0
      000000E0H   SFRSYM    DATA     BYTE      ACC
      000000B2H   SFRSYM    DATA     BYTE      DMAC1
      000000A8H.4 SFRSYM    DATA     BIT       ES0
      000000B3H   SFRSYM    DATA     BYTE      DMAC2
      0000008FH   SFRSYM    DATA     BYTE      CAN_CR
      000000A8H.1 SFRSYM    DATA     BIT       ET0
LX51 LINKER/LOCATER V4.66.87.0                                                        10/15/2020  10:36:21  PAGE 52


      000000A9H   SFRSYM    DATA     BYTE      IP0
      000000A8H.3 SFRSYM    DATA     BIT       ET1
      00000088H.5 SFRSYM    DATA     BIT       TF0
      000000B9H   SFRSYM    DATA     BYTE      IP1
      000000A8H.5 SFRSYM    DATA     BIT       ET2
      00000098H.0 SFRSYM    DATA     BIT       RI0
      00000088H.7 SFRSYM    DATA     BIT       TF1
      000000FDH   SFRSYM    DATA     BYTE      DATA0
      000000C0H.6 SFRSYM    DATA     BIT       TF2
      000000FCH   SFRSYM    DATA     BYTE      DATA1
      000000E8H   SFRSYM    DATA     BYTE      CAN_ET
      0000008CH   SFRSYM    DATA     BYTE      TH0
      000000A8H.0 SFRSYM    DATA     BIT       EX0
      00000098H.1 SFRSYM    DATA     BIT       TI0
      00000088H.0 SFRSYM    DATA     BIT       IT0
      000000FBH   SFRSYM    DATA     BYTE      DATA2
      000000F7H   SFRSYM    DATA     BYTE      SRST
      0000008DH   SFRSYM    DATA     BYTE      TH1
      000000A8H.2 SFRSYM    DATA     BIT       EX1
      00000088H.2 SFRSYM    DATA     BIT       IT1
      000000FAH   SFRSYM    DATA     BYTE      DATA3
      000000CDH   SFRSYM    DATA     BYTE      TH2
      00000091H   SFRSYM    DATA     BYTE      CAN_IR
      000000D0H.0 SFRSYM    DATA     BIT       P
      00000098H.7 SFRSYM    DATA     BIT       SM0
      000000B5H   SFRSYM    DATA     BYTE      DMAM0
      0000008AH   SFRSYM    DATA     BYTE      TL0
      00000098H.6 SFRSYM    DATA     BIT       SM1
      000000B6H   SFRSYM    DATA     BYTE      DMAM1
      0000008BH   SFRSYM    DATA     BYTE      TL1
      000000CCH   SFRSYM    DATA     BYTE      TL2
      000000B8H.0 SFRSYM    DATA     BIT       EX7
      00000086H   SFRSYM    DATA     BYTE      WDTREL
      000000F8H.6 SFRSYM    DATA     BIT       APP_EN
      000000D0H.3 SFRSYM    DATA     BIT       RS0
      00000088H.4 SFRSYM    DATA     BIT       TR0
      000000D0H.4 SFRSYM    DATA     BIT       RS1
      000000A1H   SFRSYM    DATA     BYTE      DMAS0
      00000088H.6 SFRSYM    DATA     BIT       TR1
      000000A4H   SFRSYM    DATA     BYTE      DMAT0
      000000A2H   SFRSYM    DATA     BYTE      DMAS1
      00000093H   SFRSYM    DATA     BYTE      DPC
      000000E5H   SFRSYM    DATA     BYTE      MAC_MODE
      000000A5H   SFRSYM    DATA     BYTE      DMAT1
      000000A3H   SFRSYM    DATA     BYTE      DMAS2
      000000A6H   SFRSYM    DATA     BYTE      DMAT2
      00000083H   SFRSYM    DATA     BYTE      DPH
      00000082H   SFRSYM    DATA     BYTE      DPL
      00000099H   SFRSYM    DATA     BYTE      SBUF0
      0000009CH   SFRSYM    DATA     BYTE      SBUF1
      000000B8H.7 SFRSYM    DATA     BIT       EXEN2
      00000098H   SFRSYM    DATA     BYTE      SCON0
      0000009BH   SFRSYM    DATA     BYTE      SCON1
      000000D8H   SFRSYM    DATA     BYTE      ADCON
      000000C8H   SFRSYM    DATA     BYTE      T2CON
      000000E6H   SFRSYM    DATA     BYTE      DIV_MODE
      000000F8H.5 SFRSYM    DATA     BIT       APP_RW
      000000CBH   SFRSYM    DATA     BYTE      TRL2H
      0000009FH   SFRSYM    DATA     BYTE      SBUF2_RX
      000000A8H.6 SFRSYM    DATA     BIT       WDT
      000000ADH   SFRSYM    DATA     BYTE      SBUF3_RX
      0000008EH   SFRSYM    DATA     BYTE      CKCON
      0000009EH   SFRSYM    DATA     BYTE      SBUF2_TX
      000000CAH   SFRSYM    DATA     BYTE      TRL2L
      000000ACH   SFRSYM    DATA     BYTE      SBUF3_TX
LX51 LINKER/LOCATER V4.66.87.0                                                        10/15/2020  10:36:21  PAGE 53


      000000EFH   SFRSYM    DATA     BYTE      ARCON
      000000D0H.5 SFRSYM    DATA     BIT       F0
      000000FEH   SFRSYM    DATA     BYTE      EXADR
      000000D0H.1 SFRSYM    DATA     BIT       F1
      00000092H   SFRSYM    DATA     BYTE      DPSEL
      000000D0H   SFRSYM    DATA     BYTE      PSW
      00000090H.2 SFRSYM    DATA     BIT       key1
      00000090H.3 SFRSYM    DATA     BIT       key2
      00000098H.2 SFRSYM    DATA     BIT       RB80
      000000C0H   SFRSYM    DATA     BYTE      IRCON
      00000090H.4 SFRSYM    DATA     BIT       key3
      000000E3H   SFRSYM    DATA     BYTE      SPDAT

      0100C0B5H   BLOCK     CODE     ---       LVL=0
      0100C0B5H   BLOCK     CODE     NEAR LAB  LVL=1
      02009458H   SYMBOL    XDATA    BYTE      systick
      ---         BLOCKEND  ---      ---       LVL=1
      0100C0B5H   LINE      CODE     ---       #10
      0100C0B5H   LINE      CODE     ---       #11
      0100C0B5H   LINE      CODE     ---       #14
      0100C0B8H   LINE      CODE     ---       #15
      0100C0BFH   LINE      CODE     ---       #16
      0100C0C4H   LINE      CODE     ---       #17
      0100C0CFH   LINE      CODE     ---       #18
      0100C0DAH   LINE      CODE     ---       #20
      0100C0DDH   LINE      CODE     ---       #21
      0100C0E0H   LINE      CODE     ---       #22
      0100C0E3H   LINE      CODE     ---       #23
      0100C0E6H   LINE      CODE     ---       #24
      0100C0E9H   LINE      CODE     ---       #25
      0100C0ECH   LINE      CODE     ---       #26
      0100C0EEH   LINE      CODE     ---       #27
      0100C0F7H   LINE      CODE     ---       #28
      0100C0FFH   LINE      CODE     ---       #30
      0100C0FFH   LINE      CODE     ---       #31
      0100C0FFH   LINE      CODE     ---       #32
      0100C107H   LINE      CODE     ---       #33
      0100C107H   LINE      CODE     ---       #34
      0100C10AH   LINE      CODE     ---       #35
      0100C10DH   LINE      CODE     ---       #36
      0100C110H   LINE      CODE     ---       #37
      0100C113H   LINE      CODE     ---       #38
      0100C116H   LINE      CODE     ---       #39
      0100C119H   LINE      CODE     ---       #40
      0100C11CH   LINE      CODE     ---       #42
      0100C125H   LINE      CODE     ---       #43
      0100C125H   LINE      CODE     ---       #44
      0100C12EH   LINE      CODE     ---       #45
      0100C12EH   LINE      CODE     ---       #46
      0100C130H   LINE      CODE     ---       #47
      0100C133H   LINE      CODE     ---       #48
      0100C136H   LINE      CODE     ---       #49
      0100C139H   LINE      CODE     ---       #50
      0100C13CH   LINE      CODE     ---       #51
      0100C13CH   LINE      CODE     ---       #52
      ---         BLOCKEND  ---      ---       LVL=0

      ---         MODULE    ---      ---       WEIGHT
      0200987FH   PUBLIC    XDATA    BYTE      Peel_Count
      0200987EH   PUBLIC    XDATA    BYTE      WError
      0200987CH   PUBLIC    XDATA    BYTE      Weight_Count
      0200987BH   PUBLIC    XDATA    BYTE      Weight_Status
      02009879H   PUBLIC    XDATA    INT       Weight_Value
      02009878H   PUBLIC    XDATA    BYTE      Peel_Enable
      0100D37FH   PUBLIC    CONST    ---       change_weight
LX51 LINKER/LOCATER V4.66.87.0                                                        10/15/2020  10:36:21  PAGE 54


      0100D37AH   PUBLIC    CONST    ---       three_KG_pro
      0100D375H   PUBLIC    CONST    ---       peel_pro
      01006131H   PUBLIC    CODE     ---       Weight_Receive
      0100B4E2H   PUBLIC    CODE     ---       _GetWeightValue
      0100CF7EH   PUBLIC    CODE     ---       Weight_Error
      0100CFD6H   PUBLIC    CODE     ---       Calibration_3Kg
      0100C23CH   PUBLIC    CODE     ---       Get_Weight
      0100CB29H   PUBLIC    CODE     ---       Weight_Init
      00000098H.3 SFRSYM    DATA     BIT       TB80
      000000C8H.0 SFRSYM    DATA     BIT       T2I0
      000000F1H   SFRSYM    DATA     BYTE      ADR_H
      000000C3H   SFRSYM    DATA     BYTE      CCH1
      00000080H   SFRSYM    DATA     BYTE      P0
      000000C8H.1 SFRSYM    DATA     BIT       T2I1
      000000C5H   SFRSYM    DATA     BYTE      CCH2
      00000090H   SFRSYM    DATA     BYTE      P1
      000000C7H   SFRSYM    DATA     BYTE      CCH3
      000000A0H   SFRSYM    DATA     BYTE      P2
      00000098H.5 SFRSYM    DATA     BIT       SM20
      000000B0H   SFRSYM    DATA     BYTE      P3
      000000D0H.6 SFRSYM    DATA     BIT       AC
      000000F3H   SFRSYM    DATA     BYTE      ADR_L
      000000C2H   SFRSYM    DATA     BYTE      CCL1
      00000094H   SFRSYM    DATA     BYTE      PAGESEL
      000000F2H   SFRSYM    DATA     BYTE      ADR_M
      000000E2H   SFRSYM    DATA     BYTE      SPCON
      000000C4H   SFRSYM    DATA     BYTE      CCL2
      000000D8H.7 SFRSYM    DATA     BIT       BD
      000000A8H.7 SFRSYM    DATA     BIT       EA
      000000C6H   SFRSYM    DATA     BYTE      CCL3
      000000F8H   SFRSYM    DATA     BYTE      RAMMODE
      000000C8H.3 SFRSYM    DATA     BIT       T2R0
      000000C8H.4 SFRSYM    DATA     BIT       T2R1
      000000B7H   SFRSYM    DATA     BYTE      P0MDOUT
      000000E1H   SFRSYM    DATA     BYTE      SPSTA
      000000BCH   SFRSYM    DATA     BYTE      P1MDOUT
      000000A8H   SFRSYM    DATA     BYTE      IEN0
      000000BDH   SFRSYM    DATA     BYTE      P2MDOUT
      000000B8H   SFRSYM    DATA     BYTE      IEN1
      00000085H   SFRSYM    DATA     BYTE      DPH1
      000000BEH   SFRSYM    DATA     BYTE      P3MDOUT
      0000009AH   SFRSYM    DATA     BYTE      IEN2
      000000D1H   SFRSYM    DATA     BYTE      IEN4
      000000F8H.4 SFRSYM    DATA     BIT       APP_ACK
      000000C0H.0 SFRSYM    DATA     BIT       IADC
      00000084H   SFRSYM    DATA     BYTE      DPL1
      000000F4H   SFRSYM    DATA     BYTE      ADR_INC
      000000C8H.5 SFRSYM    DATA     BIT       I2FR
      000000C8H.6 SFRSYM    DATA     BIT       I3FR
      000000C0H.7 SFRSYM    DATA     BIT       EXF2
      00000098H.4 SFRSYM    DATA     BIT       REN0
      000000C8H.2 SFRSYM    DATA     BIT       T2CM
      000000DBH   SFRSYM    DATA     BYTE      I2CADR
      000000B8H.1 SFRSYM    DATA     BIT       ECAN
      000000C0H.1 SFRSYM    DATA     BIT       IEX2
      000000E4H   SFRSYM    DATA     BYTE      SPSSN
      000000DAH   SFRSYM    DATA     BYTE      I2CDAT
      000000C0H.2 SFRSYM    DATA     BIT       IEX3
      000000C1H   SFRSYM    DATA     BYTE      CCEN
      000000C0H.3 SFRSYM    DATA     BIT       IEX4
      000000C0H.4 SFRSYM    DATA     BIT       IEX5
      000000D0H.7 SFRSYM    DATA     BIT       CY
      000000C0H.5 SFRSYM    DATA     BIT       IEX6
      000000B8H.3 SFRSYM    DATA     BIT       ES2R
      000000B8H.5 SFRSYM    DATA     BIT       ES3R
LX51 LINKER/LOCATER V4.66.87.0                                                        10/15/2020  10:36:21  PAGE 55


      000000B8H.2 SFRSYM    DATA     BIT       ES2T
      000000B8H.4 SFRSYM    DATA     BIT       ES3T
      000000DCH   SFRSYM    DATA     BYTE      I2CCON
      00000081H   SFRSYM    DATA     BYTE      SP
      000000D0H.2 SFRSYM    DATA     BIT       OV
      000000DDH   SFRSYM    DATA     BYTE      I2CSTA
      00000095H   SFRSYM    DATA     BYTE      D_PAGESEL
      000000C8H.7 SFRSYM    DATA     BIT       T2PS
      000000F8H.7 SFRSYM    DATA     BIT       APP_REQ
      000000BFH   SFRSYM    DATA     BYTE      IRCON2
      00000080H.0 SFRSYM    DATA     BIT       P00
      000000BAH   SFRSYM    DATA     BYTE      SREL0H
      00000090H.0 SFRSYM    DATA     BIT       P10
      00000080H.1 SFRSYM    DATA     BIT       P01
      000000BBH   SFRSYM    DATA     BYTE      SREL1H
      00000087H   SFRSYM    DATA     BYTE      PCON
      000000A0H.0 SFRSYM    DATA     BIT       P20
      00000090H.1 SFRSYM    DATA     BIT       P11
      00000080H.2 SFRSYM    DATA     BIT       P02
      000000B0H.0 SFRSYM    DATA     BIT       P30
      000000A0H.1 SFRSYM    DATA     BIT       P21
      00000090H.2 SFRSYM    DATA     BIT       P12
      00000080H.3 SFRSYM    DATA     BIT       P03
      000000B0H.1 SFRSYM    DATA     BIT       P31
      000000A0H.2 SFRSYM    DATA     BIT       P22
      00000090H.3 SFRSYM    DATA     BIT       P13
      00000080H.4 SFRSYM    DATA     BIT       P04
      000000F9H   SFRSYM    DATA     BYTE      PORTDRV
      000000AAH   SFRSYM    DATA     BYTE      SREL0L
      000000B0H.2 SFRSYM    DATA     BIT       P32
      000000A0H.3 SFRSYM    DATA     BIT       P23
      00000090H.4 SFRSYM    DATA     BIT       P14
      00000080H.5 SFRSYM    DATA     BIT       P05
      0000009DH   SFRSYM    DATA     BYTE      SREL1L
      00000089H   SFRSYM    DATA     BYTE      TMOD
      00000088H   SFRSYM    DATA     BYTE      TCON
      000000B0H.3 SFRSYM    DATA     BIT       P33
      000000A0H.4 SFRSYM    DATA     BIT       P24
      00000090H.5 SFRSYM    DATA     BIT       P15
      00000080H.6 SFRSYM    DATA     BIT       P06
      000000B0H.4 SFRSYM    DATA     BIT       P34
      000000A0H.5 SFRSYM    DATA     BIT       P25
      00000090H.6 SFRSYM    DATA     BIT       P16
      00000080H.7 SFRSYM    DATA     BIT       P07
      000000B0H.5 SFRSYM    DATA     BIT       P35
      000000A0H.6 SFRSYM    DATA     BIT       P26
      00000090H.7 SFRSYM    DATA     BIT       P17
      000000B4H   SFRSYM    DATA     BYTE      DMASEL
      000000B0H.6 SFRSYM    DATA     BIT       P36
      000000A0H.7 SFRSYM    DATA     BIT       P27
      000000FFH   SFRSYM    DATA     BYTE      EXDATA
      00000097H   SFRSYM    DATA     BYTE      SCON2R
      000000B0H.7 SFRSYM    DATA     BIT       P37
      000000D9H   SFRSYM    DATA     BYTE      BODE2_DIV_H
      000000ABH   SFRSYM    DATA     BYTE      SCON3R
      000000AEH   SFRSYM    DATA     BYTE      BODE3_DIV_H
      00000096H   SFRSYM    DATA     BYTE      SCON2T
      000000A7H   SFRSYM    DATA     BYTE      SCON3T
      00000088H.1 SFRSYM    DATA     BIT       IE0
      000000F5H   SFRSYM    DATA     BYTE      ISCHEADER2
      000000E7H   SFRSYM    DATA     BYTE      BODE2_DIV_L
      00000088H.3 SFRSYM    DATA     BIT       IE1
      000000F6H   SFRSYM    DATA     BYTE      ISCHEADER3
      000000AFH   SFRSYM    DATA     BYTE      BODE3_DIV_L
      000000C9H   SFRSYM    DATA     BYTE      MUX_SEL
LX51 LINKER/LOCATER V4.66.87.0                                                        10/15/2020  10:36:21  PAGE 56


      000000F0H   SFRSYM    DATA     BYTE      B
      000000E9H   SFRSYM    DATA     BYTE      MD0
      000000EAH   SFRSYM    DATA     BYTE      MD1
      000000B8H.6 SFRSYM    DATA     BIT       SWDT
      000000EBH   SFRSYM    DATA     BYTE      MD2
      000000ECH   SFRSYM    DATA     BYTE      MD3
      000000EDH   SFRSYM    DATA     BYTE      MD4
      000000EEH   SFRSYM    DATA     BYTE      MD5
      000000B1H   SFRSYM    DATA     BYTE      DMAC0
      000000E0H   SFRSYM    DATA     BYTE      ACC
      000000B2H   SFRSYM    DATA     BYTE      DMAC1
      000000A8H.4 SFRSYM    DATA     BIT       ES0
      000000B3H   SFRSYM    DATA     BYTE      DMAC2
      0000008FH   SFRSYM    DATA     BYTE      CAN_CR
      000000A8H.1 SFRSYM    DATA     BIT       ET0
      000000A9H   SFRSYM    DATA     BYTE      IP0
      000000A8H.3 SFRSYM    DATA     BIT       ET1
      00000088H.5 SFRSYM    DATA     BIT       TF0
      000000B9H   SFRSYM    DATA     BYTE      IP1
      000000A8H.5 SFRSYM    DATA     BIT       ET2
      00000098H.0 SFRSYM    DATA     BIT       RI0
      00000088H.7 SFRSYM    DATA     BIT       TF1
      000000FDH   SFRSYM    DATA     BYTE      DATA0
      000000C0H.6 SFRSYM    DATA     BIT       TF2
      000000FCH   SFRSYM    DATA     BYTE      DATA1
      000000E8H   SFRSYM    DATA     BYTE      CAN_ET
      0000008CH   SFRSYM    DATA     BYTE      TH0
      000000A8H.0 SFRSYM    DATA     BIT       EX0
      00000098H.1 SFRSYM    DATA     BIT       TI0
      00000088H.0 SFRSYM    DATA     BIT       IT0
      000000FBH   SFRSYM    DATA     BYTE      DATA2
      000000F7H   SFRSYM    DATA     BYTE      SRST
      0000008DH   SFRSYM    DATA     BYTE      TH1
      000000A8H.2 SFRSYM    DATA     BIT       EX1
      00000088H.2 SFRSYM    DATA     BIT       IT1
      000000FAH   SFRSYM    DATA     BYTE      DATA3
      000000CDH   SFRSYM    DATA     BYTE      TH2
      00000091H   SFRSYM    DATA     BYTE      CAN_IR
      000000D0H.0 SFRSYM    DATA     BIT       P
      00000098H.7 SFRSYM    DATA     BIT       SM0
      000000B5H   SFRSYM    DATA     BYTE      DMAM0
      0000008AH   SFRSYM    DATA     BYTE      TL0
      00000098H.6 SFRSYM    DATA     BIT       SM1
      000000B6H   SFRSYM    DATA     BYTE      DMAM1
      0000008BH   SFRSYM    DATA     BYTE      TL1
      000000CCH   SFRSYM    DATA     BYTE      TL2
      000000B8H.0 SFRSYM    DATA     BIT       EX7
      00000086H   SFRSYM    DATA     BYTE      WDTREL
      000000F8H.6 SFRSYM    DATA     BIT       APP_EN
      000000D0H.3 SFRSYM    DATA     BIT       RS0
      00000088H.4 SFRSYM    DATA     BIT       TR0
      000000D0H.4 SFRSYM    DATA     BIT       RS1
      000000A1H   SFRSYM    DATA     BYTE      DMAS0
      00000088H.6 SFRSYM    DATA     BIT       TR1
      000000A4H   SFRSYM    DATA     BYTE      DMAT0
      000000A2H   SFRSYM    DATA     BYTE      DMAS1
      00000093H   SFRSYM    DATA     BYTE      DPC
      000000E5H   SFRSYM    DATA     BYTE      MAC_MODE
      000000A5H   SFRSYM    DATA     BYTE      DMAT1
      000000A3H   SFRSYM    DATA     BYTE      DMAS2
      000000A6H   SFRSYM    DATA     BYTE      DMAT2
      00000083H   SFRSYM    DATA     BYTE      DPH
      00000082H   SFRSYM    DATA     BYTE      DPL
      00000099H   SFRSYM    DATA     BYTE      SBUF0
      0000009CH   SFRSYM    DATA     BYTE      SBUF1
LX51 LINKER/LOCATER V4.66.87.0                                                        10/15/2020  10:36:21  PAGE 57


      000000B8H.7 SFRSYM    DATA     BIT       EXEN2
      00000098H   SFRSYM    DATA     BYTE      SCON0
      0000009BH   SFRSYM    DATA     BYTE      SCON1
      000000D8H   SFRSYM    DATA     BYTE      ADCON
      000000C8H   SFRSYM    DATA     BYTE      T2CON
      000000E6H   SFRSYM    DATA     BYTE      DIV_MODE
      000000F8H.5 SFRSYM    DATA     BIT       APP_RW
      000000CBH   SFRSYM    DATA     BYTE      TRL2H
      0000009FH   SFRSYM    DATA     BYTE      SBUF2_RX
      000000A8H.6 SFRSYM    DATA     BIT       WDT
      000000ADH   SFRSYM    DATA     BYTE      SBUF3_RX
      0000008EH   SFRSYM    DATA     BYTE      CKCON
      0000009EH   SFRSYM    DATA     BYTE      SBUF2_TX
      000000CAH   SFRSYM    DATA     BYTE      TRL2L
      000000ACH   SFRSYM    DATA     BYTE      SBUF3_TX
      000000EFH   SFRSYM    DATA     BYTE      ARCON
      000000D0H.5 SFRSYM    DATA     BIT       F0
      000000FEH   SFRSYM    DATA     BYTE      EXADR
      000000D0H.1 SFRSYM    DATA     BIT       F1
      00000092H   SFRSYM    DATA     BYTE      DPSEL
      000000D0H   SFRSYM    DATA     BYTE      PSW
      00000098H.2 SFRSYM    DATA     BIT       RB80
      000000C0H   SFRSYM    DATA     BYTE      IRCON
      000000E3H   SFRSYM    DATA     BYTE      SPDAT
      02009876H   SYMBOL    XDATA    BYTE      wError_count
      02009877H   SYMBOL    XDATA    BYTE      CalibrationCnt
      0200987DH   SYMBOL    XDATA    BYTE      WeightVerion

      0100CB29H   BLOCK     CODE     ---       LVL=0
      0100CB29H   BLOCK     CODE     NEAR LAB  LVL=1
      02009459H   SYMBOL    XDATA    ---       k_data
      ---         BLOCKEND  ---      ---       LVL=1
      0100CB29H   LINE      CODE     ---       #13
      0100CB29H   LINE      CODE     ---       #14
      0100CB29H   LINE      CODE     ---       #17
      0100CB30H   LINE      CODE     ---       #18
      0100CB33H   LINE      CODE     ---       #19
      0100CB38H   LINE      CODE     ---       #20
      0100CB3CH   LINE      CODE     ---       #21
      0100CB40H   LINE      CODE     ---       #22
      0100CB44H   LINE      CODE     ---       #23
      0100CB4AH   LINE      CODE     ---       #24
      0100CB50H   LINE      CODE     ---       #25
      0100CB55H   LINE      CODE     ---       #26
      0100CB58H   LINE      CODE     ---       #27
      ---         BLOCKEND  ---      ---       LVL=0

      0100C23CH   BLOCK     CODE     ---       LVL=0
      0100C23CH   BLOCK     CODE     NEAR LAB  LVL=1
      02009459H   SYMBOL    XDATA    ---       k_data
      ---         BLOCKEND  ---      ---       LVL=1
      0100C23CH   LINE      CODE     ---       #30
      0100C23CH   LINE      CODE     ---       #31
      0100C23CH   LINE      CODE     ---       #34
      0100C242H   LINE      CODE     ---       #35
      0100C242H   LINE      CODE     ---       #36
      0100C248H   LINE      CODE     ---       #37
      0100C248H   LINE      CODE     ---       #38
      0100C24EH   LINE      CODE     ---       #39
      0100C254H   LINE      CODE     ---       #40
      0100C254H   LINE      CODE     ---       #41
      0100C256H   LINE      CODE     ---       #42
      0100C25AH   LINE      CODE     ---       #43
      0100C267H   LINE      CODE     ---       #44
      0100C26CH   LINE      CODE     ---       #45
LX51 LINKER/LOCATER V4.66.87.0                                                        10/15/2020  10:36:21  PAGE 58


      0100C272H   LINE      CODE     ---       #46
      0100C276H   LINE      CODE     ---       #47
      0100C278H   LINE      CODE     ---       #48
      0100C27AH   LINE      CODE     ---       #49
      0100C27CH   LINE      CODE     ---       #50
      0100C280H   LINE      CODE     ---       #51
      0100C282H   LINE      CODE     ---       #52
      0100C29CH   LINE      CODE     ---       #53
      0100C2A1H   LINE      CODE     ---       #54
      0100C2A1H   LINE      CODE     ---       #55
      0100C2A2H   LINE      CODE     ---       #56
      0100C2A2H   LINE      CODE     ---       #57
      0100C2A4H   LINE      CODE     ---       #59
      0100C2A4H   LINE      CODE     ---       #60
      0100C2A9H   LINE      CODE     ---       #61
      0100C2ADH   LINE      CODE     ---       #62
      0100C2ADH   LINE      CODE     ---       #63
      0100C2B6H   LINE      CODE     ---       #64
      0100C2B9H   LINE      CODE     ---       #65
      ---         BLOCKEND  ---      ---       LVL=0

      0100CFD6H   BLOCK     CODE     ---       LVL=0
      0100CFD6H   LINE      CODE     ---       #67
      0100CFD6H   LINE      CODE     ---       #68
      0100CFD6H   LINE      CODE     ---       #69
      ---         BLOCKEND  ---      ---       LVL=0

      0100CF7EH   BLOCK     CODE     ---       LVL=0
      0100CF7EH   LINE      CODE     ---       #72
      0100CF7EH   LINE      CODE     ---       #73
      0100CF7EH   LINE      CODE     ---       #76
      0100CF84H   LINE      CODE     ---       #77
      0100CF8AH   LINE      CODE     ---       #78
      0100CF8AH   LINE      CODE     ---       #79
      0100CF8CH   LINE      CODE     ---       #80
      0100CF91H   LINE      CODE     ---       #81
      0100CF91H   LINE      CODE     ---       #83
      ---         BLOCKEND  ---      ---       LVL=0

      0100B4E2H   BLOCK     CODE     ---       LVL=0
      02009461H   SYMBOL    XDATA    ---       buf
      00000002H   SYMBOL    DATA     WORD      weight
      0100B4F1H   BLOCK     CODE     NEAR LAB  LVL=1
      02009464H   SYMBOL    XDATA    ---       k_data
      00000007H   SYMBOL    DATA     BYTE      i
      00000006H   SYMBOL    DATA     BYTE      j
      ---         BLOCKEND  ---      ---       LVL=1
      0100B4E2H   LINE      CODE     ---       #85
      0100B4F1H   LINE      CODE     ---       #86
      0100B4F1H   LINE      CODE     ---       #90
      0100B501H   LINE      CODE     ---       #91
      0100B510H   LINE      CODE     ---       #92
      0100B51CH   LINE      CODE     ---       #93
      0100B52BH   LINE      CODE     ---       #94
      0100B537H   LINE      CODE     ---       #95
      0100B547H   LINE      CODE     ---       #96
      0100B549H   LINE      CODE     ---       #97
      0100B549H   LINE      CODE     ---       #98
      0100B556H   LINE      CODE     ---       #99
      0100B556H   LINE      CODE     ---       #100
      0100B55BH   LINE      CODE     ---       #101
      0100B55DH   LINE      CODE     ---       #102
      0100B55DH   LINE      CODE     ---       #103
      0100B57FH   LINE      CODE     ---       #104
      0100B580H   LINE      CODE     ---       #105
LX51 LINKER/LOCATER V4.66.87.0                                                        10/15/2020  10:36:21  PAGE 59


      0100B586H   LINE      CODE     ---       #106
      0100B586H   LINE      CODE     ---       #107
      0100B587H   LINE      CODE     ---       #108
      0100B589H   LINE      CODE     ---       #109
      0100B589H   LINE      CODE     ---       #110
      0100B590H   LINE      CODE     ---       #111
      0100B5A5H   LINE      CODE     ---       #112
      0100B5A6H   LINE      CODE     ---       #113
      ---         BLOCKEND  ---      ---       LVL=0

      01006131H   BLOCK     CODE     ---       LVL=0
      01006131H   BLOCK     CODE     NEAR LAB  LVL=1
      00000007H   SYMBOL    DATA     BYTE      len
      00000006H   SYMBOL    DATA     BYTE      i
      00000005H   SYMBOL    DATA     BYTE      tmp
      02009459H   SYMBOL    XDATA    ---       k_data
      ---         BLOCKEND  ---      ---       LVL=1
      01006131H   LINE      CODE     ---       #116
      01006131H   LINE      CODE     ---       #117
      01006131H   LINE      CODE     ---       #121
      0100613FH   LINE      CODE     ---       #122
      0100613FH   LINE      CODE     ---       #123
      01006142H   LINE      CODE     ---       #124
      0100614AH   LINE      CODE     ---       #125
      0100614AH   LINE      CODE     ---       #126
      0100614EH   LINE      CODE     ---       #127
      01006172H   LINE      CODE     ---       #128
      01006172H   LINE      CODE     ---       #129
      01006173H   LINE      CODE     ---       #130
      01006173H   LINE      CODE     ---       #131
      0100618EH   LINE      CODE     ---       #132
      01006194H   LINE      CODE     ---       #133
      01006196H   LINE      CODE     ---       #134
      0100619BH   LINE      CODE     ---       #135
      010061A6H   LINE      CODE     ---       #136
      010061A6H   LINE      CODE     ---       #137
      010061ABH   LINE      CODE     ---       #138
      010061ADH   LINE      CODE     ---       #139
      010061ADH   LINE      CODE     ---       #140
      010061BAH   LINE      CODE     ---       #141
      010061BFH   LINE      CODE     ---       #142
      010061C9H   LINE      CODE     ---       #143
      010061C9H   LINE      CODE     ---       #144
      010061CFH   LINE      CODE     ---       #145
      010061CFH   LINE      CODE     ---       #146
      010061DAH   LINE      CODE     ---       #147
      010061DAH   LINE      CODE     ---       #148
      010061DCH   LINE      CODE     ---       #149
      010061DEH   LINE      CODE     ---       #150
      010061E9H   LINE      CODE     ---       #151
      010061E9H   LINE      CODE     ---       #152
      010061EBH   LINE      CODE     ---       #153
      010061EDH   LINE      CODE     ---       #154
      010061F9H   LINE      CODE     ---       #155
      010061F9H   LINE      CODE     ---       #156
      010061FBH   LINE      CODE     ---       #157
      010061FDH   LINE      CODE     ---       #158
      0100620AH   LINE      CODE     ---       #159
      0100620AH   LINE      CODE     ---       #160
      0100620CH   LINE      CODE     ---       #161
      0100620EH   LINE      CODE     ---       #162
      01006219H   LINE      CODE     ---       #163
      01006219H   LINE      CODE     ---       #164
      0100621BH   LINE      CODE     ---       #165
      0100621BH   LINE      CODE     ---       #166
LX51 LINKER/LOCATER V4.66.87.0                                                        10/15/2020  10:36:21  PAGE 60


      01006225H   LINE      CODE     ---       #167
      01006225H   LINE      CODE     ---       #168
      01006229H   LINE      CODE     ---       #169
      0100622EH   LINE      CODE     ---       #170
      01006231H   LINE      CODE     ---       #171
      0100623BH   LINE      CODE     ---       #172
      0100623BH   LINE      CODE     ---       #173
      0100623EH   LINE      CODE     ---       #174
      01006249H   LINE      CODE     ---       #175
      01006249H   LINE      CODE     ---       #176
      01006256H   LINE      CODE     ---       #177
      0100625DH   LINE      CODE     ---       #178
      01006264H   LINE      CODE     ---       #179
      01006264H   LINE      CODE     ---       #180
      01006279H   LINE      CODE     ---       #181
      01006279H   LINE      CODE     ---       #182
      01006285H   LINE      CODE     ---       #183
      01006285H   LINE      CODE     ---       #184
      01006287H   LINE      CODE     ---       #185
      0100628CH   LINE      CODE     ---       #186
      01006291H   LINE      CODE     ---       #187
      010062ABH   LINE      CODE     ---       #188
      010062ABH   LINE      CODE     ---       #189
      010062BCH   LINE      CODE     ---       #190
      010062C3H   LINE      CODE     ---       #191
      010062D4H   LINE      CODE     ---       #192
      010062DBH   LINE      CODE     ---       #193
      010062EBH   LINE      CODE     ---       #194
      010062EBH   LINE      CODE     ---       #195
      010062F1H   LINE      CODE     ---       #196
      01006301H   LINE      CODE     ---       #197
      01006307H   LINE      CODE     ---       #198
      01006309H   LINE      CODE     ---       #200
      01006309H   LINE      CODE     ---       #201
      0100631AH   LINE      CODE     ---       #202
      0100631AH   LINE      CODE     ---       #203
      01006323H   LINE      CODE     ---       #204
      01006323H   LINE      CODE     ---       #205
      0100633DH   LINE      CODE     ---       #206
      0100633DH   LINE      CODE     ---       #207
      01006343H   LINE      CODE     ---       #208
      01006343H   LINE      CODE     ---       #209
      01006345H   LINE      CODE     ---       #210
      01006349H   LINE      CODE     ---       #211
      0100634BH   LINE      CODE     ---       #212
      01006363H   LINE      CODE     ---       #213
      01006363H   LINE      CODE     ---       #214
      01006365H   LINE      CODE     ---       #215
      0100636CH   LINE      CODE     ---       #216
      0100636CH   LINE      CODE     ---       #217
      01006379H   LINE      CODE     ---       #218
      01006379H   LINE      CODE     ---       #219
      0100637EH   LINE      CODE     ---       #220
      01006382H   LINE      CODE     ---       #221
      01006382H   LINE      CODE     ---       #222
      01006382H   LINE      CODE     ---       #223
      01006383H   LINE      CODE     ---       #225
      01006383H   LINE      CODE     ---       #226
      01006389H   LINE      CODE     ---       #227
      0100638BH   LINE      CODE     ---       #228
      0100638BH   LINE      CODE     ---       #229
      0100638BH   LINE      CODE     ---       #230
      0100638BH   LINE      CODE     ---       #231
      ---         BLOCKEND  ---      ---       LVL=0

LX51 LINKER/LOCATER V4.66.87.0                                                        10/15/2020  10:36:21  PAGE 61


      ---         MODULE    ---      ---       CONTROL
      020097A8H   PUBLIC    XDATA    BYTE      PaiPressure
      020097A7H   PUBLIC    XDATA    BYTE      Tx_Enable
      020097A6H   PUBLIC    XDATA    BYTE      CodeReady
      020097A4H   PUBLIC    XDATA    BYTE      Load_State
      020097A3H   PUBLIC    XDATA    BYTE      Tx_Num
      020097A1H   PUBLIC    XDATA    BYTE      CError
      0200977DH   PUBLIC    XDATA    ---       Rx_Buf
      0200977BH   PUBLIC    XDATA    BYTE      Tx_Count
      0200977AH   PUBLIC    XDATA    BYTE      Work_SubState
      02009779H   PUBLIC    XDATA    BYTE      error_code
      02009755H   PUBLIC    XDATA    ---       Send_buf
      02009735H   PUBLIC    XDATA    ---       GuoCode
      02009734H   PUBLIC    XDATA    BYTE      gaizi_error
      02009733H   PUBLIC    XDATA    BYTE      Work_State
      0200972FH   PUBLIC    XDATA    DWORD     Menu_Time
      0200972EH   PUBLIC    XDATA    BYTE      FunctionNow
      0200972DH   PUBLIC    XDATA    BYTE      PaiqiStatus
      0100C2BAH   PUBLIC    CODE     ---       Control_Action
      0100B8D8H   PUBLIC    CODE     ---       Control_Receive
      0100CF92H   PUBLIC    CODE     ---       Control_Error
      0100CC7CH   PUBLIC    CODE     ---       Pro_0x13
      0100BE6FH   PUBLIC    CODE     ---       Pro_0x12
      01005358H   PUBLIC    CODE     ---       Pro_0x11
      0100BBD6H   PUBLIC    CODE     ---       _Calculate_CRC16
      0100C977H   PUBLIC    CODE     ---       Send_Stop
      0100CBB6H   PUBLIC    CODE     ---       Send_Heart
      0100CF32H   PUBLIC    CODE     ---       GetCode
      0100C882H   PUBLIC    CODE     ---       _Send_Test
      0100CBFAH   PUBLIC    CODE     ---       Send_Paiqi
      01009AA2H   PUBLIC    CODE     ---       _Send_Control
      0100CC3CH   PUBLIC    CODE     ---       Control_Init
      00000098H.3 SFRSYM    DATA     BIT       TB80
      000000C8H.0 SFRSYM    DATA     BIT       T2I0
      000000F1H   SFRSYM    DATA     BYTE      ADR_H
      000000C3H   SFRSYM    DATA     BYTE      CCH1
      00000080H   SFRSYM    DATA     BYTE      P0
      000000C8H.1 SFRSYM    DATA     BIT       T2I1
      000000C5H   SFRSYM    DATA     BYTE      CCH2
      00000090H   SFRSYM    DATA     BYTE      P1
      000000C7H   SFRSYM    DATA     BYTE      CCH3
      000000A0H   SFRSYM    DATA     BYTE      P2
      00000098H.5 SFRSYM    DATA     BIT       SM20
      000000B0H   SFRSYM    DATA     BYTE      P3
      000000D0H.6 SFRSYM    DATA     BIT       AC
      000000F3H   SFRSYM    DATA     BYTE      ADR_L
      000000C2H   SFRSYM    DATA     BYTE      CCL1
      00000094H   SFRSYM    DATA     BYTE      PAGESEL
      000000F2H   SFRSYM    DATA     BYTE      ADR_M
      000000E2H   SFRSYM    DATA     BYTE      SPCON
      000000C4H   SFRSYM    DATA     BYTE      CCL2
      000000D8H.7 SFRSYM    DATA     BIT       BD
      000000A8H.7 SFRSYM    DATA     BIT       EA
      000000C6H   SFRSYM    DATA     BYTE      CCL3
      000000F8H   SFRSYM    DATA     BYTE      RAMMODE
      000000C8H.3 SFRSYM    DATA     BIT       T2R0
      000000C8H.4 SFRSYM    DATA     BIT       T2R1
      000000B7H   SFRSYM    DATA     BYTE      P0MDOUT
      000000E1H   SFRSYM    DATA     BYTE      SPSTA
      000000BCH   SFRSYM    DATA     BYTE      P1MDOUT
      000000A8H   SFRSYM    DATA     BYTE      IEN0
      000000BDH   SFRSYM    DATA     BYTE      P2MDOUT
      000000B8H   SFRSYM    DATA     BYTE      IEN1
      00000085H   SFRSYM    DATA     BYTE      DPH1
      000000BEH   SFRSYM    DATA     BYTE      P3MDOUT
LX51 LINKER/LOCATER V4.66.87.0                                                        10/15/2020  10:36:21  PAGE 62


      0000009AH   SFRSYM    DATA     BYTE      IEN2
      000000D1H   SFRSYM    DATA     BYTE      IEN4
      000000F8H.4 SFRSYM    DATA     BIT       APP_ACK
      000000C0H.0 SFRSYM    DATA     BIT       IADC
      00000084H   SFRSYM    DATA     BYTE      DPL1
      000000F4H   SFRSYM    DATA     BYTE      ADR_INC
      000000C8H.5 SFRSYM    DATA     BIT       I2FR
      000000C8H.6 SFRSYM    DATA     BIT       I3FR
      000000C0H.7 SFRSYM    DATA     BIT       EXF2
      00000098H.4 SFRSYM    DATA     BIT       REN0
      000000C8H.2 SFRSYM    DATA     BIT       T2CM
      000000DBH   SFRSYM    DATA     BYTE      I2CADR
      000000B8H.1 SFRSYM    DATA     BIT       ECAN
      000000C0H.1 SFRSYM    DATA     BIT       IEX2
      000000E4H   SFRSYM    DATA     BYTE      SPSSN
      000000DAH   SFRSYM    DATA     BYTE      I2CDAT
      000000C0H.2 SFRSYM    DATA     BIT       IEX3
      000000C1H   SFRSYM    DATA     BYTE      CCEN
      000000C0H.3 SFRSYM    DATA     BIT       IEX4
      000000C0H.4 SFRSYM    DATA     BIT       IEX5
      000000D0H.7 SFRSYM    DATA     BIT       CY
      000000C0H.5 SFRSYM    DATA     BIT       IEX6
      000000B8H.3 SFRSYM    DATA     BIT       ES2R
      000000B8H.5 SFRSYM    DATA     BIT       ES3R
      000000B8H.2 SFRSYM    DATA     BIT       ES2T
      000000B8H.4 SFRSYM    DATA     BIT       ES3T
      000000DCH   SFRSYM    DATA     BYTE      I2CCON
      00000081H   SFRSYM    DATA     BYTE      SP
      000000D0H.2 SFRSYM    DATA     BIT       OV
      000000DDH   SFRSYM    DATA     BYTE      I2CSTA
      00000095H   SFRSYM    DATA     BYTE      D_PAGESEL
      000000C8H.7 SFRSYM    DATA     BIT       T2PS
      000000F8H.7 SFRSYM    DATA     BIT       APP_REQ
      000000BFH   SFRSYM    DATA     BYTE      IRCON2
      00000080H.0 SFRSYM    DATA     BIT       P00
      000000BAH   SFRSYM    DATA     BYTE      SREL0H
      00000090H.0 SFRSYM    DATA     BIT       P10
      00000080H.1 SFRSYM    DATA     BIT       P01
      000000BBH   SFRSYM    DATA     BYTE      SREL1H
      00000087H   SFRSYM    DATA     BYTE      PCON
      000000A0H.0 SFRSYM    DATA     BIT       P20
      00000090H.1 SFRSYM    DATA     BIT       P11
      00000080H.2 SFRSYM    DATA     BIT       P02
      000000B0H.0 SFRSYM    DATA     BIT       P30
      000000A0H.1 SFRSYM    DATA     BIT       P21
      00000090H.2 SFRSYM    DATA     BIT       P12
      00000080H.3 SFRSYM    DATA     BIT       P03
      000000B0H.1 SFRSYM    DATA     BIT       P31
      000000A0H.2 SFRSYM    DATA     BIT       P22
      00000090H.3 SFRSYM    DATA     BIT       P13
      00000080H.4 SFRSYM    DATA     BIT       P04
      000000F9H   SFRSYM    DATA     BYTE      PORTDRV
      000000AAH   SFRSYM    DATA     BYTE      SREL0L
      000000B0H.2 SFRSYM    DATA     BIT       P32
      000000A0H.3 SFRSYM    DATA     BIT       P23
      00000090H.4 SFRSYM    DATA     BIT       P14
      00000080H.5 SFRSYM    DATA     BIT       P05
      0000009DH   SFRSYM    DATA     BYTE      SREL1L
      00000089H   SFRSYM    DATA     BYTE      TMOD
      00000088H   SFRSYM    DATA     BYTE      TCON
      000000B0H.3 SFRSYM    DATA     BIT       P33
      000000A0H.4 SFRSYM    DATA     BIT       P24
      00000090H.5 SFRSYM    DATA     BIT       P15
      00000080H.6 SFRSYM    DATA     BIT       P06
      000000B0H.4 SFRSYM    DATA     BIT       P34
LX51 LINKER/LOCATER V4.66.87.0                                                        10/15/2020  10:36:21  PAGE 63


      000000A0H.5 SFRSYM    DATA     BIT       P25
      00000090H.6 SFRSYM    DATA     BIT       P16
      00000080H.7 SFRSYM    DATA     BIT       P07
      000000B0H.5 SFRSYM    DATA     BIT       P35
      000000A0H.6 SFRSYM    DATA     BIT       P26
      00000090H.7 SFRSYM    DATA     BIT       P17
      000000B4H   SFRSYM    DATA     BYTE      DMASEL
      000000B0H.6 SFRSYM    DATA     BIT       P36
      000000A0H.7 SFRSYM    DATA     BIT       P27
      000000FFH   SFRSYM    DATA     BYTE      EXDATA
      00000097H   SFRSYM    DATA     BYTE      SCON2R
      000000B0H.7 SFRSYM    DATA     BIT       P37
      000000D9H   SFRSYM    DATA     BYTE      BODE2_DIV_H
      000000ABH   SFRSYM    DATA     BYTE      SCON3R
      000000AEH   SFRSYM    DATA     BYTE      BODE3_DIV_H
      00000096H   SFRSYM    DATA     BYTE      SCON2T
      000000A7H   SFRSYM    DATA     BYTE      SCON3T
      00000088H.1 SFRSYM    DATA     BIT       IE0
      000000F5H   SFRSYM    DATA     BYTE      ISCHEADER2
      000000E7H   SFRSYM    DATA     BYTE      BODE2_DIV_L
      00000088H.3 SFRSYM    DATA     BIT       IE1
      000000F6H   SFRSYM    DATA     BYTE      ISCHEADER3
      000000AFH   SFRSYM    DATA     BYTE      BODE3_DIV_L
      000000C9H   SFRSYM    DATA     BYTE      MUX_SEL
      000000F0H   SFRSYM    DATA     BYTE      B
      000000E9H   SFRSYM    DATA     BYTE      MD0
      000000EAH   SFRSYM    DATA     BYTE      MD1
      000000B8H.6 SFRSYM    DATA     BIT       SWDT
      000000EBH   SFRSYM    DATA     BYTE      MD2
      000000ECH   SFRSYM    DATA     BYTE      MD3
      000000EDH   SFRSYM    DATA     BYTE      MD4
      000000EEH   SFRSYM    DATA     BYTE      MD5
      000000B1H   SFRSYM    DATA     BYTE      DMAC0
      000000E0H   SFRSYM    DATA     BYTE      ACC
      000000B2H   SFRSYM    DATA     BYTE      DMAC1
      000000A8H.4 SFRSYM    DATA     BIT       ES0
      000000B3H   SFRSYM    DATA     BYTE      DMAC2
      0000008FH   SFRSYM    DATA     BYTE      CAN_CR
      000000A8H.1 SFRSYM    DATA     BIT       ET0
      000000A9H   SFRSYM    DATA     BYTE      IP0
      000000A8H.3 SFRSYM    DATA     BIT       ET1
      00000088H.5 SFRSYM    DATA     BIT       TF0
      000000B9H   SFRSYM    DATA     BYTE      IP1
      000000A8H.5 SFRSYM    DATA     BIT       ET2
      00000098H.0 SFRSYM    DATA     BIT       RI0
      00000088H.7 SFRSYM    DATA     BIT       TF1
      000000FDH   SFRSYM    DATA     BYTE      DATA0
      000000C0H.6 SFRSYM    DATA     BIT       TF2
      000000FCH   SFRSYM    DATA     BYTE      DATA1
      000000E8H   SFRSYM    DATA     BYTE      CAN_ET
      0000008CH   SFRSYM    DATA     BYTE      TH0
      000000A8H.0 SFRSYM    DATA     BIT       EX0
      00000098H.1 SFRSYM    DATA     BIT       TI0
      00000088H.0 SFRSYM    DATA     BIT       IT0
      000000FBH   SFRSYM    DATA     BYTE      DATA2
      000000F7H   SFRSYM    DATA     BYTE      SRST
      0000008DH   SFRSYM    DATA     BYTE      TH1
      000000A8H.2 SFRSYM    DATA     BIT       EX1
      00000088H.2 SFRSYM    DATA     BIT       IT1
      000000FAH   SFRSYM    DATA     BYTE      DATA3
      000000CDH   SFRSYM    DATA     BYTE      TH2
      00000091H   SFRSYM    DATA     BYTE      CAN_IR
      000000D0H.0 SFRSYM    DATA     BIT       P
      00000098H.7 SFRSYM    DATA     BIT       SM0
      000000B5H   SFRSYM    DATA     BYTE      DMAM0
LX51 LINKER/LOCATER V4.66.87.0                                                        10/15/2020  10:36:21  PAGE 64


      0000008AH   SFRSYM    DATA     BYTE      TL0
      00000098H.6 SFRSYM    DATA     BIT       SM1
      000000B6H   SFRSYM    DATA     BYTE      DMAM1
      0000008BH   SFRSYM    DATA     BYTE      TL1
      000000CCH   SFRSYM    DATA     BYTE      TL2
      000000B8H.0 SFRSYM    DATA     BIT       EX7
      00000086H   SFRSYM    DATA     BYTE      WDTREL
      000000F8H.6 SFRSYM    DATA     BIT       APP_EN
      000000D0H.3 SFRSYM    DATA     BIT       RS0
      00000088H.4 SFRSYM    DATA     BIT       TR0
      000000D0H.4 SFRSYM    DATA     BIT       RS1
      000000A1H   SFRSYM    DATA     BYTE      DMAS0
      00000088H.6 SFRSYM    DATA     BIT       TR1
      000000A4H   SFRSYM    DATA     BYTE      DMAT0
      000000A2H   SFRSYM    DATA     BYTE      DMAS1
      00000093H   SFRSYM    DATA     BYTE      DPC
      000000E5H   SFRSYM    DATA     BYTE      MAC_MODE
      000000A5H   SFRSYM    DATA     BYTE      DMAT1
      000000A3H   SFRSYM    DATA     BYTE      DMAS2
      000000A6H   SFRSYM    DATA     BYTE      DMAT2
      00000083H   SFRSYM    DATA     BYTE      DPH
      00000082H   SFRSYM    DATA     BYTE      DPL
      00000099H   SFRSYM    DATA     BYTE      SBUF0
      0000009CH   SFRSYM    DATA     BYTE      SBUF1
      000000B8H.7 SFRSYM    DATA     BIT       EXEN2
      00000098H   SFRSYM    DATA     BYTE      SCON0
      0000009BH   SFRSYM    DATA     BYTE      SCON1
      000000D8H   SFRSYM    DATA     BYTE      ADCON
      000000C8H   SFRSYM    DATA     BYTE      T2CON
      000000E6H   SFRSYM    DATA     BYTE      DIV_MODE
      000000F8H.5 SFRSYM    DATA     BIT       APP_RW
      000000CBH   SFRSYM    DATA     BYTE      TRL2H
      0000009FH   SFRSYM    DATA     BYTE      SBUF2_RX
      000000A8H.6 SFRSYM    DATA     BIT       WDT
      000000ADH   SFRSYM    DATA     BYTE      SBUF3_RX
      0000008EH   SFRSYM    DATA     BYTE      CKCON
      0000009EH   SFRSYM    DATA     BYTE      SBUF2_TX
      000000CAH   SFRSYM    DATA     BYTE      TRL2L
      000000ACH   SFRSYM    DATA     BYTE      SBUF3_TX
      000000EFH   SFRSYM    DATA     BYTE      ARCON
      000000D0H.5 SFRSYM    DATA     BIT       F0
      000000FEH   SFRSYM    DATA     BYTE      EXADR
      000000D0H.1 SFRSYM    DATA     BIT       F1
      00000092H   SFRSYM    DATA     BYTE      DPSEL
      000000D0H   SFRSYM    DATA     BYTE      PSW
      00000098H.2 SFRSYM    DATA     BIT       RB80
      000000C0H   SFRSYM    DATA     BYTE      IRCON
      000000E3H   SFRSYM    DATA     BYTE      SPDAT
      0200977CH   SYMBOL    XDATA    BYTE      GetCodeCnt
      020097A2H   SYMBOL    XDATA    BYTE      CError_count
      020097A5H   SYMBOL    XDATA    BYTE      HeartReady

      0100CC3CH   BLOCK     CODE     ---       LVL=0
      0100CC3CH   LINE      CODE     ---       #15
      0100CC3CH   LINE      CODE     ---       #16
      0100CC3CH   LINE      CODE     ---       #17
      0100CC41H   LINE      CODE     ---       #18
      0100CC45H   LINE      CODE     ---       #19
      0100CC49H   LINE      CODE     ---       #20
      0100CC4DH   LINE      CODE     ---       #21
      0100CC57H   LINE      CODE     ---       #22
      0100CC5CH   LINE      CODE     ---       #23
      0100CC60H   LINE      CODE     ---       #24
      0100CC66H   LINE      CODE     ---       #25
      0100CC6AH   LINE      CODE     ---       #26
LX51 LINKER/LOCATER V4.66.87.0                                                        10/15/2020  10:36:21  PAGE 65


      0100CC6FH   LINE      CODE     ---       #27
      0100CC73H   LINE      CODE     ---       #28
      0100CC77H   LINE      CODE     ---       #29
      0100CC7BH   LINE      CODE     ---       #30
      ---         BLOCKEND  ---      ---       LVL=0

      01009AA2H   BLOCK     CODE     ---       LVL=0
      00000001H   SYMBOL    DATA     ---       buf
      01009AA2H   LINE      CODE     ---       #35
      01009AA2H   LINE      CODE     ---       #36
      01009AA2H   LINE      CODE     ---       #37
      01009AA8H   LINE      CODE     ---       #38
      01009AACH   LINE      CODE     ---       #39
      01009AB2H   LINE      CODE     ---       #40
      01009AB5H   LINE      CODE     ---       #41
      01009AB8H   LINE      CODE     ---       #42
      01009AC4H   LINE      CODE     ---       #44
      01009AD2H   LINE      CODE     ---       #45
      01009AD9H   LINE      CODE     ---       #46
      01009ADDH   LINE      CODE     ---       #47
      01009AE7H   LINE      CODE     ---       #48
      01009AEAH   LINE      CODE     ---       #49
      01009AF4H   LINE      CODE     ---       #50
      01009AFEH   LINE      CODE     ---       #51
      01009B0EH   LINE      CODE     ---       #52
      01009B0EH   LINE      CODE     ---       #53
      01009B0EH   LINE      CODE     ---       #54
      01009B14H   LINE      CODE     ---       #55
      01009B19H   LINE      CODE     ---       #56
      01009B23H   LINE      CODE     ---       #57
      01009B24H   LINE      CODE     ---       #58
      01009B24H   LINE      CODE     ---       #59
      01009B26H   LINE      CODE     ---       #60
      01009B26H   LINE      CODE     ---       #61
      01009B2CH   LINE      CODE     ---       #62
      01009B31H   LINE      CODE     ---       #63
      01009B33H   LINE      CODE     ---       #64
      01009B3DH   LINE      CODE     ---       #65
      01009B5DH   LINE      CODE     ---       #66
      01009B67H   LINE      CODE     ---       #67
      01009B69H   LINE      CODE     ---       #68
      01009B69H   LINE      CODE     ---       #69
      01009B6FH   LINE      CODE     ---       #70
      01009B79H   LINE      CODE     ---       #71
      01009B7CH   LINE      CODE     ---       #72
      01009B7EH   LINE      CODE     ---       #73
      01009B92H   LINE      CODE     ---       #74
      01009B92H   LINE      CODE     ---       #75
      01009B92H   LINE      CODE     ---       #76
      01009B92H   LINE      CODE     ---       #77
      01009B92H   LINE      CODE     ---       #78
      01009BAAH   LINE      CODE     ---       #79
      01009BC2H   LINE      CODE     ---       #80
      01009BCDH   LINE      CODE     ---       #81
      01009BD3H   LINE      CODE     ---       #82
      01009BD8H   LINE      CODE     ---       #83
      01009BDCH   LINE      CODE     ---       #84
      01009BE0H   LINE      CODE     ---       #85
      ---         BLOCKEND  ---      ---       LVL=0

      0100CBFAH   BLOCK     CODE     ---       LVL=0
      0100CBFAH   LINE      CODE     ---       #87
      0100CBFAH   LINE      CODE     ---       #88
      0100CBFAH   LINE      CODE     ---       #89
      0100CC00H   LINE      CODE     ---       #90
LX51 LINKER/LOCATER V4.66.87.0                                                        10/15/2020  10:36:21  PAGE 66


      0100CC04H   LINE      CODE     ---       #91
      0100CC07H   LINE      CODE     ---       #92
      0100CC0BH   LINE      CODE     ---       #93
      0100CC0EH   LINE      CODE     ---       #94
      0100CC10H   LINE      CODE     ---       #95
      0100CC12H   LINE      CODE     ---       #96
      0100CC14H   LINE      CODE     ---       #97
      0100CC16H   LINE      CODE     ---       #98
      0100CC18H   LINE      CODE     ---       #99
      0100CC1AH   LINE      CODE     ---       #100
      0100CC1CH   LINE      CODE     ---       #101
      0100CC1EH   LINE      CODE     ---       #102
      0100CC20H   LINE      CODE     ---       #103
      0100CC22H   LINE      CODE     ---       #104
      0100CC26H   LINE      CODE     ---       #105
      0100CC29H   LINE      CODE     ---       #106
      0100CC2BH   LINE      CODE     ---       #107
      0100CC2DH   LINE      CODE     ---       #108
      0100CC32H   LINE      CODE     ---       #109
      0100CC36H   LINE      CODE     ---       #110
      0100CC3BH   LINE      CODE     ---       #111
      ---         BLOCKEND  ---      ---       LVL=0

      0100C882H   BLOCK     CODE     ---       LVL=0
      00000007H   SYMBOL    DATA     BYTE      type
      0100C882H   LINE      CODE     ---       #113
      0100C882H   LINE      CODE     ---       #114
      0100C882H   LINE      CODE     ---       #115
      0100C888H   LINE      CODE     ---       #116
      0100C88CH   LINE      CODE     ---       #117
      0100C890H   LINE      CODE     ---       #118
      0100C893H   LINE      CODE     ---       #119
      0100C895H   LINE      CODE     ---       #120
      0100C898H   LINE      CODE     ---       #121
      0100C89BH   LINE      CODE     ---       #122
      0100C89EH   LINE      CODE     ---       #123
      0100C8A0H   LINE      CODE     ---       #124
      0100C8A4H   LINE      CODE     ---       #125
      0100C8A8H   LINE      CODE     ---       #126
      0100C8ADH   LINE      CODE     ---       #127
      0100C8B1H   LINE      CODE     ---       #128
      0100C8B5H   LINE      CODE     ---       #129
      0100C8B9H   LINE      CODE     ---       #130
      0100C8BDH   LINE      CODE     ---       #131
      0100C8BFH   LINE      CODE     ---       #132
      0100C8C2H   LINE      CODE     ---       #133
      0100C8C4H   LINE      CODE     ---       #134
      0100C8C6H   LINE      CODE     ---       #135
      0100C8CBH   LINE      CODE     ---       #136
      0100C8D0H   LINE      CODE     ---       #137
      0100C8D6H   LINE      CODE     ---       #138
      ---         BLOCKEND  ---      ---       LVL=0

      0100CF32H   BLOCK     CODE     ---       LVL=0
      0100CF32H   LINE      CODE     ---       #140
      0100CF32H   LINE      CODE     ---       #141
      0100CF32H   LINE      CODE     ---       #142
      0100CF38H   LINE      CODE     ---       #143
      0100CF3CH   LINE      CODE     ---       #144
      0100CF42H   LINE      CODE     ---       #145
      0100CF47H   LINE      CODE     ---       #146
      0100CF4DH   LINE      CODE     ---       #147
      ---         BLOCKEND  ---      ---       LVL=0

      0100CBB6H   BLOCK     CODE     ---       LVL=0
LX51 LINKER/LOCATER V4.66.87.0                                                        10/15/2020  10:36:21  PAGE 67


      0100CBB6H   LINE      CODE     ---       #149
      0100CBB6H   LINE      CODE     ---       #150
      0100CBB6H   LINE      CODE     ---       #151
      0100CBC8H   LINE      CODE     ---       #152
      0100CBC8H   LINE      CODE     ---       #153
      0100CBCEH   LINE      CODE     ---       #154
      0100CBD2H   LINE      CODE     ---       #155
      0100CBD5H   LINE      CODE     ---       #156
      0100CBD7H   LINE      CODE     ---       #157
      0100CBD9H   LINE      CODE     ---       #158
      0100CBDBH   LINE      CODE     ---       #159
      0100CBDDH   LINE      CODE     ---       #160
      0100CBDFH   LINE      CODE     ---       #162
      0100CBE7H   LINE      CODE     ---       #163
      0100CBEDH   LINE      CODE     ---       #164
      0100CBF3H   LINE      CODE     ---       #165
      0100CBF9H   LINE      CODE     ---       #166
      0100CBF9H   LINE      CODE     ---       #167
      ---         BLOCKEND  ---      ---       LVL=0

      0100C977H   BLOCK     CODE     ---       LVL=0
      0100C977H   LINE      CODE     ---       #169
      0100C977H   LINE      CODE     ---       #170
      0100C977H   LINE      CODE     ---       #171
      0100C97DH   LINE      CODE     ---       #172
      0100C981H   LINE      CODE     ---       #173
      0100C984H   LINE      CODE     ---       #174
      0100C986H   LINE      CODE     ---       #175
      0100C988H   LINE      CODE     ---       #176
      0100C98FH   LINE      CODE     ---       #177
      0100C994H   LINE      CODE     ---       #178
      0100C996H   LINE      CODE     ---       #179
      0100C998H   LINE      CODE     ---       #180
      0100C99AH   LINE      CODE     ---       #181
      0100C99CH   LINE      CODE     ---       #182
      0100C99EH   LINE      CODE     ---       #183
      0100C9A0H   LINE      CODE     ---       #184
      0100C9A2H   LINE      CODE     ---       #185
      0100C9A4H   LINE      CODE     ---       #186
      0100C9A6H   LINE      CODE     ---       #187
      0100C9A8H   LINE      CODE     ---       #188
      0100C9AAH   LINE      CODE     ---       #189
      0100C9ACH   LINE      CODE     ---       #190
      0100C9AEH   LINE      CODE     ---       #191
      0100C9B3H   LINE      CODE     ---       #192
      0100C9B7H   LINE      CODE     ---       #193
      0100C9BCH   LINE      CODE     ---       #194
      0100C9C0H   LINE      CODE     ---       #195
      ---         BLOCKEND  ---      ---       LVL=0

      0100BBD6H   BLOCK     CODE     ---       LVL=0
      02009459H   SYMBOL    XDATA    ---       updata
      0200945CH   SYMBOL    XDATA    BYTE      len
      0100BBE4H   BLOCK     CODE     NEAR LAB  LVL=1
      0200945DH   SYMBOL    XDATA    WORD      Reg_CRC
      0200945FH   SYMBOL    XDATA    BYTE      i
      00000005H   SYMBOL    DATA     BYTE      j
      ---         BLOCKEND  ---      ---       LVL=1
      0100BBD6H   LINE      CODE     ---       #197
      0100BBE4H   LINE      CODE     ---       #198
      0100BBE4H   LINE      CODE     ---       #199
      0100BBEAH   LINE      CODE     ---       #201
      0100BBFAH   LINE      CODE     ---       #202
      0100BBFAH   LINE      CODE     ---       #203
      0100BC17H   LINE      CODE     ---       #204
LX51 LINKER/LOCATER V4.66.87.0                                                        10/15/2020  10:36:21  PAGE 68


      0100BC19H   LINE      CODE     ---       #205
      0100BC19H   LINE      CODE     ---       #206
      0100BC24H   LINE      CODE     ---       #207
      0100BC24H   LINE      CODE     ---       #208
      0100BC3BH   LINE      CODE     ---       #209
      0100BC3DH   LINE      CODE     ---       #211
      0100BC3DH   LINE      CODE     ---       #212
      0100BC48H   LINE      CODE     ---       #213
      0100BC48H   LINE      CODE     ---       #214
      0100BC4DH   LINE      CODE     ---       #215
      0100BC55H   LINE      CODE     ---       #216
      0100BC6FH   LINE      CODE     ---       #217
      0100BC83H   LINE      CODE     ---       #218
      0100BC8BH   LINE      CODE     ---       #219
      ---         BLOCKEND  ---      ---       LVL=0

      01005358H   BLOCK     CODE     ---       LVL=0
      01005358H   BLOCK     CODE     NEAR LAB  LVL=1
      02009459H   SYMBOL    XDATA    ---       k_data
      00000005H   SYMBOL    DATA     BYTE      i
      02009479H   SYMBOL    XDATA    DWORD     tmp
      ---         BLOCKEND  ---      ---       LVL=1
      01005358H   LINE      CODE     ---       #221
      01005358H   LINE      CODE     ---       #222
      01005358H   LINE      CODE     ---       #227
      0100535EH   LINE      CODE     ---       #228
      01005364H   LINE      CODE     ---       #229
      01005364H   LINE      CODE     ---       #230
      01005373H   LINE      CODE     ---       #231
      01005373H   LINE      CODE     ---       #232
      01005377H   LINE      CODE     ---       #233
      01005379H   LINE      CODE     ---       #234
      0100537BH   LINE      CODE     ---       #235
      0100537FH   LINE      CODE     ---       #236
      0100537FH   LINE      CODE     ---       #237
      01005382H   LINE      CODE     ---       #239
      01005382H   LINE      CODE     ---       #240
      0100538AH   LINE      CODE     ---       #241
      0100538AH   LINE      CODE     ---       #242
      01005392H   LINE      CODE     ---       #243
      01005392H   LINE      CODE     ---       #244
      01005398H   LINE      CODE     ---       #245
      0100539AH   LINE      CODE     ---       #247
      0100539AH   LINE      CODE     ---       #248
      0100539FH   LINE      CODE     ---       #249
      0100539FH   LINE      CODE     ---       #250
      010053A6H   LINE      CODE     ---       #251
      010053A6H   LINE      CODE     ---       #252
      010053AAH   LINE      CODE     ---       #253
      010053AAH   LINE      CODE     ---       #254
      010053B2H   LINE      CODE     ---       #255
      010053B2H   LINE      CODE     ---       #256
      010053B9H   LINE      CODE     ---       #257
      010053B9H   LINE      CODE     ---       #258
      010053BEH   LINE      CODE     ---       #259
      010053C6H   LINE      CODE     ---       #260
      010053DFH   LINE      CODE     ---       #261
      010053DFH   LINE      CODE     ---       #262
      010053E7H   LINE      CODE     ---       #263
      010053E7H   LINE      CODE     ---       #264
      010053ECH   LINE      CODE     ---       #265
      010053F4H   LINE      CODE     ---       #266
      01005400H   LINE      CODE     ---       #267
      01005400H   LINE      CODE     ---       #268
      01005410H   LINE      CODE     ---       #269
LX51 LINKER/LOCATER V4.66.87.0                                                        10/15/2020  10:36:21  PAGE 69


      01005412H   LINE      CODE     ---       #271
      01005412H   LINE      CODE     ---       #272
      0100542BH   LINE      CODE     ---       #273
      0100542BH   LINE      CODE     ---       #274
      0100542BH   LINE      CODE     ---       #275
      01005432H   LINE      CODE     ---       #276
      01005432H   LINE      CODE     ---       #277
      01005439H   LINE      CODE     ---       #278
      01005439H   LINE      CODE     ---       #279
      01005447H   LINE      CODE     ---       #280
      01005447H   LINE      CODE     ---       #281
      0100544CH   LINE      CODE     ---       #282
      0100544CH   LINE      CODE     ---       #283
      01005451H   LINE      CODE     ---       #284
      01005454H   LINE      CODE     ---       #285
      01005456H   LINE      CODE     ---       #287
      01005456H   LINE      CODE     ---       #288
      0100545BH   LINE      CODE     ---       #289
      01005463H   LINE      CODE     ---       #290
      01005463H   LINE      CODE     ---       #291
      0100547CH   LINE      CODE     ---       #292
      0100547CH   LINE      CODE     ---       #293
      01005487H   LINE      CODE     ---       #294
      01005487H   LINE      CODE     ---       #295
      01005496H   LINE      CODE     ---       #296
      010054AFH   LINE      CODE     ---       #297
      010054D1H   LINE      CODE     ---       #298
      010054EAH   LINE      CODE     ---       #299
      0100550CH   LINE      CODE     ---       #300
      01005514H   LINE      CODE     ---       #301
      01005514H   LINE      CODE     ---       #302
      01005536H   LINE      CODE     ---       #303
      01005536H   LINE      CODE     ---       #304
      01005539H   LINE      CODE     ---       #305
      0100553BH   LINE      CODE     ---       #307
      0100553BH   LINE      CODE     ---       #308
      01005554H   LINE      CODE     ---       #309
      01005554H   LINE      CODE     ---       #310
      01005556H   LINE      CODE     ---       #312
      01005556H   LINE      CODE     ---       #313
      0100556AH   LINE      CODE     ---       #314
      0100556AH   LINE      CODE     ---       #315
      01005592H   LINE      CODE     ---       #316
      010055BCH   LINE      CODE     ---       #317
      010055D6H   LINE      CODE     ---       #318
      010055D6H   LINE      CODE     ---       #319
      010055DDH   LINE      CODE     ---       #320
      010055DDH   LINE      CODE     ---       #321
      010055E6H   LINE      CODE     ---       #322
      010055EBH   LINE      CODE     ---       #323
      010055F0H   LINE      CODE     ---       #324
      010055F2H   LINE      CODE     ---       #325
      010055F2H   LINE      CODE     ---       #326
      010055F3H   LINE      CODE     ---       #327
      010055F5H   LINE      CODE     ---       #328
      010055FEH   LINE      CODE     ---       #329
      010055FEH   LINE      CODE     ---       #330
      01005601H   LINE      CODE     ---       #331
      01005603H   LINE      CODE     ---       #333
      01005603H   LINE      CODE     ---       #334
      01005609H   LINE      CODE     ---       #335
      01005609H   LINE      CODE     ---       #336
      01005623H   LINE      CODE     ---       #337
      01005623H   LINE      CODE     ---       #346
      0100562AH   LINE      CODE     ---       #347
LX51 LINKER/LOCATER V4.66.87.0                                                        10/15/2020  10:36:21  PAGE 70


      0100562AH   LINE      CODE     ---       #348
      01005632H   LINE      CODE     ---       #349
      01005634H   LINE      CODE     ---       #350
      01005634H   LINE      CODE     ---       #351
      0100564EH   LINE      CODE     ---       #352
      0100564EH   LINE      CODE     ---       #353
      01005653H   LINE      CODE     ---       #354
      0100565BH   LINE      CODE     ---       #355
      0100565BH   LINE      CODE     ---       #356
      0100565EH   LINE      CODE     ---       #357
      01005663H   LINE      CODE     ---       #358
      01005664H   LINE      CODE     ---       #359
      01005664H   LINE      CODE     ---       #360
      01005664H   LINE      CODE     ---       #361
      01005666H   LINE      CODE     ---       #363
      01005666H   LINE      CODE     ---       #364
      01005669H   LINE      CODE     ---       #365
      0100566BH   LINE      CODE     ---       #366
      01005685H   LINE      CODE     ---       #367
      01005685H   LINE      CODE     ---       #368
      01005685H   LINE      CODE     ---       #369
      01005685H   LINE      CODE     ---       #370
      ---         BLOCKEND  ---      ---       LVL=0

      0100BE6FH   BLOCK     CODE     ---       LVL=0
      0100BE6FH   BLOCK     CODE     NEAR LAB  LVL=1
      00000005H   SYMBOL    DATA     BYTE      i
      02009459H   SYMBOL    XDATA    ---       k_data
      ---         BLOCKEND  ---      ---       LVL=1
      0100BE6FH   LINE      CODE     ---       #388
      0100BE6FH   LINE      CODE     ---       #389
      0100BE6FH   LINE      CODE     ---       #393
      0100BE71H   LINE      CODE     ---       #394
      0100BE71H   LINE      CODE     ---       #395
      0100BE89H   LINE      CODE     ---       #396
      0100BE8EH   LINE      CODE     ---       #397
      0100BE94H   LINE      CODE     ---       #398
      0100BEADH   LINE      CODE     ---       #399
      0100BEB2H   LINE      CODE     ---       #400
      0100BEB4H   LINE      CODE     ---       #401
      0100BEB5H   LINE      CODE     ---       #402
      0100BEB5H   LINE      CODE     ---       #403
      0100BECFH   LINE      CODE     ---       #404
      0100BECFH   LINE      CODE     ---       #405
      0100BED5H   LINE      CODE     ---       #406
      0100BED7H   LINE      CODE     ---       #407
      0100BED7H   LINE      CODE     ---       #408
      0100BEDCH   LINE      CODE     ---       #409
      0100BEE3H   LINE      CODE     ---       #410
      0100BEE3H   LINE      CODE     ---       #411
      0100BEE9H   LINE      CODE     ---       #412
      0100BEE9H   LINE      CODE     ---       #413
      0100BEECH   LINE      CODE     ---       #414
      0100BEECH   LINE      CODE     ---       #415
      0100BEECH   LINE      CODE     ---       #416
      ---         BLOCKEND  ---      ---       LVL=0

      0100CC7CH   BLOCK     CODE     ---       LVL=0
      0100CC7CH   BLOCK     CODE     NEAR LAB  LVL=1
      02009459H   SYMBOL    XDATA    ---       k_data
      00000007H   SYMBOL    DATA     BYTE      i
      ---         BLOCKEND  ---      ---       LVL=1
      0100CC7CH   LINE      CODE     ---       #419
      0100CC7CH   LINE      CODE     ---       #420
      0100CC7CH   LINE      CODE     ---       #424
LX51 LINKER/LOCATER V4.66.87.0                                                        10/15/2020  10:36:21  PAGE 71


      0100CC7EH   LINE      CODE     ---       #425
      0100CC7EH   LINE      CODE     ---       #426
      0100CC96H   LINE      CODE     ---       #427
      0100CC9BH   LINE      CODE     ---       #428
      ---         BLOCKEND  ---      ---       LVL=0

      0100CF92H   BLOCK     CODE     ---       LVL=0
      0100CF92H   LINE      CODE     ---       #431
      0100CF92H   LINE      CODE     ---       #432
      0100CF92H   LINE      CODE     ---       #433
      0100CF98H   LINE      CODE     ---       #434
      0100CF9EH   LINE      CODE     ---       #435
      0100CF9EH   LINE      CODE     ---       #436
      0100CFA0H   LINE      CODE     ---       #437
      0100CFA5H   LINE      CODE     ---       #438
      0100CFA5H   LINE      CODE     ---       #439
      ---         BLOCKEND  ---      ---       LVL=0

      0100B8D8H   BLOCK     CODE     ---       LVL=0
      0100B8D8H   BLOCK     CODE     NEAR LAB  LVL=1
      00000007H   SYMBOL    DATA     BYTE      i
      00000007H   SYMBOL    DATA     BYTE      len
      00000005H   SYMBOL    DATA     BYTE      tmp
      ---         BLOCKEND  ---      ---       LVL=1
      0100B8D8H   LINE      CODE     ---       #441
      0100B8D8H   LINE      CODE     ---       #442
      0100B8D8H   LINE      CODE     ---       #446
      0100B8E6H   LINE      CODE     ---       #447
      0100B8E6H   LINE      CODE     ---       #448
      0100B8EAH   LINE      CODE     ---       #449
      0100B8F2H   LINE      CODE     ---       #450
      0100B8F2H   LINE      CODE     ---       #451
      0100B8F5H   LINE      CODE     ---       #452
      0100B919H   LINE      CODE     ---       #453
      0100B919H   LINE      CODE     ---       #454
      0100B92EH   LINE      CODE     ---       #455
      0100B933H   LINE      CODE     ---       #456
      0100B933H   LINE      CODE     ---       #457
      0100B938H   LINE      CODE     ---       #458
      0100B938H   LINE      CODE     ---       #459
      0100B93FH   LINE      CODE     ---       #460
      0100B93FH   LINE      CODE     ---       #461
      0100B95AH   LINE      CODE     ---       #462
      0100B960H   LINE      CODE     ---       #463
      0100B962H   LINE      CODE     ---       #464
      0100B965H   LINE      CODE     ---       #465
      0100B972H   LINE      CODE     ---       #466
      0100B972H   LINE      CODE     ---       #467
      0100B981H   LINE      CODE     ---       #468
      0100B981H   LINE      CODE     ---       #469
      0100B981H   LINE      CODE     ---       #470
      0100B984H   LINE      CODE     ---       #471
      0100B986H   LINE      CODE     ---       #472
      0100B986H   LINE      CODE     ---       #473
      0100B989H   LINE      CODE     ---       #474
      0100B98BH   LINE      CODE     ---       #475
      0100B98BH   LINE      CODE     ---       #476
      0100B98EH   LINE      CODE     ---       #477
      0100B98EH   LINE      CODE     ---       #478
      0100B98EH   LINE      CODE     ---       #479
      0100B98EH   LINE      CODE     ---       #480
      0100B98EH   LINE      CODE     ---       #481
      0100B993H   LINE      CODE     ---       #482
      0100B995H   LINE      CODE     ---       #483
      0100B995H   LINE      CODE     ---       #484
LX51 LINKER/LOCATER V4.66.87.0                                                        10/15/2020  10:36:21  PAGE 72


      0100B995H   LINE      CODE     ---       #485
      0100B996H   LINE      CODE     ---       #493
      0100B996H   LINE      CODE     ---       #494
      0100B99CH   LINE      CODE     ---       #495
      0100B99EH   LINE      CODE     ---       #496
      0100B99EH   LINE      CODE     ---       #497
      0100B99EH   LINE      CODE     ---       #498
      0100B99EH   LINE      CODE     ---       #499
      ---         BLOCKEND  ---      ---       LVL=0

      0100C2BAH   BLOCK     CODE     ---       LVL=0
      0100C2BAH   LINE      CODE     ---       #501
      0100C2BAH   LINE      CODE     ---       #502
      0100C2BAH   LINE      CODE     ---       #515
      0100C2C0H   LINE      CODE     ---       #516
      0100C2C0H   LINE      CODE     ---       #517
      0100C2C6H   LINE      CODE     ---       #518
      0100C2CCH   LINE      CODE     ---       #519
      0100C2CCH   LINE      CODE     ---       #520
      0100C2DCH   LINE      CODE     ---       #521
      0100C2ECH   LINE      CODE     ---       #522
      0100C2F1H   LINE      CODE     ---       #523
      0100C2F7H   LINE      CODE     ---       #524
      0100C2FDH   LINE      CODE     ---       #525
      0100C2FDH   LINE      CODE     ---       #526
      0100C302H   LINE      CODE     ---       #527
      0100C306H   LINE      CODE     ---       #528
      0100C308H   LINE      CODE     ---       #529
      0100C30AH   LINE      CODE     ---       #530
      0100C30AH   LINE      CODE     ---       #531
      0100C30AH   LINE      CODE     ---       #532
      0100C30FH   LINE      CODE     ---       #533
      0100C310H   LINE      CODE     ---       #535
      0100C310H   LINE      CODE     ---       #536
      0100C31DH   LINE      CODE     ---       #537
      0100C31DH   LINE      CODE     ---       #538
      0100C323H   LINE      CODE     ---       #539
      0100C329H   LINE      CODE     ---       #540
      0100C329H   LINE      CODE     ---       #541
      0100C32BH   LINE      CODE     ---       #542
      0100C32EH   LINE      CODE     ---       #543
      0100C32EH   LINE      CODE     ---       #544
      0100C32EH   LINE      CODE     ---       #545
      0100C32EH   LINE      CODE     ---       #546
      ---         BLOCKEND  ---      ---       LVL=0

      ---         MODULE    ---      ---       PAGE
      02008B91H   PUBLIC    XDATA    ---       Sys_CFG
      02008B8FH   PUBLIC    XDATA    BYTE      init_weight_enable
      02008B8BH   PUBLIC    XDATA    ---       DisplayIcon
      02008B7BH   PUBLIC    XDATA    ---       MenuHeader
      02008B73H   PUBLIC    XDATA    DWORD     CookTimeDownCnt
      02008B6EH   PUBLIC    XDATA    ---       DisplayTXT
      02008B66H   PUBLIC    XDATA    WORD      init_weight_all_time
      02008958H   PUBLIC    XDATA    ---       IconParaTmp
      02008953H   PUBLIC    XDATA    BYTE      gaizi_type
      02008709H   PUBLIC    XDATA    ---       TXTParaTmp
      02008704H   PUBLIC    XDATA    BYTE      mFunction
      020086C2H   PUBLIC    XDATA    BYTE      init_weight_count
      020086B9H   PUBLIC    XDATA    ---       DisplayHeader
      02008699H   PUBLIC    XDATA    ---       MusicList
      02008498H   PUBLIC    XDATA    BYTE      ErrPageBack
      02008484H   PUBLIC    XDATA    ---       MenuHeaderTmp
      02008266H   PUBLIC    XDATA    ---       IconPara
      0200800EH   PUBLIC    XDATA    ---       TXTPara
LX51 LINKER/LOCATER V4.66.87.0                                                        10/15/2020  10:36:21  PAGE 73


      0200800DH   PUBLIC    XDATA    BYTE      Pmenu
      02008001H   PUBLIC    XDATA    DWORD     Cook_Time
      0100CFF6H   PUBLIC    CONST    ---       allpage
      0100AA0BH   PUBLIC    CODE     ---       Page_Action
      0100C9C1H   PUBLIC    CODE     ---       PageTouch
      0100B5B0H   PUBLIC    CODE     ---       P148Touch
      0100BF99H   PUBLIC    CODE     ---       P148_HSlide
      010070DBH   PUBLIC    CODE     ---       P148_Touch
      010065E2H   PUBLIC    CODE     ---       _DecreaseIcon
      01005EC1H   PUBLIC    CODE     ---       _IncreaseIcon
      0100A084H   PUBLIC    CODE     ---       P133Touch
      0100BB1EH   PUBLIC    CODE     ---       P133_HSlide
      0100C13EH   PUBLIC    CODE     ---       P120Touch
      01005C33H   PUBLIC    CODE     ---       P120_VSlide
      0100C5BAH   PUBLIC    CODE     ---       P120_HSlide
      01004FFCH   PUBLIC    CODE     ---       P120_Touch
      0100B25FH   PUBLIC    CODE     ---       P117Touch
      01007515H   PUBLIC    CODE     ---       P117_Touch
      0100B182H   PUBLIC    CODE     ---       P116Touch
      0100AFB5H   PUBLIC    CODE     ---       _P116_HSlide
      01005995H   PUBLIC    CODE     ---       P116_Touch
      01009D0FH   PUBLIC    CODE     ---       P99Touch
      0100BA66H   PUBLIC    CODE     ---       P99_HSlide
      01008867H   PUBLIC    CODE     ---       Page151
      0100A4E2H   PUBLIC    CODE     ---       Page150
      0100BDD7H   PUBLIC    CODE     ---       Page149
      0100C780H   PUBLIC    CODE     ---       Page148
      0100995FH   PUBLIC    CODE     ---       Page145
      0100C729H   PUBLIC    CODE     ---       Page143
      01001EBEH   PUBLIC    CODE     ---       Page141
      0100B99FH   PUBLIC    CODE     ---       Page136
      01006C91H   PUBLIC    CODE     ---       StartMenuStep
      01007D47H   PUBLIC    CODE     ---       _MenuParaTrans
      01007F3AH   PUBLIC    CODE     ---       _StepData
      0100C028H   PUBLIC    CODE     ---       StepDataIncrease
      0100C554H   PUBLIC    CODE     ---       StepDataDecrease
      0100CD54H   PUBLIC    CODE     ---       Page134
      0100C480H   PUBLIC    CODE     ---       Page132
      01008DB2H   PUBLIC    CODE     ---       Page131
      0100981AH   PUBLIC    CODE     ---       Page130
      01001528H   PUBLIC    CODE     ---       Page129
      0100C3A1H   PUBLIC    CODE     ---       Page_Back
      01003E73H   PUBLIC    CODE     ---       Page128
      010033F1H   PUBLIC    CODE     ---       Page127
      01002E7FH   PUBLIC    CODE     ---       Page126
      010026E6H   PUBLIC    CODE     ---       Page125
      0100AECDH   PUBLIC    CODE     ---       Page121
      01003963H   PUBLIC    CODE     ---       Page118
      0100CB70H   PUBLIC    CODE     ---       Page117
      0100772EH   PUBLIC    CODE     ---       Page116
      0100BD37H   PUBLIC    CODE     ---       Page115
      01008F6DH   PUBLIC    CODE     ---       Page114
      0100ADE4H   PUBLIC    CODE     ---       Page113
      0100B33CH   PUBLIC    CODE     ---       Page112
      01006833H   PUBLIC    CODE     ---       _Search_Menu
      02009680H   PUBLIC    XDATA    BYTE      ?_CompareText?BYTE
      0100C61AH   PUBLIC    CODE     ---       _CompareText
      01008BF6H   PUBLIC    CODE     ---       Page104
      0100A801H   PUBLIC    CODE     ---       Page103
      0100A3D3H   PUBLIC    CODE     ---       Page102
      01009F60H   PUBLIC    CODE     ---       Page101
      010072FAH   PUBLIC    CODE     ---       _Get_Send
      0100B74BH   PUBLIC    CODE     ---       _Function_Stir
      0100A6FFH   PUBLIC    CODE     ---       _Funtion_Power
      0100B681H   PUBLIC    CODE     ---       _Function_Time
LX51 LINKER/LOCATER V4.66.87.0                                                        10/15/2020  10:36:21  PAGE 74


      01009BE1H   PUBLIC    CODE     ---       _ParaTrans
      010096D5H   PUBLIC    CODE     ---       TimeVary
      010084CEH   PUBLIC    CODE     ---       Page100
      0100CDBDH   PUBLIC    CODE     ---       Page88
      0100CFA6H   PUBLIC    CODE     ---       Page74
      0100CFC8H   PUBLIC    CODE     ---       Page0
      01009126H   PUBLIC    CODE     ---       TXTAutoSlideAction
      01004332H   PUBLIC    CODE     ---       Display_TXT
      01000103H   PUBLIC    CODE     ---       Get_TXT
      0100B411H   PUBLIC    CODE     ---       Get_MenuAllPara
      0100869CH   PUBLIC    CODE     ---       _MenuAutoSlideAction
      010092CDH   PUBLIC    CODE     ---       _DisplayHMenuDirect
      01009581H   PUBLIC    CODE     ---       _DisplayMenuDirect
      0100ACF5H   PUBLIC    CODE     ---       _GetHMenuDirect
      0100A5EFH   PUBLIC    CODE     ---       _GetMenuDirect
      0100568CH   PUBLIC    CODE     ---       _Display_Menu
      0100AC01H   PUBLIC    CODE     ---       _Get_Menu
      0100B09CH   PUBLIC    CODE     ---       SetPageDisplay
      01004781H   PUBLIC    CODE     ---       Page_Pos
      01006EBAH   PUBLIC    CODE     ---       _Page_TouchJudge
      0100CEF3H   PUBLIC    CODE     ---       Clr_Touch
      0100CE7DH   PUBLIC    CODE     ---       _Get_Touch
      0100AB0CH   PUBLIC    CODE     ---       Init_Para
      0100C41EH   PUBLIC    CODE     ---       _Music_Play
      01008A31H   PUBLIC    CODE     ---       page_init
      00000090H.5 SFRSYM    DATA     BIT       key4
      00000098H.3 SFRSYM    DATA     BIT       TB80
      000000C8H.0 SFRSYM    DATA     BIT       T2I0
      000000F1H   SFRSYM    DATA     BYTE      ADR_H
      000000C3H   SFRSYM    DATA     BYTE      CCH1
      00000080H   SFRSYM    DATA     BYTE      P0
      000000C8H.1 SFRSYM    DATA     BIT       T2I1
      000000C5H   SFRSYM    DATA     BYTE      CCH2
      00000090H   SFRSYM    DATA     BYTE      P1
      000000C7H   SFRSYM    DATA     BYTE      CCH3
      000000A0H   SFRSYM    DATA     BYTE      P2
      00000098H.5 SFRSYM    DATA     BIT       SM20
      000000B0H   SFRSYM    DATA     BYTE      P3
      000000D0H.6 SFRSYM    DATA     BIT       AC
      000000F3H   SFRSYM    DATA     BYTE      ADR_L
      000000C2H   SFRSYM    DATA     BYTE      CCL1
      00000094H   SFRSYM    DATA     BYTE      PAGESEL
      000000F2H   SFRSYM    DATA     BYTE      ADR_M
      000000E2H   SFRSYM    DATA     BYTE      SPCON
      000000C4H   SFRSYM    DATA     BYTE      CCL2
      000000D8H.7 SFRSYM    DATA     BIT       BD
      000000A8H.7 SFRSYM    DATA     BIT       EA
      000000C6H   SFRSYM    DATA     BYTE      CCL3
      000000F8H   SFRSYM    DATA     BYTE      RAMMODE
      000000C8H.3 SFRSYM    DATA     BIT       T2R0
      000000C8H.4 SFRSYM    DATA     BIT       T2R1
      000000B7H   SFRSYM    DATA     BYTE      P0MDOUT
      000000E1H   SFRSYM    DATA     BYTE      SPSTA
      000000BCH   SFRSYM    DATA     BYTE      P1MDOUT
      000000A8H   SFRSYM    DATA     BYTE      IEN0
      000000BDH   SFRSYM    DATA     BYTE      P2MDOUT
      000000B8H   SFRSYM    DATA     BYTE      IEN1
      00000085H   SFRSYM    DATA     BYTE      DPH1
      000000BEH   SFRSYM    DATA     BYTE      P3MDOUT
      0000009AH   SFRSYM    DATA     BYTE      IEN2
      000000D1H   SFRSYM    DATA     BYTE      IEN4
      000000F8H.4 SFRSYM    DATA     BIT       APP_ACK
      000000C0H.0 SFRSYM    DATA     BIT       IADC
      00000084H   SFRSYM    DATA     BYTE      DPL1
      000000F4H   SFRSYM    DATA     BYTE      ADR_INC
LX51 LINKER/LOCATER V4.66.87.0                                                        10/15/2020  10:36:21  PAGE 75


      000000C8H.5 SFRSYM    DATA     BIT       I2FR
      000000C8H.6 SFRSYM    DATA     BIT       I3FR
      000000C0H.7 SFRSYM    DATA     BIT       EXF2
      00000098H.4 SFRSYM    DATA     BIT       REN0
      000000C8H.2 SFRSYM    DATA     BIT       T2CM
      000000DBH   SFRSYM    DATA     BYTE      I2CADR
      000000B8H.1 SFRSYM    DATA     BIT       ECAN
      000000C0H.1 SFRSYM    DATA     BIT       IEX2
      000000E4H   SFRSYM    DATA     BYTE      SPSSN
      000000DAH   SFRSYM    DATA     BYTE      I2CDAT
      000000C0H.2 SFRSYM    DATA     BIT       IEX3
      000000C1H   SFRSYM    DATA     BYTE      CCEN
      000000C0H.3 SFRSYM    DATA     BIT       IEX4
      000000C0H.4 SFRSYM    DATA     BIT       IEX5
      000000D0H.7 SFRSYM    DATA     BIT       CY
      000000C0H.5 SFRSYM    DATA     BIT       IEX6
      000000B8H.3 SFRSYM    DATA     BIT       ES2R
      000000B8H.5 SFRSYM    DATA     BIT       ES3R
      000000B8H.2 SFRSYM    DATA     BIT       ES2T
      000000B8H.4 SFRSYM    DATA     BIT       ES3T
      000000DCH   SFRSYM    DATA     BYTE      I2CCON
      00000081H   SFRSYM    DATA     BYTE      SP
      000000D0H.2 SFRSYM    DATA     BIT       OV
      000000DDH   SFRSYM    DATA     BYTE      I2CSTA
      00000095H   SFRSYM    DATA     BYTE      D_PAGESEL
      000000C8H.7 SFRSYM    DATA     BIT       T2PS
      000000F8H.7 SFRSYM    DATA     BIT       APP_REQ
      000000BFH   SFRSYM    DATA     BYTE      IRCON2
      00000080H.0 SFRSYM    DATA     BIT       P00
      000000BAH   SFRSYM    DATA     BYTE      SREL0H
      00000090H.0 SFRSYM    DATA     BIT       P10
      00000080H.1 SFRSYM    DATA     BIT       P01
      000000BBH   SFRSYM    DATA     BYTE      SREL1H
      00000087H   SFRSYM    DATA     BYTE      PCON
      000000A0H.0 SFRSYM    DATA     BIT       P20
      00000090H.1 SFRSYM    DATA     BIT       P11
      00000080H.2 SFRSYM    DATA     BIT       P02
      000000B0H.0 SFRSYM    DATA     BIT       P30
      000000A0H.1 SFRSYM    DATA     BIT       P21
      00000090H.2 SFRSYM    DATA     BIT       P12
      00000080H.3 SFRSYM    DATA     BIT       P03
      000000B0H.1 SFRSYM    DATA     BIT       P31
      000000A0H.2 SFRSYM    DATA     BIT       P22
      00000090H.3 SFRSYM    DATA     BIT       P13
      00000080H.4 SFRSYM    DATA     BIT       P04
      000000F9H   SFRSYM    DATA     BYTE      PORTDRV
      000000AAH   SFRSYM    DATA     BYTE      SREL0L
      000000B0H.2 SFRSYM    DATA     BIT       P32
      000000A0H.3 SFRSYM    DATA     BIT       P23
      00000090H.4 SFRSYM    DATA     BIT       P14
      00000080H.5 SFRSYM    DATA     BIT       P05
      0000009DH   SFRSYM    DATA     BYTE      SREL1L
      00000089H   SFRSYM    DATA     BYTE      TMOD
      00000088H   SFRSYM    DATA     BYTE      TCON
      000000B0H.3 SFRSYM    DATA     BIT       P33
      000000A0H.4 SFRSYM    DATA     BIT       P24
      00000090H.5 SFRSYM    DATA     BIT       P15
      00000080H.6 SFRSYM    DATA     BIT       P06
      000000B0H.4 SFRSYM    DATA     BIT       P34
      000000A0H.5 SFRSYM    DATA     BIT       P25
      00000090H.6 SFRSYM    DATA     BIT       P16
      00000080H.7 SFRSYM    DATA     BIT       P07
      000000B0H.5 SFRSYM    DATA     BIT       P35
      000000A0H.6 SFRSYM    DATA     BIT       P26
      00000090H.7 SFRSYM    DATA     BIT       P17
LX51 LINKER/LOCATER V4.66.87.0                                                        10/15/2020  10:36:21  PAGE 76


      000000B4H   SFRSYM    DATA     BYTE      DMASEL
      000000B0H.6 SFRSYM    DATA     BIT       P36
      000000A0H.7 SFRSYM    DATA     BIT       P27
      000000FFH   SFRSYM    DATA     BYTE      EXDATA
      00000097H   SFRSYM    DATA     BYTE      SCON2R
      000000B0H.7 SFRSYM    DATA     BIT       P37
      000000D9H   SFRSYM    DATA     BYTE      BODE2_DIV_H
      000000ABH   SFRSYM    DATA     BYTE      SCON3R
      000000AEH   SFRSYM    DATA     BYTE      BODE3_DIV_H
      00000096H   SFRSYM    DATA     BYTE      SCON2T
      000000A7H   SFRSYM    DATA     BYTE      SCON3T
      00000088H.1 SFRSYM    DATA     BIT       IE0
      000000F5H   SFRSYM    DATA     BYTE      ISCHEADER2
      000000E7H   SFRSYM    DATA     BYTE      BODE2_DIV_L
      00000088H.3 SFRSYM    DATA     BIT       IE1
      000000F6H   SFRSYM    DATA     BYTE      ISCHEADER3
      000000AFH   SFRSYM    DATA     BYTE      BODE3_DIV_L
      000000C9H   SFRSYM    DATA     BYTE      MUX_SEL
      000000F0H   SFRSYM    DATA     BYTE      B
      000000E9H   SFRSYM    DATA     BYTE      MD0
      000000EAH   SFRSYM    DATA     BYTE      MD1
      000000B8H.6 SFRSYM    DATA     BIT       SWDT
      000000EBH   SFRSYM    DATA     BYTE      MD2
      000000ECH   SFRSYM    DATA     BYTE      MD3
      000000EDH   SFRSYM    DATA     BYTE      MD4
      000000EEH   SFRSYM    DATA     BYTE      MD5
      000000B1H   SFRSYM    DATA     BYTE      DMAC0
      000000E0H   SFRSYM    DATA     BYTE      ACC
      000000B2H   SFRSYM    DATA     BYTE      DMAC1
      000000A8H.4 SFRSYM    DATA     BIT       ES0
      000000B3H   SFRSYM    DATA     BYTE      DMAC2
      0000008FH   SFRSYM    DATA     BYTE      CAN_CR
      000000A8H.1 SFRSYM    DATA     BIT       ET0
      000000A9H   SFRSYM    DATA     BYTE      IP0
      000000A8H.3 SFRSYM    DATA     BIT       ET1
      00000088H.5 SFRSYM    DATA     BIT       TF0
      000000B9H   SFRSYM    DATA     BYTE      IP1
      000000A8H.5 SFRSYM    DATA     BIT       ET2
      00000098H.0 SFRSYM    DATA     BIT       RI0
      00000088H.7 SFRSYM    DATA     BIT       TF1
      000000FDH   SFRSYM    DATA     BYTE      DATA0
      000000C0H.6 SFRSYM    DATA     BIT       TF2
      000000FCH   SFRSYM    DATA     BYTE      DATA1
      000000E8H   SFRSYM    DATA     BYTE      CAN_ET
      0000008CH   SFRSYM    DATA     BYTE      TH0
      000000A8H.0 SFRSYM    DATA     BIT       EX0
      00000098H.1 SFRSYM    DATA     BIT       TI0
      00000088H.0 SFRSYM    DATA     BIT       IT0
      000000FBH   SFRSYM    DATA     BYTE      DATA2
      000000F7H   SFRSYM    DATA     BYTE      SRST
      0000008DH   SFRSYM    DATA     BYTE      TH1
      000000A8H.2 SFRSYM    DATA     BIT       EX1
      00000088H.2 SFRSYM    DATA     BIT       IT1
      000000FAH   SFRSYM    DATA     BYTE      DATA3
      000000CDH   SFRSYM    DATA     BYTE      TH2
      00000091H   SFRSYM    DATA     BYTE      CAN_IR
      000000D0H.0 SFRSYM    DATA     BIT       P
      00000098H.7 SFRSYM    DATA     BIT       SM0
      000000B5H   SFRSYM    DATA     BYTE      DMAM0
      0000008AH   SFRSYM    DATA     BYTE      TL0
      00000098H.6 SFRSYM    DATA     BIT       SM1
      000000B6H   SFRSYM    DATA     BYTE      DMAM1
      0000008BH   SFRSYM    DATA     BYTE      TL1
      000000CCH   SFRSYM    DATA     BYTE      TL2
      000000B8H.0 SFRSYM    DATA     BIT       EX7
LX51 LINKER/LOCATER V4.66.87.0                                                        10/15/2020  10:36:21  PAGE 77


      00000086H   SFRSYM    DATA     BYTE      WDTREL
      000000F8H.6 SFRSYM    DATA     BIT       APP_EN
      000000D0H.3 SFRSYM    DATA     BIT       RS0
      00000088H.4 SFRSYM    DATA     BIT       TR0
      000000D0H.4 SFRSYM    DATA     BIT       RS1
      000000A1H   SFRSYM    DATA     BYTE      DMAS0
      00000088H.6 SFRSYM    DATA     BIT       TR1
      000000A4H   SFRSYM    DATA     BYTE      DMAT0
      000000A2H   SFRSYM    DATA     BYTE      DMAS1
      00000093H   SFRSYM    DATA     BYTE      DPC
      000000E5H   SFRSYM    DATA     BYTE      MAC_MODE
      000000A5H   SFRSYM    DATA     BYTE      DMAT1
      000000A3H   SFRSYM    DATA     BYTE      DMAS2
      000000A6H   SFRSYM    DATA     BYTE      DMAT2
      00000083H   SFRSYM    DATA     BYTE      DPH
      00000082H   SFRSYM    DATA     BYTE      DPL
      00000099H   SFRSYM    DATA     BYTE      SBUF0
      0000009CH   SFRSYM    DATA     BYTE      SBUF1
      000000B8H.7 SFRSYM    DATA     BIT       EXEN2
      00000098H   SFRSYM    DATA     BYTE      SCON0
      0000009BH   SFRSYM    DATA     BYTE      SCON1
      000000D8H   SFRSYM    DATA     BYTE      ADCON
      000000C8H   SFRSYM    DATA     BYTE      T2CON
      000000E6H   SFRSYM    DATA     BYTE      DIV_MODE
      000000F8H.5 SFRSYM    DATA     BIT       APP_RW
      000000CBH   SFRSYM    DATA     BYTE      TRL2H
      0000009FH   SFRSYM    DATA     BYTE      SBUF2_RX
      000000A8H.6 SFRSYM    DATA     BIT       WDT
      000000ADH   SFRSYM    DATA     BYTE      SBUF3_RX
      0000008EH   SFRSYM    DATA     BYTE      CKCON
      0000009EH   SFRSYM    DATA     BYTE      SBUF2_TX
      000000CAH   SFRSYM    DATA     BYTE      TRL2L
      000000ACH   SFRSYM    DATA     BYTE      SBUF3_TX
      000000EFH   SFRSYM    DATA     BYTE      ARCON
      000000D0H.5 SFRSYM    DATA     BIT       F0
      000000FEH   SFRSYM    DATA     BYTE      EXADR
      000000D0H.1 SFRSYM    DATA     BIT       F1
      00000092H   SFRSYM    DATA     BYTE      DPSEL
      000000D0H   SFRSYM    DATA     BYTE      PSW
      00000090H.2 SFRSYM    DATA     BIT       key1
      00000090H.3 SFRSYM    DATA     BIT       key2
      00000098H.2 SFRSYM    DATA     BIT       RB80
      000000C0H   SFRSYM    DATA     BYTE      IRCON
      00000090H.4 SFRSYM    DATA     BIT       key3
      000000E3H   SFRSYM    DATA     BYTE      SPDAT
      02008000H   SYMBOL    XDATA    BYTE      mPage148Bcak
      02008005H   SYMBOL    XDATA    BYTE      TimerHEn
      02008006H   SYMBOL    XDATA    INT       Last_PosX
      02008008H   SYMBOL    XDATA    BYTE      mPage113
      02008009H   SYMBOL    XDATA    INT       Last_PosY
      0200800BH   SYMBOL    XDATA    BYTE      TimerMEn
      0200800CH   SYMBOL    XDATA    BYTE      PressureCnt
      02008257H   SYMBOL    XDATA    DWORD     Appointment_Time
      0200825BH   SYMBOL    XDATA    BYTE      TP_Status
      0200825CH   SYMBOL    XDATA    WORD      P131Cnt
      0200825EH   SYMBOL    XDATA    BYTE      P132Cnt
      0200825FH   SYMBOL    XDATA    WORD      P151Cnt
      02008261H   SYMBOL    XDATA    BYTE      P116Cnt
      02008262H   SYMBOL    XDATA    BYTE      AutoSlide
      02008263H   SYMBOL    XDATA    BYTE      MusicID
      02008264H   SYMBOL    XDATA    WORD      P145Cnt
      0200846CH   SYMBOL    XDATA    BYTE      PressureEn
      0200846DH   SYMBOL    XDATA    ---       MenuData
      0200847DH   SYMBOL    XDATA    BYTE      TouchPageID
      0200847EH   SYMBOL    XDATA    WORD      P129Cnt
LX51 LINKER/LOCATER V4.66.87.0                                                        10/15/2020  10:36:21  PAGE 78


      02008480H   SYMBOL    XDATA    WORD      SetNowPos
      02008482H   SYMBOL    XDATA    INT       New_PosX
      02008494H   SYMBOL    XDATA    INT       New_PosY
      02008496H   SYMBOL    XDATA    BYTE      PmainTest
      02008497H   SYMBOL    XDATA    BYTE      Displayed_Menu
      02008499H   SYMBOL    XDATA    ---       EditSerialTmp
      020086BCH   SYMBOL    XDATA    BYTE      Menu_Ref_En
      020086BDH   SYMBOL    XDATA    INT       PosX_ChangeSpeed
      020086BFH   SYMBOL    XDATA    BYTE      SubWorkBackup
      020086C0H   SYMBOL    XDATA    INT       PosY_ChangeSpeed
      020086C3H   SYMBOL    XDATA    ---       Menu_Attribute
      02008703H   SYMBOL    XDATA    BYTE      PowerCnt
      02008705H   SYMBOL    XDATA    DWORD     Appoint_display
      02008952H   SYMBOL    XDATA    BYTE      PmenuEn
      02008954H   SYMBOL    XDATA    BYTE      TempCnt
      02008955H   SYMBOL    XDATA    BYTE      P112VStatus
      02008956H   SYMBOL    XDATA    BYTE      PowerEn
      02008957H   SYMBOL    XDATA    BYTE      P145Backup
      02008B5EH   SYMBOL    XDATA    BYTE      P129Backup
      02008B5FH   SYMBOL    XDATA    BYTE      MenuPageNum
      02008B60H   SYMBOL    XDATA    INT       xdistance
      02008B62H   SYMBOL    XDATA    INT       ydistance
      02008B64H   SYMBOL    XDATA    BYTE      StirCnt
      02008B65H   SYMBOL    XDATA    BYTE      TempEn
      02008B68H   SYMBOL    XDATA    BYTE      P145ACnt
      02008B69H   SYMBOL    XDATA    BYTE      PabeBackup
      02008B6AH   SYMBOL    XDATA    BYTE      P129ACnt
      02008B6BH   SYMBOL    XDATA    BYTE      PmainCalib
      02008B6CH   SYMBOL    XDATA    BYTE      PScan
      02008B6DH   SYMBOL    XDATA    BYTE      StirEn
      02008B71H   SYMBOL    XDATA    BYTE      Pos_Change
      02008B72H   SYMBOL    XDATA    BYTE      PCook
      02008B77H   SYMBOL    XDATA    DWORD     Appointment_ALLTime
      02008B8EH   SYMBOL    XDATA    BYTE      GUI_status
      02008B90H   SYMBOL    XDATA    BYTE      CntEnable
      02008C11H   SYMBOL    XDATA    INT       New_PosXBackup
      02008C13H   SYMBOL    XDATA    BYTE      TimerHCnt
      02008C14H   SYMBOL    XDATA    INT       New_PosYBackup
      02008C16H   SYMBOL    XDATA    BYTE      PmainCode
      02008C17H   SYMBOL    XDATA    WORD      SetLastPos
      02008C19H   SYMBOL    XDATA    WORD      TargetPosY
      02008C1BH   SYMBOL    XDATA    BYTE      TimerMCnt
      02008C1CH   SYMBOL    XDATA    ---       Step_Data
      02008C3CH   SYMBOL    XDATA    DWORD     x2distance
      02008C40H   SYMBOL    XDATA    DWORD     y2distance

      01008A31H   BLOCK     CODE     ---       LVL=0
      01008A31H   BLOCK     CODE     NEAR LAB  LVL=1
      02009459H   SYMBOL    XDATA    ---       k_data
      00000006H   SYMBOL    DATA     WORD      tmp16
      ---         BLOCKEND  ---      ---       LVL=1
      01008A31H   LINE      CODE     ---       #40
      01008A31H   LINE      CODE     ---       #41
      01008A31H   LINE      CODE     ---       #45
      01008A36H   LINE      CODE     ---       #46
      01008A3AH   LINE      CODE     ---       #47
      01008A3FH   LINE      CODE     ---       #48
      01008A46H   LINE      CODE     ---       #49
      01008A4AH   LINE      CODE     ---       #50
      01008A50H   LINE      CODE     ---       #51
      01008A58H   LINE      CODE     ---       #52
      01008A61H   LINE      CODE     ---       #53
      01008A67H   LINE      CODE     ---       #54
      01008A73H   LINE      CODE     ---       #55
      01008A76H   LINE      CODE     ---       #56
LX51 LINKER/LOCATER V4.66.87.0                                                        10/15/2020  10:36:21  PAGE 79


      01008A90H   LINE      CODE     ---       #57
      01008A95H   LINE      CODE     ---       #58
      01008A9DH   LINE      CODE     ---       #59
      01008AB7H   LINE      CODE     ---       #60
      01008ABCH   LINE      CODE     ---       #61
      01008AC4H   LINE      CODE     ---       #62
      01008ADEH   LINE      CODE     ---       #63
      01008AF8H   LINE      CODE     ---       #64
      01008AFFH   LINE      CODE     ---       #65
      01008B09H   LINE      CODE     ---       #66
      01008B10H   LINE      CODE     ---       #67
      01008B15H   LINE      CODE     ---       #68
      01008B2FH   LINE      CODE     ---       #69
      01008B34H   LINE      CODE     ---       #70
      01008B3CH   LINE      CODE     ---       #71
      01008B56H   LINE      CODE     ---       #72
      01008B5BH   LINE      CODE     ---       #73
      01008B63H   LINE      CODE     ---       #74
      01008B7DH   LINE      CODE     ---       #75
      01008B82H   LINE      CODE     ---       #76
      01008B86H   LINE      CODE     ---       #77
      01008B8CH   LINE      CODE     ---       #78
      01008B90H   LINE      CODE     ---       #79
      01008B94H   LINE      CODE     ---       #80
      01008B98H   LINE      CODE     ---       #81
      01008B9EH   LINE      CODE     ---       #82
      01008BA2H   LINE      CODE     ---       #83
      01008BA6H   LINE      CODE     ---       #84
      01008BACH   LINE      CODE     ---       #85
      01008BB0H   LINE      CODE     ---       #86
      01008BB4H   LINE      CODE     ---       #87
      01008BB8H   LINE      CODE     ---       #88
      01008BBCH   LINE      CODE     ---       #89
      01008BC0H   LINE      CODE     ---       #90
      01008BC4H   LINE      CODE     ---       #91
      01008BC8H   LINE      CODE     ---       #92
      01008BCCH   LINE      CODE     ---       #93
      01008BCEH   LINE      CODE     ---       #94
      01008BD0H   LINE      CODE     ---       #95
      01008BD6H   LINE      CODE     ---       #96
      01008BDAH   LINE      CODE     ---       #97
      01008BDCH   LINE      CODE     ---       #98
      ---         BLOCKEND  ---      ---       LVL=0

      0100C411H   BLOCK     CODE     VOID      LVL=0
      ---         BLOCKEND  ---      ---       LVL=0

      0100C41EH   BLOCK     CODE     ---       LVL=0
      02009502H   SYMBOL    XDATA    ---       MusicId
      00000004H   SYMBOL    DATA     BYTE      len
      00000005H   SYMBOL    DATA     BYTE      i
      0100C42BH   BLOCK     CODE     NEAR LAB  LVL=1
      00000005H   SYMBOL    DATA     BYTE      i
      ---         BLOCKEND  ---      ---       LVL=1
      0100C41EH   LINE      CODE     ---       #121
      0100C42BH   LINE      CODE     ---       #122
      0100C42BH   LINE      CODE     ---       #124
      0100C431H   LINE      CODE     ---       #126
      0100C437H   LINE      CODE     ---       #128
      0100C43AH   LINE      CODE     ---       #130
      0100C43FH   LINE      CODE     ---       #131
      0100C443H   LINE      CODE     ---       #132
      0100C448H   LINE      CODE     ---       #133
      0100C44FH   LINE      CODE     ---       #134
      0100C44FH   LINE      CODE     ---       #135
LX51 LINKER/LOCATER V4.66.87.0                                                        10/15/2020  10:36:21  PAGE 80


      0100C472H   LINE      CODE     ---       #136
      0100C478H   LINE      CODE     ---       #137
      0100C47CH   LINE      CODE     ---       #138
      0100C47FH   LINE      CODE     ---       #139
      ---         BLOCKEND  ---      ---       LVL=0

      0100AB08H   BLOCK     CODE     VOID      LVL=0
      ---         BLOCKEND  ---      ---       LVL=0

      0100AB0CH   BLOCK     CODE     ---       LVL=0
      02009471H   SYMBOL    XDATA    ---       k_data
      0100AB0CH   BLOCK     CODE     NEAR LAB  LVL=1
      02009471H   SYMBOL    XDATA    ---       k_data
      ---         BLOCKEND  ---      ---       LVL=1
      0100AB0CH   LINE      CODE     ---       #141
      0100AB0CH   LINE      CODE     ---       #142
      0100AB0CH   LINE      CODE     ---       #145
      0100AB11H   LINE      CODE     ---       #146
      0100AB29H   LINE      CODE     ---       #147
      0100AB2CH   LINE      CODE     ---       #148
      0100AB40H   LINE      CODE     ---       #149
      0100AB4BH   LINE      CODE     ---       #150
      0100AB4BH   LINE      CODE     ---       #151
      0100AB50H   LINE      CODE     ---       #152
      0100AB64H   LINE      CODE     ---       #153
      0100AB67H   LINE      CODE     ---       #154
      0100AB69H   LINE      CODE     ---       #155
      0100AB69H   LINE      CODE     ---       #156
      0100AB69H   LINE      CODE     ---       #157
      0100AB6BH   LINE      CODE     ---       #159
      0100AB6BH   LINE      CODE     ---       #160
      0100AB7CH   LINE      CODE     ---       #161
      0100AB7CH   LINE      CODE     ---       #162
      0100AB81H   LINE      CODE     ---       #163
      0100AB83H   LINE      CODE     ---       #164
      0100AB85H   LINE      CODE     ---       #165
      0100AB9CH   LINE      CODE     ---       #166
      0100ABA1H   LINE      CODE     ---       #167
      0100ABA3H   LINE      CODE     ---       #168
      0100ABA5H   LINE      CODE     ---       #170
      0100ABA5H   LINE      CODE     ---       #171
      0100ABAAH   LINE      CODE     ---       #172
      0100ABACH   LINE      CODE     ---       #173
      0100ABAEH   LINE      CODE     ---       #174
      0100ABB0H   LINE      CODE     ---       #175
      0100ABB4H   LINE      CODE     ---       #176
      0100ABCBH   LINE      CODE     ---       #177
      0100ABCBH   LINE      CODE     ---       #178
      0100ABCBH   LINE      CODE     ---       #179
      0100ABD0H   LINE      CODE     ---       #180
      0100ABE7H   LINE      CODE     ---       #181
      ---         BLOCKEND  ---      ---       LVL=0

      0100CE7DH   BLOCK     CODE     ---       LVL=0
      00000001H   SYMBOL    DATA     ---       str
      0100CE7DH   LINE      CODE     ---       #184
      0100CE7DH   LINE      CODE     ---       #185
      0100CE7DH   LINE      CODE     ---       #186
      0100CE7FH   LINE      CODE     ---       #187
      0100CE82H   LINE      CODE     ---       #188
      0100CE85H   LINE      CODE     ---       #189
      0100CE87H   LINE      CODE     ---       #190
      0100CE8AH   LINE      CODE     ---       #191
      0100CE8DH   LINE      CODE     ---       #192
      0100CE90H   LINE      CODE     ---       #193
LX51 LINKER/LOCATER V4.66.87.0                                                        10/15/2020  10:36:21  PAGE 81


      0100CE92H   LINE      CODE     ---       #194
      0100CE95H   LINE      CODE     ---       #195
      0100CE9AH   LINE      CODE     ---       #196
      0100CEA2H   LINE      CODE     ---       #197
      0100CEA4H   LINE      CODE     ---       #198
      0100CEA7H   LINE      CODE     ---       #199
      ---         BLOCKEND  ---      ---       LVL=0

      0100CEF3H   BLOCK     CODE     ---       LVL=0
      0100CEF3H   LINE      CODE     ---       #201
      0100CEF3H   LINE      CODE     ---       #202
      0100CEF3H   LINE      CODE     ---       #203
      0100CEF5H   LINE      CODE     ---       #204
      0100CEF8H   LINE      CODE     ---       #205
      0100CEFBH   LINE      CODE     ---       #206
      0100CEFDH   LINE      CODE     ---       #207
      0100CF00H   LINE      CODE     ---       #208
      0100CF03H   LINE      CODE     ---       #209
      0100CF06H   LINE      CODE     ---       #210
      0100CF09H   LINE      CODE     ---       #211
      0100CF0BH   LINE      CODE     ---       #212
      0100CF0DH   LINE      CODE     ---       #213
      0100CF10H   LINE      CODE     ---       #214
      0100CF12H   LINE      CODE     ---       #215
      0100CF15H   LINE      CODE     ---       #216
      ---         BLOCKEND  ---      ---       LVL=0

      01006EBAH   BLOCK     CODE     ---       LVL=0
      00000007H   SYMBOL    DATA     BYTE      PageID
      01006EBAH   BLOCK     CODE     NEAR LAB  LVL=1
      0200945CH   SYMBOL    XDATA    BYTE      tmp_status
      ---         BLOCKEND  ---      ---       LVL=1
      01006EBAH   LINE      CODE     ---       #220
      01006EBAH   LINE      CODE     ---       #221
      01006EBAH   LINE      CODE     ---       #224
      01006EC4H   LINE      CODE     ---       #225
      01006EC4H   LINE      CODE     ---       #226
      01006ECDH   LINE      CODE     ---       #227
      01006ED2H   LINE      CODE     ---       #228
      01006ED8H   LINE      CODE     ---       #229
      01006ED8H   LINE      CODE     ---       #230
      01006EF3H   LINE      CODE     ---       #231
      01006F0DH   LINE      CODE     ---       #232
      01006F28H   LINE      CODE     ---       #233
      01006F42H   LINE      CODE     ---       #234
      01006F4DH   LINE      CODE     ---       #235
      01006F4DH   LINE      CODE     ---       #236
      01006F53H   LINE      CODE     ---       #237
      01006F55H   LINE      CODE     ---       #238
      01006F5BH   LINE      CODE     ---       #239
      01006F5BH   LINE      CODE     ---       #240
      01006F91H   LINE      CODE     ---       #241
      01006F91H   LINE      CODE     ---       #242
      01006FB9H   LINE      CODE     ---       #243
      01006FB9H   LINE      CODE     ---       #244
      01006FBCH   LINE      CODE     ---       #245
      01006FBFH   LINE      CODE     ---       #246
      01006FBFH   LINE      CODE     ---       #248
      01006FBFH   LINE      CODE     ---       #249
      01006FC2H   LINE      CODE     ---       #250
      01006FC5H   LINE      CODE     ---       #261
      01006FC5H   LINE      CODE     ---       #262
      01006FC5H   LINE      CODE     ---       #263
      01006FC5H   LINE      CODE     ---       #264
      01006FCDH   LINE      CODE     ---       #265
LX51 LINKER/LOCATER V4.66.87.0                                                        10/15/2020  10:36:21  PAGE 82


      01006FCDH   LINE      CODE     ---       #266
      01006FD0H   LINE      CODE     ---       #267
      01006FD0H   LINE      CODE     ---       #268
      01006FD8H   LINE      CODE     ---       #269
      01006FD8H   LINE      CODE     ---       #270
      01006FDBH   LINE      CODE     ---       #271
      01006FDBH   LINE      CODE     ---       #272
      01006FDBH   LINE      CODE     ---       #273
      01006FE6H   LINE      CODE     ---       #274
      01006FE6H   LINE      CODE     ---       #275
      01006FEFH   LINE      CODE     ---       #276
      01006FEFH   LINE      CODE     ---       #277
      01007022H   LINE      CODE     ---       #278
      01007022H   LINE      CODE     ---       #279
      01007047H   LINE      CODE     ---       #280
      01007047H   LINE      CODE     ---       #281
      0100704DH   LINE      CODE     ---       #282
      0100704DH   LINE      CODE     ---       #283
      0100704FH   LINE      CODE     ---       #284
      0100707FH   LINE      CODE     ---       #285
      0100707FH   LINE      CODE     ---       #286
      01007085H   LINE      CODE     ---       #287
      01007088H   LINE      CODE     ---       #289
      0100708DH   LINE      CODE     ---       #290
      0100708DH   LINE      CODE     ---       #291
      0100708DH   LINE      CODE     ---       #292
      01007095H   LINE      CODE     ---       #293
      01007095H   LINE      CODE     ---       #294
      010070AFH   LINE      CODE     ---       #295
      010070B1H   LINE      CODE     ---       #296
      010070B1H   LINE      CODE     ---       #297
      010070B5H   LINE      CODE     ---       #298
      010070B5H   LINE      CODE     ---       #299
      010070D0H   LINE      CODE     ---       #300
      010070D3H   LINE      CODE     ---       #301
      010070D3H   LINE      CODE     ---       #302
      010070D3H   LINE      CODE     ---       #303
      010070D3H   LINE      CODE     ---       #304
      010070D3H   LINE      CODE     ---       #306
      010070D8H   LINE      CODE     ---       #307
      010070DAH   LINE      CODE     ---       #308
      ---         BLOCKEND  ---      ---       LVL=0

      01004781H   BLOCK     CODE     ---       LVL=0
      01004781H   BLOCK     CODE     NEAR LAB  LVL=1
      02009459H   SYMBOL    XDATA    ---       k_data
      02009461H   SYMBOL    XDATA    INT       posy
      ---         BLOCKEND  ---      ---       LVL=1
      01004781H   LINE      CODE     ---       #310
      01004781H   LINE      CODE     ---       #311
      01004781H   LINE      CODE     ---       #315
      0100479BH   LINE      CODE     ---       #316
      010047A6H   LINE      CODE     ---       #317
      010047A6H   LINE      CODE     ---       #318
      010047ACH   LINE      CODE     ---       #319
      010047AFH   LINE      CODE     ---       #320
      010047AFH   LINE      CODE     ---       #321
      010047BFH   LINE      CODE     ---       #322
      010047CFH   LINE      CODE     ---       #323
      010047D4H   LINE      CODE     ---       #324
      010047DCH   LINE      CODE     ---       #325
      010047E4H   LINE      CODE     ---       #326
      010047ECH   LINE      CODE     ---       #327
      010047EEH   LINE      CODE     ---       #328
      010047F6H   LINE      CODE     ---       #329
LX51 LINKER/LOCATER V4.66.87.0                                                        10/15/2020  10:36:21  PAGE 83


      010047F6H   LINE      CODE     ---       #330
      010047FBH   LINE      CODE     ---       #331
      0100480AH   LINE      CODE     ---       #332
      01004819H   LINE      CODE     ---       #333
      0100481BH   LINE      CODE     ---       #334
      0100481FH   LINE      CODE     ---       #335
      0100481FH   LINE      CODE     ---       #336
      01004825H   LINE      CODE     ---       #337
      01004825H   LINE      CODE     ---       #338
      01004834H   LINE      CODE     ---       #339
      01004843H   LINE      CODE     ---       #341
      01004848H   LINE      CODE     ---       #342
      01004861H   LINE      CODE     ---       #343
      01004861H   LINE      CODE     ---       #344
      0100487BH   LINE      CODE     ---       #345
      0100488BH   LINE      CODE     ---       #346
      0100488BH   LINE      CODE     ---       #347
      01004890H   LINE      CODE     ---       #348
      01004895H   LINE      CODE     ---       #349
      01004895H   LINE      CODE     ---       #350
      0100489CH   LINE      CODE     ---       #351
      0100489CH   LINE      CODE     ---       #352
      0100489EH   LINE      CODE     ---       #353
      010048A2H   LINE      CODE     ---       #354
      010048A4H   LINE      CODE     ---       #355
      010048ABH   LINE      CODE     ---       #356
      010048ABH   LINE      CODE     ---       #357
      010048ADH   LINE      CODE     ---       #358
      010048B3H   LINE      CODE     ---       #359
      010048B6H   LINE      CODE     ---       #360
      010048BDH   LINE      CODE     ---       #361
      010048BDH   LINE      CODE     ---       #362
      010048BFH   LINE      CODE     ---       #363
      010048C2H   LINE      CODE     ---       #364
      010048C5H   LINE      CODE     ---       #365
      010048CCH   LINE      CODE     ---       #366
      010048CCH   LINE      CODE     ---       #367
      010048CEH   LINE      CODE     ---       #368
      010048CEH   LINE      CODE     ---       #369
      010048D1H   LINE      CODE     ---       #370
      010048DCH   LINE      CODE     ---       #371
      010048DCH   LINE      CODE     ---       #372
      010048FDH   LINE      CODE     ---       #373
      010048FDH   LINE      CODE     ---       #374
      01004907H   LINE      CODE     ---       #375
      01004916H   LINE      CODE     ---       #376
      01004916H   LINE      CODE     ---       #377
      01004932H   LINE      CODE     ---       #378
      01004937H   LINE      CODE     ---       #379
      01004937H   LINE      CODE     ---       #380
      01004953H   LINE      CODE     ---       #381
      01004953H   LINE      CODE     ---       #382
      01004956H   LINE      CODE     ---       #383
      0100497AH   LINE      CODE     ---       #384
      0100497AH   LINE      CODE     ---       #385
      01004985H   LINE      CODE     ---       #386
      01004990H   LINE      CODE     ---       #387
      010049A4H   LINE      CODE     ---       #388
      010049BEH   LINE      CODE     ---       #389
      010049BEH   LINE      CODE     ---       #390
      010049CEH   LINE      CODE     ---       #391
      010049D3H   LINE      CODE     ---       #392
      010049D3H   LINE      CODE     ---       #393
      010049EFH   LINE      CODE     ---       #394
      010049F6H   LINE      CODE     ---       #395
LX51 LINKER/LOCATER V4.66.87.0                                                        10/15/2020  10:36:21  PAGE 84


      010049F9H   LINE      CODE     ---       #399
      01004A00H   LINE      CODE     ---       #400
      01004A00H   LINE      CODE     ---       #401
      01004A02H   LINE      CODE     ---       #402
      01004A05H   LINE      CODE     ---       #403
      01004A08H   LINE      CODE     ---       #404
      01004A0FH   LINE      CODE     ---       #405
      01004A0FH   LINE      CODE     ---       #406
      01004A11H   LINE      CODE     ---       #407
      01004A11H   LINE      CODE     ---       #408
      01004A14H   LINE      CODE     ---       #409
      01004A1FH   LINE      CODE     ---       #410
      01004A1FH   LINE      CODE     ---       #411
      01004A40H   LINE      CODE     ---       #412
      01004A40H   LINE      CODE     ---       #413
      01004A4AH   LINE      CODE     ---       #414
      01004A59H   LINE      CODE     ---       #415
      01004A59H   LINE      CODE     ---       #416
      01004A75H   LINE      CODE     ---       #417
      01004A7AH   LINE      CODE     ---       #418
      01004A7AH   LINE      CODE     ---       #419
      01004A96H   LINE      CODE     ---       #420
      01004A96H   LINE      CODE     ---       #421
      01004A99H   LINE      CODE     ---       #422
      01004ABAH   LINE      CODE     ---       #423
      01004ABAH   LINE      CODE     ---       #424
      01004AC5H   LINE      CODE     ---       #425
      01004AD0H   LINE      CODE     ---       #426
      01004AE4H   LINE      CODE     ---       #427
      01004AFEH   LINE      CODE     ---       #428
      01004AFEH   LINE      CODE     ---       #429
      01004B0EH   LINE      CODE     ---       #430
      01004B13H   LINE      CODE     ---       #431
      01004B13H   LINE      CODE     ---       #432
      01004B2FH   LINE      CODE     ---       #433
      01004B36H   LINE      CODE     ---       #434
      01004B38H   LINE      CODE     ---       #436
      01004B3DH   LINE      CODE     ---       #437
      01004B3DH   LINE      CODE     ---       #438
      01004B45H   LINE      CODE     ---       #439
      01004B45H   LINE      CODE     ---       #440
      01004B5DH   LINE      CODE     ---       #441
      01004B6EH   LINE      CODE     ---       #442
      01004B6EH   LINE      CODE     ---       #443
      01004B79H   LINE      CODE     ---       #444
      01004B79H   LINE      CODE     ---       #445
      01004B7BH   LINE      CODE     ---       #451
      01004B83H   LINE      CODE     ---       #452
      01004B83H   LINE      CODE     ---       #453
      01004B9BH   LINE      CODE     ---       #454
      01004BA6H   LINE      CODE     ---       #455
      01004BA6H   LINE      CODE     ---       #456
      01004BB2H   LINE      CODE     ---       #457
      01004BCBH   LINE      CODE     ---       #458
      01004BCBH   LINE      CODE     ---       #460
      01004BCBH   LINE      CODE     ---       #461
      01004BD0H   LINE      CODE     ---       #462
      01004BD0H   LINE      CODE     ---       #463
      01004BD0H   LINE      CODE     ---       #464
      01004BD0H   LINE      CODE     ---       #465
      01004BD0H   LINE      CODE     ---       #466
      ---         BLOCKEND  ---      ---       LVL=0

      0100B09CH   BLOCK     CODE     ---       LVL=0
      0100B09CH   BLOCK     CODE     NEAR LAB  LVL=1
LX51 LINKER/LOCATER V4.66.87.0                                                        10/15/2020  10:36:21  PAGE 85


      02009463H   SYMBOL    XDATA    ---       k_data
      02009473H   SYMBOL    XDATA    INT       Pos
      ---         BLOCKEND  ---      ---       LVL=1
      0100B09CH   LINE      CODE     ---       #468
      0100B09CH   LINE      CODE     ---       #469
      0100B09CH   LINE      CODE     ---       #473
      0100B0A5H   LINE      CODE     ---       #474
      0100B0ADH   LINE      CODE     ---       #475
      0100B0B2H   LINE      CODE     ---       #476
      0100B0B6H   LINE      CODE     ---       #477
      0100B0BAH   LINE      CODE     ---       #478
      0100B0C9H   LINE      CODE     ---       #479
      0100B0D1H   LINE      CODE     ---       #480
      0100B0D9H   LINE      CODE     ---       #481
      0100B0F3H   LINE      CODE     ---       #482
      0100B109H   LINE      CODE     ---       #483
      0100B122H   LINE      CODE     ---       #484
      0100B139H   LINE      CODE     ---       #485
      0100B152H   LINE      CODE     ---       #486
      0100B169H   LINE      CODE     ---       #487
      ---         BLOCKEND  ---      ---       LVL=0

      0100AC01H   BLOCK     CODE     ---       LVL=0
      00000006H   SYMBOL    DATA     WORD      address
      0100AC01H   BLOCK     CODE     NEAR LAB  LVL=1
      02009482H   SYMBOL    XDATA    WORD      tmp1
      00000006H   SYMBOL    DATA     WORD      tmp2
      ---         BLOCKEND  ---      ---       LVL=1
      0100AC01H   LINE      CODE     ---       #490
      0100AC01H   LINE      CODE     ---       #491
      0100AC01H   LINE      CODE     ---       #494
      0100AC07H   LINE      CODE     ---       #495
      0100AC15H   LINE      CODE     ---       #496
      0100AC1EH   LINE      CODE     ---       #497
      0100AC24H   LINE      CODE     ---       #498
      0100AC3FH   LINE      CODE     ---       #499
      0100AC42H   LINE      CODE     ---       #500
      0100AC59H   LINE      CODE     ---       #501
      0100AC59H   LINE      CODE     ---       #502
      0100AC70H   LINE      CODE     ---       #503
      0100AC8EH   LINE      CODE     ---       #504
      0100AC91H   LINE      CODE     ---       #505
      0100AC9CH   LINE      CODE     ---       #506
      0100ACB2H   LINE      CODE     ---       #507
      0100ACC4H   LINE      CODE     ---       #508
      0100ACC4H   LINE      CODE     ---       #509
      0100ACC4H   LINE      CODE     ---       #510
      0100ACC6H   LINE      CODE     ---       #512
      0100ACC6H   LINE      CODE     ---       #513
      0100ACD7H   LINE      CODE     ---       #514
      0100ACEBH   LINE      CODE     ---       #515
      0100ACF4H   LINE      CODE     ---       #516
      0100ACF4H   LINE      CODE     ---       #517
      ---         BLOCKEND  ---      ---       LVL=0

      01005688H   BLOCK     CODE     VOID      LVL=0
      ---         BLOCKEND  ---      ---       LVL=0

      0100568CH   BLOCK     CODE     ---       LVL=0
      02009709H   SYMBOL    XDATA    WORD      SPAddr
      0200970BH   SYMBOL    XDATA    BYTE      Num_Start
      0200970CH   SYMBOL    XDATA    BYTE      i
      0200970DH   SYMBOL    XDATA    BYTE      j
      0200970EH   SYMBOL    XDATA    INT       Line_Pos
      02009710H   SYMBOL    XDATA    WORD      Spaddress
LX51 LINKER/LOCATER V4.66.87.0                                                        10/15/2020  10:36:21  PAGE 86


      02009712H   SYMBOL    XDATA    WORD      Vpaddress
      02009714H   SYMBOL    XDATA    WORD      tmp16
      02009716H   SYMBOL    XDATA    DWORD     tmp32
      01005694H   BLOCK     CODE     NEAR LAB  LVL=1
      0200970BH   SYMBOL    XDATA    BYTE      Num_Start
      0200970CH   SYMBOL    XDATA    BYTE      i
      0200970DH   SYMBOL    XDATA    BYTE      j
      0200970EH   SYMBOL    XDATA    INT       Line_Pos
      02009710H   SYMBOL    XDATA    WORD      Spaddress
      02009712H   SYMBOL    XDATA    WORD      Vpaddress
      02009714H   SYMBOL    XDATA    WORD      tmp16
      02009716H   SYMBOL    XDATA    DWORD     tmp32
      ---         BLOCKEND  ---      ---       LVL=1
      0100568CH   LINE      CODE     ---       #519
      01005694H   LINE      CODE     ---       #520
      01005694H   LINE      CODE     ---       #528
      010056B0H   LINE      CODE     ---       #529
      010056B0H   LINE      CODE     ---       #530
      010056BAH   LINE      CODE     ---       #531
      010056BFH   LINE      CODE     ---       #532
      010056D1H   LINE      CODE     ---       #533
      010056D3H   LINE      CODE     ---       #535
      010056D3H   LINE      CODE     ---       #536
      010056D8H   LINE      CODE     ---       #537
      010056EFH   LINE      CODE     ---       #538
      010056EFH   LINE      CODE     ---       #539
      0100570CH   LINE      CODE     ---       #540
      0100572AH   LINE      CODE     ---       #541
      01005764H   LINE      CODE     ---       #542
      01005783H   LINE      CODE     ---       #543
      01005794H   LINE      CODE     ---       #544
      010057ADH   LINE      CODE     ---       #545
      010057BCH   LINE      CODE     ---       #546
      010057C3H   LINE      CODE     ---       #547
      010057C7H   LINE      CODE     ---       #548
      010057C7H   LINE      CODE     ---       #549
      010057DBH   LINE      CODE     ---       #550
      010057DBH   LINE      CODE     ---       #551
      010057E7H   LINE      CODE     ---       #552
      010057ECH   LINE      CODE     ---       #553
      010057ECH   LINE      CODE     ---       #554
      01005826H   LINE      CODE     ---       #555
      01005826H   LINE      CODE     ---       #556
      01005850H   LINE      CODE     ---       #557
      0100585EH   LINE      CODE     ---       #558
      01005875H   LINE      CODE     ---       #559
      01005875H   LINE      CODE     ---       #560
      01005875H   LINE      CODE     ---       #561
      01005877H   LINE      CODE     ---       #563
      01005877H   LINE      CODE     ---       #564
      0100587FH   LINE      CODE     ---       #565
      0100589AH   LINE      CODE     ---       #566
      010058A8H   LINE      CODE     ---       #567
      010058B2H   LINE      CODE     ---       #568
      010058D3H   LINE      CODE     ---       #569
      010058E1H   LINE      CODE     ---       #570
      010058E7H   LINE      CODE     ---       #571
      010058E7H   LINE      CODE     ---       #572
      010058F8H   LINE      CODE     ---       #573
      010058F8H   LINE      CODE     ---       #575
      010058F8H   LINE      CODE     ---       #576
      010058FDH   LINE      CODE     ---       #577
      010058FDH   LINE      CODE     ---       #578
      01005905H   LINE      CODE     ---       #579
      01005920H   LINE      CODE     ---       #580
LX51 LINKER/LOCATER V4.66.87.0                                                        10/15/2020  10:36:21  PAGE 87


      0100592EH   LINE      CODE     ---       #581
      01005938H   LINE      CODE     ---       #582
      01005959H   LINE      CODE     ---       #583
      01005967H   LINE      CODE     ---       #584
      0100596DH   LINE      CODE     ---       #585
      01005977H   LINE      CODE     ---       #586
      01005977H   LINE      CODE     ---       #587
      01005985H   LINE      CODE     ---       #588
      01005994H   LINE      CODE     ---       #589
      ---         BLOCKEND  ---      ---       LVL=0

      0100A5EFH   BLOCK     CODE     ---       LVL=0
      00000006H   SYMBOL    DATA     WORD      address
      0100A5EFH   BLOCK     CODE     NEAR LAB  LVL=1
      0200988AH   SYMBOL    XDATA    WORD      tmp1
      00000006H   SYMBOL    DATA     WORD      tmp2
      ---         BLOCKEND  ---      ---       LVL=1
      0100A5EFH   LINE      CODE     ---       #591
      0100A5EFH   LINE      CODE     ---       #592
      0100A5EFH   LINE      CODE     ---       #595
      0100A5F5H   LINE      CODE     ---       #596
      0100A603H   LINE      CODE     ---       #597
      0100A60CH   LINE      CODE     ---       #598
      0100A612H   LINE      CODE     ---       #599
      0100A62DH   LINE      CODE     ---       #600
      0100A630H   LINE      CODE     ---       #601
      0100A64AH   LINE      CODE     ---       #602
      0100A64AH   LINE      CODE     ---       #603
      0100A661H   LINE      CODE     ---       #604
      0100A67FH   LINE      CODE     ---       #605
      0100A682H   LINE      CODE     ---       #606
      0100A68DH   LINE      CODE     ---       #607
      0100A694H   LINE      CODE     ---       #608
      0100A69EH   LINE      CODE     ---       #609
      0100A6AFH   LINE      CODE     ---       #610
      0100A6C8H   LINE      CODE     ---       #611
      0100A6C8H   LINE      CODE     ---       #612
      0100A6C8H   LINE      CODE     ---       #613
      0100A6CAH   LINE      CODE     ---       #615
      0100A6CAH   LINE      CODE     ---       #616
      0100A6DBH   LINE      CODE     ---       #617
      0100A6EFH   LINE      CODE     ---       #618
      0100A6F8H   LINE      CODE     ---       #619
      0100A6F8H   LINE      CODE     ---       #620
      ---         BLOCKEND  ---      ---       LVL=0

      0100ACF5H   BLOCK     CODE     ---       LVL=0
      00000006H   SYMBOL    DATA     WORD      address
      0100ACF5H   BLOCK     CODE     NEAR LAB  LVL=1
      02009462H   SYMBOL    XDATA    WORD      tmp1
      00000006H   SYMBOL    DATA     WORD      tmp2
      ---         BLOCKEND  ---      ---       LVL=1
      0100ACF5H   LINE      CODE     ---       #622
      0100ACF5H   LINE      CODE     ---       #623
      0100ACF5H   LINE      CODE     ---       #626
      0100ACFBH   LINE      CODE     ---       #627
      0100AD09H   LINE      CODE     ---       #628
      0100AD12H   LINE      CODE     ---       #629
      0100AD18H   LINE      CODE     ---       #630
      0100AD33H   LINE      CODE     ---       #631
      0100AD36H   LINE      CODE     ---       #632
      0100AD4DH   LINE      CODE     ---       #633
      0100AD4DH   LINE      CODE     ---       #634
      0100AD64H   LINE      CODE     ---       #635
      0100AD82H   LINE      CODE     ---       #636
LX51 LINKER/LOCATER V4.66.87.0                                                        10/15/2020  10:36:21  PAGE 88


      0100AD85H   LINE      CODE     ---       #637
      0100AD90H   LINE      CODE     ---       #639
      0100ADB3H   LINE      CODE     ---       #640
      0100ADB3H   LINE      CODE     ---       #641
      0100ADB3H   LINE      CODE     ---       #642
      0100ADB5H   LINE      CODE     ---       #644
      0100ADB5H   LINE      CODE     ---       #645
      0100ADC6H   LINE      CODE     ---       #646
      0100ADDAH   LINE      CODE     ---       #647
      0100ADE3H   LINE      CODE     ---       #648
      0100ADE3H   LINE      CODE     ---       #649
      ---         BLOCKEND  ---      ---       LVL=0

      01009581H   BLOCK     CODE     ---       LVL=0
      02009463H   SYMBOL    XDATA    WORD      SPAddr
      01009589H   BLOCK     CODE     NEAR LAB  LVL=1
      02009465H   SYMBOL    XDATA    BYTE      Num_Start
      02009466H   SYMBOL    XDATA    BYTE      i
      02009467H   SYMBOL    XDATA    BYTE      j
      02009468H   SYMBOL    XDATA    INT       Line_Pos
      0200946AH   SYMBOL    XDATA    WORD      Spaddress
      0200946CH   SYMBOL    XDATA    WORD      Vpaddress
      0200946EH   SYMBOL    XDATA    WORD      tmp16
      ---         BLOCKEND  ---      ---       LVL=1
      01009581H   LINE      CODE     ---       #651
      01009589H   LINE      CODE     ---       #652
      01009589H   LINE      CODE     ---       #666
      010095ACH   LINE      CODE     ---       #667
      010095B1H   LINE      CODE     ---       #668
      010095C9H   LINE      CODE     ---       #669
      010095D8H   LINE      CODE     ---       #670
      010095DFH   LINE      CODE     ---       #671
      010095E3H   LINE      CODE     ---       #672
      010095E3H   LINE      CODE     ---       #673
      010095E8H   LINE      CODE     ---       #674
      010095E8H   LINE      CODE     ---       #675
      01009622H   LINE      CODE     ---       #676
      01009622H   LINE      CODE     ---       #677
      01009643H   LINE      CODE     ---       #678
      01009645H   LINE      CODE     ---       #680
      01009645H   LINE      CODE     ---       #681
      0100964CH   LINE      CODE     ---       #682
      0100964CH   LINE      CODE     ---       #683
      01009667H   LINE      CODE     ---       #684
      01009675H   LINE      CODE     ---       #685
      01009696H   LINE      CODE     ---       #686
      010096A4H   LINE      CODE     ---       #687
      010096AAH   LINE      CODE     ---       #688
      010096B7H   LINE      CODE     ---       #689
      010096C5H   LINE      CODE     ---       #690
      010096D4H   LINE      CODE     ---       #691
      ---         BLOCKEND  ---      ---       LVL=0

      010092CDH   BLOCK     CODE     ---       LVL=0
      02009463H   SYMBOL    XDATA    WORD      SPAddr
      010092D5H   BLOCK     CODE     NEAR LAB  LVL=1
      02009465H   SYMBOL    XDATA    BYTE      Num_Start
      02009466H   SYMBOL    XDATA    BYTE      i
      02009467H   SYMBOL    XDATA    BYTE      j
      02009468H   SYMBOL    XDATA    INT       Line_Pos
      0200946AH   SYMBOL    XDATA    WORD      Spaddress
      0200946CH   SYMBOL    XDATA    WORD      Vpaddress
      0200946EH   SYMBOL    XDATA    WORD      tmp16
      ---         BLOCKEND  ---      ---       LVL=1
      010092CDH   LINE      CODE     ---       #693
LX51 LINKER/LOCATER V4.66.87.0                                                        10/15/2020  10:36:21  PAGE 89


      010092D5H   LINE      CODE     ---       #694
      010092D5H   LINE      CODE     ---       #701
      010092F8H   LINE      CODE     ---       #702
      010092FBH   LINE      CODE     ---       #703
      01009313H   LINE      CODE     ---       #704
      01009322H   LINE      CODE     ---       #705
      01009329H   LINE      CODE     ---       #706
      0100932DH   LINE      CODE     ---       #707
      0100932DH   LINE      CODE     ---       #708
      0100933BH   LINE      CODE     ---       #709
      01009340H   LINE      CODE     ---       #710
      01009340H   LINE      CODE     ---       #711
      0100937AH   LINE      CODE     ---       #712
      0100937AH   LINE      CODE     ---       #713
      0100939BH   LINE      CODE     ---       #714
      0100939DH   LINE      CODE     ---       #716
      0100939DH   LINE      CODE     ---       #717
      010093A4H   LINE      CODE     ---       #718
      010093A4H   LINE      CODE     ---       #719
      010093BFH   LINE      CODE     ---       #720
      010093CDH   LINE      CODE     ---       #721
      010093EEH   LINE      CODE     ---       #722
      010093FCH   LINE      CODE     ---       #723
      01009402H   LINE      CODE     ---       #724
      0100940FH   LINE      CODE     ---       #725
      0100941DH   LINE      CODE     ---       #726
      0100942CH   LINE      CODE     ---       #727
      ---         BLOCKEND  ---      ---       LVL=0

      0100869CH   BLOCK     CODE     ---       LVL=0
      00000007H   SYMBOL    DATA     BYTE      type
      0100869CH   LINE      CODE     ---       #730
      0100869CH   LINE      CODE     ---       #731
      0100869CH   LINE      CODE     ---       #732
      010086A5H   LINE      CODE     ---       #733
      010086A5H   LINE      CODE     ---       #734
      010086AEH   LINE      CODE     ---       #735
      010086AEH   LINE      CODE     ---       #736
      010086BFH   LINE      CODE     ---       #737
      010086BFH   LINE      CODE     ---       #738
      010086D4H   LINE      CODE     ---       #739
      010086DBH   LINE      CODE     ---       #740
      010086E0H   LINE      CODE     ---       #741
      010086E6H   LINE      CODE     ---       #742
      010086E8H   LINE      CODE     ---       #743
      010086FAH   LINE      CODE     ---       #744
      010086FAH   LINE      CODE     ---       #745
      0100870EH   LINE      CODE     ---       #746
      01008713H   LINE      CODE     ---       #747
      0100871AH   LINE      CODE     ---       #748
      01008728H   LINE      CODE     ---       #749
      0100872BH   LINE      CODE     ---       #750
      0100873CH   LINE      CODE     ---       #751
      0100873CH   LINE      CODE     ---       #752
      01008752H   LINE      CODE     ---       #753
      01008757H   LINE      CODE     ---       #754
      0100875EH   LINE      CODE     ---       #755
      0100876CH   LINE      CODE     ---       #756
      0100876EH   LINE      CODE     ---       #757
      0100877EH   LINE      CODE     ---       #758
      0100877EH   LINE      CODE     ---       #759
      01008792H   LINE      CODE     ---       #760
      01008799H   LINE      CODE     ---       #761
      0100879EH   LINE      CODE     ---       #762
      010087ACH   LINE      CODE     ---       #763
LX51 LINKER/LOCATER V4.66.87.0                                                        10/15/2020  10:36:21  PAGE 90


      010087AEH   LINE      CODE     ---       #765
      010087AEH   LINE      CODE     ---       #766
      010087B3H   LINE      CODE     ---       #767
      010087B8H   LINE      CODE     ---       #768
      010087B8H   LINE      CODE     ---       #769
      010087C1H   LINE      CODE     ---       #770
      010087C1H   LINE      CODE     ---       #771
      010087D7H   LINE      CODE     ---       #772
      010087D7H   LINE      CODE     ---       #773
      010087E0H   LINE      CODE     ---       #774
      010087EBH   LINE      CODE     ---       #775
      010087F0H   LINE      CODE     ---       #776
      010087F0H   LINE      CODE     ---       #777
      010087FEH   LINE      CODE     ---       #778
      010087FEH   LINE      CODE     ---       #779
      01008807H   LINE      CODE     ---       #780
      01008807H   LINE      CODE     ---       #785
      01008809H   LINE      CODE     ---       #787
      01008809H   LINE      CODE     ---       #788
      01008820H   LINE      CODE     ---       #789
      01008820H   LINE      CODE     ---       #790
      01008834H   LINE      CODE     ---       #791
      01008845H   LINE      CODE     ---       #792
      0100884AH   LINE      CODE     ---       #793
      0100884AH   LINE      CODE     ---       #794
      0100884AH   LINE      CODE     ---       #795
      01008866H   LINE      CODE     ---       #796
      01008866H   LINE      CODE     ---       #797
      01008866H   LINE      CODE     ---       #798
      01008866H   LINE      CODE     ---       #799
      ---         BLOCKEND  ---      ---       LVL=0

      0100B411H   BLOCK     CODE     ---       LVL=0
      0100B411H   BLOCK     CODE     NEAR LAB  LVL=1
      0200947CH   SYMBOL    XDATA    ---       k_data
      ---         BLOCKEND  ---      ---       LVL=1
      0100B411H   LINE      CODE     ---       #801
      0100B411H   LINE      CODE     ---       #802
      0100B411H   LINE      CODE     ---       #805
      0100B432H   LINE      CODE     ---       #806
      0100B44FH   LINE      CODE     ---       #815
      0100B458H   LINE      CODE     ---       #816
      0100B45EH   LINE      CODE     ---       #817
      0100B467H   LINE      CODE     ---       #818
      0100B46EH   LINE      CODE     ---       #819
      0100B477H   LINE      CODE     ---       #820
      0100B47AH   LINE      CODE     ---       #821
      0100B47FH   LINE      CODE     ---       #822
      0100B491H   LINE      CODE     ---       #823
      0100B4AAH   LINE      CODE     ---       #824
      0100B4AFH   LINE      CODE     ---       #825
      0100B4C4H   LINE      CODE     ---       #826
      0100B4DDH   LINE      CODE     ---       #827
      ---         BLOCKEND  ---      ---       LVL=0

      01000103H   BLOCK     CODE     ---       LVL=0
      01000103H   BLOCK     CODE     NEAR LAB  LVL=1
      02009474H   SYMBOL    XDATA    ---       tmp
      00000007H   SYMBOL    DATA     BYTE      tmp1
      020094B4H   SYMBOL    XDATA    WORD      tmp16
      020094B6H   SYMBOL    XDATA    WORD      tmp161
      020094B8H   SYMBOL    XDATA    BYTE      type
      020094B9H   SYMBOL    XDATA    BYTE      serial
      00000004H   SYMBOL    DATA     BYTE      i
      ---         BLOCKEND  ---      ---       LVL=1
LX51 LINKER/LOCATER V4.66.87.0                                                        10/15/2020  10:36:21  PAGE 91


      01000103H   LINE      CODE     ---       #830
      01000103H   LINE      CODE     ---       #831
      01000103H   LINE      CODE     ---       #844
      0100010CH   LINE      CODE     ---       #845
      0100011FH   LINE      CODE     ---       #846
      01000131H   LINE      CODE     ---       #847
      01000144H   LINE      CODE     ---       #848
      01000161H   LINE      CODE     ---       #849
      01000167H   LINE      CODE     ---       #850
      01000170H   LINE      CODE     ---       #851
      01000177H   LINE      CODE     ---       #852
      01000180H   LINE      CODE     ---       #853
      01000183H   LINE      CODE     ---       #855
      01000195H   LINE      CODE     ---       #856
      0100019EH   LINE      CODE     ---       #857
      010001A9H   LINE      CODE     ---       #858
      010001B4H   LINE      CODE     ---       #859
      010001C6H   LINE      CODE     ---       #860
      010001DFH   LINE      CODE     ---       #862
      010001F1H   LINE      CODE     ---       #863
      010001FCH   LINE      CODE     ---       #864
      01000207H   LINE      CODE     ---       #865
      01000212H   LINE      CODE     ---       #866
      01000225H   LINE      CODE     ---       #867
      0100023EH   LINE      CODE     ---       #869
      01000250H   LINE      CODE     ---       #870
      0100025BH   LINE      CODE     ---       #871
      01000266H   LINE      CODE     ---       #872
      01000271H   LINE      CODE     ---       #873
      0100027AH   LINE      CODE     ---       #874
      01000293H   LINE      CODE     ---       #875
      01000299H   LINE      CODE     ---       #877
      010002B3H   LINE      CODE     ---       #878
      010002B9H   LINE      CODE     ---       #879
      010002CBH   LINE      CODE     ---       #880
      010002CBH   LINE      CODE     ---       #881
      010002E0H   LINE      CODE     ---       #882
      010002E0H   LINE      CODE     ---       #883
      010002E2H   LINE      CODE     ---       #884
      010002ECH   LINE      CODE     ---       #885
      010002ECH   LINE      CODE     ---       #886
      0100032CH   LINE      CODE     ---       #887
      0100032CH   LINE      CODE     ---       #888
      0100032CH   LINE      CODE     ---       #889
      0100032EH   LINE      CODE     ---       #891
      0100032EH   LINE      CODE     ---       #892
      01000335H   LINE      CODE     ---       #893
      01000335H   LINE      CODE     ---       #894
      01000375H   LINE      CODE     ---       #895
      01000375H   LINE      CODE     ---       #896
      010003B8H   LINE      CODE     ---       #897
      010003B8H   LINE      CODE     ---       #898
      010003D9H   LINE      CODE     ---       #899
      01000407H   LINE      CODE     ---       #900
      01000418H   LINE      CODE     ---       #901
      01000418H   LINE      CODE     ---       #902
      01000438H   LINE      CODE     ---       #903
      0100043AH   LINE      CODE     ---       #905
      0100043AH   LINE      CODE     ---       #906
      0100045BH   LINE      CODE     ---       #907
      0100045BH   LINE      CODE     ---       #908
      01000461H   LINE      CODE     ---       #909
      01000465H   LINE      CODE     ---       #910
      010004A5H   LINE      CODE     ---       #912
      010004C5H   LINE      CODE     ---       #913
LX51 LINKER/LOCATER V4.66.87.0                                                        10/15/2020  10:36:21  PAGE 92


      01000508H   LINE      CODE     ---       #914
      0100054AH   LINE      CODE     ---       #915
      0100056DH   LINE      CODE     ---       #916
      01000576H   LINE      CODE     ---       #917
      0100058FH   LINE      CODE     ---       #918
      01000595H   LINE      CODE     ---       #920
      010005B5H   LINE      CODE     ---       #921
      010005F8H   LINE      CODE     ---       #922
      0100063AH   LINE      CODE     ---       #923
      0100065DH   LINE      CODE     ---       #924
      01000666H   LINE      CODE     ---       #925
      0100067FH   LINE      CODE     ---       #926
      01000685H   LINE      CODE     ---       #927
      01000697H   LINE      CODE     ---       #928
      01000697H   LINE      CODE     ---       #929
      010006ACH   LINE      CODE     ---       #930
      010006ACH   LINE      CODE     ---       #931
      010006AEH   LINE      CODE     ---       #932
      010006B8H   LINE      CODE     ---       #933
      010006B8H   LINE      CODE     ---       #934
      010006F8H   LINE      CODE     ---       #935
      010006F8H   LINE      CODE     ---       #936
      010006F8H   LINE      CODE     ---       #937
      010006FAH   LINE      CODE     ---       #939
      010006FAH   LINE      CODE     ---       #940
      01000701H   LINE      CODE     ---       #941
      01000701H   LINE      CODE     ---       #942
      01000741H   LINE      CODE     ---       #943
      01000741H   LINE      CODE     ---       #944
      01000784H   LINE      CODE     ---       #945
      01000784H   LINE      CODE     ---       #946
      010007A5H   LINE      CODE     ---       #947
      010007D3H   LINE      CODE     ---       #948
      010007E4H   LINE      CODE     ---       #949
      010007E4H   LINE      CODE     ---       #950
      01000804H   LINE      CODE     ---       #951
      01000806H   LINE      CODE     ---       #953
      01000806H   LINE      CODE     ---       #954
      01000827H   LINE      CODE     ---       #955
      01000827H   LINE      CODE     ---       #956
      0100082DH   LINE      CODE     ---       #957
      01000831H   LINE      CODE     ---       #958
      01000871H   LINE      CODE     ---       #960
      01000891H   LINE      CODE     ---       #961
      010008D4H   LINE      CODE     ---       #962
      01000916H   LINE      CODE     ---       #963
      01000939H   LINE      CODE     ---       #964
      01000942H   LINE      CODE     ---       #965
      0100095BH   LINE      CODE     ---       #966
      01000961H   LINE      CODE     ---       #968
      01000981H   LINE      CODE     ---       #969
      010009C4H   LINE      CODE     ---       #970
      01000A06H   LINE      CODE     ---       #971
      01000A29H   LINE      CODE     ---       #972
      01000A32H   LINE      CODE     ---       #973
      01000A4BH   LINE      CODE     ---       #974
      01000A51H   LINE      CODE     ---       #975
      01000A63H   LINE      CODE     ---       #976
      01000A63H   LINE      CODE     ---       #977
      01000A78H   LINE      CODE     ---       #978
      01000A78H   LINE      CODE     ---       #979
      01000A7AH   LINE      CODE     ---       #980
      01000A84H   LINE      CODE     ---       #981
      01000A84H   LINE      CODE     ---       #982
      01000AC4H   LINE      CODE     ---       #983
LX51 LINKER/LOCATER V4.66.87.0                                                        10/15/2020  10:36:21  PAGE 93


      01000AC4H   LINE      CODE     ---       #984
      01000AC4H   LINE      CODE     ---       #985
      01000AC6H   LINE      CODE     ---       #987
      01000AC6H   LINE      CODE     ---       #988
      01000ACDH   LINE      CODE     ---       #989
      01000ACDH   LINE      CODE     ---       #990
      01000B0DH   LINE      CODE     ---       #991
      01000B0DH   LINE      CODE     ---       #992
      01000B50H   LINE      CODE     ---       #993
      01000B50H   LINE      CODE     ---       #994
      01000B71H   LINE      CODE     ---       #995
      01000B9FH   LINE      CODE     ---       #996
      01000BB0H   LINE      CODE     ---       #997
      01000BB0H   LINE      CODE     ---       #998
      01000BD0H   LINE      CODE     ---       #999
      01000BD2H   LINE      CODE     ---       #1001
      01000BD2H   LINE      CODE     ---       #1002
      01000BF3H   LINE      CODE     ---       #1003
      01000BF3H   LINE      CODE     ---       #1004
      01000BF9H   LINE      CODE     ---       #1005
      01000BFDH   LINE      CODE     ---       #1006
      01000C3DH   LINE      CODE     ---       #1008
      01000C5DH   LINE      CODE     ---       #1009
      01000CA0H   LINE      CODE     ---       #1010
      01000CE2H   LINE      CODE     ---       #1011
      01000D05H   LINE      CODE     ---       #1012
      01000D0EH   LINE      CODE     ---       #1013
      01000D27H   LINE      CODE     ---       #1014
      01000D2DH   LINE      CODE     ---       #1016
      01000D4DH   LINE      CODE     ---       #1017
      01000D90H   LINE      CODE     ---       #1018
      01000DD2H   LINE      CODE     ---       #1019
      01000DF5H   LINE      CODE     ---       #1020
      01000DFEH   LINE      CODE     ---       #1021
      01000E17H   LINE      CODE     ---       #1022
      01000E1DH   LINE      CODE     ---       #1023
      01000E2FH   LINE      CODE     ---       #1024
      01000E2FH   LINE      CODE     ---       #1025
      01000E44H   LINE      CODE     ---       #1026
      01000E44H   LINE      CODE     ---       #1027
      01000E46H   LINE      CODE     ---       #1028
      01000E50H   LINE      CODE     ---       #1029
      01000E50H   LINE      CODE     ---       #1030
      01000E90H   LINE      CODE     ---       #1031
      01000E90H   LINE      CODE     ---       #1032
      01000E90H   LINE      CODE     ---       #1033
      01000E92H   LINE      CODE     ---       #1035
      01000E92H   LINE      CODE     ---       #1036
      01000E99H   LINE      CODE     ---       #1037
      01000E99H   LINE      CODE     ---       #1038
      01000ED9H   LINE      CODE     ---       #1039
      01000ED9H   LINE      CODE     ---       #1040
      01000F1CH   LINE      CODE     ---       #1041
      01000F1CH   LINE      CODE     ---       #1042
      01000F3DH   LINE      CODE     ---       #1043
      01000F6BH   LINE      CODE     ---       #1044
      01000F7CH   LINE      CODE     ---       #1045
      01000F7CH   LINE      CODE     ---       #1046
      01000F9CH   LINE      CODE     ---       #1047
      01000F9EH   LINE      CODE     ---       #1049
      01000F9EH   LINE      CODE     ---       #1050
      01000FBFH   LINE      CODE     ---       #1051
      01000FBFH   LINE      CODE     ---       #1052
      01000FC5H   LINE      CODE     ---       #1053
      01000FC9H   LINE      CODE     ---       #1054
LX51 LINKER/LOCATER V4.66.87.0                                                        10/15/2020  10:36:21  PAGE 94


      01001009H   LINE      CODE     ---       #1056
      01001029H   LINE      CODE     ---       #1057
      0100106CH   LINE      CODE     ---       #1058
      010010AEH   LINE      CODE     ---       #1059
      010010D1H   LINE      CODE     ---       #1060
      010010DAH   LINE      CODE     ---       #1061
      010010F3H   LINE      CODE     ---       #1062
      010010F9H   LINE      CODE     ---       #1064
      01001119H   LINE      CODE     ---       #1065
      0100115CH   LINE      CODE     ---       #1066
      0100119EH   LINE      CODE     ---       #1067
      010011C1H   LINE      CODE     ---       #1068
      010011CAH   LINE      CODE     ---       #1069
      010011E3H   LINE      CODE     ---       #1070
      010011E9H   LINE      CODE     ---       #1071
      010011FEH   LINE      CODE     ---       #1072
      010011FEH   LINE      CODE     ---       #1073
      01001208H   LINE      CODE     ---       #1074
      01001208H   LINE      CODE     ---       #1075
      0100120AH   LINE      CODE     ---       #1076
      01001214H   LINE      CODE     ---       #1077
      01001214H   LINE      CODE     ---       #1078
      01001254H   LINE      CODE     ---       #1079
      01001254H   LINE      CODE     ---       #1080
      01001254H   LINE      CODE     ---       #1081
      01001256H   LINE      CODE     ---       #1083
      01001256H   LINE      CODE     ---       #1084
      0100125DH   LINE      CODE     ---       #1085
      0100125DH   LINE      CODE     ---       #1086
      0100129DH   LINE      CODE     ---       #1087
      0100129DH   LINE      CODE     ---       #1088
      010012E0H   LINE      CODE     ---       #1089
      010012E0H   LINE      CODE     ---       #1090
      01001301H   LINE      CODE     ---       #1091
      0100132FH   LINE      CODE     ---       #1092
      01001340H   LINE      CODE     ---       #1093
      01001340H   LINE      CODE     ---       #1094
      01001360H   LINE      CODE     ---       #1095
      01001362H   LINE      CODE     ---       #1097
      01001362H   LINE      CODE     ---       #1098
      01001383H   LINE      CODE     ---       #1099
      01001383H   LINE      CODE     ---       #1100
      01001389H   LINE      CODE     ---       #1101
      0100138DH   LINE      CODE     ---       #1102
      010013CDH   LINE      CODE     ---       #1104
      010013EDH   LINE      CODE     ---       #1105
      01001430H   LINE      CODE     ---       #1106
      01001472H   LINE      CODE     ---       #1107
      010014A0H   LINE      CODE     ---       #1108
      010014C6H   LINE      CODE     ---       #1109
      010014CEH   LINE      CODE     ---       #1110
      010014E6H   LINE      CODE     ---       #1111
      010014ECH   LINE      CODE     ---       #1112
      01001500H   LINE      CODE     ---       #1113
      01001508H   LINE      CODE     ---       #1114
      01001527H   LINE      CODE     ---       #1115
      ---         BLOCKEND  ---      ---       LVL=0

      0100432CH   BLOCK     CODE     VOID      LVL=0
      ---         BLOCKEND  ---      ---       LVL=0

      01004332H   BLOCK     CODE     ---       LVL=0
      0200947CH   SYMBOL    XDATA    BYTE      i
      0200947DH   SYMBOL    XDATA    BYTE      j
      0200947EH   SYMBOL    XDATA    BYTE      k
LX51 LINKER/LOCATER V4.66.87.0                                                        10/15/2020  10:36:21  PAGE 95


      0200947FH   SYMBOL    XDATA    INT       Line_pos
      02009481H   SYMBOL    XDATA    INT       tmp16
      01004332H   BLOCK     CODE     NEAR LAB  LVL=1
      0200947CH   SYMBOL    XDATA    BYTE      i
      0200947DH   SYMBOL    XDATA    BYTE      j
      0200947EH   SYMBOL    XDATA    BYTE      k
      0200947FH   SYMBOL    XDATA    INT       Line_pos
      02009481H   SYMBOL    XDATA    INT       tmp16
      ---         BLOCKEND  ---      ---       LVL=1
      01004332H   LINE      CODE     ---       #1117
      01004332H   LINE      CODE     ---       #1118
      01004332H   LINE      CODE     ---       #1123
      01004352H   LINE      CODE     ---       #1124
      01004352H   LINE      CODE     ---       #1125
      0100437FH   LINE      CODE     ---       #1126
      0100437FH   LINE      CODE     ---       #1127
      0100437FH   LINE      CODE     ---       #1128
      0100437FH   LINE      CODE     ---       #1129
      01004387H   LINE      CODE     ---       #1130
      010043A4H   LINE      CODE     ---       #1131
      010043A4H   LINE      CODE     ---       #1132
      010043D9H   LINE      CODE     ---       #1133
      010043DFH   LINE      CODE     ---       #1134
      010043DFH   LINE      CODE     ---       #1135
      010043F7H   LINE      CODE     ---       #1136
      0100441BH   LINE      CODE     ---       #1137
      0100442FH   LINE      CODE     ---       #1138
      01004448H   LINE      CODE     ---       #1141
      0100444EH   LINE      CODE     ---       #1142
      01004451H   LINE      CODE     ---       #1143
      01004454H   LINE      CODE     ---       #1145
      01004454H   LINE      CODE     ---       #1146
      01004476H   LINE      CODE     ---       #1147
      01004476H   LINE      CODE     ---       #1148
      0100448EH   LINE      CODE     ---       #1149
      010044C0H   LINE      CODE     ---       #1151
      010044C6H   LINE      CODE     ---       #1152
      010044CBH   LINE      CODE     ---       #1153
      010044CDH   LINE      CODE     ---       #1154
      010044EDH   LINE      CODE     ---       #1155
      010044EDH   LINE      CODE     ---       #1156
      01004505H   LINE      CODE     ---       #1157
      01004537H   LINE      CODE     ---       #1158
      0100453DH   LINE      CODE     ---       #1159
      01004540H   LINE      CODE     ---       #1160
      01004540H   LINE      CODE     ---       #1161
      0100454AH   LINE      CODE     ---       #1162
      01004563H   LINE      CODE     ---       #1163
      0100456DH   LINE      CODE     ---       #1164
      01004586H   LINE      CODE     ---       #1165
      01004586H   LINE      CODE     ---       #1166
      01004586H   LINE      CODE     ---       #1167
      010045A7H   LINE      CODE     ---       #1168
      010045A7H   LINE      CODE     ---       #1169
      010045DCH   LINE      CODE     ---       #1170
      010045EDH   LINE      CODE     ---       #1171
      010045EDH   LINE      CODE     ---       #1172
      01004606H   LINE      CODE     ---       #1173
      01004606H   LINE      CODE     ---       #1174
      01004629H   LINE      CODE     ---       #1175
      0100466EH   LINE      CODE     ---       #1177
      01004671H   LINE      CODE     ---       #1178
      01004674H   LINE      CODE     ---       #1179
      01004694H   LINE      CODE     ---       #1180
      01004694H   LINE      CODE     ---       #1181
LX51 LINKER/LOCATER V4.66.87.0                                                        10/15/2020  10:36:21  PAGE 96


      010046B7H   LINE      CODE     ---       #1182
      010046FCH   LINE      CODE     ---       #1183
      01004702H   LINE      CODE     ---       #1184
      01004702H   LINE      CODE     ---       #1185
      01004702H   LINE      CODE     ---       #1187
      01004702H   LINE      CODE     ---       #1188
      0100470BH   LINE      CODE     ---       #1189
      0100470BH   LINE      CODE     ---       #1191
      0100470BH   LINE      CODE     ---       #1192
      01004710H   LINE      CODE     ---       #1193
      01004712H   LINE      CODE     ---       #1194
      01004712H   LINE      CODE     ---       #1195
      0100471CH   LINE      CODE     ---       #1196
      01004726H   LINE      CODE     ---       #1197
      01004726H   LINE      CODE     ---       #1198
      01004746H   LINE      CODE     ---       #1199
      0100474EH   LINE      CODE     ---       #1200
      01004758H   LINE      CODE     ---       #1201
      01004758H   LINE      CODE     ---       #1202
      01004778H   LINE      CODE     ---       #1203
      01004780H   LINE      CODE     ---       #1204
      ---         BLOCKEND  ---      ---       LVL=0

      01009126H   BLOCK     CODE     ---       LVL=0
      01009126H   LINE      CODE     ---       #1206
      01009126H   LINE      CODE     ---       #1207
      01009126H   LINE      CODE     ---       #1208
      0100912FH   LINE      CODE     ---       #1209
      0100912FH   LINE      CODE     ---       #1210
      01009138H   LINE      CODE     ---       #1211
      01009138H   LINE      CODE     ---       #1212
      0100914AH   LINE      CODE     ---       #1213
      0100914AH   LINE      CODE     ---       #1214
      0100915FH   LINE      CODE     ---       #1215
      01009166H   LINE      CODE     ---       #1216
      0100916CH   LINE      CODE     ---       #1217
      01009172H   LINE      CODE     ---       #1218
      01009174H   LINE      CODE     ---       #1219
      0100917FH   LINE      CODE     ---       #1220
      0100917FH   LINE      CODE     ---       #1221
      01009193H   LINE      CODE     ---       #1222
      01009199H   LINE      CODE     ---       #1223
      010091A0H   LINE      CODE     ---       #1224
      010091AEH   LINE      CODE     ---       #1225
      010091B1H   LINE      CODE     ---       #1226
      010091BCH   LINE      CODE     ---       #1227
      010091BCH   LINE      CODE     ---       #1228
      010091D2H   LINE      CODE     ---       #1229
      010091D8H   LINE      CODE     ---       #1230
      010091DFH   LINE      CODE     ---       #1231
      010091EDH   LINE      CODE     ---       #1232
      010091EFH   LINE      CODE     ---       #1233
      010091F7H   LINE      CODE     ---       #1234
      010091F7H   LINE      CODE     ---       #1235
      0100920BH   LINE      CODE     ---       #1236
      01009212H   LINE      CODE     ---       #1237
      01009218H   LINE      CODE     ---       #1238
      01009226H   LINE      CODE     ---       #1239
      01009228H   LINE      CODE     ---       #1255
      01009228H   LINE      CODE     ---       #1256
      0100922DH   LINE      CODE     ---       #1257
      01009233H   LINE      CODE     ---       #1258
      01009233H   LINE      CODE     ---       #1259
      0100923CH   LINE      CODE     ---       #1260
      0100923CH   LINE      CODE     ---       #1261
LX51 LINKER/LOCATER V4.66.87.0                                                        10/15/2020  10:36:21  PAGE 97


      01009252H   LINE      CODE     ---       #1262
      01009252H   LINE      CODE     ---       #1263
      0100925BH   LINE      CODE     ---       #1264
      01009266H   LINE      CODE     ---       #1265
      0100926BH   LINE      CODE     ---       #1266
      0100926BH   LINE      CODE     ---       #1267
      01009286H   LINE      CODE     ---       #1268
      01009286H   LINE      CODE     ---       #1269
      0100929AH   LINE      CODE     ---       #1270
      010092ABH   LINE      CODE     ---       #1271
      010092B0H   LINE      CODE     ---       #1272
      010092B0H   LINE      CODE     ---       #1273
      010092CCH   LINE      CODE     ---       #1274
      010092CCH   LINE      CODE     ---       #1275
      010092CCH   LINE      CODE     ---       #1276
      010092CCH   LINE      CODE     ---       #1277
      ---         BLOCKEND  ---      ---       LVL=0

      0100CFC8H   BLOCK     CODE     ---       LVL=0
      0100CFC8H   LINE      CODE     ---       #1280
      0100CFC8H   LINE      CODE     ---       #1281
      0100CFC8H   LINE      CODE     ---       #1282
      0100CFCEH   LINE      CODE     ---       #1283
      0100CFD5H   LINE      CODE     ---       #1286
      ---         BLOCKEND  ---      ---       LVL=0

      0100CFA6H   BLOCK     CODE     ---       LVL=0
      0100CFA6H   LINE      CODE     ---       #1288
      0100CFA6H   LINE      CODE     ---       #1289
      0100CFA6H   LINE      CODE     ---       #1291
      ---         BLOCKEND  ---      ---       LVL=0

      0100CDBDH   BLOCK     CODE     ---       LVL=0
      0100CDBDH   BLOCK     CODE     NEAR LAB  LVL=1
      0200945EH   SYMBOL    XDATA    ---       k_data
      ---         BLOCKEND  ---      ---       LVL=1
      0100CDBDH   LINE      CODE     ---       #1294
      0100CDBDH   LINE      CODE     ---       #1295
      0100CDBDH   LINE      CODE     ---       #1298
      0100CDC6H   LINE      CODE     ---       #1299
      0100CDCCH   LINE      CODE     ---       #1300
      0100CDCCH   LINE      CODE     ---       #1301
      0100CDD6H   LINE      CODE     ---       #1302
      0100CDDDH   LINE      CODE     ---       #1303
      0100CDE0H   LINE      CODE     ---       #1304
      0100CDE5H   LINE      CODE     ---       #1305
      0100CDF0H   LINE      CODE     ---       #1306
      0100CDF0H   LINE      CODE     ---       #1307
      ---         BLOCKEND  ---      ---       LVL=0

      010084CEH   BLOCK     CODE     ---       LVL=0
      010084CEH   BLOCK     CODE     NEAR LAB  LVL=1
      0200945EH   SYMBOL    XDATA    ---       k_data
      00000007H   SYMBOL    DATA     BYTE      i
      ---         BLOCKEND  ---      ---       LVL=1
      010084CEH   LINE      CODE     ---       #1309
      010084CEH   LINE      CODE     ---       #1310
      010084CEH   LINE      CODE     ---       #1314
      010084D7H   LINE      CODE     ---       #1315
      010084E0H   LINE      CODE     ---       #1316
      010084E0H   LINE      CODE     ---       #1317
      010084E5H   LINE      CODE     ---       #1318
      010084EEH   LINE      CODE     ---       #1319
      010084F6H   LINE      CODE     ---       #1320
      010084F6H   LINE      CODE     ---       #1322
LX51 LINKER/LOCATER V4.66.87.0                                                        10/15/2020  10:36:21  PAGE 98


      010084FFH   LINE      CODE     ---       #1323
      010084FFH   LINE      CODE     ---       #1324
      0100850AH   LINE      CODE     ---       #1325
      0100850CH   LINE      CODE     ---       #1327
      0100850CH   LINE      CODE     ---       #1328
      01008517H   LINE      CODE     ---       #1329
      01008517H   LINE      CODE     ---       #1342
      0100851EH   LINE      CODE     ---       #1343
      01008525H   LINE      CODE     ---       #1344
      01008527H   LINE      CODE     ---       #1345
      01008529H   LINE      CODE     ---       #1346
      01008531H   LINE      CODE     ---       #1347
      01008531H   LINE      CODE     ---       #1348
      0100853AH   LINE      CODE     ---       #1349
      0100853AH   LINE      CODE     ---       #1350
      01008545H   LINE      CODE     ---       #1351
      01008547H   LINE      CODE     ---       #1353
      01008547H   LINE      CODE     ---       #1354
      01008552H   LINE      CODE     ---       #1355
      01008552H   LINE      CODE     ---       #1356
      01008559H   LINE      CODE     ---       #1357
      0100855CH   LINE      CODE     ---       #1358
      01008561H   LINE      CODE     ---       #1359
      0100856AH   LINE      CODE     ---       #1360
      0100856AH   LINE      CODE     ---       #1361
      0100856AH   LINE      CODE     ---       #1362
      0100856AH   LINE      CODE     ---       #1363
      0100856DH   LINE      CODE     ---       #1364
      01008575H   LINE      CODE     ---       #1365
      01008575H   LINE      CODE     ---       #1366
      01008575H   LINE      CODE     ---       #1367
      01008575H   LINE      CODE     ---       #1368
      0100857FH   LINE      CODE     ---       #1369
      0100857FH   LINE      CODE     ---       #1370
      01008599H   LINE      CODE     ---       #1371
      010085A0H   LINE      CODE     ---       #1372
      010085A3H   LINE      CODE     ---       #1373
      010085ABH   LINE      CODE     ---       #1374
      010085ABH   LINE      CODE     ---       #1375
      010085B4H   LINE      CODE     ---       #1376
      010085B4H   LINE      CODE     ---       #1377
      010085BFH   LINE      CODE     ---       #1378
      010085C1H   LINE      CODE     ---       #1380
      010085C1H   LINE      CODE     ---       #1381
      010085CCH   LINE      CODE     ---       #1382
      010085CCH   LINE      CODE     ---       #1383
      010085D3H   LINE      CODE     ---       #1384
      010085D6H   LINE      CODE     ---       #1385
      010085DCH   LINE      CODE     ---       #1386
      010085E6H   LINE      CODE     ---       #1387
      010085E6H   LINE      CODE     ---       #1388
      010085E6H   LINE      CODE     ---       #1389
      010085E6H   LINE      CODE     ---       #1390
      010085E8H   LINE      CODE     ---       #1391
      010085F0H   LINE      CODE     ---       #1392
      010085F0H   LINE      CODE     ---       #1393
      010085F9H   LINE      CODE     ---       #1394
      010085F9H   LINE      CODE     ---       #1395
      01008604H   LINE      CODE     ---       #1396
      01008606H   LINE      CODE     ---       #1398
      01008606H   LINE      CODE     ---       #1399
      01008611H   LINE      CODE     ---       #1400
      01008611H   LINE      CODE     ---       #1401
      01008618H   LINE      CODE     ---       #1402
      0100861BH   LINE      CODE     ---       #1403
LX51 LINKER/LOCATER V4.66.87.0                                                        10/15/2020  10:36:21  PAGE 99


      01008621H   LINE      CODE     ---       #1404
      0100863BH   LINE      CODE     ---       #1405
      01008642H   LINE      CODE     ---       #1406
      01008647H   LINE      CODE     ---       #1407
      01008655H   LINE      CODE     ---       #1408
      01008657H   LINE      CODE     ---       #1409
      0100865EH   LINE      CODE     ---       #1410
      0100865EH   LINE      CODE     ---       #1411
      01008665H   LINE      CODE     ---       #1412
      01008665H   LINE      CODE     ---       #1413
      0100866AH   LINE      CODE     ---       #1414
      0100866FH   LINE      CODE     ---       #1415
      0100867EH   LINE      CODE     ---       #1416
      0100868BH   LINE      CODE     ---       #1417
      01008698H   LINE      CODE     ---       #1418
      01008698H   LINE      CODE     ---       #1419
      01008698H   LINE      CODE     ---       #1420
      0100869BH   LINE      CODE     ---       #1421
      0100869BH   LINE      CODE     ---       #1422
      ---         BLOCKEND  ---      ---       LVL=0

      010096D5H   BLOCK     CODE     ---       LVL=0
      010096D5H   BLOCK     CODE     NEAR LAB  LVL=1
      020094A1H   SYMBOL    XDATA    ---       k_data
      020094A5H   SYMBOL    XDATA    ---       Para
      020094A9H   SYMBOL    XDATA    ---       m_data
      ---         BLOCKEND  ---      ---       LVL=1
      010096D5H   LINE      CODE     ---       #1424
      010096D5H   LINE      CODE     ---       #1425
      010096D5H   LINE      CODE     ---       #1432
      010096EFH   LINE      CODE     ---       #1433
      0100970AH   LINE      CODE     ---       #1434
      0100970AH   LINE      CODE     ---       #1435
      01009722H   LINE      CODE     ---       #1436
      01009736H   LINE      CODE     ---       #1437
      01009750H   LINE      CODE     ---       #1438
      0100975DH   LINE      CODE     ---       #1439
      0100975DH   LINE      CODE     ---       #1440
      0100975DH   LINE      CODE     ---       #1441
      0100975DH   LINE      CODE     ---       #1442
      01009760H   LINE      CODE     ---       #1443
      01009770H   LINE      CODE     ---       #1444
      01009770H   LINE      CODE     ---       #1445
      01009770H   LINE      CODE     ---       #1446
      01009770H   LINE      CODE     ---       #1447
      01009770H   LINE      CODE     ---       #1448
      01009773H   LINE      CODE     ---       #1449
      01009791H   LINE      CODE     ---       #1450
      01009791H   LINE      CODE     ---       #1451
      010097A9H   LINE      CODE     ---       #1452
      010097BDH   LINE      CODE     ---       #1453
      010097D7H   LINE      CODE     ---       #1454
      010097E4H   LINE      CODE     ---       #1455
      010097E4H   LINE      CODE     ---       #1456
      010097E4H   LINE      CODE     ---       #1457
      010097E4H   LINE      CODE     ---       #1458
      010097E6H   LINE      CODE     ---       #1459
      010097F3H   LINE      CODE     ---       #1460
      010097F3H   LINE      CODE     ---       #1461
      010097F5H   LINE      CODE     ---       #1462
      0100980EH   LINE      CODE     ---       #1463
      0100980EH   LINE      CODE     ---       #1464
      0100980EH   LINE      CODE     ---       #1466
      0100980EH   LINE      CODE     ---       #1467
      01009813H   LINE      CODE     ---       #1468
LX51 LINKER/LOCATER V4.66.87.0                                                        10/15/2020  10:36:21  PAGE 100


      01009819H   LINE      CODE     ---       #1469
      01009819H   LINE      CODE     ---       #1471
      ---         BLOCKEND  ---      ---       LVL=0

      01009BE1H   BLOCK     CODE     ---       LVL=0
      02009483H   SYMBOL    XDATA    BYTE      type
      01009BE6H   BLOCK     CODE     NEAR LAB  LVL=1
      02009484H   SYMBOL    XDATA    ---       k_data
      ---         BLOCKEND  ---      ---       LVL=1
      01009BE1H   LINE      CODE     ---       #1473
      01009BE6H   LINE      CODE     ---       #1474
      01009BE6H   LINE      CODE     ---       #1478
      01009C00H   LINE      CODE     ---       #1479
      01009C19H   LINE      CODE     ---       #1480
      01009C32H   LINE      CODE     ---       #1481
      01009C4BH   LINE      CODE     ---       #1482
      01009C64H   LINE      CODE     ---       #1483
      01009C7DH   LINE      CODE     ---       #1484
      01009C96H   LINE      CODE     ---       #1489
      01009CA1H   LINE      CODE     ---       #1490
      01009CA1H   LINE      CODE     ---       #1491
      01009CA6H   LINE      CODE     ---       #1492
      01009CAEH   LINE      CODE     ---       #1493
      01009CB1H   LINE      CODE     ---       #1494
      01009CB3H   LINE      CODE     ---       #1495
      01009CBCH   LINE      CODE     ---       #1497
      01009CBEH   LINE      CODE     ---       #1499
      01009CBEH   LINE      CODE     ---       #1500
      01009CCFH   LINE      CODE     ---       #1501
      01009CCFH   LINE      CODE     ---       #1502
      01009CD4H   LINE      CODE     ---       #1503
      01009CDCH   LINE      CODE     ---       #1504
      01009CDFH   LINE      CODE     ---       #1505
      01009CE1H   LINE      CODE     ---       #1507
      01009CE3H   LINE      CODE     ---       #1509
      01009CE3H   LINE      CODE     ---       #1510
      01009CE8H   LINE      CODE     ---       #1511
      01009CEAH   LINE      CODE     ---       #1512
      01009CECH   LINE      CODE     ---       #1513
      01009CF4H   LINE      CODE     ---       #1514
      01009CF4H   LINE      CODE     ---       #1515
      01009D0EH   LINE      CODE     ---       #1516
      01009D0EH   LINE      CODE     ---       #1520
      ---         BLOCKEND  ---      ---       LVL=0

      0100B67BH   BLOCK     CODE     VOID      LVL=0
      ---         BLOCKEND  ---      ---       LVL=0

      0100B681H   BLOCK     CODE     ---       LVL=0
      0200946EH   SYMBOL    XDATA    BYTE      type
      0200946FH   SYMBOL    XDATA    ---       k_data
      0200947FH   SYMBOL    XDATA    ---       m_data
      0100B686H   BLOCK     CODE     NEAR LAB  LVL=1
      0200946FH   SYMBOL    XDATA    ---       k_data
      0200947FH   SYMBOL    XDATA    ---       m_data
      ---         BLOCKEND  ---      ---       LVL=1
      0100B681H   LINE      CODE     ---       #1522
      0100B686H   LINE      CODE     ---       #1523
      0100B686H   LINE      CODE     ---       #1527
      0100B689H   LINE      CODE     ---       #1528
      0100B68CH   LINE      CODE     ---       #1529
      0100B691H   LINE      CODE     ---       #1530
      0100B695H   LINE      CODE     ---       #1531
      0100B69FH   LINE      CODE     ---       #1532
      0100B69FH   LINE      CODE     ---       #1533
LX51 LINKER/LOCATER V4.66.87.0                                                        10/15/2020  10:36:21  PAGE 101


      0100B6A5H   LINE      CODE     ---       #1534
      0100B6A5H   LINE      CODE     ---       #1535
      0100B6A8H   LINE      CODE     ---       #1544
      0100B6AAH   LINE      CODE     ---       #1546
      0100B6AAH   LINE      CODE     ---       #1547
      0100B6B2H   LINE      CODE     ---       #1556
      0100B6B2H   LINE      CODE     ---       #1557
      0100B6B7H   LINE      CODE     ---       #1558
      0100B6B9H   LINE      CODE     ---       #1560
      0100B6B9H   LINE      CODE     ---       #1561
      0100B6C3H   LINE      CODE     ---       #1570
      0100B6C9H   LINE      CODE     ---       #1571
      0100B6C9H   LINE      CODE     ---       #1572
      0100B6E3H   LINE      CODE     ---       #1573
      0100B6FDH   LINE      CODE     ---       #1574
      0100B710H   LINE      CODE     ---       #1575
      0100B716H   LINE      CODE     ---       #1576
      0100B71BH   LINE      CODE     ---       #1577
      0100B724H   LINE      CODE     ---       #1578
      0100B73EH   LINE      CODE     ---       #1579
      ---         BLOCKEND  ---      ---       LVL=0

      0100A6F9H   BLOCK     CODE     VOID      LVL=0
      ---         BLOCKEND  ---      ---       LVL=0

      0100A6FFH   BLOCK     CODE     ---       LVL=0
      0200946EH   SYMBOL    XDATA    BYTE      type
      0200946FH   SYMBOL    XDATA    ---       k_data
      0200947FH   SYMBOL    XDATA    ---       m_data
      0100A704H   BLOCK     CODE     NEAR LAB  LVL=1
      0200946FH   SYMBOL    XDATA    ---       k_data
      0200947FH   SYMBOL    XDATA    ---       m_data
      ---         BLOCKEND  ---      ---       LVL=1
      0100A6FFH   LINE      CODE     ---       #1582
      0100A704H   LINE      CODE     ---       #1583
      0100A704H   LINE      CODE     ---       #1587
      0100A707H   LINE      CODE     ---       #1588
      0100A70AH   LINE      CODE     ---       #1589
      0100A70FH   LINE      CODE     ---       #1590
      0100A713H   LINE      CODE     ---       #1591
      0100A71DH   LINE      CODE     ---       #1592
      0100A71DH   LINE      CODE     ---       #1593
      0100A723H   LINE      CODE     ---       #1594
      0100A723H   LINE      CODE     ---       #1595
      0100A726H   LINE      CODE     ---       #1604
      0100A728H   LINE      CODE     ---       #1606
      0100A728H   LINE      CODE     ---       #1607
      0100A730H   LINE      CODE     ---       #1616
      0100A730H   LINE      CODE     ---       #1617
      0100A735H   LINE      CODE     ---       #1618
      0100A737H   LINE      CODE     ---       #1620
      0100A737H   LINE      CODE     ---       #1621
      0100A741H   LINE      CODE     ---       #1630
      0100A747H   LINE      CODE     ---       #1631
      0100A747H   LINE      CODE     ---       #1632
      0100A761H   LINE      CODE     ---       #1633
      0100A77BH   LINE      CODE     ---       #1634
      0100A787H   LINE      CODE     ---       #1635
      0100A787H   LINE      CODE     ---       #1636
      0100A78CH   LINE      CODE     ---       #1637
      0100A78EH   LINE      CODE     ---       #1638
      0100A797H   LINE      CODE     ---       #1639
      0100A7B1H   LINE      CODE     ---       #1640
      0100A7B3H   LINE      CODE     ---       #1641
      0100A7B5H   LINE      CODE     ---       #1643
LX51 LINKER/LOCATER V4.66.87.0                                                        10/15/2020  10:36:21  PAGE 102


      0100A7B5H   LINE      CODE     ---       #1644
      0100A7BBH   LINE      CODE     ---       #1645
      0100A7BEH   LINE      CODE     ---       #1646
      0100A7CAH   LINE      CODE     ---       #1647
      0100A7E4H   LINE      CODE     ---       #1648
      0100A7F5H   LINE      CODE     ---       #1649
      0100A7F9H   LINE      CODE     ---       #1651
      0100A800H   LINE      CODE     ---       #1652
      0100A800H   LINE      CODE     ---       #1653
      ---         BLOCKEND  ---      ---       LVL=0

      0100B745H   BLOCK     CODE     VOID      LVL=0
      ---         BLOCKEND  ---      ---       LVL=0

      0100B74BH   BLOCK     CODE     ---       LVL=0
      0200946EH   SYMBOL    XDATA    BYTE      type
      0200946FH   SYMBOL    XDATA    ---       k_data
      0200947FH   SYMBOL    XDATA    ---       m_data
      0100B750H   BLOCK     CODE     NEAR LAB  LVL=1
      0200946FH   SYMBOL    XDATA    ---       k_data
      0200947FH   SYMBOL    XDATA    ---       m_data
      ---         BLOCKEND  ---      ---       LVL=1
      0100B74BH   LINE      CODE     ---       #1655
      0100B750H   LINE      CODE     ---       #1656
      0100B750H   LINE      CODE     ---       #1660
      0100B753H   LINE      CODE     ---       #1661
      0100B756H   LINE      CODE     ---       #1662
      0100B75BH   LINE      CODE     ---       #1663
      0100B75FH   LINE      CODE     ---       #1664
      0100B769H   LINE      CODE     ---       #1665
      0100B769H   LINE      CODE     ---       #1666
      0100B76FH   LINE      CODE     ---       #1667
      0100B76FH   LINE      CODE     ---       #1668
      0100B772H   LINE      CODE     ---       #1677
      0100B774H   LINE      CODE     ---       #1679
      0100B774H   LINE      CODE     ---       #1680
      0100B77CH   LINE      CODE     ---       #1689
      0100B77CH   LINE      CODE     ---       #1690
      0100B781H   LINE      CODE     ---       #1691
      0100B783H   LINE      CODE     ---       #1693
      0100B783H   LINE      CODE     ---       #1694
      0100B78DH   LINE      CODE     ---       #1703
      0100B793H   LINE      CODE     ---       #1704
      0100B793H   LINE      CODE     ---       #1705
      0100B7ADH   LINE      CODE     ---       #1706
      0100B7C7H   LINE      CODE     ---       #1707
      0100B7DAH   LINE      CODE     ---       #1708
      0100B7E0H   LINE      CODE     ---       #1709
      0100B7E5H   LINE      CODE     ---       #1710
      0100B7EEH   LINE      CODE     ---       #1711
      0100B808H   LINE      CODE     ---       #1712
      ---         BLOCKEND  ---      ---       LVL=0

      010072FAH   BLOCK     CODE     ---       LVL=0
      020094A1H   SYMBOL    XDATA    ---       buf
      01007305H   BLOCK     CODE     NEAR LAB  LVL=1
      020094A4H   SYMBOL    XDATA    ---       tmp
      ---         BLOCKEND  ---      ---       LVL=1
      010072FAH   LINE      CODE     ---       #1716
      01007305H   LINE      CODE     ---       #1717
      01007305H   LINE      CODE     ---       #1720
      01007310H   LINE      CODE     ---       #1721
      0100732BH   LINE      CODE     ---       #1722
      01007345H   LINE      CODE     ---       #1723
      01007365H   LINE      CODE     ---       #1724
LX51 LINKER/LOCATER V4.66.87.0                                                        10/15/2020  10:36:21  PAGE 103


      0100737FH   LINE      CODE     ---       #1725
      01007396H   LINE      CODE     ---       #1726
      010073AFH   LINE      CODE     ---       #1727
      010073C1H   LINE      CODE     ---       #1728
      010073C1H   LINE      CODE     ---       #1729
      010073CBH   LINE      CODE     ---       #1730
      010073D3H   LINE      CODE     ---       #1731
      010073D8H   LINE      CODE     ---       #1732
      010073DAH   LINE      CODE     ---       #1733
      010073F2H   LINE      CODE     ---       #1734
      010073F7H   LINE      CODE     ---       #1735
      010073F9H   LINE      CODE     ---       #1737
      010073F9H   LINE      CODE     ---       #1738
      01007413H   LINE      CODE     ---       #1739
      01007413H   LINE      CODE     ---       #1740
      0100741DH   LINE      CODE     ---       #1741
      01007422H   LINE      CODE     ---       #1742
      01007425H   LINE      CODE     ---       #1743
      0100743DH   LINE      CODE     ---       #1744
      0100743EH   LINE      CODE     ---       #1745
      01007440H   LINE      CODE     ---       #1747
      01007440H   LINE      CODE     ---       #1748
      01007457H   LINE      CODE     ---       #1749
      01007461H   LINE      CODE     ---       #1750
      01007461H   LINE      CODE     ---       #1751
      01007473H   LINE      CODE     ---       #1752
      01007473H   LINE      CODE     ---       #1753
      01007485H   LINE      CODE     ---       #1754
      0100748CH   LINE      CODE     ---       #1755
      01007491H   LINE      CODE     ---       #1756
      01007493H   LINE      CODE     ---       #1757
      01007495H   LINE      CODE     ---       #1758
      010074AEH   LINE      CODE     ---       #1759
      010074C7H   LINE      CODE     ---       #1760
      010074E0H   LINE      CODE     ---       #1761
      010074EBH   LINE      CODE     ---       #1762
      010074EDH   LINE      CODE     ---       #1764
      010074F5H   LINE      CODE     ---       #1765
      0100750EH   LINE      CODE     ---       #1766
      01007514H   LINE      CODE     ---       #1767
      ---         BLOCKEND  ---      ---       LVL=0

      01009F60H   BLOCK     CODE     ---       LVL=0
      01009F60H   BLOCK     CODE     NEAR LAB  LVL=1
      0200945EH   SYMBOL    XDATA    ---       k_data
      ---         BLOCKEND  ---      ---       LVL=1
      01009F60H   LINE      CODE     ---       #1769
      01009F60H   LINE      CODE     ---       #1770
      01009F60H   LINE      CODE     ---       #1773
      01009F69H   LINE      CODE     ---       #1774
      01009F73H   LINE      CODE     ---       #1775
      01009F73H   LINE      CODE     ---       #1776
      01009F76H   LINE      CODE     ---       #1777
      01009F76H   LINE      CODE     ---       #1778
      01009F85H   LINE      CODE     ---       #1779
      01009F85H   LINE      CODE     ---       #1780
      01009F85H   LINE      CODE     ---       #1781
      01009F87H   LINE      CODE     ---       #1782
      01009F8EH   LINE      CODE     ---       #1783
      01009F8EH   LINE      CODE     ---       #1784
      01009F95H   LINE      CODE     ---       #1785
      01009F95H   LINE      CODE     ---       #1786
      01009F95H   LINE      CODE     ---       #1787
      01009F97H   LINE      CODE     ---       #1788
      01009F9FH   LINE      CODE     ---       #1789
LX51 LINKER/LOCATER V4.66.87.0                                                        10/15/2020  10:36:21  PAGE 104


      01009F9FH   LINE      CODE     ---       #1790
      01009FA5H   LINE      CODE     ---       #1791
      01009FA5H   LINE      CODE     ---       #1792
      01009FA9H   LINE      CODE     ---       #1793
      01009FAFH   LINE      CODE     ---       #1794
      01009FAFH   LINE      CODE     ---       #1795
      01009FAFH   LINE      CODE     ---       #1796
      01009FB1H   LINE      CODE     ---       #1798
      01009FB1H   LINE      CODE     ---       #1799
      01009FB6H   LINE      CODE     ---       #1800
      01009FC1H   LINE      CODE     ---       #1801
      01009FC1H   LINE      CODE     ---       #1802
      01009FC4H   LINE      CODE     ---       #1803
      01009FCBH   LINE      CODE     ---       #1804
      01009FCBH   LINE      CODE     ---       #1805
      01009FD4H   LINE      CODE     ---       #1806
      01009FD4H   LINE      CODE     ---       #1807
      01009FD8H   LINE      CODE     ---       #1808
      01009FD8H   LINE      CODE     ---       #1809
      01009FD8H   LINE      CODE     ---       #1810
      01009FDAH   LINE      CODE     ---       #1811
      01009FE1H   LINE      CODE     ---       #1812
      01009FE1H   LINE      CODE     ---       #1813
      01009FE7H   LINE      CODE     ---       #1814
      01009FE7H   LINE      CODE     ---       #1815
      01009FEBH   LINE      CODE     ---       #1816
      01009FF1H   LINE      CODE     ---       #1817
      01009FF1H   LINE      CODE     ---       #1818
      01009FF3H   LINE      CODE     ---       #1819
      01009FFBH   LINE      CODE     ---       #1820
      01009FFBH   LINE      CODE     ---       #1821
      0100A001H   LINE      CODE     ---       #1822
      0100A001H   LINE      CODE     ---       #1823
      0100A006H   LINE      CODE     ---       #1824
      0100A00EH   LINE      CODE     ---       #1825
      0100A017H   LINE      CODE     ---       #1826
      0100A017H   LINE      CODE     ---       #1827
      0100A01AH   LINE      CODE     ---       #1828
      0100A01FH   LINE      CODE     ---       #1829
      0100A025H   LINE      CODE     ---       #1830
      0100A025H   LINE      CODE     ---       #1831
      0100A02BH   LINE      CODE     ---       #1832
      0100A02DH   LINE      CODE     ---       #1834
      0100A02DH   LINE      CODE     ---       #1835
      0100A032H   LINE      CODE     ---       #1836
      0100A032H   LINE      CODE     ---       #1837
      0100A04CH   LINE      CODE     ---       #1838
      0100A053H   LINE      CODE     ---       #1839
      0100A053H   LINE      CODE     ---       #1840
      0100A053H   LINE      CODE     ---       #1841
      0100A056H   LINE      CODE     ---       #1842
      0100A056H   LINE      CODE     ---       #1843
      0100A05CH   LINE      CODE     ---       #1844
      0100A05CH   LINE      CODE     ---       #1845
      0100A076H   LINE      CODE     ---       #1846
      0100A076H   LINE      CODE     ---       #1847
      0100A07EH   LINE      CODE     ---       #1848
      0100A080H   LINE      CODE     ---       #1849
      0100A083H   LINE      CODE     ---       #1850
      0100A083H   LINE      CODE     ---       #1851
      0100A083H   LINE      CODE     ---       #1852
      ---         BLOCKEND  ---      ---       LVL=0

      0100A3D3H   BLOCK     CODE     ---       LVL=0
      0100A3D3H   BLOCK     CODE     NEAR LAB  LVL=1
LX51 LINKER/LOCATER V4.66.87.0                                                        10/15/2020  10:36:21  PAGE 105


      0200945EH   SYMBOL    XDATA    ---       k_data
      ---         BLOCKEND  ---      ---       LVL=1
      0100A3D3H   LINE      CODE     ---       #1854
      0100A3D3H   LINE      CODE     ---       #1855
      0100A3D3H   LINE      CODE     ---       #1858
      0100A3DCH   LINE      CODE     ---       #1859
      0100A3E6H   LINE      CODE     ---       #1860
      0100A3E6H   LINE      CODE     ---       #1861
      0100A3E9H   LINE      CODE     ---       #1862
      0100A3E9H   LINE      CODE     ---       #1863
      0100A3F8H   LINE      CODE     ---       #1864
      0100A3FBH   LINE      CODE     ---       #1865
      0100A402H   LINE      CODE     ---       #1866
      0100A402H   LINE      CODE     ---       #1867
      0100A406H   LINE      CODE     ---       #1868
      0100A409H   LINE      CODE     ---       #1869
      0100A410H   LINE      CODE     ---       #1870
      0100A410H   LINE      CODE     ---       #1871
      0100A419H   LINE      CODE     ---       #1872
      0100A419H   LINE      CODE     ---       #1873
      0100A41EH   LINE      CODE     ---       #1874
      0100A41EH   LINE      CODE     ---       #1875
      0100A41EH   LINE      CODE     ---       #1877
      0100A420H   LINE      CODE     ---       #1878
      0100A427H   LINE      CODE     ---       #1879
      0100A427H   LINE      CODE     ---       #1880
      0100A430H   LINE      CODE     ---       #1881
      0100A430H   LINE      CODE     ---       #1882
      0100A435H   LINE      CODE     ---       #1883
      0100A435H   LINE      CODE     ---       #1884
      0100A435H   LINE      CODE     ---       #1885
      0100A437H   LINE      CODE     ---       #1886
      0100A43EH   LINE      CODE     ---       #1887
      0100A43EH   LINE      CODE     ---       #1888
      0100A444H   LINE      CODE     ---       #1889
      0100A444H   LINE      CODE     ---       #1890
      0100A449H   LINE      CODE     ---       #1891
      0100A44FH   LINE      CODE     ---       #1892
      0100A44FH   LINE      CODE     ---       #1893
      0100A451H   LINE      CODE     ---       #1894
      0100A459H   LINE      CODE     ---       #1895
      0100A459H   LINE      CODE     ---       #1896
      0100A45FH   LINE      CODE     ---       #1897
      0100A45FH   LINE      CODE     ---       #1898
      0100A465H   LINE      CODE     ---       #1899
      0100A46EH   LINE      CODE     ---       #1900
      0100A477H   LINE      CODE     ---       #1901
      0100A477H   LINE      CODE     ---       #1902
      0100A47AH   LINE      CODE     ---       #1903
      0100A47FH   LINE      CODE     ---       #1912
      0100A488H   LINE      CODE     ---       #1913
      0100A488H   LINE      CODE     ---       #1914
      0100A48BH   LINE      CODE     ---       #1915
      0100A48DH   LINE      CODE     ---       #1917
      0100A48DH   LINE      CODE     ---       #1918
      0100A490H   LINE      CODE     ---       #1919
      0100A490H   LINE      CODE     ---       #1920
      0100A4AAH   LINE      CODE     ---       #1921
      0100A4B1H   LINE      CODE     ---       #1922
      0100A4B1H   LINE      CODE     ---       #1923
      0100A4B1H   LINE      CODE     ---       #1924
      0100A4B4H   LINE      CODE     ---       #1925
      0100A4B4H   LINE      CODE     ---       #1926
      0100A4BAH   LINE      CODE     ---       #1927
      0100A4BAH   LINE      CODE     ---       #1928
LX51 LINKER/LOCATER V4.66.87.0                                                        10/15/2020  10:36:21  PAGE 106


      0100A4D4H   LINE      CODE     ---       #1929
      0100A4D4H   LINE      CODE     ---       #1930
      0100A4DCH   LINE      CODE     ---       #1931
      0100A4DEH   LINE      CODE     ---       #1932
      0100A4E1H   LINE      CODE     ---       #1933
      0100A4E1H   LINE      CODE     ---       #1934
      0100A4E1H   LINE      CODE     ---       #1935
      ---         BLOCKEND  ---      ---       LVL=0

      0100A801H   BLOCK     CODE     ---       LVL=0
      0100A801H   BLOCK     CODE     NEAR LAB  LVL=1
      0200945EH   SYMBOL    XDATA    ---       k_data
      ---         BLOCKEND  ---      ---       LVL=1
      0100A801H   LINE      CODE     ---       #1937
      0100A801H   LINE      CODE     ---       #1938
      0100A801H   LINE      CODE     ---       #1941
      0100A80AH   LINE      CODE     ---       #1942
      0100A814H   LINE      CODE     ---       #1943
      0100A814H   LINE      CODE     ---       #1944
      0100A817H   LINE      CODE     ---       #1945
      0100A817H   LINE      CODE     ---       #1946
      0100A821H   LINE      CODE     ---       #1947
      0100A823H   LINE      CODE     ---       #1948
      0100A82AH   LINE      CODE     ---       #1949
      0100A82AH   LINE      CODE     ---       #1950
      0100A839H   LINE      CODE     ---       #1951
      0100A83CH   LINE      CODE     ---       #1952
      0100A843H   LINE      CODE     ---       #1953
      0100A843H   LINE      CODE     ---       #1954
      0100A84CH   LINE      CODE     ---       #1955
      0100A84CH   LINE      CODE     ---       #1956
      0100A851H   LINE      CODE     ---       #1957
      0100A851H   LINE      CODE     ---       #1958
      0100A851H   LINE      CODE     ---       #1959
      0100A853H   LINE      CODE     ---       #1960
      0100A85AH   LINE      CODE     ---       #1961
      0100A85AH   LINE      CODE     ---       #1962
      0100A860H   LINE      CODE     ---       #1963
      0100A860H   LINE      CODE     ---       #1964
      0100A865H   LINE      CODE     ---       #1965
      0100A865H   LINE      CODE     ---       #1966
      0100A865H   LINE      CODE     ---       #1967
      0100A867H   LINE      CODE     ---       #1968
      0100A86EH   LINE      CODE     ---       #1969
      0100A86EH   LINE      CODE     ---       #1970
      0100A874H   LINE      CODE     ---       #1971
      0100A874H   LINE      CODE     ---       #1972
      0100A879H   LINE      CODE     ---       #1973
      0100A87FH   LINE      CODE     ---       #1974
      0100A87FH   LINE      CODE     ---       #1975
      0100A881H   LINE      CODE     ---       #1976
      0100A889H   LINE      CODE     ---       #1977
      0100A889H   LINE      CODE     ---       #1978
      0100A88FH   LINE      CODE     ---       #1979
      0100A88FH   LINE      CODE     ---       #1980
      0100A895H   LINE      CODE     ---       #1981
      0100A89EH   LINE      CODE     ---       #1982
      0100A8A7H   LINE      CODE     ---       #1983
      0100A8A7H   LINE      CODE     ---       #1984
      0100A8AAH   LINE      CODE     ---       #1985
      0100A8AFH   LINE      CODE     ---       #1986
      0100A8B3H   LINE      CODE     ---       #1987
      0100A8CDH   LINE      CODE     ---       #1988
      0100A8D4H   LINE      CODE     ---       #1989
      0100A8D4H   LINE      CODE     ---       #1990
LX51 LINKER/LOCATER V4.66.87.0                                                        10/15/2020  10:36:21  PAGE 107


      0100A8D4H   LINE      CODE     ---       #1991
      0100A8D7H   LINE      CODE     ---       #1992
      0100A8D7H   LINE      CODE     ---       #1993
      0100A8DDH   LINE      CODE     ---       #1994
      0100A8DDH   LINE      CODE     ---       #1995
      0100A8F7H   LINE      CODE     ---       #1996
      0100A8F7H   LINE      CODE     ---       #1997
      0100A8FFH   LINE      CODE     ---       #1998
      0100A905H   LINE      CODE     ---       #1999
      0100A908H   LINE      CODE     ---       #2000
      0100A908H   LINE      CODE     ---       #2001
      0100A908H   LINE      CODE     ---       #2002
      ---         BLOCKEND  ---      ---       LVL=0

      01008BF6H   BLOCK     CODE     ---       LVL=0
      01008BF6H   BLOCK     CODE     NEAR LAB  LVL=1
      0200945EH   SYMBOL    XDATA    ---       k_data
      0200946EH   SYMBOL    XDATA    BYTE      page_next
      ---         BLOCKEND  ---      ---       LVL=1
      01008BF6H   LINE      CODE     ---       #2004
      01008BF6H   LINE      CODE     ---       #2005
      01008BF6H   LINE      CODE     ---       #2009
      01008BFFH   LINE      CODE     ---       #2010
      01008C09H   LINE      CODE     ---       #2011
      01008C09H   LINE      CODE     ---       #2012
      01008C12H   LINE      CODE     ---       #2013
      01008C12H   LINE      CODE     ---       #2014
      01008C17H   LINE      CODE     ---       #2015
      01008C1CH   LINE      CODE     ---       #2016
      01008C30H   LINE      CODE     ---       #2017
      01008C35H   LINE      CODE     ---       #2018
      01008C4DH   LINE      CODE     ---       #2019
      01008C50H   LINE      CODE     ---       #2020
      01008C64H   LINE      CODE     ---       #2021
      01008C69H   LINE      CODE     ---       #2022
      01008C80H   LINE      CODE     ---       #2023
      01008C88H   LINE      CODE     ---       #2024
      01008C88H   LINE      CODE     ---       #2025
      01008C99H   LINE      CODE     ---       #2026
      01008C99H   LINE      CODE     ---       #2027
      01008C9EH   LINE      CODE     ---       #2028
      01008CA0H   LINE      CODE     ---       #2029
      01008CA2H   LINE      CODE     ---       #2030
      01008CB9H   LINE      CODE     ---       #2031
      01008CBEH   LINE      CODE     ---       #2032
      01008CC0H   LINE      CODE     ---       #2033
      01008CC2H   LINE      CODE     ---       #2035
      01008CC2H   LINE      CODE     ---       #2036
      01008CC7H   LINE      CODE     ---       #2037
      01008CC9H   LINE      CODE     ---       #2038
      01008CCBH   LINE      CODE     ---       #2039
      01008CCDH   LINE      CODE     ---       #2040
      01008CD1H   LINE      CODE     ---       #2041
      01008CE8H   LINE      CODE     ---       #2042
      01008CE8H   LINE      CODE     ---       #2043
      01008CEEH   LINE      CODE     ---       #2047
      01008CF0H   LINE      CODE     ---       #2048
      01008CF5H   LINE      CODE     ---       #2049
      01008CF5H   LINE      CODE     ---       #2050
      01008CF9H   LINE      CODE     ---       #2051
      01008D11H   LINE      CODE     ---       #2052
      01008D14H   LINE      CODE     ---       #2053
      01008D16H   LINE      CODE     ---       #2054
      01008D25H   LINE      CODE     ---       #2055
      01008D28H   LINE      CODE     ---       #2056
LX51 LINKER/LOCATER V4.66.87.0                                                        10/15/2020  10:36:21  PAGE 108


      01008D28H   LINE      CODE     ---       #2057
      01008D28H   LINE      CODE     ---       #2061
      01008D2AH   LINE      CODE     ---       #2062
      01008D36H   LINE      CODE     ---       #2063
      01008D36H   LINE      CODE     ---       #2064
      01008D3BH   LINE      CODE     ---       #2065
      01008D3DH   LINE      CODE     ---       #2066
      01008D3FH   LINE      CODE     ---       #2067
      01008D53H   LINE      CODE     ---       #2068
      01008D59H   LINE      CODE     ---       #2069
      01008D5EH   LINE      CODE     ---       #2070
      01008D60H   LINE      CODE     ---       #2074
      01008D60H   LINE      CODE     ---       #2075
      01008D7AH   LINE      CODE     ---       #2076
      01008D7FH   LINE      CODE     ---       #2077
      01008D8BH   LINE      CODE     ---       #2078
      01008DA4H   LINE      CODE     ---       #2079
      01008DAEH   LINE      CODE     ---       #2080
      01008DAEH   LINE      CODE     ---       #2081
      01008DB1H   LINE      CODE     ---       #2082
      01008DB1H   LINE      CODE     ---       #2083
      ---         BLOCKEND  ---      ---       LVL=0

      0100C61AH   BLOCK     CODE     ---       LVL=0
      02009680H   SYMBOL    XDATA    ---       Text1
      02009683H   SYMBOL    XDATA    ---       Text2
      0100C625H   BLOCK     CODE     NEAR LAB  LVL=1
      00000007H   SYMBOL    DATA     BYTE      i
      ---         BLOCKEND  ---      ---       LVL=1
      0100C61AH   LINE      CODE     ---       #2085
      0100C625H   LINE      CODE     ---       #2086
      0100C625H   LINE      CODE     ---       #2089
      0100C627H   LINE      CODE     ---       #2090
      0100C627H   LINE      CODE     ---       #2091
      0100C63FH   LINE      CODE     ---       #2092
      0100C63FH   LINE      CODE     ---       #2093
      0100C669H   LINE      CODE     ---       #2094
      0100C66CH   LINE      CODE     ---       #2095
      0100C66CH   LINE      CODE     ---       #2097
      0100C66CH   LINE      CODE     ---       #2098
      0100C66FH   LINE      CODE     ---       #2099
      0100C66FH   LINE      CODE     ---       #2100
      0100C674H   LINE      CODE     ---       #2101
      0100C676H   LINE      CODE     ---       #2102
      ---         BLOCKEND  ---      ---       LVL=0

      01006833H   BLOCK     CODE     ---       LVL=0
      02009470H   SYMBOL    XDATA    ---       Text
      0100683EH   BLOCK     CODE     NEAR LAB  LVL=1
      02009473H   SYMBOL    XDATA    WORD      tmp1
      00000006H   SYMBOL    DATA     WORD      tmp2
      02009475H   SYMBOL    XDATA    WORD      j
      02009477H   SYMBOL    XDATA    ---       tmp
      0200967FH   SYMBOL    XDATA    BYTE      i
      ---         BLOCKEND  ---      ---       LVL=1
      01006833H   LINE      CODE     ---       #2104
      0100683EH   LINE      CODE     ---       #2105
      0100683EH   LINE      CODE     ---       #2110
      01006847H   LINE      CODE     ---       #2111
      01006847H   LINE      CODE     ---       #2112
      01006852H   LINE      CODE     ---       #2113
      01006854H   LINE      CODE     ---       #2115
      01006854H   LINE      CODE     ---       #2116
      0100685FH   LINE      CODE     ---       #2117
      0100685FH   LINE      CODE     ---       #2118
LX51 LINKER/LOCATER V4.66.87.0                                                        10/15/2020  10:36:21  PAGE 109


      01006873H   LINE      CODE     ---       #2119
      01006879H   LINE      CODE     ---       #2120
      01006880H   LINE      CODE     ---       #2121
      01006888H   LINE      CODE     ---       #2122
      01006891H   LINE      CODE     ---       #2123
      01006897H   LINE      CODE     ---       #2124
      010068A4H   LINE      CODE     ---       #2125
      010068CAH   LINE      CODE     ---       #2126
      010068CAH   LINE      CODE     ---       #2127
      010068CDH   LINE      CODE     ---       #2128
      010068D4H   LINE      CODE     ---       #2129
      010068D8H   LINE      CODE     ---       #2130
      010068F4H   LINE      CODE     ---       #2131
      010068F4H   LINE      CODE     ---       #2132
      01006918H   LINE      CODE     ---       #2133
      01006918H   LINE      CODE     ---       #2134
      0100693AH   LINE      CODE     ---       #2135
      0100693AH   LINE      CODE     ---       #2136
      0100696FH   LINE      CODE     ---       #2137
      01006984H   LINE      CODE     ---       #2138
      01006986H   LINE      CODE     ---       #2139
      01006986H   LINE      CODE     ---       #2140
      01006986H   LINE      CODE     ---       #2141
      01006994H   LINE      CODE     ---       #2142
      01006997H   LINE      CODE     ---       #2143
      010069B7H   LINE      CODE     ---       #2144
      010069C0H   LINE      CODE     ---       #2145
      010069D7H   LINE      CODE     ---       #2146
      010069D7H   LINE      CODE     ---       #2147
      010069EEH   LINE      CODE     ---       #2148
      01006A0CH   LINE      CODE     ---       #2149
      01006A0FH   LINE      CODE     ---       #2150
      01006A1AH   LINE      CODE     ---       #2151
      01006A33H   LINE      CODE     ---       #2152
      01006A33H   LINE      CODE     ---       #2153
      01006A33H   LINE      CODE     ---       #2154
      01006A35H   LINE      CODE     ---       #2156
      01006A35H   LINE      CODE     ---       #2157
      01006A46H   LINE      CODE     ---       #2158
      01006A5AH   LINE      CODE     ---       #2159
      01006A63H   LINE      CODE     ---       #2160
      01006A63H   LINE      CODE     ---       #2161
      ---         BLOCKEND  ---      ---       LVL=0

      0100B33CH   BLOCK     CODE     ---       LVL=0
      0100B33CH   BLOCK     CODE     NEAR LAB  LVL=1
      0200945EH   SYMBOL    XDATA    ---       k_data
      02009460H   SYMBOL    XDATA    ---       Text
      ---         BLOCKEND  ---      ---       LVL=1
      0100B33CH   LINE      CODE     ---       #2163
      0100B33CH   LINE      CODE     ---       #2164
      0100B33CH   LINE      CODE     ---       #2168
      0100B345H   LINE      CODE     ---       #2169
      0100B34EH   LINE      CODE     ---       #2170
      0100B34EH   LINE      CODE     ---       #2171
      0100B351H   LINE      CODE     ---       #2172
      0100B351H   LINE      CODE     ---       #2173
      0100B360H   LINE      CODE     ---       #2174
      0100B362H   LINE      CODE     ---       #2175
      0100B369H   LINE      CODE     ---       #2176
      0100B369H   LINE      CODE     ---       #2177
      0100B36FH   LINE      CODE     ---       #2178
      0100B376H   LINE      CODE     ---       #2179
      0100B379H   LINE      CODE     ---       #2181
      0100B379H   LINE      CODE     ---       #2182
LX51 LINKER/LOCATER V4.66.87.0                                                        10/15/2020  10:36:21  PAGE 110


      0100B380H   LINE      CODE     ---       #2183
      0100B386H   LINE      CODE     ---       #2184
      0100B38DH   LINE      CODE     ---       #2185
      0100B39CH   LINE      CODE     ---       #2186
      0100B3B5H   LINE      CODE     ---       #2187
      0100B3D5H   LINE      CODE     ---       #2188
      0100B3DEH   LINE      CODE     ---       #2189
      0100B3E4H   LINE      CODE     ---       #2190
      0100B3F0H   LINE      CODE     ---       #2191
      0100B3F8H   LINE      CODE     ---       #2192
      0100B3FBH   LINE      CODE     ---       #2193
      0100B401H   LINE      CODE     ---       #2194
      0100B408H   LINE      CODE     ---       #2195
      0100B40DH   LINE      CODE     ---       #2196
      0100B40DH   LINE      CODE     ---       #2197
      0100B410H   LINE      CODE     ---       #2198
      0100B410H   LINE      CODE     ---       #2199
      ---         BLOCKEND  ---      ---       LVL=0

      0100ADE4H   BLOCK     CODE     ---       LVL=0
      0100ADE4H   BLOCK     CODE     NEAR LAB  LVL=1
      0200945EH   SYMBOL    XDATA    ---       k_data
      ---         BLOCKEND  ---      ---       LVL=1
      0100ADE4H   LINE      CODE     ---       #2201
      0100ADE4H   LINE      CODE     ---       #2202
      0100ADE4H   LINE      CODE     ---       #2205
      0100ADEDH   LINE      CODE     ---       #2206
      0100ADF4H   LINE      CODE     ---       #2207
      0100ADF4H   LINE      CODE     ---       #2208
      0100ADF7H   LINE      CODE     ---       #2209
      0100ADF7H   LINE      CODE     ---       #2210
      0100AE06H   LINE      CODE     ---       #2211
      0100AE08H   LINE      CODE     ---       #2212
      0100AE0FH   LINE      CODE     ---       #2213
      0100AE0FH   LINE      CODE     ---       #2214
      0100AE16H   LINE      CODE     ---       #2215
      0100AE18H   LINE      CODE     ---       #2216
      0100AE20H   LINE      CODE     ---       #2217
      0100AE20H   LINE      CODE     ---       #2218
      0100AE39H   LINE      CODE     ---       #2219
      0100AE42H   LINE      CODE     ---       #2220
      0100AE45H   LINE      CODE     ---       #2221
      0100AE4CH   LINE      CODE     ---       #2222
      0100AE51H   LINE      CODE     ---       #2223
      0100AE57H   LINE      CODE     ---       #2224
      0100AE59H   LINE      CODE     ---       #2225
      0100AE60H   LINE      CODE     ---       #2226
      0100AE60H   LINE      CODE     ---       #2227
      0100AE66H   LINE      CODE     ---       #2228
      0100AE66H   LINE      CODE     ---       #2229
      0100AE69H   LINE      CODE     ---       #2230
      0100AE69H   LINE      CODE     ---       #2231
      0100AE6FH   LINE      CODE     ---       #2232
      0100AE6FH   LINE      CODE     ---       #2233
      0100AE71H   LINE      CODE     ---       #2234
      0100AE75H   LINE      CODE     ---       #2235
      0100AE77H   LINE      CODE     ---       #2236
      0100AE79H   LINE      CODE     ---       #2237
      0100AE7BH   LINE      CODE     ---       #2238
      0100AE94H   LINE      CODE     ---       #2239
      0100AE9EH   LINE      CODE     ---       #2240
      0100AEA5H   LINE      CODE     ---       #2241
      0100AEADH   LINE      CODE     ---       #2242
      0100AEB3H   LINE      CODE     ---       #2243
      0100AECCH   LINE      CODE     ---       #2244
LX51 LINKER/LOCATER V4.66.87.0                                                        10/15/2020  10:36:21  PAGE 111


      0100AECCH   LINE      CODE     ---       #2245
      ---         BLOCKEND  ---      ---       LVL=0

      01008F6DH   BLOCK     CODE     ---       LVL=0
      01008F6DH   BLOCK     CODE     NEAR LAB  LVL=1
      0200945EH   SYMBOL    XDATA    ---       k_data
      ---         BLOCKEND  ---      ---       LVL=1
      01008F6DH   LINE      CODE     ---       #2247
      01008F6DH   LINE      CODE     ---       #2248
      01008F6DH   LINE      CODE     ---       #2251
      01008F76H   LINE      CODE     ---       #2252
      01008F80H   LINE      CODE     ---       #2253
      01008F80H   LINE      CODE     ---       #2254
      01008F84H   LINE      CODE     ---       #2255
      01008F84H   LINE      CODE     ---       #2256
      01008F8DH   LINE      CODE     ---       #2257
      01008F8DH   LINE      CODE     ---       #2258
      01008F97H   LINE      CODE     ---       #2259
      01008F99H   LINE      CODE     ---       #2261
      01008F99H   LINE      CODE     ---       #2262
      01008FA4H   LINE      CODE     ---       #2263
      01008FA4H   LINE      CODE     ---       #2264
      01008FABH   LINE      CODE     ---       #2265
      01008FAEH   LINE      CODE     ---       #2266
      01008FB3H   LINE      CODE     ---       #2267
      01008FB3H   LINE      CODE     ---       #2268
      01008FB3H   LINE      CODE     ---       #2269
      01008FB3H   LINE      CODE     ---       #2270
      01008FB3H   LINE      CODE     ---       #2271
      01008FB5H   LINE      CODE     ---       #2272
      01008FBDH   LINE      CODE     ---       #2273
      01008FBDH   LINE      CODE     ---       #2274
      01008FC6H   LINE      CODE     ---       #2275
      01008FC6H   LINE      CODE     ---       #2276
      01008FD1H   LINE      CODE     ---       #2277
      01008FD3H   LINE      CODE     ---       #2279
      01008FD3H   LINE      CODE     ---       #2280
      01008FDEH   LINE      CODE     ---       #2281
      01008FDEH   LINE      CODE     ---       #2282
      01008FE5H   LINE      CODE     ---       #2283
      01008FE8H   LINE      CODE     ---       #2284
      01008FEDH   LINE      CODE     ---       #2285
      01008FEDH   LINE      CODE     ---       #2286
      01008FEDH   LINE      CODE     ---       #2287
      01008FEDH   LINE      CODE     ---       #2288
      01008FEDH   LINE      CODE     ---       #2289
      01008FEFH   LINE      CODE     ---       #2290
      01008FF7H   LINE      CODE     ---       #2291
      01008FF7H   LINE      CODE     ---       #2292
      01009000H   LINE      CODE     ---       #2293
      01009000H   LINE      CODE     ---       #2294
      0100900BH   LINE      CODE     ---       #2295
      0100900DH   LINE      CODE     ---       #2297
      0100900DH   LINE      CODE     ---       #2298
      01009018H   LINE      CODE     ---       #2299
      01009018H   LINE      CODE     ---       #2300
      0100901FH   LINE      CODE     ---       #2301
      01009022H   LINE      CODE     ---       #2302
      01009028H   LINE      CODE     ---       #2303
      01009042H   LINE      CODE     ---       #2304
      01009048H   LINE      CODE     ---       #2305
      0100904FH   LINE      CODE     ---       #2306
      01009054H   LINE      CODE     ---       #2307
      01009057H   LINE      CODE     ---       #2308
      0100905EH   LINE      CODE     ---       #2309
LX51 LINKER/LOCATER V4.66.87.0                                                        10/15/2020  10:36:21  PAGE 112


      0100905EH   LINE      CODE     ---       #2311
      01009065H   LINE      CODE     ---       #2312
      0100906BH   LINE      CODE     ---       #2313
      0100906EH   LINE      CODE     ---       #2314
      01009072H   LINE      CODE     ---       #2315
      01009074H   LINE      CODE     ---       #2324
      0100907FH   LINE      CODE     ---       #2325
      0100907FH   LINE      CODE     ---       #2326
      0100908BH   LINE      CODE     ---       #2327
      0100908BH   LINE      CODE     ---       #2328
      0100908DH   LINE      CODE     ---       #2329
      01009091H   LINE      CODE     ---       #2330
      01009097H   LINE      CODE     ---       #2331
      0100909AH   LINE      CODE     ---       #2333
      0100909AH   LINE      CODE     ---       #2334
      010090A1H   LINE      CODE     ---       #2335
      010090A1H   LINE      CODE     ---       #2336
      010090A6H   LINE      CODE     ---       #2337
      010090ABH   LINE      CODE     ---       #2338
      010090BAH   LINE      CODE     ---       #2339
      010090C7H   LINE      CODE     ---       #2340
      010090D4H   LINE      CODE     ---       #2341
      010090D6H   LINE      CODE     ---       #2343
      010090D6H   LINE      CODE     ---       #2344
      010090DCH   LINE      CODE     ---       #2345
      010090DCH   LINE      CODE     ---       #2346
      010090ECH   LINE      CODE     ---       #2347
      010090ECH   LINE      CODE     ---       #2348
      010090F0H   LINE      CODE     ---       #2349
      010090F0H   LINE      CODE     ---       #2350
      010090F2H   LINE      CODE     ---       #2352
      010090F2H   LINE      CODE     ---       #2353
      01009102H   LINE      CODE     ---       #2354
      01009102H   LINE      CODE     ---       #2355
      01009107H   LINE      CODE     ---       #2356
      0100910DH   LINE      CODE     ---       #2358
      01009113H   LINE      CODE     ---       #2359
      01009113H   LINE      CODE     ---       #2360
      01009113H   LINE      CODE     ---       #2361
      0100911DH   LINE      CODE     ---       #2362
      01009122H   LINE      CODE     ---       #2363
      01009122H   LINE      CODE     ---       #2364
      01009122H   LINE      CODE     ---       #2365
      01009122H   LINE      CODE     ---       #2366
      01009125H   LINE      CODE     ---       #2367
      01009125H   LINE      CODE     ---       #2368
      ---         BLOCKEND  ---      ---       LVL=0

      0100BD37H   BLOCK     CODE     ---       LVL=0
      0100BD37H   BLOCK     CODE     NEAR LAB  LVL=1
      0200945EH   SYMBOL    XDATA    ---       k_data
      ---         BLOCKEND  ---      ---       LVL=1
      0100BD37H   LINE      CODE     ---       #2370
      0100BD37H   LINE      CODE     ---       #2371
      0100BD37H   LINE      CODE     ---       #2374
      0100BD40H   LINE      CODE     ---       #2375
      0100BD4AH   LINE      CODE     ---       #2376
      0100BD4AH   LINE      CODE     ---       #2377
      0100BD4EH   LINE      CODE     ---       #2378
      0100BD4EH   LINE      CODE     ---       #2379
      0100BD5AH   LINE      CODE     ---       #2380
      0100BD5AH   LINE      CODE     ---       #2381
      0100BD5CH   LINE      CODE     ---       #2382
      0100BD60H   LINE      CODE     ---       #2383
      0100BD63H   LINE      CODE     ---       #2384
LX51 LINKER/LOCATER V4.66.87.0                                                        10/15/2020  10:36:21  PAGE 113


      0100BD65H   LINE      CODE     ---       #2386
      0100BD65H   LINE      CODE     ---       #2387
      0100BD6BH   LINE      CODE     ---       #2388
      0100BD6BH   LINE      CODE     ---       #2389
      0100BD7BH   LINE      CODE     ---       #2390
      0100BD7BH   LINE      CODE     ---       #2391
      0100BD7FH   LINE      CODE     ---       #2392
      0100BD7FH   LINE      CODE     ---       #2393
      0100BD81H   LINE      CODE     ---       #2395
      0100BD81H   LINE      CODE     ---       #2396
      0100BD91H   LINE      CODE     ---       #2397
      0100BD91H   LINE      CODE     ---       #2398
      0100BD96H   LINE      CODE     ---       #2399
      0100BD9CH   LINE      CODE     ---       #2401
      0100BDA2H   LINE      CODE     ---       #2402
      0100BDA2H   LINE      CODE     ---       #2403
      0100BDA2H   LINE      CODE     ---       #2404
      0100BDACH   LINE      CODE     ---       #2405
      0100BDACH   LINE      CODE     ---       #2406
      0100BDAEH   LINE      CODE     ---       #2407
      0100BDB5H   LINE      CODE     ---       #2408
      0100BDB5H   LINE      CODE     ---       #2409
      0100BDBAH   LINE      CODE     ---       #2410
      0100BDBFH   LINE      CODE     ---       #2411
      0100BDC4H   LINE      CODE     ---       #2412
      0100BDC8H   LINE      CODE     ---       #2413
      0100BDD3H   LINE      CODE     ---       #2414
      0100BDD3H   LINE      CODE     ---       #2415
      0100BDD6H   LINE      CODE     ---       #2416
      0100BDD6H   LINE      CODE     ---       #2417
      ---         BLOCKEND  ---      ---       LVL=0

      0100772EH   BLOCK     CODE     ---       LVL=0
      0100772EH   BLOCK     CODE     NEAR LAB  LVL=1
      0200945EH   SYMBOL    XDATA    ---       k_data
      0200947EH   SYMBOL    XDATA    ---       tmp
      00000006H   SYMBOL    DATA     WORD      address
      ---         BLOCKEND  ---      ---       LVL=1
      0100772EH   LINE      CODE     ---       #2419
      0100772EH   LINE      CODE     ---       #2420
      0100772EH   LINE      CODE     ---       #2425
      01007737H   LINE      CODE     ---       #2426
      01007741H   LINE      CODE     ---       #2427
      01007741H   LINE      CODE     ---       #2428
      01007745H   LINE      CODE     ---       #2429
      01007745H   LINE      CODE     ---       #2430
      01007749H   LINE      CODE     ---       #2431
      0100774CH   LINE      CODE     ---       #2432
      01007756H   LINE      CODE     ---       #2433
      0100775BH   LINE      CODE     ---       #2434
      0100775FH   LINE      CODE     ---       #2435
      01007761H   LINE      CODE     ---       #2436
      01007779H   LINE      CODE     ---       #2437
      0100777CH   LINE      CODE     ---       #2438
      01007787H   LINE      CODE     ---       #2439
      01007787H   LINE      CODE     ---       #2440
      010077A0H   LINE      CODE     ---       #2441
      010077A7H   LINE      CODE     ---       #2442
      010077A7H   LINE      CODE     ---       #2443
      010077AAH   LINE      CODE     ---       #2444
      010077C4H   LINE      CODE     ---       #2445
      010077CAH   LINE      CODE     ---       #2446
      010077D1H   LINE      CODE     ---       #2447
      010077D4H   LINE      CODE     ---       #2448
      010077EAH   LINE      CODE     ---       #2449
LX51 LINKER/LOCATER V4.66.87.0                                                        10/15/2020  10:36:21  PAGE 114


      010077EAH   LINE      CODE     ---       #2450
      010077EDH   LINE      CODE     ---       #2451
      01007807H   LINE      CODE     ---       #2452
      01007810H   LINE      CODE     ---       #2453
      01007810H   LINE      CODE     ---       #2454
      0100781BH   LINE      CODE     ---       #2455
      0100781DH   LINE      CODE     ---       #2457
      0100781DH   LINE      CODE     ---       #2458
      01007828H   LINE      CODE     ---       #2459
      01007828H   LINE      CODE     ---       #2460
      0100782CH   LINE      CODE     ---       #2461
      0100782CH   LINE      CODE     ---       #2462
      0100782CH   LINE      CODE     ---       #2463
      0100782FH   LINE      CODE     ---       #2464
      0100783BH   LINE      CODE     ---       #2465
      0100783BH   LINE      CODE     ---       #2466
      01007855H   LINE      CODE     ---       #2467
      01007865H   LINE      CODE     ---       #2468
      01007865H   LINE      CODE     ---       #2469
      01007879H   LINE      CODE     ---       #2470
      01007879H   LINE      CODE     ---       #2471
      01007882H   LINE      CODE     ---       #2472
      01007882H   LINE      CODE     ---       #2473
      0100788DH   LINE      CODE     ---       #2474
      0100788FH   LINE      CODE     ---       #2476
      0100788FH   LINE      CODE     ---       #2477
      0100789AH   LINE      CODE     ---       #2478
      0100789AH   LINE      CODE     ---       #2479
      010078A4H   LINE      CODE     ---       #2480
      010078BEH   LINE      CODE     ---       #2481
      010078C2H   LINE      CODE     ---       #2482
      010078C5H   LINE      CODE     ---       #2483
      010078CBH   LINE      CODE     ---       #2484
      010078D2H   LINE      CODE     ---       #2486
      010078D5H   LINE      CODE     ---       #2488
      010078D8H   LINE      CODE     ---       #2489
      010078D8H   LINE      CODE     ---       #2490
      010078D8H   LINE      CODE     ---       #2491
      010078D8H   LINE      CODE     ---       #2492
      010078DBH   LINE      CODE     ---       #2493
      010078DBH   LINE      CODE     ---       #2494
      010078E1H   LINE      CODE     ---       #2495
      010078E1H   LINE      CODE     ---       #2496
      010078E7H   LINE      CODE     ---       #2497
      010078E7H   LINE      CODE     ---       #2498
      010078F0H   LINE      CODE     ---       #2499
      010078F0H   LINE      CODE     ---       #2500
      010078F3H   LINE      CODE     ---       #2501
      010078F8H   LINE      CODE     ---       #2502
      010078FBH   LINE      CODE     ---       #2503
      01007904H   LINE      CODE     ---       #2504
      01007906H   LINE      CODE     ---       #2506
      01007906H   LINE      CODE     ---       #2507
      0100790BH   LINE      CODE     ---       #2508
      0100790DH   LINE      CODE     ---       #2509
      01007916H   LINE      CODE     ---       #2510
      01007916H   LINE      CODE     ---       #2512
      01007916H   LINE      CODE     ---       #2513
      01007918H   LINE      CODE     ---       #2515
      01007918H   LINE      CODE     ---       #2516
      0100791DH   LINE      CODE     ---       #2517
      01007921H   LINE      CODE     ---       #2518
      01007924H   LINE      CODE     ---       #2519
      0100793DH   LINE      CODE     ---       #2520
      0100793DH   LINE      CODE     ---       #2521
LX51 LINKER/LOCATER V4.66.87.0                                                        10/15/2020  10:36:21  PAGE 115


      ---         BLOCKEND  ---      ---       LVL=0

      0100CB70H   BLOCK     CODE     ---       LVL=0
      0100CB70H   BLOCK     CODE     NEAR LAB  LVL=1
      0200945EH   SYMBOL    XDATA    ---       k_data
      ---         BLOCKEND  ---      ---       LVL=1
      0100CB70H   LINE      CODE     ---       #2523
      0100CB70H   LINE      CODE     ---       #2524
      0100CB70H   LINE      CODE     ---       #2527
      0100CB79H   LINE      CODE     ---       #2528
      0100CB7FH   LINE      CODE     ---       #2529
      0100CB7FH   LINE      CODE     ---       #2530
      0100CB84H   LINE      CODE     ---       #2531
      0100CB88H   LINE      CODE     ---       #2532
      0100CB8BH   LINE      CODE     ---       #2533
      0100CB8DH   LINE      CODE     ---       #2534
      0100CBA0H   LINE      CODE     ---       #2535
      0100CBA6H   LINE      CODE     ---       #2536
      0100CBADH   LINE      CODE     ---       #2537
      0100CBB0H   LINE      CODE     ---       #2538
      0100CBB5H   LINE      CODE     ---       #2539
      0100CBB5H   LINE      CODE     ---       #2540
      ---         BLOCKEND  ---      ---       LVL=0

      01003963H   BLOCK     CODE     ---       LVL=0
      01003963H   BLOCK     CODE     NEAR LAB  LVL=1
      0200945EH   SYMBOL    XDATA    ---       k_data
      0200949EH   SYMBOL    XDATA    BYTE      page_next
      0200949FH   SYMBOL    XDATA    BYTE      uplimit
      020094A0H   SYMBOL    XDATA    BYTE      lowlimit
      ---         BLOCKEND  ---      ---       LVL=1
      01003963H   LINE      CODE     ---       #2542
      01003963H   LINE      CODE     ---       #2543
      01003963H   LINE      CODE     ---       #2548
      0100396CH   LINE      CODE     ---       #2549
      01003976H   LINE      CODE     ---       #2550
      01003976H   LINE      CODE     ---       #2551
      0100397DH   LINE      CODE     ---       #2552
      0100397DH   LINE      CODE     ---       #2553
      01003990H   LINE      CODE     ---       #2554
      01003998H   LINE      CODE     ---       #2555
      010039A0H   LINE      CODE     ---       #2556
      010039A8H   LINE      CODE     ---       #2557
      010039B0H   LINE      CODE     ---       #2558
      010039B8H   LINE      CODE     ---       #2559
      010039C0H   LINE      CODE     ---       #2560
      010039C8H   LINE      CODE     ---       #2561
      010039D0H   LINE      CODE     ---       #2562
      010039D8H   LINE      CODE     ---       #2563
      010039E0H   LINE      CODE     ---       #2564
      010039FAH   LINE      CODE     ---       #2565
      01003A03H   LINE      CODE     ---       #2566
      01003A0CH   LINE      CODE     ---       #2567
      01003A0CH   LINE      CODE     ---       #2568
      01003A0FH   LINE      CODE     ---       #2569
      01003A11H   LINE      CODE     ---       #2570
      01003A14H   LINE      CODE     ---       #2571
      01003A1FH   LINE      CODE     ---       #2572
      01003A1FH   LINE      CODE     ---       #2573
      01003A2CH   LINE      CODE     ---       #2574
      01003A2CH   LINE      CODE     ---       #2575
      01003A31H   LINE      CODE     ---       #2576
      01003A35H   LINE      CODE     ---       #2577
      01003A4EH   LINE      CODE     ---       #2578
      01003A53H   LINE      CODE     ---       #2579
LX51 LINKER/LOCATER V4.66.87.0                                                        10/15/2020  10:36:21  PAGE 116


      01003A6BH   LINE      CODE     ---       #2580
      01003A85H   LINE      CODE     ---       #2581
      01003A8DH   LINE      CODE     ---       #2582
      01003A95H   LINE      CODE     ---       #2583
      01003A9DH   LINE      CODE     ---       #2584
      01003AA5H   LINE      CODE     ---       #2585
      01003AADH   LINE      CODE     ---       #2586
      01003AB5H   LINE      CODE     ---       #2587
      01003ABDH   LINE      CODE     ---       #2588
      01003AC5H   LINE      CODE     ---       #2589
      01003ACDH   LINE      CODE     ---       #2590
      01003AD5H   LINE      CODE     ---       #2591
      01003AEFH   LINE      CODE     ---       #2592
      01003AF6H   LINE      CODE     ---       #2593
      01003AFBH   LINE      CODE     ---       #2594
      01003AFFH   LINE      CODE     ---       #2595
      01003B0AH   LINE      CODE     ---       #2596
      01003B0AH   LINE      CODE     ---       #2597
      01003B0DH   LINE      CODE     ---       #2598
      01003B15H   LINE      CODE     ---       #2599
      01003B15H   LINE      CODE     ---       #2600
      01003B2EH   LINE      CODE     ---       #2601
      01003B3BH   LINE      CODE     ---       #2602
      01003B3BH   LINE      CODE     ---       #2603
      01003B42H   LINE      CODE     ---       #2604
      01003B42H   LINE      CODE     ---       #2605
      01003B48H   LINE      CODE     ---       #2606
      01003B4AH   LINE      CODE     ---       #2607
      01003B56H   LINE      CODE     ---       #2608
      01003B56H   LINE      CODE     ---       #2609
      01003B65H   LINE      CODE     ---       #2610
      01003B68H   LINE      CODE     ---       #2611
      01003B6AH   LINE      CODE     ---       #2612
      01003B75H   LINE      CODE     ---       #2613
      01003B75H   LINE      CODE     ---       #2614
      01003B7BH   LINE      CODE     ---       #2615
      01003B7BH   LINE      CODE     ---       #2616
      01003B80H   LINE      CODE     ---       #2617
      01003B80H   LINE      CODE     ---       #2618
      01003B83H   LINE      CODE     ---       #2619
      01003B8BH   LINE      CODE     ---       #2620
      01003B8BH   LINE      CODE     ---       #2621
      01003BA4H   LINE      CODE     ---       #2622
      01003BADH   LINE      CODE     ---       #2623
      01003BADH   LINE      CODE     ---       #2624
      01003BAFH   LINE      CODE     ---       #2625
      01003BB2H   LINE      CODE     ---       #2626
      01003BBEH   LINE      CODE     ---       #2627
      01003BBEH   LINE      CODE     ---       #2628
      01003BC0H   LINE      CODE     ---       #2629
      01003BC0H   LINE      CODE     ---       #2630
      01003BC3H   LINE      CODE     ---       #2631
      01003BCAH   LINE      CODE     ---       #2632
      01003BCAH   LINE      CODE     ---       #2633
      01003BE4H   LINE      CODE     ---       #2634
      01003BF1H   LINE      CODE     ---       #2635
      01003BF1H   LINE      CODE     ---       #2636
      01003BF1H   LINE      CODE     ---       #2637
      01003BFAH   LINE      CODE     ---       #2638
      01003BFAH   LINE      CODE     ---       #2639
      01003BFCH   LINE      CODE     ---       #2640
      01003BFCH   LINE      CODE     ---       #2641
      01003BFFH   LINE      CODE     ---       #2642
      01003C07H   LINE      CODE     ---       #2643
      01003C07H   LINE      CODE     ---       #2644
LX51 LINKER/LOCATER V4.66.87.0                                                        10/15/2020  10:36:21  PAGE 117


      01003C20H   LINE      CODE     ---       #2645
      01003C29H   LINE      CODE     ---       #2646
      01003C29H   LINE      CODE     ---       #2647
      01003C2BH   LINE      CODE     ---       #2648
      01003C2EH   LINE      CODE     ---       #2649
      01003C3AH   LINE      CODE     ---       #2650
      01003C3AH   LINE      CODE     ---       #2651
      01003C3CH   LINE      CODE     ---       #2652
      01003C3CH   LINE      CODE     ---       #2653
      01003C3FH   LINE      CODE     ---       #2654
      01003C47H   LINE      CODE     ---       #2655
      01003C47H   LINE      CODE     ---       #2656
      01003C60H   LINE      CODE     ---       #2657
      01003C65H   LINE      CODE     ---       #2658
      01003C67H   LINE      CODE     ---       #2659
      01003C80H   LINE      CODE     ---       #2660
      01003C82H   LINE      CODE     ---       #2661
      01003C84H   LINE      CODE     ---       #2662
      01003C8CH   LINE      CODE     ---       #2663
      01003C8CH   LINE      CODE     ---       #2664
      01003CA5H   LINE      CODE     ---       #2665
      01003CAAH   LINE      CODE     ---       #2666
      01003CACH   LINE      CODE     ---       #2667
      01003CC5H   LINE      CODE     ---       #2668
      01003CCCH   LINE      CODE     ---       #2669
      01003CCFH   LINE      CODE     ---       #2683
      01003CDAH   LINE      CODE     ---       #2684
      01003CDAH   LINE      CODE     ---       #2685
      01003CE0H   LINE      CODE     ---       #2687
      01003CE6H   LINE      CODE     ---       #2688
      01003CE6H   LINE      CODE     ---       #2689
      01003CEAH   LINE      CODE     ---       #2690
      01003D03H   LINE      CODE     ---       #2691
      01003D10H   LINE      CODE     ---       #2692
      01003D10H   LINE      CODE     ---       #2693
      01003D13H   LINE      CODE     ---       #2694
      01003D2CH   LINE      CODE     ---       #2695
      01003D2CH   LINE      CODE     ---       #2696
      01003D2CH   LINE      CODE     ---       #2697
      01003D32H   LINE      CODE     ---       #2698
      01003D3BH   LINE      CODE     ---       #2699
      01003D3BH   LINE      CODE     ---       #2700
      01003D41H   LINE      CODE     ---       #2701
      01003D49H   LINE      CODE     ---       #2702
      01003D49H   LINE      CODE     ---       #2703
      01003D4BH   LINE      CODE     ---       #2704
      01003D64H   LINE      CODE     ---       #2705
      01003D74H   LINE      CODE     ---       #2706
      01003D74H   LINE      CODE     ---       #2707
      01003D76H   LINE      CODE     ---       #2708
      01003D76H   LINE      CODE     ---       #2709
      01003D76H   LINE      CODE     ---       #2710
      01003D76H   LINE      CODE     ---       #2711
      01003D76H   LINE      CODE     ---       #2712
      01003D79H   LINE      CODE     ---       #2726
      01003D84H   LINE      CODE     ---       #2727
      01003D84H   LINE      CODE     ---       #2729
      01003D89H   LINE      CODE     ---       #2730
      01003D8FH   LINE      CODE     ---       #2731
      01003D8FH   LINE      CODE     ---       #2732
      01003D93H   LINE      CODE     ---       #2733
      01003DACH   LINE      CODE     ---       #2734
      01003DB9H   LINE      CODE     ---       #2735
      01003DB9H   LINE      CODE     ---       #2736
      01003DBCH   LINE      CODE     ---       #2737
LX51 LINKER/LOCATER V4.66.87.0                                                        10/15/2020  10:36:21  PAGE 118


      01003DD5H   LINE      CODE     ---       #2738
      01003DD5H   LINE      CODE     ---       #2739
      01003DD5H   LINE      CODE     ---       #2740
      01003DDBH   LINE      CODE     ---       #2741
      01003DE4H   LINE      CODE     ---       #2742
      01003DE4H   LINE      CODE     ---       #2743
      01003DEAH   LINE      CODE     ---       #2744
      01003DEFH   LINE      CODE     ---       #2745
      01003DEFH   LINE      CODE     ---       #2746
      01003DF1H   LINE      CODE     ---       #2747
      01003DF7H   LINE      CODE     ---       #2748
      01003DFBH   LINE      CODE     ---       #2749
      01003E14H   LINE      CODE     ---       #2750
      01003E21H   LINE      CODE     ---       #2751
      01003E21H   LINE      CODE     ---       #2752
      01003E24H   LINE      CODE     ---       #2753
      01003E3DH   LINE      CODE     ---       #2754
      01003E3DH   LINE      CODE     ---       #2755
      01003E3DH   LINE      CODE     ---       #2756
      01003E3DH   LINE      CODE     ---       #2757
      01003E3FH   LINE      CODE     ---       #2758
      01003E46H   LINE      CODE     ---       #2759
      01003E46H   LINE      CODE     ---       #2760
      01003E49H   LINE      CODE     ---       #2761
      01003E4BH   LINE      CODE     ---       #2762
      01003E52H   LINE      CODE     ---       #2763
      01003E52H   LINE      CODE     ---       #2764
      01003E55H   LINE      CODE     ---       #2765
      01003E57H   LINE      CODE     ---       #2766
      01003E5EH   LINE      CODE     ---       #2767
      01003E5EH   LINE      CODE     ---       #2768
      01003E63H   LINE      CODE     ---       #2769
      01003E66H   LINE      CODE     ---       #2770
      01003E66H   LINE      CODE     ---       #2771
      01003E69H   LINE      CODE     ---       #2772
      01003E69H   LINE      CODE     ---       #2774
      01003E69H   LINE      CODE     ---       #2775
      01003E6EH   LINE      CODE     ---       #2776
      01003E72H   LINE      CODE     ---       #2777
      01003E72H   LINE      CODE     ---       #2778
      ---         BLOCKEND  ---      ---       LVL=0

      0100AECDH   BLOCK     CODE     ---       LVL=0
      0100AECDH   BLOCK     CODE     NEAR LAB  LVL=1
      0200945EH   SYMBOL    XDATA    ---       k_data
      ---         BLOCKEND  ---      ---       LVL=1
      0100AECDH   LINE      CODE     ---       #2780
      0100AECDH   LINE      CODE     ---       #2781
      0100AECDH   LINE      CODE     ---       #2784
      0100AED6H   LINE      CODE     ---       #2785
      0100AEE0H   LINE      CODE     ---       #2786
      0100AEE0H   LINE      CODE     ---       #2787
      0100AEE4H   LINE      CODE     ---       #2788
      0100AEE4H   LINE      CODE     ---       #2789
      0100AEF4H   LINE      CODE     ---       #2790
      0100AEF9H   LINE      CODE     ---       #2792
      0100AF01H   LINE      CODE     ---       #2793
      0100AF03H   LINE      CODE     ---       #2794
      0100AF0AH   LINE      CODE     ---       #2795
      0100AF0AH   LINE      CODE     ---       #2796
      0100AF0DH   LINE      CODE     ---       #2797
      0100AF10H   LINE      CODE     ---       #2798
      0100AF17H   LINE      CODE     ---       #2799
      0100AF17H   LINE      CODE     ---       #2800
      0100AF1AH   LINE      CODE     ---       #2801
LX51 LINKER/LOCATER V4.66.87.0                                                        10/15/2020  10:36:21  PAGE 119


      0100AF1DH   LINE      CODE     ---       #2802
      0100AF24H   LINE      CODE     ---       #2803
      0100AF24H   LINE      CODE     ---       #2804
      0100AF27H   LINE      CODE     ---       #2805
      0100AF2AH   LINE      CODE     ---       #2806
      0100AF32H   LINE      CODE     ---       #2807
      0100AF32H   LINE      CODE     ---       #2808
      0100AF3BH   LINE      CODE     ---       #2809
      0100AF44H   LINE      CODE     ---       #2810
      0100AF44H   LINE      CODE     ---       #2811
      0100AF47H   LINE      CODE     ---       #2812
      0100AF4EH   LINE      CODE     ---       #2813
      0100AF50H   LINE      CODE     ---       #2814
      0100AF58H   LINE      CODE     ---       #2815
      0100AF58H   LINE      CODE     ---       #2816
      0100AF5CH   LINE      CODE     ---       #2817
      0100AF60H   LINE      CODE     ---       #2818
      0100AF79H   LINE      CODE     ---       #2819
      0100AF7EH   LINE      CODE     ---       #2820
      0100AF96H   LINE      CODE     ---       #2821
      0100AF9DH   LINE      CODE     ---       #2822
      0100AFA2H   LINE      CODE     ---       #2823
      0100AFA6H   LINE      CODE     ---       #2824
      0100AFB1H   LINE      CODE     ---       #2825
      0100AFB1H   LINE      CODE     ---       #2826
      0100AFB4H   LINE      CODE     ---       #2827
      0100AFB4H   LINE      CODE     ---       #2828
      ---         BLOCKEND  ---      ---       LVL=0

      010026E6H   BLOCK     CODE     ---       LVL=0
      010026E6H   BLOCK     CODE     NEAR LAB  LVL=1
      0200945EH   SYMBOL    XDATA    ---       k_data
      0200949EH   SYMBOL    XDATA    BYTE      page_next
      0200949FH   SYMBOL    XDATA    BYTE      uplimit
      020094A0H   SYMBOL    XDATA    BYTE      lowlimit
      ---         BLOCKEND  ---      ---       LVL=1
      010026E6H   LINE      CODE     ---       #2830
      010026E6H   LINE      CODE     ---       #2831
      010026E6H   LINE      CODE     ---       #2836
      010026EFH   LINE      CODE     ---       #2837
      010026F9H   LINE      CODE     ---       #2838
      010026F9H   LINE      CODE     ---       #2840
      010026FDH   LINE      CODE     ---       #2841
      010026FDH   LINE      CODE     ---       #2842
      01002710H   LINE      CODE     ---       #2843
      0100271BH   LINE      CODE     ---       #2844
      0100271BH   LINE      CODE     ---       #2845
      01002724H   LINE      CODE     ---       #2846
      01002729H   LINE      CODE     ---       #2848
      0100272BH   LINE      CODE     ---       #2849
      0100272EH   LINE      CODE     ---       #2851
      0100272EH   LINE      CODE     ---       #2852
      0100273FH   LINE      CODE     ---       #2853
      0100273FH   LINE      CODE     ---       #2854
      01002748H   LINE      CODE     ---       #2855
      0100274CH   LINE      CODE     ---       #2857
      0100274EH   LINE      CODE     ---       #2858
      01002751H   LINE      CODE     ---       #2860
      01002751H   LINE      CODE     ---       #2861
      0100275AH   LINE      CODE     ---       #2862
      0100275EH   LINE      CODE     ---       #2864
      01002760H   LINE      CODE     ---       #2865
      01002760H   LINE      CODE     ---       #2866
      01002760H   LINE      CODE     ---       #2867
      01002763H   LINE      CODE     ---       #2868
LX51 LINKER/LOCATER V4.66.87.0                                                        10/15/2020  10:36:21  PAGE 120


      0100276BH   LINE      CODE     ---       #2869
      0100276BH   LINE      CODE     ---       #2870
      01002784H   LINE      CODE     ---       #2871
      0100278DH   LINE      CODE     ---       #2872
      01002791H   LINE      CODE     ---       #2874
      01002793H   LINE      CODE     ---       #2875
      01002796H   LINE      CODE     ---       #2876
      010027A1H   LINE      CODE     ---       #2877
      010027A1H   LINE      CODE     ---       #2878
      010027BAH   LINE      CODE     ---       #2879
      010027C2H   LINE      CODE     ---       #2880
      010027CAH   LINE      CODE     ---       #2881
      010027D2H   LINE      CODE     ---       #2882
      010027DAH   LINE      CODE     ---       #2883
      010027E2H   LINE      CODE     ---       #2884
      010027EAH   LINE      CODE     ---       #2885
      010027F2H   LINE      CODE     ---       #2886
      010027FAH   LINE      CODE     ---       #2887
      01002802H   LINE      CODE     ---       #2888
      0100280AH   LINE      CODE     ---       #2889
      01002824H   LINE      CODE     ---       #2890
      0100282DH   LINE      CODE     ---       #2891
      01002836H   LINE      CODE     ---       #2892
      01002836H   LINE      CODE     ---       #2893
      01002839H   LINE      CODE     ---       #2894
      0100283BH   LINE      CODE     ---       #2895
      0100283EH   LINE      CODE     ---       #2896
      01002849H   LINE      CODE     ---       #2897
      01002849H   LINE      CODE     ---       #2898
      01002856H   LINE      CODE     ---       #2899
      01002856H   LINE      CODE     ---       #2900
      0100285BH   LINE      CODE     ---       #2901
      0100285FH   LINE      CODE     ---       #2902
      01002878H   LINE      CODE     ---       #2903
      0100287DH   LINE      CODE     ---       #2904
      01002895H   LINE      CODE     ---       #2905
      010028AFH   LINE      CODE     ---       #2906
      010028B7H   LINE      CODE     ---       #2907
      010028BFH   LINE      CODE     ---       #2908
      010028C7H   LINE      CODE     ---       #2909
      010028CFH   LINE      CODE     ---       #2910
      010028D7H   LINE      CODE     ---       #2911
      010028DFH   LINE      CODE     ---       #2912
      010028E7H   LINE      CODE     ---       #2913
      010028EFH   LINE      CODE     ---       #2914
      010028F7H   LINE      CODE     ---       #2915
      010028FFH   LINE      CODE     ---       #2916
      01002919H   LINE      CODE     ---       #2917
      01002920H   LINE      CODE     ---       #2918
      01002925H   LINE      CODE     ---       #2919
      01002929H   LINE      CODE     ---       #2920
      01002934H   LINE      CODE     ---       #2921
      01002934H   LINE      CODE     ---       #2922
      01002937H   LINE      CODE     ---       #2923
      0100293FH   LINE      CODE     ---       #2924
      0100293FH   LINE      CODE     ---       #2925
      01002958H   LINE      CODE     ---       #2926
      01002965H   LINE      CODE     ---       #2927
      01002965H   LINE      CODE     ---       #2928
      0100296CH   LINE      CODE     ---       #2929
      0100296CH   LINE      CODE     ---       #2930
      01002972H   LINE      CODE     ---       #2931
      01002974H   LINE      CODE     ---       #2932
      01002980H   LINE      CODE     ---       #2933
      01002980H   LINE      CODE     ---       #2934
LX51 LINKER/LOCATER V4.66.87.0                                                        10/15/2020  10:36:21  PAGE 121


      0100298FH   LINE      CODE     ---       #2935
      01002992H   LINE      CODE     ---       #2936
      01002994H   LINE      CODE     ---       #2937
      0100299FH   LINE      CODE     ---       #2938
      0100299FH   LINE      CODE     ---       #2939
      010029A5H   LINE      CODE     ---       #2940
      010029A5H   LINE      CODE     ---       #2941
      010029AAH   LINE      CODE     ---       #2942
      010029AAH   LINE      CODE     ---       #2943
      010029ADH   LINE      CODE     ---       #2944
      010029B5H   LINE      CODE     ---       #2945
      010029B5H   LINE      CODE     ---       #2946
      010029CEH   LINE      CODE     ---       #2947
      010029D7H   LINE      CODE     ---       #2948
      010029D7H   LINE      CODE     ---       #2949
      010029D9H   LINE      CODE     ---       #2950
      010029DCH   LINE      CODE     ---       #2951
      010029E8H   LINE      CODE     ---       #2952
      010029E8H   LINE      CODE     ---       #2953
      010029EAH   LINE      CODE     ---       #2954
      010029EAH   LINE      CODE     ---       #2955
      010029EDH   LINE      CODE     ---       #2956
      010029F4H   LINE      CODE     ---       #2957
      010029F4H   LINE      CODE     ---       #2958
      01002A0EH   LINE      CODE     ---       #2959
      01002A1BH   LINE      CODE     ---       #2960
      01002A1BH   LINE      CODE     ---       #2961
      01002A1BH   LINE      CODE     ---       #2962
      01002A24H   LINE      CODE     ---       #2963
      01002A24H   LINE      CODE     ---       #2964
      01002A26H   LINE      CODE     ---       #2965
      01002A26H   LINE      CODE     ---       #2966
      01002A29H   LINE      CODE     ---       #2980
      01002A34H   LINE      CODE     ---       #2981
      01002A34H   LINE      CODE     ---       #2982
      01002A4CH   LINE      CODE     ---       #2983
      01002A60H   LINE      CODE     ---       #2984
      01002A66H   LINE      CODE     ---       #2985
      01002A66H   LINE      CODE     ---       #2986
      01002A6AH   LINE      CODE     ---       #2987
      01002A83H   LINE      CODE     ---       #2988
      01002A90H   LINE      CODE     ---       #2989
      01002A90H   LINE      CODE     ---       #2990
      01002A93H   LINE      CODE     ---       #2991
      01002AACH   LINE      CODE     ---       #2992
      01002AACH   LINE      CODE     ---       #2993
      01002AACH   LINE      CODE     ---       #2994
      01002AB2H   LINE      CODE     ---       #2995
      01002ABBH   LINE      CODE     ---       #2996
      01002ABBH   LINE      CODE     ---       #2997
      01002AC1H   LINE      CODE     ---       #2998
      01002AC9H   LINE      CODE     ---       #2999
      01002AC9H   LINE      CODE     ---       #3000
      01002ACBH   LINE      CODE     ---       #3001
      01002AE4H   LINE      CODE     ---       #3002
      01002AF4H   LINE      CODE     ---       #3003
      01002AF4H   LINE      CODE     ---       #3004
      01002AF6H   LINE      CODE     ---       #3005
      01002AF6H   LINE      CODE     ---       #3006
      01002AF6H   LINE      CODE     ---       #3007
      01002AF6H   LINE      CODE     ---       #3008
      01002AF6H   LINE      CODE     ---       #3009
      01002AF9H   LINE      CODE     ---       #3023
      01002B04H   LINE      CODE     ---       #3024
      01002B04H   LINE      CODE     ---       #3025
LX51 LINKER/LOCATER V4.66.87.0                                                        10/15/2020  10:36:21  PAGE 122


      01002B1CH   LINE      CODE     ---       #3026
      01002B30H   LINE      CODE     ---       #3027
      01002B36H   LINE      CODE     ---       #3028
      01002B36H   LINE      CODE     ---       #3029
      01002B3AH   LINE      CODE     ---       #3030
      01002B53H   LINE      CODE     ---       #3031
      01002B60H   LINE      CODE     ---       #3032
      01002B60H   LINE      CODE     ---       #3033
      01002B63H   LINE      CODE     ---       #3034
      01002B7CH   LINE      CODE     ---       #3035
      01002B7CH   LINE      CODE     ---       #3036
      01002B7CH   LINE      CODE     ---       #3037
      01002B82H   LINE      CODE     ---       #3038
      01002B8BH   LINE      CODE     ---       #3039
      01002B8BH   LINE      CODE     ---       #3040
      01002B91H   LINE      CODE     ---       #3041
      01002B99H   LINE      CODE     ---       #3042
      01002B99H   LINE      CODE     ---       #3043
      01002B9BH   LINE      CODE     ---       #3044
      01002BB4H   LINE      CODE     ---       #3045
      01002BC4H   LINE      CODE     ---       #3046
      01002BC4H   LINE      CODE     ---       #3047
      01002BC7H   LINE      CODE     ---       #3048
      01002BD7H   LINE      CODE     ---       #3049
      01002BD7H   LINE      CODE     ---       #3050
      01002BD7H   LINE      CODE     ---       #3051
      01002BD7H   LINE      CODE     ---       #3052
      01002BDAH   LINE      CODE     ---       #3053
      01002BE6H   LINE      CODE     ---       #3054
      01002BE6H   LINE      CODE     ---       #3055
      01002C00H   LINE      CODE     ---       #3056
      01002C1DH   LINE      CODE     ---       #3057
      01002C1DH   LINE      CODE     ---       #3058
      01002C35H   LINE      CODE     ---       #3059
      01002C41H   LINE      CODE     ---       #3060
      01002C43H   LINE      CODE     ---       #3061
      01002C56H   LINE      CODE     ---       #3062
      01002C56H   LINE      CODE     ---       #3063
      01002C6EH   LINE      CODE     ---       #3064
      01002C82H   LINE      CODE     ---       #3065
      01002C84H   LINE      CODE     ---       #3067
      01002C84H   LINE      CODE     ---       #3068
      01002C8AH   LINE      CODE     ---       #3069
      01002C8DH   LINE      CODE     ---       #3070
      01002C8DH   LINE      CODE     ---       #3082
      01002C98H   LINE      CODE     ---       #3083
      01002C98H   LINE      CODE     ---       #3084
      01002C9EH   LINE      CODE     ---       #3085
      01002C9EH   LINE      CODE     ---       #3086
      01002CA2H   LINE      CODE     ---       #3087
      01002CBBH   LINE      CODE     ---       #3088
      01002CC8H   LINE      CODE     ---       #3089
      01002CC8H   LINE      CODE     ---       #3090
      01002CCBH   LINE      CODE     ---       #3091
      01002CE4H   LINE      CODE     ---       #3092
      01002CE4H   LINE      CODE     ---       #3093
      01002CE4H   LINE      CODE     ---       #3094
      01002CEAH   LINE      CODE     ---       #3095
      01002CF3H   LINE      CODE     ---       #3096
      01002CF3H   LINE      CODE     ---       #3097
      01002CF9H   LINE      CODE     ---       #3098
      01002D01H   LINE      CODE     ---       #3099
      01002D01H   LINE      CODE     ---       #3100
      01002D03H   LINE      CODE     ---       #3101
      01002D1CH   LINE      CODE     ---       #3102
LX51 LINKER/LOCATER V4.66.87.0                                                        10/15/2020  10:36:21  PAGE 123


      01002D2CH   LINE      CODE     ---       #3103
      01002D2CH   LINE      CODE     ---       #3104
      01002D2FH   LINE      CODE     ---       #3105
      01002D3FH   LINE      CODE     ---       #3106
      01002D3FH   LINE      CODE     ---       #3107
      01002D3FH   LINE      CODE     ---       #3108
      01002D3FH   LINE      CODE     ---       #3109
      01002D42H   LINE      CODE     ---       #3121
      01002D4DH   LINE      CODE     ---       #3122
      01002D4DH   LINE      CODE     ---       #3123
      01002D53H   LINE      CODE     ---       #3124
      01002D53H   LINE      CODE     ---       #3125
      01002D57H   LINE      CODE     ---       #3126
      01002D70H   LINE      CODE     ---       #3127
      01002D7DH   LINE      CODE     ---       #3128
      01002D7DH   LINE      CODE     ---       #3129
      01002D80H   LINE      CODE     ---       #3130
      01002D99H   LINE      CODE     ---       #3131
      01002D99H   LINE      CODE     ---       #3132
      01002D99H   LINE      CODE     ---       #3133
      01002D9FH   LINE      CODE     ---       #3134
      01002DA8H   LINE      CODE     ---       #3135
      01002DA8H   LINE      CODE     ---       #3136
      01002DAEH   LINE      CODE     ---       #3137
      01002DB6H   LINE      CODE     ---       #3138
      01002DB6H   LINE      CODE     ---       #3139
      01002DB8H   LINE      CODE     ---       #3140
      01002DD1H   LINE      CODE     ---       #3141
      01002DE1H   LINE      CODE     ---       #3142
      01002DE1H   LINE      CODE     ---       #3143
      01002DE4H   LINE      CODE     ---       #3144
      01002DFDH   LINE      CODE     ---       #3145
      01002DFDH   LINE      CODE     ---       #3146
      01002DFDH   LINE      CODE     ---       #3147
      01002DFDH   LINE      CODE     ---       #3148
      01002DFDH   LINE      CODE     ---       #3149
      01002DFFH   LINE      CODE     ---       #3150
      01002E07H   LINE      CODE     ---       #3151
      01002E07H   LINE      CODE     ---       #3152
      01002E20H   LINE      CODE     ---       #3153
      01002E29H   LINE      CODE     ---       #3154
      01002E29H   LINE      CODE     ---       #3155
      01002E2BH   LINE      CODE     ---       #3156
      01002E2DH   LINE      CODE     ---       #3157
      01002E36H   LINE      CODE     ---       #3158
      01002E36H   LINE      CODE     ---       #3159
      01002E3DH   LINE      CODE     ---       #3160
      01002E3DH   LINE      CODE     ---       #3161
      01002E3FH   LINE      CODE     ---       #3162
      01002E46H   LINE      CODE     ---       #3163
      01002E46H   LINE      CODE     ---       #3164
      01002E49H   LINE      CODE     ---       #3165
      01002E4BH   LINE      CODE     ---       #3166
      01002E52H   LINE      CODE     ---       #3167
      01002E52H   LINE      CODE     ---       #3168
      01002E55H   LINE      CODE     ---       #3169
      01002E57H   LINE      CODE     ---       #3170
      01002E5EH   LINE      CODE     ---       #3171
      01002E5EH   LINE      CODE     ---       #3172
      01002E63H   LINE      CODE     ---       #3173
      01002E66H   LINE      CODE     ---       #3174
      01002E66H   LINE      CODE     ---       #3175
      01002E69H   LINE      CODE     ---       #3176
      01002E6BH   LINE      CODE     ---       #3178
      01002E6BH   LINE      CODE     ---       #3179
LX51 LINKER/LOCATER V4.66.87.0                                                        10/15/2020  10:36:21  PAGE 124


      01002E70H   LINE      CODE     ---       #3180
      01002E74H   LINE      CODE     ---       #3181
      01002E78H   LINE      CODE     ---       #3182
      01002E7CH   LINE      CODE     ---       #3183
      01002E7CH   LINE      CODE     ---       #3184
      ---         BLOCKEND  ---      ---       LVL=0

      01002E7FH   BLOCK     CODE     ---       LVL=0
      01002E7FH   BLOCK     CODE     NEAR LAB  LVL=1
      0200945EH   SYMBOL    XDATA    ---       k_data
      0200949EH   SYMBOL    XDATA    BYTE      page_next
      0200949FH   SYMBOL    XDATA    BYTE      uplimit
      020094A0H   SYMBOL    XDATA    BYTE      lowlimit
      ---         BLOCKEND  ---      ---       LVL=1
      01002E7FH   LINE      CODE     ---       #3188
      01002E7FH   LINE      CODE     ---       #3189
      01002E7FH   LINE      CODE     ---       #3194
      01002E88H   LINE      CODE     ---       #3195
      01002E92H   LINE      CODE     ---       #3196
      01002E92H   LINE      CODE     ---       #3197
      01002E99H   LINE      CODE     ---       #3198
      01002E99H   LINE      CODE     ---       #3199
      01002EACH   LINE      CODE     ---       #3200
      01002EB4H   LINE      CODE     ---       #3201
      01002EBCH   LINE      CODE     ---       #3202
      01002EC4H   LINE      CODE     ---       #3203
      01002ECCH   LINE      CODE     ---       #3204
      01002ED4H   LINE      CODE     ---       #3205
      01002EDCH   LINE      CODE     ---       #3206
      01002EE4H   LINE      CODE     ---       #3207
      01002EECH   LINE      CODE     ---       #3208
      01002EF4H   LINE      CODE     ---       #3209
      01002EFCH   LINE      CODE     ---       #3210
      01002F16H   LINE      CODE     ---       #3211
      01002F1FH   LINE      CODE     ---       #3212
      01002F28H   LINE      CODE     ---       #3213
      01002F28H   LINE      CODE     ---       #3214
      01002F2BH   LINE      CODE     ---       #3215
      01002F2DH   LINE      CODE     ---       #3216
      01002F30H   LINE      CODE     ---       #3217
      01002F3BH   LINE      CODE     ---       #3218
      01002F3BH   LINE      CODE     ---       #3219
      01002F48H   LINE      CODE     ---       #3220
      01002F48H   LINE      CODE     ---       #3221
      01002F4DH   LINE      CODE     ---       #3222
      01002F51H   LINE      CODE     ---       #3223
      01002F6AH   LINE      CODE     ---       #3224
      01002F6FH   LINE      CODE     ---       #3225
      01002F87H   LINE      CODE     ---       #3226
      01002FA1H   LINE      CODE     ---       #3227
      01002FA9H   LINE      CODE     ---       #3228
      01002FB1H   LINE      CODE     ---       #3229
      01002FB9H   LINE      CODE     ---       #3230
      01002FC1H   LINE      CODE     ---       #3231
      01002FC9H   LINE      CODE     ---       #3232
      01002FD1H   LINE      CODE     ---       #3233
      01002FD9H   LINE      CODE     ---       #3234
      01002FE1H   LINE      CODE     ---       #3235
      01002FE9H   LINE      CODE     ---       #3236
      01002FF1H   LINE      CODE     ---       #3237
      0100300BH   LINE      CODE     ---       #3238
      01003012H   LINE      CODE     ---       #3239
      01003017H   LINE      CODE     ---       #3240
      0100301BH   LINE      CODE     ---       #3241
      01003026H   LINE      CODE     ---       #3242
LX51 LINKER/LOCATER V4.66.87.0                                                        10/15/2020  10:36:21  PAGE 125


      01003026H   LINE      CODE     ---       #3243
      01003029H   LINE      CODE     ---       #3244
      01003031H   LINE      CODE     ---       #3245
      01003031H   LINE      CODE     ---       #3246
      0100304AH   LINE      CODE     ---       #3247
      0100304FH   LINE      CODE     ---       #3248
      01003051H   LINE      CODE     ---       #3249
      0100306AH   LINE      CODE     ---       #3250
      01003084H   LINE      CODE     ---       #3251
      0100308DH   LINE      CODE     ---       #3252
      01003091H   LINE      CODE     ---       #3254
      01003093H   LINE      CODE     ---       #3255
      01003096H   LINE      CODE     ---       #3256
      0100309EH   LINE      CODE     ---       #3257
      0100309EH   LINE      CODE     ---       #3258
      010030B7H   LINE      CODE     ---       #3259
      010030BCH   LINE      CODE     ---       #3260
      010030BEH   LINE      CODE     ---       #3261
      010030D7H   LINE      CODE     ---       #3262
      010030F1H   LINE      CODE     ---       #3263
      010030FAH   LINE      CODE     ---       #3264
      010030FEH   LINE      CODE     ---       #3266
      01003100H   LINE      CODE     ---       #3267
      01003103H   LINE      CODE     ---       #3268
      0100310BH   LINE      CODE     ---       #3269
      0100310BH   LINE      CODE     ---       #3270
      01003124H   LINE      CODE     ---       #3271
      01003131H   LINE      CODE     ---       #3272
      01003131H   LINE      CODE     ---       #3273
      01003138H   LINE      CODE     ---       #3274
      01003138H   LINE      CODE     ---       #3275
      0100313EH   LINE      CODE     ---       #3276
      01003140H   LINE      CODE     ---       #3277
      0100314CH   LINE      CODE     ---       #3278
      0100314CH   LINE      CODE     ---       #3279
      0100315BH   LINE      CODE     ---       #3280
      0100315EH   LINE      CODE     ---       #3281
      01003160H   LINE      CODE     ---       #3282
      0100316BH   LINE      CODE     ---       #3283
      0100316BH   LINE      CODE     ---       #3284
      01003171H   LINE      CODE     ---       #3285
      01003171H   LINE      CODE     ---       #3286
      01003176H   LINE      CODE     ---       #3287
      01003176H   LINE      CODE     ---       #3288
      01003179H   LINE      CODE     ---       #3289
      01003181H   LINE      CODE     ---       #3290
      01003181H   LINE      CODE     ---       #3291
      0100319AH   LINE      CODE     ---       #3292
      010031A3H   LINE      CODE     ---       #3293
      010031A3H   LINE      CODE     ---       #3294
      010031A5H   LINE      CODE     ---       #3295
      010031A8H   LINE      CODE     ---       #3296
      010031B4H   LINE      CODE     ---       #3297
      010031B4H   LINE      CODE     ---       #3298
      010031B6H   LINE      CODE     ---       #3299
      010031B6H   LINE      CODE     ---       #3300
      010031B8H   LINE      CODE     ---       #3301
      010031BFH   LINE      CODE     ---       #3302
      010031BFH   LINE      CODE     ---       #3303
      010031D9H   LINE      CODE     ---       #3304
      010031E6H   LINE      CODE     ---       #3305
      010031E6H   LINE      CODE     ---       #3306
      010031E6H   LINE      CODE     ---       #3307
      010031EFH   LINE      CODE     ---       #3308
      010031EFH   LINE      CODE     ---       #3309
LX51 LINKER/LOCATER V4.66.87.0                                                        10/15/2020  10:36:21  PAGE 126


      010031F1H   LINE      CODE     ---       #3310
      010031F1H   LINE      CODE     ---       #3311
      010031F3H   LINE      CODE     ---       #3312
      010031FBH   LINE      CODE     ---       #3313
      010031FBH   LINE      CODE     ---       #3314
      01003214H   LINE      CODE     ---       #3315
      0100321DH   LINE      CODE     ---       #3316
      0100321DH   LINE      CODE     ---       #3317
      0100321FH   LINE      CODE     ---       #3318
      01003221H   LINE      CODE     ---       #3319
      0100322DH   LINE      CODE     ---       #3320
      0100322DH   LINE      CODE     ---       #3321
      01003234H   LINE      CODE     ---       #3322
      01003234H   LINE      CODE     ---       #3323
      01003237H   LINE      CODE     ---       #3337
      01003242H   LINE      CODE     ---       #3338
      01003242H   LINE      CODE     ---       #3339
      01003257H   LINE      CODE     ---       #3341
      0100325DH   LINE      CODE     ---       #3342
      0100325DH   LINE      CODE     ---       #3343
      01003261H   LINE      CODE     ---       #3344
      0100327AH   LINE      CODE     ---       #3345
      01003287H   LINE      CODE     ---       #3346
      01003287H   LINE      CODE     ---       #3347
      0100328BH   LINE      CODE     ---       #3348
      010032A4H   LINE      CODE     ---       #3349
      010032A4H   LINE      CODE     ---       #3350
      010032A4H   LINE      CODE     ---       #3351
      010032AAH   LINE      CODE     ---       #3352
      010032B3H   LINE      CODE     ---       #3353
      010032B3H   LINE      CODE     ---       #3354
      010032B9H   LINE      CODE     ---       #3355
      010032C1H   LINE      CODE     ---       #3356
      010032C1H   LINE      CODE     ---       #3357
      010032C3H   LINE      CODE     ---       #3358
      010032DCH   LINE      CODE     ---       #3359
      010032ECH   LINE      CODE     ---       #3360
      010032ECH   LINE      CODE     ---       #3361
      010032EFH   LINE      CODE     ---       #3362
      010032EFH   LINE      CODE     ---       #3363
      010032EFH   LINE      CODE     ---       #3364
      010032EFH   LINE      CODE     ---       #3365
      010032EFH   LINE      CODE     ---       #3366
      010032F2H   LINE      CODE     ---       #3380
      010032FDH   LINE      CODE     ---       #3381
      010032FDH   LINE      CODE     ---       #3383
      01003312H   LINE      CODE     ---       #3384
      01003318H   LINE      CODE     ---       #3385
      01003318H   LINE      CODE     ---       #3386
      0100331CH   LINE      CODE     ---       #3387
      01003335H   LINE      CODE     ---       #3388
      01003342H   LINE      CODE     ---       #3389
      01003342H   LINE      CODE     ---       #3390
      01003346H   LINE      CODE     ---       #3391
      0100335FH   LINE      CODE     ---       #3392
      0100335FH   LINE      CODE     ---       #3393
      0100335FH   LINE      CODE     ---       #3394
      01003365H   LINE      CODE     ---       #3395
      0100336BH   LINE      CODE     ---       #3396
      0100336BH   LINE      CODE     ---       #3397
      01003371H   LINE      CODE     ---       #3398
      01003376H   LINE      CODE     ---       #3399
      01003376H   LINE      CODE     ---       #3400
      01003378H   LINE      CODE     ---       #3401
      01003391H   LINE      CODE     ---       #3402
LX51 LINKER/LOCATER V4.66.87.0                                                        10/15/2020  10:36:21  PAGE 127


      0100339EH   LINE      CODE     ---       #3403
      0100339EH   LINE      CODE     ---       #3404
      010033A2H   LINE      CODE     ---       #3405
      010033BBH   LINE      CODE     ---       #3406
      010033BBH   LINE      CODE     ---       #3407
      010033BBH   LINE      CODE     ---       #3408
      010033BBH   LINE      CODE     ---       #3409
      010033BDH   LINE      CODE     ---       #3410
      010033C4H   LINE      CODE     ---       #3411
      010033C4H   LINE      CODE     ---       #3412
      010033C7H   LINE      CODE     ---       #3413
      010033C9H   LINE      CODE     ---       #3414
      010033D0H   LINE      CODE     ---       #3415
      010033D0H   LINE      CODE     ---       #3416
      010033D3H   LINE      CODE     ---       #3417
      010033D5H   LINE      CODE     ---       #3418
      010033DCH   LINE      CODE     ---       #3419
      010033DCH   LINE      CODE     ---       #3420
      010033E1H   LINE      CODE     ---       #3421
      010033E4H   LINE      CODE     ---       #3422
      010033E4H   LINE      CODE     ---       #3423
      010033E7H   LINE      CODE     ---       #3424
      010033E7H   LINE      CODE     ---       #3426
      010033E7H   LINE      CODE     ---       #3427
      010033ECH   LINE      CODE     ---       #3428
      010033F0H   LINE      CODE     ---       #3429
      010033F0H   LINE      CODE     ---       #3430
      ---         BLOCKEND  ---      ---       LVL=0

      010033F1H   BLOCK     CODE     ---       LVL=0
      010033F1H   BLOCK     CODE     NEAR LAB  LVL=1
      0200945EH   SYMBOL    XDATA    ---       k_data
      0200949EH   SYMBOL    XDATA    BYTE      page_next
      0200949FH   SYMBOL    XDATA    BYTE      uplimit
      020094A0H   SYMBOL    XDATA    BYTE      lowlimit
      ---         BLOCKEND  ---      ---       LVL=1
      010033F1H   LINE      CODE     ---       #3432
      010033F1H   LINE      CODE     ---       #3433
      010033F1H   LINE      CODE     ---       #3438
      010033FAH   LINE      CODE     ---       #3439
      01003404H   LINE      CODE     ---       #3440
      01003404H   LINE      CODE     ---       #3441
      0100340BH   LINE      CODE     ---       #3442
      0100340BH   LINE      CODE     ---       #3443
      0100341EH   LINE      CODE     ---       #3444
      01003426H   LINE      CODE     ---       #3445
      0100342EH   LINE      CODE     ---       #3446
      01003436H   LINE      CODE     ---       #3447
      0100343EH   LINE      CODE     ---       #3448
      01003446H   LINE      CODE     ---       #3449
      0100344EH   LINE      CODE     ---       #3450
      01003456H   LINE      CODE     ---       #3451
      0100345EH   LINE      CODE     ---       #3452
      01003466H   LINE      CODE     ---       #3453
      0100346EH   LINE      CODE     ---       #3454
      01003488H   LINE      CODE     ---       #3455
      01003491H   LINE      CODE     ---       #3456
      0100349AH   LINE      CODE     ---       #3457
      0100349AH   LINE      CODE     ---       #3458
      0100349DH   LINE      CODE     ---       #3459
      0100349FH   LINE      CODE     ---       #3460
      010034A2H   LINE      CODE     ---       #3461
      010034ADH   LINE      CODE     ---       #3462
      010034ADH   LINE      CODE     ---       #3463
      010034BAH   LINE      CODE     ---       #3464
LX51 LINKER/LOCATER V4.66.87.0                                                        10/15/2020  10:36:21  PAGE 128


      010034BAH   LINE      CODE     ---       #3465
      010034BFH   LINE      CODE     ---       #3466
      010034C3H   LINE      CODE     ---       #3467
      010034DCH   LINE      CODE     ---       #3468
      010034E1H   LINE      CODE     ---       #3469
      010034F9H   LINE      CODE     ---       #3470
      01003513H   LINE      CODE     ---       #3471
      0100351BH   LINE      CODE     ---       #3472
      01003523H   LINE      CODE     ---       #3473
      0100352BH   LINE      CODE     ---       #3474
      01003533H   LINE      CODE     ---       #3475
      0100353BH   LINE      CODE     ---       #3476
      01003543H   LINE      CODE     ---       #3477
      0100354BH   LINE      CODE     ---       #3478
      01003553H   LINE      CODE     ---       #3479
      0100355BH   LINE      CODE     ---       #3480
      01003563H   LINE      CODE     ---       #3481
      0100357DH   LINE      CODE     ---       #3482
      01003584H   LINE      CODE     ---       #3483
      01003589H   LINE      CODE     ---       #3484
      0100358DH   LINE      CODE     ---       #3485
      01003598H   LINE      CODE     ---       #3486
      01003598H   LINE      CODE     ---       #3487
      0100359BH   LINE      CODE     ---       #3488
      010035A3H   LINE      CODE     ---       #3489
      010035A3H   LINE      CODE     ---       #3490
      010035BCH   LINE      CODE     ---       #3491
      010035C9H   LINE      CODE     ---       #3492
      010035C9H   LINE      CODE     ---       #3493
      010035D0H   LINE      CODE     ---       #3494
      010035D0H   LINE      CODE     ---       #3495
      010035D6H   LINE      CODE     ---       #3496
      010035D8H   LINE      CODE     ---       #3497
      010035E4H   LINE      CODE     ---       #3498
      010035E4H   LINE      CODE     ---       #3499
      010035F3H   LINE      CODE     ---       #3500
      010035F6H   LINE      CODE     ---       #3501
      010035F8H   LINE      CODE     ---       #3502
      01003603H   LINE      CODE     ---       #3503
      01003603H   LINE      CODE     ---       #3504
      01003609H   LINE      CODE     ---       #3505
      01003609H   LINE      CODE     ---       #3506
      0100360EH   LINE      CODE     ---       #3507
      0100360EH   LINE      CODE     ---       #3508
      01003611H   LINE      CODE     ---       #3509
      01003619H   LINE      CODE     ---       #3510
      01003619H   LINE      CODE     ---       #3511
      01003632H   LINE      CODE     ---       #3512
      01003637H   LINE      CODE     ---       #3513
      01003639H   LINE      CODE     ---       #3514
      01003652H   LINE      CODE     ---       #3515
      0100366CH   LINE      CODE     ---       #3516
      01003675H   LINE      CODE     ---       #3517
      01003679H   LINE      CODE     ---       #3519
      0100367BH   LINE      CODE     ---       #3520
      0100367EH   LINE      CODE     ---       #3521
      01003686H   LINE      CODE     ---       #3522
      01003686H   LINE      CODE     ---       #3523
      0100369FH   LINE      CODE     ---       #3524
      010036A4H   LINE      CODE     ---       #3525
      010036A6H   LINE      CODE     ---       #3526
      010036BFH   LINE      CODE     ---       #3527
      010036D9H   LINE      CODE     ---       #3528
      010036E2H   LINE      CODE     ---       #3529
      010036E6H   LINE      CODE     ---       #3531
LX51 LINKER/LOCATER V4.66.87.0                                                        10/15/2020  10:36:21  PAGE 129


      010036E8H   LINE      CODE     ---       #3532
      010036EBH   LINE      CODE     ---       #3533
      010036F3H   LINE      CODE     ---       #3534
      010036F3H   LINE      CODE     ---       #3535
      0100370CH   LINE      CODE     ---       #3536
      01003715H   LINE      CODE     ---       #3537
      01003715H   LINE      CODE     ---       #3538
      01003717H   LINE      CODE     ---       #3539
      0100371AH   LINE      CODE     ---       #3540
      01003726H   LINE      CODE     ---       #3541
      01003726H   LINE      CODE     ---       #3542
      01003728H   LINE      CODE     ---       #3543
      01003728H   LINE      CODE     ---       #3544
      0100372AH   LINE      CODE     ---       #3545
      01003731H   LINE      CODE     ---       #3546
      01003731H   LINE      CODE     ---       #3547
      0100374BH   LINE      CODE     ---       #3548
      01003758H   LINE      CODE     ---       #3549
      01003758H   LINE      CODE     ---       #3550
      01003758H   LINE      CODE     ---       #3551
      01003761H   LINE      CODE     ---       #3552
      01003761H   LINE      CODE     ---       #3553
      01003763H   LINE      CODE     ---       #3554
      01003763H   LINE      CODE     ---       #3555
      01003765H   LINE      CODE     ---       #3556
      0100376DH   LINE      CODE     ---       #3557
      0100376DH   LINE      CODE     ---       #3558
      01003786H   LINE      CODE     ---       #3559
      0100378FH   LINE      CODE     ---       #3560
      0100378FH   LINE      CODE     ---       #3561
      01003791H   LINE      CODE     ---       #3562
      01003793H   LINE      CODE     ---       #3563
      0100379FH   LINE      CODE     ---       #3564
      0100379FH   LINE      CODE     ---       #3565
      010037A6H   LINE      CODE     ---       #3566
      010037A6H   LINE      CODE     ---       #3567
      010037A9H   LINE      CODE     ---       #3581
      010037B4H   LINE      CODE     ---       #3582
      010037B4H   LINE      CODE     ---       #3583
      010037C9H   LINE      CODE     ---       #3585
      010037CFH   LINE      CODE     ---       #3586
      010037CFH   LINE      CODE     ---       #3587
      010037D3H   LINE      CODE     ---       #3588
      010037ECH   LINE      CODE     ---       #3589
      010037F9H   LINE      CODE     ---       #3590
      010037F9H   LINE      CODE     ---       #3591
      010037FDH   LINE      CODE     ---       #3592
      01003816H   LINE      CODE     ---       #3593
      01003816H   LINE      CODE     ---       #3594
      01003816H   LINE      CODE     ---       #3595
      0100381CH   LINE      CODE     ---       #3596
      01003825H   LINE      CODE     ---       #3597
      01003825H   LINE      CODE     ---       #3598
      0100382BH   LINE      CODE     ---       #3599
      01003833H   LINE      CODE     ---       #3600
      01003833H   LINE      CODE     ---       #3601
      01003835H   LINE      CODE     ---       #3602
      0100384EH   LINE      CODE     ---       #3603
      0100385EH   LINE      CODE     ---       #3604
      0100385EH   LINE      CODE     ---       #3605
      01003861H   LINE      CODE     ---       #3606
      01003861H   LINE      CODE     ---       #3607
      01003861H   LINE      CODE     ---       #3608
      01003861H   LINE      CODE     ---       #3609
      01003861H   LINE      CODE     ---       #3610
LX51 LINKER/LOCATER V4.66.87.0                                                        10/15/2020  10:36:21  PAGE 130


      01003864H   LINE      CODE     ---       #3624
      0100386FH   LINE      CODE     ---       #3625
      0100386FH   LINE      CODE     ---       #3627
      01003884H   LINE      CODE     ---       #3628
      0100388AH   LINE      CODE     ---       #3629
      0100388AH   LINE      CODE     ---       #3630
      0100388EH   LINE      CODE     ---       #3631
      010038A7H   LINE      CODE     ---       #3632
      010038B4H   LINE      CODE     ---       #3633
      010038B4H   LINE      CODE     ---       #3634
      010038B8H   LINE      CODE     ---       #3635
      010038D1H   LINE      CODE     ---       #3636
      010038D1H   LINE      CODE     ---       #3637
      010038D1H   LINE      CODE     ---       #3638
      010038D7H   LINE      CODE     ---       #3639
      010038DDH   LINE      CODE     ---       #3640
      010038DDH   LINE      CODE     ---       #3641
      010038E3H   LINE      CODE     ---       #3642
      010038E8H   LINE      CODE     ---       #3643
      010038E8H   LINE      CODE     ---       #3644
      010038EAH   LINE      CODE     ---       #3645
      01003903H   LINE      CODE     ---       #3646
      01003910H   LINE      CODE     ---       #3647
      01003910H   LINE      CODE     ---       #3648
      01003914H   LINE      CODE     ---       #3649
      0100392DH   LINE      CODE     ---       #3650
      0100392DH   LINE      CODE     ---       #3651
      0100392DH   LINE      CODE     ---       #3652
      0100392DH   LINE      CODE     ---       #3653
      0100392FH   LINE      CODE     ---       #3654
      01003936H   LINE      CODE     ---       #3655
      01003936H   LINE      CODE     ---       #3656
      01003939H   LINE      CODE     ---       #3657
      0100393BH   LINE      CODE     ---       #3658
      01003942H   LINE      CODE     ---       #3659
      01003942H   LINE      CODE     ---       #3660
      01003945H   LINE      CODE     ---       #3661
      01003947H   LINE      CODE     ---       #3662
      0100394EH   LINE      CODE     ---       #3663
      0100394EH   LINE      CODE     ---       #3664
      01003953H   LINE      CODE     ---       #3665
      01003956H   LINE      CODE     ---       #3666
      01003956H   LINE      CODE     ---       #3667
      01003959H   LINE      CODE     ---       #3668
      01003959H   LINE      CODE     ---       #3670
      01003959H   LINE      CODE     ---       #3671
      0100395EH   LINE      CODE     ---       #3672
      01003962H   LINE      CODE     ---       #3673
      01003962H   LINE      CODE     ---       #3674
      ---         BLOCKEND  ---      ---       LVL=0

      01003E73H   BLOCK     CODE     ---       LVL=0
      01003E73H   BLOCK     CODE     NEAR LAB  LVL=1
      0200945EH   SYMBOL    XDATA    ---       k_data
      0200949EH   SYMBOL    XDATA    BYTE      page_next
      0200949FH   SYMBOL    XDATA    BYTE      uplimit
      020094A0H   SYMBOL    XDATA    BYTE      lowlimit
      ---         BLOCKEND  ---      ---       LVL=1
      01003E73H   LINE      CODE     ---       #3676
      01003E73H   LINE      CODE     ---       #3677
      01003E73H   LINE      CODE     ---       #3682
      01003E7CH   LINE      CODE     ---       #3683
      01003E86H   LINE      CODE     ---       #3684
      01003E86H   LINE      CODE     ---       #3685
      01003E8AH   LINE      CODE     ---       #3686
LX51 LINKER/LOCATER V4.66.87.0                                                        10/15/2020  10:36:21  PAGE 131


      01003E8AH   LINE      CODE     ---       #3687
      01003E95H   LINE      CODE     ---       #3688
      01003E9AH   LINE      CODE     ---       #3690
      01003E9AH   LINE      CODE     ---       #3691
      01003EABH   LINE      CODE     ---       #3692
      01003EB0H   LINE      CODE     ---       #3694
      01003EB2H   LINE      CODE     ---       #3695
      01003EB2H   LINE      CODE     ---       #3696
      01003EB5H   LINE      CODE     ---       #3697
      01003EC0H   LINE      CODE     ---       #3698
      01003EC0H   LINE      CODE     ---       #3699
      01003ED9H   LINE      CODE     ---       #3700
      01003EE1H   LINE      CODE     ---       #3701
      01003EE9H   LINE      CODE     ---       #3702
      01003EF1H   LINE      CODE     ---       #3703
      01003EF9H   LINE      CODE     ---       #3704
      01003F01H   LINE      CODE     ---       #3705
      01003F09H   LINE      CODE     ---       #3706
      01003F11H   LINE      CODE     ---       #3707
      01003F19H   LINE      CODE     ---       #3708
      01003F21H   LINE      CODE     ---       #3709
      01003F29H   LINE      CODE     ---       #3710
      01003F43H   LINE      CODE     ---       #3711
      01003F4CH   LINE      CODE     ---       #3712
      01003F55H   LINE      CODE     ---       #3713
      01003F55H   LINE      CODE     ---       #3714
      01003F58H   LINE      CODE     ---       #3715
      01003F5AH   LINE      CODE     ---       #3716
      01003F5DH   LINE      CODE     ---       #3717
      01003F64H   LINE      CODE     ---       #3718
      01003F64H   LINE      CODE     ---       #3719
      01003F66H   LINE      CODE     ---       #3720
      01003F69H   LINE      CODE     ---       #3721
      01003F74H   LINE      CODE     ---       #3722
      01003F74H   LINE      CODE     ---       #3723
      01003F81H   LINE      CODE     ---       #3724
      01003F81H   LINE      CODE     ---       #3725
      01003F86H   LINE      CODE     ---       #3726
      01003F8AH   LINE      CODE     ---       #3727
      01003FA3H   LINE      CODE     ---       #3728
      01003FA8H   LINE      CODE     ---       #3729
      01003FC0H   LINE      CODE     ---       #3730
      01003FDAH   LINE      CODE     ---       #3731
      01003FE2H   LINE      CODE     ---       #3732
      01003FEAH   LINE      CODE     ---       #3733
      01003FF2H   LINE      CODE     ---       #3734
      01003FFAH   LINE      CODE     ---       #3735
      01004002H   LINE      CODE     ---       #3736
      0100400AH   LINE      CODE     ---       #3737
      01004012H   LINE      CODE     ---       #3738
      0100401AH   LINE      CODE     ---       #3739
      01004022H   LINE      CODE     ---       #3740
      0100402AH   LINE      CODE     ---       #3741
      01004044H   LINE      CODE     ---       #3742
      0100404BH   LINE      CODE     ---       #3743
      01004050H   LINE      CODE     ---       #3744
      01004054H   LINE      CODE     ---       #3745
      0100405FH   LINE      CODE     ---       #3746
      0100405FH   LINE      CODE     ---       #3747
      01004062H   LINE      CODE     ---       #3748
      0100406AH   LINE      CODE     ---       #3749
      0100406AH   LINE      CODE     ---       #3750
      01004083H   LINE      CODE     ---       #3751
      01004090H   LINE      CODE     ---       #3752
      01004090H   LINE      CODE     ---       #3753
LX51 LINKER/LOCATER V4.66.87.0                                                        10/15/2020  10:36:21  PAGE 132


      01004097H   LINE      CODE     ---       #3754
      01004097H   LINE      CODE     ---       #3755
      0100409DH   LINE      CODE     ---       #3756
      0100409FH   LINE      CODE     ---       #3757
      010040ABH   LINE      CODE     ---       #3758
      010040ABH   LINE      CODE     ---       #3759
      010040BAH   LINE      CODE     ---       #3760
      010040BDH   LINE      CODE     ---       #3761
      010040BFH   LINE      CODE     ---       #3762
      010040CAH   LINE      CODE     ---       #3763
      010040CAH   LINE      CODE     ---       #3764
      010040D0H   LINE      CODE     ---       #3765
      010040D0H   LINE      CODE     ---       #3766
      010040D5H   LINE      CODE     ---       #3767
      010040D5H   LINE      CODE     ---       #3768
      010040D8H   LINE      CODE     ---       #3769
      010040E0H   LINE      CODE     ---       #3770
      010040E0H   LINE      CODE     ---       #3771
      010040F9H   LINE      CODE     ---       #3772
      01004102H   LINE      CODE     ---       #3773
      01004102H   LINE      CODE     ---       #3774
      01004104H   LINE      CODE     ---       #3775
      01004107H   LINE      CODE     ---       #3776
      01004113H   LINE      CODE     ---       #3777
      01004113H   LINE      CODE     ---       #3778
      01004115H   LINE      CODE     ---       #3779
      01004115H   LINE      CODE     ---       #3780
      01004117H   LINE      CODE     ---       #3781
      0100411EH   LINE      CODE     ---       #3782
      0100411EH   LINE      CODE     ---       #3783
      01004138H   LINE      CODE     ---       #3784
      01004145H   LINE      CODE     ---       #3785
      01004145H   LINE      CODE     ---       #3786
      01004145H   LINE      CODE     ---       #3787
      0100414EH   LINE      CODE     ---       #3788
      0100414EH   LINE      CODE     ---       #3789
      01004150H   LINE      CODE     ---       #3790
      01004150H   LINE      CODE     ---       #3791
      01004152H   LINE      CODE     ---       #3792
      0100415AH   LINE      CODE     ---       #3793
      0100415AH   LINE      CODE     ---       #3794
      01004173H   LINE      CODE     ---       #3795
      0100417CH   LINE      CODE     ---       #3796
      0100417CH   LINE      CODE     ---       #3797
      0100417EH   LINE      CODE     ---       #3798
      01004180H   LINE      CODE     ---       #3799
      0100418CH   LINE      CODE     ---       #3800
      0100418CH   LINE      CODE     ---       #3801
      01004193H   LINE      CODE     ---       #3802
      01004193H   LINE      CODE     ---       #3803
      01004196H   LINE      CODE     ---       #3817
      010041A1H   LINE      CODE     ---       #3818
      010041A1H   LINE      CODE     ---       #3819
      010041A7H   LINE      CODE     ---       #3821
      010041ADH   LINE      CODE     ---       #3822
      010041ADH   LINE      CODE     ---       #3823
      010041B1H   LINE      CODE     ---       #3824
      010041CAH   LINE      CODE     ---       #3825
      010041D7H   LINE      CODE     ---       #3826
      010041D7H   LINE      CODE     ---       #3827
      010041DAH   LINE      CODE     ---       #3828
      010041F3H   LINE      CODE     ---       #3829
      010041F3H   LINE      CODE     ---       #3830
      010041F3H   LINE      CODE     ---       #3831
      010041F9H   LINE      CODE     ---       #3832
LX51 LINKER/LOCATER V4.66.87.0                                                        10/15/2020  10:36:21  PAGE 133


      01004202H   LINE      CODE     ---       #3833
      01004202H   LINE      CODE     ---       #3834
      01004208H   LINE      CODE     ---       #3835
      01004210H   LINE      CODE     ---       #3836
      01004210H   LINE      CODE     ---       #3837
      01004212H   LINE      CODE     ---       #3838
      0100422BH   LINE      CODE     ---       #3839
      0100423BH   LINE      CODE     ---       #3840
      0100423BH   LINE      CODE     ---       #3841
      0100423DH   LINE      CODE     ---       #3842
      0100423DH   LINE      CODE     ---       #3843
      0100423DH   LINE      CODE     ---       #3844
      0100423DH   LINE      CODE     ---       #3845
      0100423DH   LINE      CODE     ---       #3846
      01004240H   LINE      CODE     ---       #3860
      0100424BH   LINE      CODE     ---       #3861
      0100424BH   LINE      CODE     ---       #3863
      0100424FH   LINE      CODE     ---       #3864
      01004255H   LINE      CODE     ---       #3865
      01004255H   LINE      CODE     ---       #3866
      01004259H   LINE      CODE     ---       #3867
      01004272H   LINE      CODE     ---       #3868
      0100427FH   LINE      CODE     ---       #3869
      0100427FH   LINE      CODE     ---       #3870
      01004282H   LINE      CODE     ---       #3871
      0100429BH   LINE      CODE     ---       #3872
      0100429BH   LINE      CODE     ---       #3873
      0100429BH   LINE      CODE     ---       #3874
      010042A1H   LINE      CODE     ---       #3875
      010042A7H   LINE      CODE     ---       #3876
      010042A7H   LINE      CODE     ---       #3877
      010042ADH   LINE      CODE     ---       #3878
      010042B2H   LINE      CODE     ---       #3879
      010042B2H   LINE      CODE     ---       #3880
      010042B4H   LINE      CODE     ---       #3881
      010042CDH   LINE      CODE     ---       #3882
      010042DAH   LINE      CODE     ---       #3883
      010042DAH   LINE      CODE     ---       #3884
      010042DDH   LINE      CODE     ---       #3885
      010042F6H   LINE      CODE     ---       #3886
      010042F6H   LINE      CODE     ---       #3887
      010042F6H   LINE      CODE     ---       #3888
      010042F6H   LINE      CODE     ---       #3889
      010042F8H   LINE      CODE     ---       #3890
      010042FFH   LINE      CODE     ---       #3891
      010042FFH   LINE      CODE     ---       #3892
      01004302H   LINE      CODE     ---       #3893
      01004304H   LINE      CODE     ---       #3894
      0100430BH   LINE      CODE     ---       #3895
      0100430BH   LINE      CODE     ---       #3896
      0100430EH   LINE      CODE     ---       #3897
      01004310H   LINE      CODE     ---       #3898
      01004317H   LINE      CODE     ---       #3899
      01004317H   LINE      CODE     ---       #3900
      0100431CH   LINE      CODE     ---       #3901
      0100431FH   LINE      CODE     ---       #3902
      0100431FH   LINE      CODE     ---       #3903
      01004322H   LINE      CODE     ---       #3904
      01004322H   LINE      CODE     ---       #3906
      01004322H   LINE      CODE     ---       #3907
      01004327H   LINE      CODE     ---       #3908
      0100432BH   LINE      CODE     ---       #3909
      0100432BH   LINE      CODE     ---       #3910
      ---         BLOCKEND  ---      ---       LVL=0

LX51 LINKER/LOCATER V4.66.87.0                                                        10/15/2020  10:36:21  PAGE 134


      0100C3A1H   BLOCK     CODE     ---       LVL=0
      0100C3A1H   BLOCK     CODE     NEAR LAB  LVL=1
      02009471H   SYMBOL    XDATA    ---       k_data
      ---         BLOCKEND  ---      ---       LVL=1
      0100C3A1H   LINE      CODE     ---       #3912
      0100C3A1H   LINE      CODE     ---       #3913
      0100C3A1H   LINE      CODE     ---       #3916
      0100C3BBH   LINE      CODE     ---       #3917
      0100C3C5H   LINE      CODE     ---       #3918
      0100C3C5H   LINE      CODE     ---       #3919
      0100C3C8H   LINE      CODE     ---       #3920
      0100C3CAH   LINE      CODE     ---       #3921
      0100C3D4H   LINE      CODE     ---       #3922
      0100C3D4H   LINE      CODE     ---       #3923
      0100C3DBH   LINE      CODE     ---       #3924
      0100C3DDH   LINE      CODE     ---       #3926
      0100C3DDH   LINE      CODE     ---       #3927
      0100C3EFH   LINE      CODE     ---       #3928
      0100C3EFH   LINE      CODE     ---       #3929
      0100C3EFH   LINE      CODE     ---       #3930
      0100C3F3H   LINE      CODE     ---       #3931
      0100C3F5H   LINE      CODE     ---       #3932
      0100C3F5H   LINE      CODE     ---       #3933
      0100C3FFH   LINE      CODE     ---       #3934
      0100C403H   LINE      CODE     ---       #3936
      0100C407H   LINE      CODE     ---       #3937
      0100C409H   LINE      CODE     ---       #3938
      0100C409H   LINE      CODE     ---       #3939
      0100C410H   LINE      CODE     ---       #3940
      0100C410H   LINE      CODE     ---       #3941
      0100C410H   LINE      CODE     ---       #3942
      0100C410H   LINE      CODE     ---       #3943
      0100C410H   LINE      CODE     ---       #3944
      0100C410H   LINE      CODE     ---       #3945
      ---         BLOCKEND  ---      ---       LVL=0

      01001528H   BLOCK     CODE     ---       LVL=0
      01001528H   BLOCK     CODE     NEAR LAB  LVL=1
      0200945EH   SYMBOL    XDATA    ---       k_data
      0200946EH   SYMBOL    XDATA    BYTE      tmp8
      0200946FH   SYMBOL    XDATA    WORD      setpara
      ---         BLOCKEND  ---      ---       LVL=1
      01001528H   LINE      CODE     ---       #3947
      01001528H   LINE      CODE     ---       #3948
      01001528H   LINE      CODE     ---       #3969
      01001531H   LINE      CODE     ---       #3970
      01001531H   LINE      CODE     ---       #3971
      01001531H   LINE      CODE     ---       #3972
      01001534H   LINE      CODE     ---       #3973
      0100154DH   LINE      CODE     ---       #3974
      01001559H   LINE      CODE     ---       #3975
      01001559H   LINE      CODE     ---       #3976
      01001561H   LINE      CODE     ---       #3977
      01001564H   LINE      CODE     ---       #3978
      01001564H   LINE      CODE     ---       #3979
      01001564H   LINE      CODE     ---       #3980
      01001566H   LINE      CODE     ---       #3982
      01001566H   LINE      CODE     ---       #3983
      01001574H   LINE      CODE     ---       #3984
      01001574H   LINE      CODE     ---       #3985
      0100157CH   LINE      CODE     ---       #3986
      01001584H   LINE      CODE     ---       #3987
      01001587H   LINE      CODE     ---       #3988
      01001589H   LINE      CODE     ---       #3989
      0100158BH   LINE      CODE     ---       #3991
LX51 LINKER/LOCATER V4.66.87.0                                                        10/15/2020  10:36:21  PAGE 135


      0100158BH   LINE      CODE     ---       #3992
      01001593H   LINE      CODE     ---       #3993
      0100159BH   LINE      CODE     ---       #3994
      0100159EH   LINE      CODE     ---       #3995
      010015A6H   LINE      CODE     ---       #3996
      010015A6H   LINE      CODE     ---       #3997
      010015A6H   LINE      CODE     ---       #3998
      010015C0H   LINE      CODE     ---       #3999
      010015C5H   LINE      CODE     ---       #4000
      010015D1H   LINE      CODE     ---       #4001
      010015D1H   LINE      CODE     ---       #4002
      010015D7H   LINE      CODE     ---       #4003
      010015D9H   LINE      CODE     ---       #4005
      010015D9H   LINE      CODE     ---       #4006
      010015E6H   LINE      CODE     ---       #4007
      010015E6H   LINE      CODE     ---       #4008
      01001600H   LINE      CODE     ---       #4009
      01001606H   LINE      CODE     ---       #4010
      01001620H   LINE      CODE     ---       #4011
      01001627H   LINE      CODE     ---       #4012
      01001627H   LINE      CODE     ---       #4013
      01001630H   LINE      CODE     ---       #4014
      01001630H   LINE      CODE     ---       #4015
      01001630H   LINE      CODE     ---       #4016
      01001630H   LINE      CODE     ---       #4017
      01001632H   LINE      CODE     ---       #4018
      0100163EH   LINE      CODE     ---       #4019
      0100163EH   LINE      CODE     ---       #4020
      01001644H   LINE      CODE     ---       #4021
      01001648H   LINE      CODE     ---       #4022
      01001648H   LINE      CODE     ---       #4023
      0100164AH   LINE      CODE     ---       #4025
      0100164AH   LINE      CODE     ---       #4026
      01001651H   LINE      CODE     ---       #4027
      01001651H   LINE      CODE     ---       #4028
      01001658H   LINE      CODE     ---       #4029
      0100165BH   LINE      CODE     ---       #4031
      0100165BH   LINE      CODE     ---       #4032
      01001667H   LINE      CODE     ---       #4033
      01001667H   LINE      CODE     ---       #4034
      01001669H   LINE      CODE     ---       #4035
      0100166CH   LINE      CODE     ---       #4036
      0100166CH   LINE      CODE     ---       #4037
      01001672H   LINE      CODE     ---       #4038
      0100167DH   LINE      CODE     ---       #4039
      0100167DH   LINE      CODE     ---       #4040
      0100167DH   LINE      CODE     ---       #4041
      0100168CH   LINE      CODE     ---       #4042
      0100168CH   LINE      CODE     ---       #4043
      01001697H   LINE      CODE     ---       #4044
      01001697H   LINE      CODE     ---       #4045
      0100169BH   LINE      CODE     ---       #4046
      0100169DH   LINE      CODE     ---       #4047
      010016B5H   LINE      CODE     ---       #4048
      010016FCH   LINE      CODE     ---       #4049
      01001704H   LINE      CODE     ---       #4050
      0100171EH   LINE      CODE     ---       #4051
      01001724H   LINE      CODE     ---       #4052
      01001724H   LINE      CODE     ---       #4053
      01001729H   LINE      CODE     ---       #4054
      01001732H   LINE      CODE     ---       #4055
      01001735H   LINE      CODE     ---       #4056
      01001738H   LINE      CODE     ---       #4057
      01001752H   LINE      CODE     ---       #4058
      01001758H   LINE      CODE     ---       #4059
LX51 LINKER/LOCATER V4.66.87.0                                                        10/15/2020  10:36:21  PAGE 136


      01001770H   LINE      CODE     ---       #4060
      01001775H   LINE      CODE     ---       #4061
      01001779H   LINE      CODE     ---       #4062
      0100177CH   LINE      CODE     ---       #4063
      01001780H   LINE      CODE     ---       #4064
      01001783H   LINE      CODE     ---       #4065
      01001786H   LINE      CODE     ---       #4066
      01001786H   LINE      CODE     ---       #4067
      01001786H   LINE      CODE     ---       #4068
      01001786H   LINE      CODE     ---       #4069
      01001789H   LINE      CODE     ---       #4071
      01001789H   LINE      CODE     ---       #4072
      0100178EH   LINE      CODE     ---       #4073
      01001799H   LINE      CODE     ---       #4074
      0100179CH   LINE      CODE     ---       #4075
      0100179FH   LINE      CODE     ---       #4076
      010017B9H   LINE      CODE     ---       #4077
      010017BFH   LINE      CODE     ---       #4078
      010017D7H   LINE      CODE     ---       #4079
      010017DDH   LINE      CODE     ---       #4080
      010017F5H   LINE      CODE     ---       #4081
      010017FAH   LINE      CODE     ---       #4082
      010017FEH   LINE      CODE     ---       #4083
      01001801H   LINE      CODE     ---       #4084
      01001805H   LINE      CODE     ---       #4085
      01001808H   LINE      CODE     ---       #4086
      0100180BH   LINE      CODE     ---       #4087
      0100180BH   LINE      CODE     ---       #4088
      0100180BH   LINE      CODE     ---       #4089
      0100180BH   LINE      CODE     ---       #4090
      0100180BH   LINE      CODE     ---       #4091
      0100180EH   LINE      CODE     ---       #4092
      01001819H   LINE      CODE     ---       #4093
      01001819H   LINE      CODE     ---       #4094
      0100181DH   LINE      CODE     ---       #4095
      01001820H   LINE      CODE     ---       #4096
      01001838H   LINE      CODE     ---       #4097
      0100187FH   LINE      CODE     ---       #4098
      01001887H   LINE      CODE     ---       #4099
      010018A1H   LINE      CODE     ---       #4100
      010018A7H   LINE      CODE     ---       #4101
      010018A7H   LINE      CODE     ---       #4102
      010018ACH   LINE      CODE     ---       #4103
      010018B5H   LINE      CODE     ---       #4104
      010018B8H   LINE      CODE     ---       #4105
      010018BAH   LINE      CODE     ---       #4106
      010018BAH   LINE      CODE     ---       #4107
      010018BCH   LINE      CODE     ---       #4109
      010018BCH   LINE      CODE     ---       #4110
      010018C1H   LINE      CODE     ---       #4111
      010018CCH   LINE      CODE     ---       #4112
      010018CFH   LINE      CODE     ---       #4113
      010018D2H   LINE      CODE     ---       #4114
      010018ECH   LINE      CODE     ---       #4115
      010018ECH   LINE      CODE     ---       #4116
      010018ECH   LINE      CODE     ---       #4117
      010018ECH   LINE      CODE     ---       #4118
      010018EFH   LINE      CODE     ---       #4119
      010018FAH   LINE      CODE     ---       #4120
      010018FAH   LINE      CODE     ---       #4121
      010018FEH   LINE      CODE     ---       #4122
      01001902H   LINE      CODE     ---       #4123
      0100191BH   LINE      CODE     ---       #4124
      01001934H   LINE      CODE     ---       #4126
      0100195FH   LINE      CODE     ---       #4127
LX51 LINKER/LOCATER V4.66.87.0                                                        10/15/2020  10:36:21  PAGE 137


      01001964H   LINE      CODE     ---       #4128
      01001967H   LINE      CODE     ---       #4129
      01001967H   LINE      CODE     ---       #4130
      0100196CH   LINE      CODE     ---       #4131
      01001975H   LINE      CODE     ---       #4132
      01001978H   LINE      CODE     ---       #4133
      0100197BH   LINE      CODE     ---       #4134
      01001995H   LINE      CODE     ---       #4135
      0100199BH   LINE      CODE     ---       #4136
      010019B3H   LINE      CODE     ---       #4137
      010019B8H   LINE      CODE     ---       #4138
      010019BCH   LINE      CODE     ---       #4139
      010019BFH   LINE      CODE     ---       #4140
      010019C3H   LINE      CODE     ---       #4141
      010019C6H   LINE      CODE     ---       #4142
      010019C9H   LINE      CODE     ---       #4143
      010019C9H   LINE      CODE     ---       #4144
      010019C9H   LINE      CODE     ---       #4145
      010019C9H   LINE      CODE     ---       #4146
      010019CBH   LINE      CODE     ---       #4148
      010019CBH   LINE      CODE     ---       #4149
      010019D0H   LINE      CODE     ---       #4150
      010019DBH   LINE      CODE     ---       #4151
      010019DEH   LINE      CODE     ---       #4152
      010019E1H   LINE      CODE     ---       #4153
      010019FBH   LINE      CODE     ---       #4154
      01001A01H   LINE      CODE     ---       #4155
      01001A19H   LINE      CODE     ---       #4156
      01001A1EH   LINE      CODE     ---       #4157
      01001A22H   LINE      CODE     ---       #4158
      01001A25H   LINE      CODE     ---       #4159
      01001A29H   LINE      CODE     ---       #4160
      01001A2CH   LINE      CODE     ---       #4161
      01001A2FH   LINE      CODE     ---       #4162
      01001A2FH   LINE      CODE     ---       #4163
      01001A2FH   LINE      CODE     ---       #4164
      01001A2FH   LINE      CODE     ---       #4165
      01001A2FH   LINE      CODE     ---       #4166
      01001A2FH   LINE      CODE     ---       #4167
      01001A32H   LINE      CODE     ---       #4169
      01001A32H   LINE      CODE     ---       #4170
      01001A3DH   LINE      CODE     ---       #4171
      01001A3DH   LINE      CODE     ---       #4172
      01001A41H   LINE      CODE     ---       #4173
      01001A50H   LINE      CODE     ---       #4174
      01001A69H   LINE      CODE     ---       #4175
      01001AB0H   LINE      CODE     ---       #4176
      01001AB8H   LINE      CODE     ---       #4177
      01001AD2H   LINE      CODE     ---       #4178
      01001AE3H   LINE      CODE     ---       #4179
      01001AE3H   LINE      CODE     ---       #4180
      01001AECH   LINE      CODE     ---       #4181
      01001AECH   LINE      CODE     ---       #4182
      01001AECH   LINE      CODE     ---       #4183
      01001AEEH   LINE      CODE     ---       #4190
      01001AEEH   LINE      CODE     ---       #4191
      01001AF5H   LINE      CODE     ---       #4192
      01001AF5H   LINE      CODE     ---       #4193
      01001AFAH   LINE      CODE     ---       #4194
      01001AFCH   LINE      CODE     ---       #4196
      01001AFCH   LINE      CODE     ---       #4197
      01001B02H   LINE      CODE     ---       #4198
      01001B02H   LINE      CODE     ---       #4199
      01001B02H   LINE      CODE     ---       #4200
      01001B08H   LINE      CODE     ---       #4201
LX51 LINKER/LOCATER V4.66.87.0                                                        10/15/2020  10:36:21  PAGE 138


      01001B08H   LINE      CODE     ---       #4202
      01001B0AH   LINE      CODE     ---       #4203
      01001B13H   LINE      CODE     ---       #4204
      01001B16H   LINE      CODE     ---       #4205
      01001B19H   LINE      CODE     ---       #4206
      01001B33H   LINE      CODE     ---       #4207
      01001B39H   LINE      CODE     ---       #4208
      01001B51H   LINE      CODE     ---       #4209
      01001B56H   LINE      CODE     ---       #4210
      01001B5AH   LINE      CODE     ---       #4211
      01001B5DH   LINE      CODE     ---       #4212
      01001B61H   LINE      CODE     ---       #4213
      01001B64H   LINE      CODE     ---       #4214
      01001B67H   LINE      CODE     ---       #4215
      01001B67H   LINE      CODE     ---       #4216
      01001B67H   LINE      CODE     ---       #4217
      01001B67H   LINE      CODE     ---       #4218
      01001B69H   LINE      CODE     ---       #4220
      01001B69H   LINE      CODE     ---       #4221
      01001B6EH   LINE      CODE     ---       #4222
      01001B79H   LINE      CODE     ---       #4223
      01001B7CH   LINE      CODE     ---       #4224
      01001B7FH   LINE      CODE     ---       #4225
      01001B99H   LINE      CODE     ---       #4226
      01001B9FH   LINE      CODE     ---       #4227
      01001BB7H   LINE      CODE     ---       #4228
      01001BBCH   LINE      CODE     ---       #4229
      01001BC0H   LINE      CODE     ---       #4230
      01001BC3H   LINE      CODE     ---       #4231
      01001BC7H   LINE      CODE     ---       #4232
      01001BCAH   LINE      CODE     ---       #4233
      01001BCEH   LINE      CODE     ---       #4234
      01001BD2H   LINE      CODE     ---       #4235
      01001BD5H   LINE      CODE     ---       #4236
      01001BE7H   LINE      CODE     ---       #4237
      01001BE7H   LINE      CODE     ---       #4238
      01001BEAH   LINE      CODE     ---       #4239
      01001BF5H   LINE      CODE     ---       #4240
      01001BF5H   LINE      CODE     ---       #4241
      01001BF9H   LINE      CODE     ---       #4242
      01001C08H   LINE      CODE     ---       #4243
      01001C21H   LINE      CODE     ---       #4244
      01001C68H   LINE      CODE     ---       #4245
      01001C70H   LINE      CODE     ---       #4246
      01001C8AH   LINE      CODE     ---       #4247
      01001C9BH   LINE      CODE     ---       #4248
      01001C9BH   LINE      CODE     ---       #4249
      01001CA4H   LINE      CODE     ---       #4250
      01001CA4H   LINE      CODE     ---       #4251
      01001CA4H   LINE      CODE     ---       #4252
      01001CA6H   LINE      CODE     ---       #4259
      01001CA6H   LINE      CODE     ---       #4260
      01001CADH   LINE      CODE     ---       #4261
      01001CADH   LINE      CODE     ---       #4262
      01001CB2H   LINE      CODE     ---       #4263
      01001CB4H   LINE      CODE     ---       #4265
      01001CB4H   LINE      CODE     ---       #4266
      01001CBAH   LINE      CODE     ---       #4267
      01001CBAH   LINE      CODE     ---       #4268
      01001CBAH   LINE      CODE     ---       #4269
      01001CC0H   LINE      CODE     ---       #4270
      01001CC0H   LINE      CODE     ---       #4271
      01001CC2H   LINE      CODE     ---       #4272
      01001CCBH   LINE      CODE     ---       #4273
      01001CCEH   LINE      CODE     ---       #4274
LX51 LINKER/LOCATER V4.66.87.0                                                        10/15/2020  10:36:21  PAGE 139


      01001CD0H   LINE      CODE     ---       #4275
      01001CD0H   LINE      CODE     ---       #4276
      01001CD2H   LINE      CODE     ---       #4278
      01001CD2H   LINE      CODE     ---       #4279
      01001CD7H   LINE      CODE     ---       #4280
      01001CE2H   LINE      CODE     ---       #4281
      01001CE5H   LINE      CODE     ---       #4282
      01001CE8H   LINE      CODE     ---       #4283
      01001D02H   LINE      CODE     ---       #4284
      01001D02H   LINE      CODE     ---       #4285
      01001D07H   LINE      CODE     ---       #4286
      01001D1FH   LINE      CODE     ---       #4287
      01001D1FH   LINE      CODE     ---       #4292
      01001D1FH   LINE      CODE     ---       #4293
      01001D35H   LINE      CODE     ---       #4294
      01001D35H   LINE      CODE     ---       #4295
      01001D40H   LINE      CODE     ---       #4296
      01001D40H   LINE      CODE     ---       #4297
      01001D44H   LINE      CODE     ---       #4298
      01001D46H   LINE      CODE     ---       #4299
      01001D48H   LINE      CODE     ---       #4300
      01001D4AH   LINE      CODE     ---       #4301
      01001D63H   LINE      CODE     ---       #4302
      01001D7DH   LINE      CODE     ---       #4303
      01001D97H   LINE      CODE     ---       #4304
      01001D9EH   LINE      CODE     ---       #4305
      01001D9EH   LINE      CODE     ---       #4306
      01001DA7H   LINE      CODE     ---       #4307
      01001DA7H   LINE      CODE     ---       #4308
      01001DA7H   LINE      CODE     ---       #4309
      01001DA7H   LINE      CODE     ---       #4310
      01001DA9H   LINE      CODE     ---       #4311
      01001DB5H   LINE      CODE     ---       #4312
      01001DB5H   LINE      CODE     ---       #4313
      01001DBBH   LINE      CODE     ---       #4314
      01001DBFH   LINE      CODE     ---       #4315
      01001DBFH   LINE      CODE     ---       #4316
      01001DC1H   LINE      CODE     ---       #4318
      01001DC1H   LINE      CODE     ---       #4319
      01001DC8H   LINE      CODE     ---       #4320
      01001DCFH   LINE      CODE     ---       #4321
      01001DCFH   LINE      CODE     ---       #4322
      01001DCFH   LINE      CODE     ---       #4323
      01001DD2H   LINE      CODE     ---       #4324
      01001DD2H   LINE      CODE     ---       #4325
      01001DD2H   LINE      CODE     ---       #4326
      01001DD2H   LINE      CODE     ---       #4327
      01001DDBH   LINE      CODE     ---       #4328
      01001DE2H   LINE      CODE     ---       #4329
      01001DE2H   LINE      CODE     ---       #4330
      01001DE8H   LINE      CODE     ---       #4331
      01001DE8H   LINE      CODE     ---       #4332
      01001DEDH   LINE      CODE     ---       #4333
      01001DEDH   LINE      CODE     ---       #4334
      01001DF3H   LINE      CODE     ---       #4335
      01001DF3H   LINE      CODE     ---       #4336
      01001DF9H   LINE      CODE     ---       #4337
      01001DFFH   LINE      CODE     ---       #4338
      01001DFFH   LINE      CODE     ---       #4339
      01001E01H   LINE      CODE     ---       #4340
      01001E05H   LINE      CODE     ---       #4341
      01001E09H   LINE      CODE     ---       #4342
      01001E1CH   LINE      CODE     ---       #4343
      01001E23H   LINE      CODE     ---       #4344
      01001E23H   LINE      CODE     ---       #4345
LX51 LINKER/LOCATER V4.66.87.0                                                        10/15/2020  10:36:21  PAGE 140


      01001E25H   LINE      CODE     ---       #4347
      01001E2AH   LINE      CODE     ---       #4348
      01001E2CH   LINE      CODE     ---       #4349
      01001E33H   LINE      CODE     ---       #4350
      01001E33H   LINE      CODE     ---       #4351
      01001E36H   LINE      CODE     ---       #4352
      01001E39H   LINE      CODE     ---       #4353
      01001E39H   LINE      CODE     ---       #4354
      01001E3CH   LINE      CODE     ---       #4355
      01001E3FH   LINE      CODE     ---       #4356
      01001E3FH   LINE      CODE     ---       #4357
      01001E42H   LINE      CODE     ---       #4358
      01001E42H   LINE      CODE     ---       #4359
      01001E42H   LINE      CODE     ---       #4360
      01001E5CH   LINE      CODE     ---       #4361
      01001E69H   LINE      CODE     ---       #4362
      01001E69H   LINE      CODE     ---       #4363
      01001E6EH   LINE      CODE     ---       #4364
      01001E6EH   LINE      CODE     ---       #4365
      01001E74H   LINE      CODE     ---       #4366
      01001E74H   LINE      CODE     ---       #4367
      01001E82H   LINE      CODE     ---       #4368
      01001E91H   LINE      CODE     ---       #4369
      01001E91H   LINE      CODE     ---       #4370
      01001E95H   LINE      CODE     ---       #4371
      01001E99H   LINE      CODE     ---       #4372
      01001E9DH   LINE      CODE     ---       #4373
      01001EB6H   LINE      CODE     ---       #4374
      01001EB6H   LINE      CODE     ---       #4375
      01001EB6H   LINE      CODE     ---       #4377
      01001EB6H   LINE      CODE     ---       #4378
      01001EBDH   LINE      CODE     ---       #4379
      01001EBDH   LINE      CODE     ---       #4380
      ---         BLOCKEND  ---      ---       LVL=0

      0100981AH   BLOCK     CODE     ---       LVL=0
      0100981AH   BLOCK     CODE     NEAR LAB  LVL=1
      0200945EH   SYMBOL    XDATA    ---       k_data
      ---         BLOCKEND  ---      ---       LVL=1
      0100981AH   LINE      CODE     ---       #4382
      0100981AH   LINE      CODE     ---       #4383
      0100981AH   LINE      CODE     ---       #4386
      01009823H   LINE      CODE     ---       #4387
      0100982DH   LINE      CODE     ---       #4388
      0100982DH   LINE      CODE     ---       #4389
      01009836H   LINE      CODE     ---       #4390
      01009836H   LINE      CODE     ---       #4391
      0100983CH   LINE      CODE     ---       #4392
      0100983CH   LINE      CODE     ---       #4393
      01009854H   LINE      CODE     ---       #4394
      01009856H   LINE      CODE     ---       #4395
      0100985DH   LINE      CODE     ---       #4396
      0100985DH   LINE      CODE     ---       #4397
      01009860H   LINE      CODE     ---       #4398
      01009863H   LINE      CODE     ---       #4399
      0100986AH   LINE      CODE     ---       #4400
      0100986AH   LINE      CODE     ---       #4401
      0100986DH   LINE      CODE     ---       #4402
      01009870H   LINE      CODE     ---       #4403
      01009877H   LINE      CODE     ---       #4404
      01009877H   LINE      CODE     ---       #4405
      0100987AH   LINE      CODE     ---       #4406
      0100987DH   LINE      CODE     ---       #4407
      01009885H   LINE      CODE     ---       #4408
      01009885H   LINE      CODE     ---       #4409
LX51 LINKER/LOCATER V4.66.87.0                                                        10/15/2020  10:36:21  PAGE 141


      0100988EH   LINE      CODE     ---       #4410
      01009897H   LINE      CODE     ---       #4411
      01009897H   LINE      CODE     ---       #4412
      0100989AH   LINE      CODE     ---       #4413
      010098A1H   LINE      CODE     ---       #4414
      010098A3H   LINE      CODE     ---       #4415
      010098ABH   LINE      CODE     ---       #4416
      010098ABH   LINE      CODE     ---       #4417
      010098AFH   LINE      CODE     ---       #4418
      010098B3H   LINE      CODE     ---       #4419
      010098CCH   LINE      CODE     ---       #4420
      010098D1H   LINE      CODE     ---       #4421
      010098E9H   LINE      CODE     ---       #4422
      010098F0H   LINE      CODE     ---       #4423
      010098F5H   LINE      CODE     ---       #4424
      010098F9H   LINE      CODE     ---       #4425
      01009904H   LINE      CODE     ---       #4426
      01009906H   LINE      CODE     ---       #4427
      0100990DH   LINE      CODE     ---       #4428
      0100990DH   LINE      CODE     ---       #4429
      01009916H   LINE      CODE     ---       #4430
      01009916H   LINE      CODE     ---       #4431
      01009919H   LINE      CODE     ---       #4432
      0100991CH   LINE      CODE     ---       #4433
      0100991CH   LINE      CODE     ---       #4434
      0100991CH   LINE      CODE     ---       #4435
      0100991FH   LINE      CODE     ---       #4436
      0100991FH   LINE      CODE     ---       #4437
      0100991FH   LINE      CODE     ---       #4438
      01009925H   LINE      CODE     ---       #4439
      01009925H   LINE      CODE     ---       #4440
      01009933H   LINE      CODE     ---       #4441
      01009942H   LINE      CODE     ---       #4442
      01009942H   LINE      CODE     ---       #4443
      01009945H   LINE      CODE     ---       #4444
      01009948H   LINE      CODE     ---       #4445
      01009948H   LINE      CODE     ---       #4446
      01009958H   LINE      CODE     ---       #4447
      01009958H   LINE      CODE     ---       #4448
      0100995BH   LINE      CODE     ---       #4449
      0100995EH   LINE      CODE     ---       #4450
      0100995EH   LINE      CODE     ---       #4451
      0100995EH   LINE      CODE     ---       #4452
      ---         BLOCKEND  ---      ---       LVL=0

      01008DB2H   BLOCK     CODE     ---       LVL=0
      01008DB2H   BLOCK     CODE     NEAR LAB  LVL=1
      0200945EH   SYMBOL    XDATA    ---       k_data
      02009466H   SYMBOL    XDATA    DWORD     tmp
      ---         BLOCKEND  ---      ---       LVL=1
      01008DB2H   LINE      CODE     ---       #4454
      01008DB2H   LINE      CODE     ---       #4455
      01008DB2H   LINE      CODE     ---       #4459
      01008DBBH   LINE      CODE     ---       #4460
      01008DC1H   LINE      CODE     ---       #4461
      01008DC1H   LINE      CODE     ---       #4462
      01008DC7H   LINE      CODE     ---       #4463
      01008DC7H   LINE      CODE     ---       #4464
      01008DCAH   LINE      CODE     ---       #4465
      01008DCDH   LINE      CODE     ---       #4466
      01008DD0H   LINE      CODE     ---       #4467
      01008DD0H   LINE      CODE     ---       #4468
      01008DD0H   LINE      CODE     ---       #4469
      01008DDAH   LINE      CODE     ---       #4470
      01008DFFH   LINE      CODE     ---       #4471
LX51 LINKER/LOCATER V4.66.87.0                                                        10/15/2020  10:36:21  PAGE 142


      01008DFFH   LINE      CODE     ---       #4472
      01008E1CH   LINE      CODE     ---       #4473
      01008E41H   LINE      CODE     ---       #4474
      01008E52H   LINE      CODE     ---       #4475
      01008E6CH   LINE      CODE     ---       #4476
      01008E86H   LINE      CODE     ---       #4477
      01008E8FH   LINE      CODE     ---       #4478
      01008E8FH   LINE      CODE     ---       #4479
      01008E95H   LINE      CODE     ---       #4480
      01008E97H   LINE      CODE     ---       #4482
      01008E97H   LINE      CODE     ---       #4483
      01008E9CH   LINE      CODE     ---       #4484
      01008E9CH   LINE      CODE     ---       #4485
      01008EA1H   LINE      CODE     ---       #4486
      01008EA3H   LINE      CODE     ---       #4487
      01008EA5H   LINE      CODE     ---       #4488
      01008EBEH   LINE      CODE     ---       #4489
      01008EC5H   LINE      CODE     ---       #4490
      01008EC6H   LINE      CODE     ---       #4492
      01008EC6H   LINE      CODE     ---       #4493
      01008ECFH   LINE      CODE     ---       #4494
      01008EE9H   LINE      CODE     ---       #4495
      01008F03H   LINE      CODE     ---       #4496
      01008F0CH   LINE      CODE     ---       #4497
      01008F0CH   LINE      CODE     ---       #4498
      01008F12H   LINE      CODE     ---       #4499
      01008F14H   LINE      CODE     ---       #4501
      01008F14H   LINE      CODE     ---       #4502
      01008F19H   LINE      CODE     ---       #4503
      01008F19H   LINE      CODE     ---       #4504
      01008F1EH   LINE      CODE     ---       #4505
      01008F21H   LINE      CODE     ---       #4506
      01008F24H   LINE      CODE     ---       #4507
      01008F3DH   LINE      CODE     ---       #4508
      01008F4CH   LINE      CODE     ---       #4509
      01008F4CH   LINE      CODE     ---       #4510
      01008F52H   LINE      CODE     ---       #4511
      01008F52H   LINE      CODE     ---       #4512
      01008F58H   LINE      CODE     ---       #4513
      01008F5BH   LINE      CODE     ---       #4514
      01008F5EH   LINE      CODE     ---       #4515
      01008F5EH   LINE      CODE     ---       #4516
      01008F5EH   LINE      CODE     ---       #4518
      01008F5EH   LINE      CODE     ---       #4519
      01008F6CH   LINE      CODE     ---       #4520
      01008F6CH   LINE      CODE     ---       #4521
      01008F6CH   LINE      CODE     ---       #4522
      ---         BLOCKEND  ---      ---       LVL=0

      0100C480H   BLOCK     CODE     ---       LVL=0
      0100C480H   BLOCK     CODE     NEAR LAB  LVL=1
      0200945EH   SYMBOL    XDATA    ---       k_data
      ---         BLOCKEND  ---      ---       LVL=1
      0100C480H   LINE      CODE     ---       #4524
      0100C480H   LINE      CODE     ---       #4525
      0100C480H   LINE      CODE     ---       #4528
      0100C489H   LINE      CODE     ---       #4529
      0100C48FH   LINE      CODE     ---       #4530
      0100C48FH   LINE      CODE     ---       #4531
      0100C495H   LINE      CODE     ---       #4532
      0100C49BH   LINE      CODE     ---       #4533
      0100C49BH   LINE      CODE     ---       #4534
      0100C49DH   LINE      CODE     ---       #4535
      0100C4A0H   LINE      CODE     ---       #4536
      0100C4A5H   LINE      CODE     ---       #4537
LX51 LINKER/LOCATER V4.66.87.0                                                        10/15/2020  10:36:21  PAGE 143


      0100C4A8H   LINE      CODE     ---       #4538
      0100C4C0H   LINE      CODE     ---       #4539
      0100C4C0H   LINE      CODE     ---       #4540
      0100C4C3H   LINE      CODE     ---       #4541
      0100C4C9H   LINE      CODE     ---       #4542
      0100C4CAH   LINE      CODE     ---       #4544
      0100C4CAH   LINE      CODE     ---       #4545
      0100C4CFH   LINE      CODE     ---       #4546
      0100C4D3H   LINE      CODE     ---       #4547
      0100C4D5H   LINE      CODE     ---       #4548
      0100C4EDH   LINE      CODE     ---       #4549
      0100C4EDH   LINE      CODE     ---       #4550
      ---         BLOCKEND  ---      ---       LVL=0

      0100CD54H   BLOCK     CODE     ---       LVL=0
      0100CD54H   BLOCK     CODE     NEAR LAB  LVL=1
      0200945EH   SYMBOL    XDATA    ---       k_data
      ---         BLOCKEND  ---      ---       LVL=1
      0100CD54H   LINE      CODE     ---       #4565
      0100CD54H   LINE      CODE     ---       #4566
      0100CD54H   LINE      CODE     ---       #4569
      0100CD5DH   LINE      CODE     ---       #4570
      0100CD64H   LINE      CODE     ---       #4571
      0100CD64H   LINE      CODE     ---       #4572
      0100CD67H   LINE      CODE     ---       #4573
      0100CD67H   LINE      CODE     ---       #4574
      0100CD6AH   LINE      CODE     ---       #4578
      0100CD6CH   LINE      CODE     ---       #4587
      0100CD73H   LINE      CODE     ---       #4588
      0100CD73H   LINE      CODE     ---       #4589
      0100CD85H   LINE      CODE     ---       #4590
      0100CD85H   LINE      CODE     ---       #4591
      0100CD88H   LINE      CODE     ---       #4592
      0100CD88H   LINE      CODE     ---       #4593
      ---         BLOCKEND  ---      ---       LVL=0

      0100C554H   BLOCK     CODE     ---       LVL=0
      0100C554H   BLOCK     CODE     NEAR LAB  LVL=1
      020094A1H   SYMBOL    XDATA    ---       k_data
      ---         BLOCKEND  ---      ---       LVL=1
      0100C554H   LINE      CODE     ---       #4595
      0100C554H   LINE      CODE     ---       #4596
      0100C554H   LINE      CODE     ---       #4599
      0100C554H   LINE      CODE     ---       #4600
      0100C557H   LINE      CODE     ---       #4601
      0100C571H   LINE      CODE     ---       #4602
      0100C57AH   LINE      CODE     ---       #4603
      0100C57AH   LINE      CODE     ---       #4604
      0100C57DH   LINE      CODE     ---       #4605
      0100C582H   LINE      CODE     ---       #4606
      0100C582H   LINE      CODE     ---       #4608
      0100C582H   LINE      CODE     ---       #4609
      0100C590H   LINE      CODE     ---       #4610
      0100C59EH   LINE      CODE     ---       #4611
      0100C5ACH   LINE      CODE     ---       #4612
      0100C5B2H   LINE      CODE     ---       #4613
      0100C5B9H   LINE      CODE     ---       #4614
      0100C5B9H   LINE      CODE     ---       #4615
      ---         BLOCKEND  ---      ---       LVL=0

      0100C028H   BLOCK     CODE     ---       LVL=0
      0100C028H   BLOCK     CODE     NEAR LAB  LVL=1
      020094A1H   SYMBOL    XDATA    ---       k_data
      ---         BLOCKEND  ---      ---       LVL=1
      0100C028H   LINE      CODE     ---       #4617
LX51 LINKER/LOCATER V4.66.87.0                                                        10/15/2020  10:36:21  PAGE 144


      0100C028H   LINE      CODE     ---       #4618
      0100C028H   LINE      CODE     ---       #4621
      0100C042H   LINE      CODE     ---       #4622
      0100C04FH   LINE      CODE     ---       #4623
      0100C04FH   LINE      CODE     ---       #4624
      0100C052H   LINE      CODE     ---       #4625
      0100C057H   LINE      CODE     ---       #4626
      0100C057H   LINE      CODE     ---       #4627
      0100C057H   LINE      CODE     ---       #4628
      0100C059H   LINE      CODE     ---       #4630
      0100C059H   LINE      CODE     ---       #4631
      0100C06CH   LINE      CODE     ---       #4632
      0100C06CH   LINE      CODE     ---       #4633
      0100C071H   LINE      CODE     ---       #4634
      0100C073H   LINE      CODE     ---       #4635
      0100C075H   LINE      CODE     ---       #4636
      0100C077H   LINE      CODE     ---       #4637
      0100C090H   LINE      CODE     ---       #4638
      0100C097H   LINE      CODE     ---       #4639
      0100C09DH   LINE      CODE     ---       #4640
      0100C0A2H   LINE      CODE     ---       #4641
      0100C0ADH   LINE      CODE     ---       #4642
      0100C0ADH   LINE      CODE     ---       #4644
      0100C0B4H   LINE      CODE     ---       #4645
      0100C0B4H   LINE      CODE     ---       #4646
      ---         BLOCKEND  ---      ---       LVL=0

      01007F3AH   BLOCK     CODE     ---       LVL=0
      00000003H   SYMBOL    DATA     BYTE      num
      01007F3AH   BLOCK     CODE     NEAR LAB  LVL=1
      020094B1H   SYMBOL    XDATA    WORD      address
      020094B3H   SYMBOL    XDATA    ---       tmp
      ---         BLOCKEND  ---      ---       LVL=1
      01007F3AH   LINE      CODE     ---       #4648
      01007F3AH   LINE      CODE     ---       #4649
      01007F3AH   LINE      CODE     ---       #4654
      01007F48H   LINE      CODE     ---       #4655
      01007F4BH   LINE      CODE     ---       #4656
      01007F4EH   LINE      CODE     ---       #4657
      01007F68H   LINE      CODE     ---       #4658
      01007F81H   LINE      CODE     ---       #4659
      01007F8CH   LINE      CODE     ---       #4660
      01007FA0H   LINE      CODE     ---       #4661
      01007FA8H   LINE      CODE     ---       #4662
      01007FB0H   LINE      CODE     ---       #4663
      01007FB3H   LINE      CODE     ---       #4664
      01007FB5H   LINE      CODE     ---       #4665
      01007FBFH   LINE      CODE     ---       #4666
      01007FBFH   LINE      CODE     ---       #4667
      01007FC4H   LINE      CODE     ---       #4668
      01007FD1H   LINE      CODE     ---       #4669
      01007FD4H   LINE      CODE     ---       #4670
      01007FDDH   LINE      CODE     ---       #4671
      01007FE0H   LINE      CODE     ---       #4672
      01007FE9H   LINE      CODE     ---       #4673
      01007FECH   LINE      CODE     ---       #4674
      01007FF3H   LINE      CODE     ---       #4675
      01007FF3H   LINE      CODE     ---       #4676
      01007FF8H   LINE      CODE     ---       #4677
      01007FF8H   LINE      CODE     ---       #4678
      01007FF8H   LINE      CODE     ---       #4679
      01007FFAH   LINE      CODE     ---       #4681
      01007FFAH   LINE      CODE     ---       #4682
      01008006H   LINE      CODE     ---       #4683
      01008006H   LINE      CODE     ---       #4684
LX51 LINKER/LOCATER V4.66.87.0                                                        10/15/2020  10:36:21  PAGE 145


      0100800CH   LINE      CODE     ---       #4685
      01008011H   LINE      CODE     ---       #4686
      01008013H   LINE      CODE     ---       #4687
      01008015H   LINE      CODE     ---       #4689
      01008015H   LINE      CODE     ---       #4690
      0100801BH   LINE      CODE     ---       #4691
      01008020H   LINE      CODE     ---       #4692
      01008023H   LINE      CODE     ---       #4693
      01008023H   LINE      CODE     ---       #4694
      01008023H   LINE      CODE     ---       #4695
      01008028H   LINE      CODE     ---       #4696
      0100802FH   LINE      CODE     ---       #4697
      01008035H   LINE      CODE     ---       #4698
      0100803EH   LINE      CODE     ---       #4699
      01008043H   LINE      CODE     ---       #4701
      01008046H   LINE      CODE     ---       #4702
      01008046H   LINE      CODE     ---       #4703
      01008060H   LINE      CODE     ---       #4704
      01008068H   LINE      CODE     ---       #4705
      01008068H   LINE      CODE     ---       #4706
      0100806CH   LINE      CODE     ---       #4707
      01008085H   LINE      CODE     ---       #4708
      01008088H   LINE      CODE     ---       #4709
      0100808BH   LINE      CODE     ---       #4710
      0100808EH   LINE      CODE     ---       #4711
      010080A2H   LINE      CODE     ---       #4712
      010080B9H   LINE      CODE     ---       #4713
      010080BCH   LINE      CODE     ---       #4714
      010080D5H   LINE      CODE     ---       #4715
      010080DAH   LINE      CODE     ---       #4716
      010080DDH   LINE      CODE     ---       #4717
      010080DFH   LINE      CODE     ---       #4719
      010080DFH   LINE      CODE     ---       #4720
      010080E4H   LINE      CODE     ---       #4721
      010080ECH   LINE      CODE     ---       #4722
      010080F9H   LINE      CODE     ---       #4723
      010080FFH   LINE      CODE     ---       #4724
      010080FFH   LINE      CODE     ---       #4725
      01008118H   LINE      CODE     ---       #4726
      ---         BLOCKEND  ---      ---       LVL=0

      01007D47H   BLOCK     CODE     ---       LVL=0
      00000007H   SYMBOL    DATA     BYTE      type
      01007D47H   BLOCK     CODE     NEAR LAB  LVL=1
      020094A1H   SYMBOL    XDATA    ---       k_data
      ---         BLOCKEND  ---      ---       LVL=1
      01007D47H   LINE      CODE     ---       #4729
      01007D47H   LINE      CODE     ---       #4730
      01007D47H   LINE      CODE     ---       #4733
      01007D4DH   LINE      CODE     ---       #4734
      01007D4DH   LINE      CODE     ---       #4735
      01007D67H   LINE      CODE     ---       #4736
      01007D6FH   LINE      CODE     ---       #4737
      01007D77H   LINE      CODE     ---       #4738
      01007D7CH   LINE      CODE     ---       #4739
      01007D84H   LINE      CODE     ---       #4740
      01007D8BH   LINE      CODE     ---       #4741
      01007D8BH   LINE      CODE     ---       #4742
      01007D93H   LINE      CODE     ---       #4743
      01007D9BH   LINE      CODE     ---       #4744
      01007D9EH   LINE      CODE     ---       #4745
      01007DA0H   LINE      CODE     ---       #4746
      01007DA0H   LINE      CODE     ---       #4747
      01007DA0H   LINE      CODE     ---       #4748
      01007DA2H   LINE      CODE     ---       #4750
LX51 LINKER/LOCATER V4.66.87.0                                                        10/15/2020  10:36:21  PAGE 146


      01007DA2H   LINE      CODE     ---       #4751
      01007DAFH   LINE      CODE     ---       #4752
      01007DAFH   LINE      CODE     ---       #4753
      01007DB7H   LINE      CODE     ---       #4754
      01007DBFH   LINE      CODE     ---       #4755
      01007DC2H   LINE      CODE     ---       #4756
      01007DC5H   LINE      CODE     ---       #4757
      01007DCAH   LINE      CODE     ---       #4758
      01007DCCH   LINE      CODE     ---       #4759
      01007DCEH   LINE      CODE     ---       #4761
      01007DCEH   LINE      CODE     ---       #4762
      01007DD3H   LINE      CODE     ---       #4763
      01007DD5H   LINE      CODE     ---       #4764
      01007DD7H   LINE      CODE     ---       #4765
      01007DD9H   LINE      CODE     ---       #4766
      01007DDDH   LINE      CODE     ---       #4767
      01007DE5H   LINE      CODE     ---       #4768
      01007DE5H   LINE      CODE     ---       #4769
      01007DE5H   LINE      CODE     ---       #4770
      01007DF6H   LINE      CODE     ---       #4771
      01007DF9H   LINE      CODE     ---       #4773
      01007DF9H   LINE      CODE     ---       #4774
      01007E13H   LINE      CODE     ---       #4775
      01007E2CH   LINE      CODE     ---       #4776
      01007E45H   LINE      CODE     ---       #4777
      01007E5EH   LINE      CODE     ---       #4778
      01007E77H   LINE      CODE     ---       #4779
      01007E7FH   LINE      CODE     ---       #4780
      01007E7FH   LINE      CODE     ---       #4781
      01007E97H   LINE      CODE     ---       #4782
      01007E9CH   LINE      CODE     ---       #4783
      01007EA4H   LINE      CODE     ---       #4784
      01007EA7H   LINE      CODE     ---       #4785
      01007EA9H   LINE      CODE     ---       #4786
      01007EB9H   LINE      CODE     ---       #4787
      01007EBBH   LINE      CODE     ---       #4789
      01007EBBH   LINE      CODE     ---       #4790
      01007EC8H   LINE      CODE     ---       #4791
      01007EC8H   LINE      CODE     ---       #4792
      01007EE1H   LINE      CODE     ---       #4793
      01007EE6H   LINE      CODE     ---       #4794
      01007EEEH   LINE      CODE     ---       #4795
      01007EF1H   LINE      CODE     ---       #4796
      01007EF3H   LINE      CODE     ---       #4797
      01007EF5H   LINE      CODE     ---       #4799
      01007EF5H   LINE      CODE     ---       #4800
      01007F0EH   LINE      CODE     ---       #4801
      01007F13H   LINE      CODE     ---       #4802
      01007F15H   LINE      CODE     ---       #4803
      01007F17H   LINE      CODE     ---       #4804
      01007F1FH   LINE      CODE     ---       #4805
      01007F1FH   LINE      CODE     ---       #4806
      01007F39H   LINE      CODE     ---       #4807
      01007F39H   LINE      CODE     ---       #4808
      01007F39H   LINE      CODE     ---       #4809
      ---         BLOCKEND  ---      ---       LVL=0

      01006C91H   BLOCK     CODE     ---       LVL=0
      01006C91H   BLOCK     CODE     NEAR LAB  LVL=1
      020094A1H   SYMBOL    XDATA    ---       k_data
      020094E1H   SYMBOL    XDATA    ---       SendPara
      020094F1H   SYMBOL    XDATA    ---       tmp
      02009501H   SYMBOL    XDATA    BYTE      CurrentCook
      ---         BLOCKEND  ---      ---       LVL=1
      01006C91H   LINE      CODE     ---       #4812
LX51 LINKER/LOCATER V4.66.87.0                                                        10/15/2020  10:36:21  PAGE 147


      01006C91H   LINE      CODE     ---       #4813
      01006C91H   LINE      CODE     ---       #4819
      01006C99H   LINE      CODE     ---       #4820
      01006CB3H   LINE      CODE     ---       #4821
      01006CBBH   LINE      CODE     ---       #4822
      01006CC4H   LINE      CODE     ---       #4823
      01006CCCH   LINE      CODE     ---       #4824
      01006CD1H   LINE      CODE     ---       #4826
      01006CD9H   LINE      CODE     ---       #4827
      01006CE8H   LINE      CODE     ---       #4828
      01006D05H   LINE      CODE     ---       #4829
      01006D2EH   LINE      CODE     ---       #4830
      01006D4BH   LINE      CODE     ---       #4831
      01006D53H   LINE      CODE     ---       #4832
      01006D5BH   LINE      CODE     ---       #4833
      01006D75H   LINE      CODE     ---       #4834
      01006D7DH   LINE      CODE     ---       #4835
      01006D85H   LINE      CODE     ---       #4837
      01006D8EH   LINE      CODE     ---       #4838
      01006D94H   LINE      CODE     ---       #4839
      01006D9DH   LINE      CODE     ---       #4840
      01006DA5H   LINE      CODE     ---       #4841
      01006DADH   LINE      CODE     ---       #4842
      01006DB5H   LINE      CODE     ---       #4843
      01006DBDH   LINE      CODE     ---       #4844
      01006DC5H   LINE      CODE     ---       #4845
      01006DCDH   LINE      CODE     ---       #4846
      01006DD5H   LINE      CODE     ---       #4847
      01006DDDH   LINE      CODE     ---       #4848
      01006DF7H   LINE      CODE     ---       #4849
      01006DFCH   LINE      CODE     ---       #4850
      01006DFEH   LINE      CODE     ---       #4851
      01006E16H   LINE      CODE     ---       #4852
      01006E1EH   LINE      CODE     ---       #4853
      01006E37H   LINE      CODE     ---       #4854
      01006E3DH   LINE      CODE     ---       #4855
      01006E56H   LINE      CODE     ---       #4856
      01006E60H   LINE      CODE     ---       #4857
      01006E63H   LINE      CODE     ---       #4859
      01006E6CH   LINE      CODE     ---       #4860
      01006E85H   LINE      CODE     ---       #4861
      01006E8BH   LINE      CODE     ---       #4862
      01006E92H   LINE      CODE     ---       #4863
      01006E98H   LINE      CODE     ---       #4864
      01006EA0H   LINE      CODE     ---       #4865
      01006EA0H   LINE      CODE     ---       #4866
      01006EB9H   LINE      CODE     ---       #4867
      01006EB9H   LINE      CODE     ---       #4868
      ---         BLOCKEND  ---      ---       LVL=0

      0100B99FH   BLOCK     CODE     ---       LVL=0
      0100B99FH   BLOCK     CODE     NEAR LAB  LVL=1
      0200945EH   SYMBOL    XDATA    ---       k_data
      ---         BLOCKEND  ---      ---       LVL=1
      0100B99FH   LINE      CODE     ---       #4870
      0100B99FH   LINE      CODE     ---       #4871
      0100B99FH   LINE      CODE     ---       #4877
      0100B9A8H   LINE      CODE     ---       #4878
      0100B9A8H   LINE      CODE     ---       #4879
      0100B9B1H   LINE      CODE     ---       #4880
      0100B9BBH   LINE      CODE     ---       #4881
      0100B9BBH   LINE      CODE     ---       #4882
      0100B9BEH   LINE      CODE     ---       #4883
      0100B9BEH   LINE      CODE     ---       #4884
      0100B9C1H   LINE      CODE     ---       #4885
LX51 LINKER/LOCATER V4.66.87.0                                                        10/15/2020  10:36:21  PAGE 148


      0100B9C4H   LINE      CODE     ---       #4886
      0100B9CBH   LINE      CODE     ---       #4887
      0100B9CBH   LINE      CODE     ---       #4888
      0100B9CEH   LINE      CODE     ---       #4889
      0100B9D1H   LINE      CODE     ---       #4890
      0100B9D9H   LINE      CODE     ---       #4891
      0100B9D9H   LINE      CODE     ---       #4892
      0100B9DEH   LINE      CODE     ---       #4893
      0100B9E3H   LINE      CODE     ---       #4894
      0100B9E8H   LINE      CODE     ---       #4895
      0100B9ECH   LINE      CODE     ---       #4896
      0100B9F7H   LINE      CODE     ---       #4897
      0100B9F9H   LINE      CODE     ---       #4898
      0100B9FDH   LINE      CODE     ---       #4899
      0100B9FDH   LINE      CODE     ---       #4900
      0100BA00H   LINE      CODE     ---       #4949
      0100BA02H   LINE      CODE     ---       #4950
      0100BA09H   LINE      CODE     ---       #4951
      0100BA09H   LINE      CODE     ---       #4952
      0100BA0EH   LINE      CODE     ---       #4953
      0100BA10H   LINE      CODE     ---       #4954
      0100BA10H   LINE      CODE     ---       #4955
      0100BA12H   LINE      CODE     ---       #4956
      0100BA1AH   LINE      CODE     ---       #4957
      0100BA1AH   LINE      CODE     ---       #4958
      0100BA1EH   LINE      CODE     ---       #4960
      0100BA25H   LINE      CODE     ---       #4961
      0100BA25H   LINE      CODE     ---       #4962
      0100BA27H   LINE      CODE     ---       #4963
      0100BA29H   LINE      CODE     ---       #4965
      0100BA29H   LINE      CODE     ---       #4966
      0100BA36H   LINE      CODE     ---       #4967
      0100BA36H   LINE      CODE     ---       #4968
      0100BA38H   LINE      CODE     ---       #4969
      0100BA3AH   LINE      CODE     ---       #4971
      0100BA3AH   LINE      CODE     ---       #4972
      0100BA41H   LINE      CODE     ---       #4973
      0100BA41H   LINE      CODE     ---       #4974
      0100BA41H   LINE      CODE     ---       #4975
      0100BA41H   LINE      CODE     ---       #4976
      0100BA43H   LINE      CODE     ---       #4977
      0100BA4AH   LINE      CODE     ---       #4978
      0100BA4AH   LINE      CODE     ---       #4979
      0100BA4FH   LINE      CODE     ---       #4980
      0100BA56H   LINE      CODE     ---       #4981
      0100BA62H   LINE      CODE     ---       #4982
      0100BA62H   LINE      CODE     ---       #4983
      0100BA65H   LINE      CODE     ---       #4984
      0100BA65H   LINE      CODE     ---       #4985
      0100BA65H   LINE      CODE     ---       #4986
      ---         BLOCKEND  ---      ---       LVL=0

      01001EBEH   BLOCK     CODE     ---       LVL=0
      01001EBEH   BLOCK     CODE     NEAR LAB  LVL=1
      0200945EH   SYMBOL    XDATA    ---       k_data
      0200946EH   SYMBOL    XDATA    BYTE      tmp8
      0200946FH   SYMBOL    XDATA    WORD      setpara
      02009471H   SYMBOL    XDATA    WORD      m_data
      ---         BLOCKEND  ---      ---       LVL=1
      01001EBEH   LINE      CODE     ---       #4988
      01001EBEH   LINE      CODE     ---       #4989
      01001EBEH   LINE      CODE     ---       #4995
      01001EC7H   LINE      CODE     ---       #4996
      01001EC7H   LINE      CODE     ---       #4997
      01001ED1H   LINE      CODE     ---       #4998
LX51 LINKER/LOCATER V4.66.87.0                                                        10/15/2020  10:36:21  PAGE 149


      01001EDCH   LINE      CODE     ---       #5000
      01001EF1H   LINE      CODE     ---       #5001
      01001F0AH   LINE      CODE     ---       #5002
      01001F13H   LINE      CODE     ---       #5003
      01001F2CH   LINE      CODE     ---       #5004
      01001F33H   LINE      CODE     ---       #5005
      01001F33H   LINE      CODE     ---       #5006
      01001F3CH   LINE      CODE     ---       #5007
      01001F3CH   LINE      CODE     ---       #5008
      01001F3CH   LINE      CODE     ---       #5009
      01001F3CH   LINE      CODE     ---       #5010
      01001F3EH   LINE      CODE     ---       #5011
      01001F4AH   LINE      CODE     ---       #5012
      01001F4AH   LINE      CODE     ---       #5013
      01001F50H   LINE      CODE     ---       #5014
      01001F54H   LINE      CODE     ---       #5015
      01001F54H   LINE      CODE     ---       #5016
      01001F56H   LINE      CODE     ---       #5018
      01001F56H   LINE      CODE     ---       #5019
      01001F5DH   LINE      CODE     ---       #5020
      01001F5DH   LINE      CODE     ---       #5021
      01001F62H   LINE      CODE     ---       #5022
      01001F65H   LINE      CODE     ---       #5023
      01001F68H   LINE      CODE     ---       #5025
      01001F68H   LINE      CODE     ---       #5026
      01001F73H   LINE      CODE     ---       #5027
      01001F73H   LINE      CODE     ---       #5028
      01001F7EH   LINE      CODE     ---       #5029
      01001F7EH   LINE      CODE     ---       #5030
      01001F84H   LINE      CODE     ---       #5031
      01001F9CH   LINE      CODE     ---       #5032
      01001FE3H   LINE      CODE     ---       #5033
      01001FEBH   LINE      CODE     ---       #5034
      01002005H   LINE      CODE     ---       #5035
      0100200BH   LINE      CODE     ---       #5036
      0100200BH   LINE      CODE     ---       #5037
      01002010H   LINE      CODE     ---       #5038
      01002019H   LINE      CODE     ---       #5039
      0100201CH   LINE      CODE     ---       #5040
      0100201FH   LINE      CODE     ---       #5041
      01002039H   LINE      CODE     ---       #5042
      0100203FH   LINE      CODE     ---       #5043
      01002057H   LINE      CODE     ---       #5044
      0100205CH   LINE      CODE     ---       #5045
      01002060H   LINE      CODE     ---       #5046
      01002063H   LINE      CODE     ---       #5047
      01002067H   LINE      CODE     ---       #5048
      0100206AH   LINE      CODE     ---       #5049
      0100206DH   LINE      CODE     ---       #5050
      0100206DH   LINE      CODE     ---       #5051
      0100206DH   LINE      CODE     ---       #5052
      0100206DH   LINE      CODE     ---       #5053
      01002070H   LINE      CODE     ---       #5055
      01002070H   LINE      CODE     ---       #5056
      01002075H   LINE      CODE     ---       #5057
      01002080H   LINE      CODE     ---       #5058
      01002083H   LINE      CODE     ---       #5059
      01002086H   LINE      CODE     ---       #5060
      010020A0H   LINE      CODE     ---       #5061
      010020A6H   LINE      CODE     ---       #5062
      010020BEH   LINE      CODE     ---       #5063
      010020C3H   LINE      CODE     ---       #5064
      010020C7H   LINE      CODE     ---       #5065
      010020CAH   LINE      CODE     ---       #5066
      010020CEH   LINE      CODE     ---       #5067
LX51 LINKER/LOCATER V4.66.87.0                                                        10/15/2020  10:36:21  PAGE 150


      010020D1H   LINE      CODE     ---       #5068
      010020D4H   LINE      CODE     ---       #5069
      010020D4H   LINE      CODE     ---       #5070
      010020D4H   LINE      CODE     ---       #5071
      010020D4H   LINE      CODE     ---       #5072
      010020D4H   LINE      CODE     ---       #5073
      010020D7H   LINE      CODE     ---       #5074
      010020E2H   LINE      CODE     ---       #5075
      010020E2H   LINE      CODE     ---       #5076
      010020E9H   LINE      CODE     ---       #5077
      01002101H   LINE      CODE     ---       #5078
      01002148H   LINE      CODE     ---       #5079
      01002150H   LINE      CODE     ---       #5080
      0100216AH   LINE      CODE     ---       #5081
      01002170H   LINE      CODE     ---       #5082
      01002170H   LINE      CODE     ---       #5083
      01002175H   LINE      CODE     ---       #5084
      0100217EH   LINE      CODE     ---       #5085
      01002181H   LINE      CODE     ---       #5086
      01002183H   LINE      CODE     ---       #5087
      01002183H   LINE      CODE     ---       #5088
      01002185H   LINE      CODE     ---       #5090
      01002185H   LINE      CODE     ---       #5091
      0100218AH   LINE      CODE     ---       #5092
      01002195H   LINE      CODE     ---       #5093
      01002198H   LINE      CODE     ---       #5094
      0100219BH   LINE      CODE     ---       #5095
      010021B5H   LINE      CODE     ---       #5096
      010021B5H   LINE      CODE     ---       #5097
      010021BAH   LINE      CODE     ---       #5098
      010021C3H   LINE      CODE     ---       #5099
      010021C6H   LINE      CODE     ---       #5100
      010021D1H   LINE      CODE     ---       #5101
      010021D1H   LINE      CODE     ---       #5102
      010021D9H   LINE      CODE     ---       #5103
      010021F2H   LINE      CODE     ---       #5104
      0100220BH   LINE      CODE     ---       #5106
      01002236H   LINE      CODE     ---       #5107
      0100223BH   LINE      CODE     ---       #5108
      0100223EH   LINE      CODE     ---       #5109
      0100223EH   LINE      CODE     ---       #5110
      01002243H   LINE      CODE     ---       #5111
      0100224CH   LINE      CODE     ---       #5112
      0100224FH   LINE      CODE     ---       #5113
      01002252H   LINE      CODE     ---       #5114
      0100226CH   LINE      CODE     ---       #5115
      01002272H   LINE      CODE     ---       #5116
      0100228AH   LINE      CODE     ---       #5117
      0100228FH   LINE      CODE     ---       #5118
      01002293H   LINE      CODE     ---       #5119
      01002296H   LINE      CODE     ---       #5120
      0100229AH   LINE      CODE     ---       #5121
      0100229DH   LINE      CODE     ---       #5122
      010022A0H   LINE      CODE     ---       #5123
      010022A0H   LINE      CODE     ---       #5124
      010022A0H   LINE      CODE     ---       #5125
      010022A0H   LINE      CODE     ---       #5126
      010022A2H   LINE      CODE     ---       #5128
      010022A2H   LINE      CODE     ---       #5129
      010022A7H   LINE      CODE     ---       #5130
      010022B2H   LINE      CODE     ---       #5131
      010022B5H   LINE      CODE     ---       #5132
      010022B8H   LINE      CODE     ---       #5133
      010022D2H   LINE      CODE     ---       #5134
      010022D8H   LINE      CODE     ---       #5135
LX51 LINKER/LOCATER V4.66.87.0                                                        10/15/2020  10:36:21  PAGE 151


      010022F0H   LINE      CODE     ---       #5136
      010022F5H   LINE      CODE     ---       #5137
      010022F9H   LINE      CODE     ---       #5138
      010022FCH   LINE      CODE     ---       #5139
      01002300H   LINE      CODE     ---       #5140
      01002303H   LINE      CODE     ---       #5141
      01002306H   LINE      CODE     ---       #5142
      01002306H   LINE      CODE     ---       #5143
      01002306H   LINE      CODE     ---       #5144
      01002306H   LINE      CODE     ---       #5145
      01002306H   LINE      CODE     ---       #5146
      01002306H   LINE      CODE     ---       #5147
      01002309H   LINE      CODE     ---       #5149
      01002309H   LINE      CODE     ---       #5150
      01002314H   LINE      CODE     ---       #5151
      01002314H   LINE      CODE     ---       #5152
      0100232CH   LINE      CODE     ---       #5153
      01002345H   LINE      CODE     ---       #5154
      0100238CH   LINE      CODE     ---       #5155
      01002394H   LINE      CODE     ---       #5156
      010023AEH   LINE      CODE     ---       #5157
      010023BBH   LINE      CODE     ---       #5158
      010023BBH   LINE      CODE     ---       #5159
      010023C4H   LINE      CODE     ---       #5160
      010023C4H   LINE      CODE     ---       #5161
      010023C4H   LINE      CODE     ---       #5162
      010023C6H   LINE      CODE     ---       #5169
      010023C6H   LINE      CODE     ---       #5170
      010023CDH   LINE      CODE     ---       #5171
      010023CDH   LINE      CODE     ---       #5172
      010023D2H   LINE      CODE     ---       #5173
      010023D4H   LINE      CODE     ---       #5175
      010023D4H   LINE      CODE     ---       #5176
      010023DAH   LINE      CODE     ---       #5177
      010023DAH   LINE      CODE     ---       #5178
      010023DAH   LINE      CODE     ---       #5179
      010023E0H   LINE      CODE     ---       #5180
      010023E0H   LINE      CODE     ---       #5181
      010023E2H   LINE      CODE     ---       #5182
      010023EBH   LINE      CODE     ---       #5183
      010023EEH   LINE      CODE     ---       #5184
      010023F1H   LINE      CODE     ---       #5185
      0100240BH   LINE      CODE     ---       #5186
      01002411H   LINE      CODE     ---       #5187
      01002429H   LINE      CODE     ---       #5188
      0100242EH   LINE      CODE     ---       #5189
      01002432H   LINE      CODE     ---       #5190
      01002435H   LINE      CODE     ---       #5191
      01002439H   LINE      CODE     ---       #5192
      0100243CH   LINE      CODE     ---       #5193
      0100243FH   LINE      CODE     ---       #5194
      0100243FH   LINE      CODE     ---       #5195
      0100243FH   LINE      CODE     ---       #5196
      0100243FH   LINE      CODE     ---       #5197
      01002441H   LINE      CODE     ---       #5199
      01002441H   LINE      CODE     ---       #5200
      01002446H   LINE      CODE     ---       #5201
      01002451H   LINE      CODE     ---       #5202
      01002454H   LINE      CODE     ---       #5203
      01002457H   LINE      CODE     ---       #5204
      01002471H   LINE      CODE     ---       #5205
      01002477H   LINE      CODE     ---       #5206
      0100248FH   LINE      CODE     ---       #5207
      01002494H   LINE      CODE     ---       #5208
      01002498H   LINE      CODE     ---       #5209
LX51 LINKER/LOCATER V4.66.87.0                                                        10/15/2020  10:36:21  PAGE 152


      0100249BH   LINE      CODE     ---       #5210
      0100249FH   LINE      CODE     ---       #5211
      010024A2H   LINE      CODE     ---       #5212
      010024A6H   LINE      CODE     ---       #5213
      010024AAH   LINE      CODE     ---       #5214
      010024ADH   LINE      CODE     ---       #5215
      010024BFH   LINE      CODE     ---       #5216
      010024BFH   LINE      CODE     ---       #5217
      010024C2H   LINE      CODE     ---       #5218
      010024CDH   LINE      CODE     ---       #5219
      010024CDH   LINE      CODE     ---       #5220
      010024E5H   LINE      CODE     ---       #5221
      010024FEH   LINE      CODE     ---       #5222
      01002545H   LINE      CODE     ---       #5223
      0100254DH   LINE      CODE     ---       #5224
      01002567H   LINE      CODE     ---       #5225
      01002574H   LINE      CODE     ---       #5226
      01002574H   LINE      CODE     ---       #5227
      0100257DH   LINE      CODE     ---       #5228
      0100257DH   LINE      CODE     ---       #5229
      0100257DH   LINE      CODE     ---       #5230
      0100257FH   LINE      CODE     ---       #5237
      0100257FH   LINE      CODE     ---       #5238
      01002586H   LINE      CODE     ---       #5239
      01002586H   LINE      CODE     ---       #5240
      0100258BH   LINE      CODE     ---       #5241
      0100258DH   LINE      CODE     ---       #5243
      0100258DH   LINE      CODE     ---       #5244
      01002593H   LINE      CODE     ---       #5245
      01002593H   LINE      CODE     ---       #5246
      01002593H   LINE      CODE     ---       #5247
      01002599H   LINE      CODE     ---       #5248
      01002599H   LINE      CODE     ---       #5249
      0100259BH   LINE      CODE     ---       #5250
      010025A4H   LINE      CODE     ---       #5251
      010025A7H   LINE      CODE     ---       #5252
      010025A9H   LINE      CODE     ---       #5253
      010025A9H   LINE      CODE     ---       #5254
      010025ABH   LINE      CODE     ---       #5256
      010025ABH   LINE      CODE     ---       #5257
      010025B0H   LINE      CODE     ---       #5258
      010025BBH   LINE      CODE     ---       #5259
      010025BEH   LINE      CODE     ---       #5260
      010025C1H   LINE      CODE     ---       #5261
      010025DBH   LINE      CODE     ---       #5262
      010025DBH   LINE      CODE     ---       #5263
      010025E1H   LINE      CODE     ---       #5264
      010025F9H   LINE      CODE     ---       #5265
      010025F9H   LINE      CODE     ---       #5266
      010025F9H   LINE      CODE     ---       #5267
      010025F9H   LINE      CODE     ---       #5268
      01002602H   LINE      CODE     ---       #5269
      01002609H   LINE      CODE     ---       #5270
      01002609H   LINE      CODE     ---       #5271
      0100260FH   LINE      CODE     ---       #5272
      0100260FH   LINE      CODE     ---       #5273
      01002614H   LINE      CODE     ---       #5274
      01002614H   LINE      CODE     ---       #5275
      0100261AH   LINE      CODE     ---       #5276
      0100261AH   LINE      CODE     ---       #5277
      01002620H   LINE      CODE     ---       #5278
      01002626H   LINE      CODE     ---       #5279
      01002626H   LINE      CODE     ---       #5280
      01002628H   LINE      CODE     ---       #5281
      0100262CH   LINE      CODE     ---       #5282
LX51 LINKER/LOCATER V4.66.87.0                                                        10/15/2020  10:36:21  PAGE 153


      01002630H   LINE      CODE     ---       #5283
      01002643H   LINE      CODE     ---       #5284
      0100264AH   LINE      CODE     ---       #5285
      0100264AH   LINE      CODE     ---       #5286
      0100264CH   LINE      CODE     ---       #5288
      01002651H   LINE      CODE     ---       #5289
      01002653H   LINE      CODE     ---       #5290
      0100265AH   LINE      CODE     ---       #5291
      0100265AH   LINE      CODE     ---       #5292
      01002661H   LINE      CODE     ---       #5293
      01002664H   LINE      CODE     ---       #5294
      01002664H   LINE      CODE     ---       #5295
      01002667H   LINE      CODE     ---       #5296
      01002667H   LINE      CODE     ---       #5297
      0100266AH   LINE      CODE     ---       #5298
      0100266AH   LINE      CODE     ---       #5299
      0100266AH   LINE      CODE     ---       #5300
      01002684H   LINE      CODE     ---       #5301
      01002691H   LINE      CODE     ---       #5302
      01002691H   LINE      CODE     ---       #5303
      01002696H   LINE      CODE     ---       #5304
      01002696H   LINE      CODE     ---       #5305
      0100269CH   LINE      CODE     ---       #5306
      0100269CH   LINE      CODE     ---       #5307
      010026AAH   LINE      CODE     ---       #5308
      010026B9H   LINE      CODE     ---       #5309
      010026B9H   LINE      CODE     ---       #5310
      010026BDH   LINE      CODE     ---       #5311
      010026C1H   LINE      CODE     ---       #5312
      010026C5H   LINE      CODE     ---       #5313
      010026DEH   LINE      CODE     ---       #5314
      010026DEH   LINE      CODE     ---       #5315
      010026DEH   LINE      CODE     ---       #5317
      010026DEH   LINE      CODE     ---       #5318
      010026E5H   LINE      CODE     ---       #5319
      010026E5H   LINE      CODE     ---       #5320
      ---         BLOCKEND  ---      ---       LVL=0

      0100C729H   BLOCK     CODE     ---       LVL=0
      0100C729H   BLOCK     CODE     NEAR LAB  LVL=1
      0200945EH   SYMBOL    XDATA    ---       k_data
      ---         BLOCKEND  ---      ---       LVL=1
      0100C729H   LINE      CODE     ---       #5322
      0100C729H   LINE      CODE     ---       #5323
      0100C729H   LINE      CODE     ---       #5326
      0100C732H   LINE      CODE     ---       #5327
      0100C738H   LINE      CODE     ---       #5328
      0100C738H   LINE      CODE     ---       #5329
      0100C73DH   LINE      CODE     ---       #5330
      0100C740H   LINE      CODE     ---       #5331
      0100C747H   LINE      CODE     ---       #5332
      0100C747H   LINE      CODE     ---       #5333
      0100C761H   LINE      CODE     ---       #5334
      0100C767H   LINE      CODE     ---       #5335
      0100C76CH   LINE      CODE     ---       #5336
      0100C76EH   LINE      CODE     ---       #5337
      0100C775H   LINE      CODE     ---       #5338
      0100C775H   LINE      CODE     ---       #5339
      0100C77CH   LINE      CODE     ---       #5340
      0100C77CH   LINE      CODE     ---       #5341
      0100C77FH   LINE      CODE     ---       #5342
      0100C77FH   LINE      CODE     ---       #5343
      ---         BLOCKEND  ---      ---       LVL=0

      0100995FH   BLOCK     CODE     ---       LVL=0
LX51 LINKER/LOCATER V4.66.87.0                                                        10/15/2020  10:36:21  PAGE 154


      0100995FH   BLOCK     CODE     NEAR LAB  LVL=1
      0200945EH   SYMBOL    XDATA    ---       k_data
      ---         BLOCKEND  ---      ---       LVL=1
      0100995FH   LINE      CODE     ---       #5345
      0100995FH   LINE      CODE     ---       #5346
      0100995FH   LINE      CODE     ---       #5349
      01009968H   LINE      CODE     ---       #5350
      01009972H   LINE      CODE     ---       #5351
      01009972H   LINE      CODE     ---       #5352
      01009976H   LINE      CODE     ---       #5353
      01009976H   LINE      CODE     ---       #5354
      0100997CH   LINE      CODE     ---       #5355
      0100997CH   LINE      CODE     ---       #5356
      01009982H   LINE      CODE     ---       #5357
      0100998BH   LINE      CODE     ---       #5358
      0100998BH   LINE      CODE     ---       #5359
      0100998DH   LINE      CODE     ---       #5360
      01009991H   LINE      CODE     ---       #5361
      01009995H   LINE      CODE     ---       #5362
      010099A8H   LINE      CODE     ---       #5363
      010099AEH   LINE      CODE     ---       #5364
      010099C7H   LINE      CODE     ---       #5365
      010099C7H   LINE      CODE     ---       #5366
      010099C9H   LINE      CODE     ---       #5368
      010099CEH   LINE      CODE     ---       #5369
      010099D0H   LINE      CODE     ---       #5370
      010099D7H   LINE      CODE     ---       #5371
      010099D7H   LINE      CODE     ---       #5372
      010099DAH   LINE      CODE     ---       #5373
      010099DCH   LINE      CODE     ---       #5374
      010099E3H   LINE      CODE     ---       #5375
      010099E3H   LINE      CODE     ---       #5376
      010099FDH   LINE      CODE     ---       #5377
      01009A03H   LINE      CODE     ---       #5378
      01009A08H   LINE      CODE     ---       #5379
      01009A0AH   LINE      CODE     ---       #5380
      01009A11H   LINE      CODE     ---       #5381
      01009A11H   LINE      CODE     ---       #5382
      01009A23H   LINE      CODE     ---       #5383
      01009A23H   LINE      CODE     ---       #5384
      01009A26H   LINE      CODE     ---       #5385
      01009A26H   LINE      CODE     ---       #5386
      01009A40H   LINE      CODE     ---       #5387
      01009A4DH   LINE      CODE     ---       #5388
      01009A4DH   LINE      CODE     ---       #5389
      01009A52H   LINE      CODE     ---       #5390
      01009A52H   LINE      CODE     ---       #5391
      01009A58H   LINE      CODE     ---       #5392
      01009A58H   LINE      CODE     ---       #5393
      01009A66H   LINE      CODE     ---       #5394
      01009A75H   LINE      CODE     ---       #5395
      01009A75H   LINE      CODE     ---       #5396
      01009A79H   LINE      CODE     ---       #5397
      01009A7DH   LINE      CODE     ---       #5398
      01009A81H   LINE      CODE     ---       #5399
      01009A9AH   LINE      CODE     ---       #5400
      01009A9AH   LINE      CODE     ---       #5401
      01009A9AH   LINE      CODE     ---       #5403
      01009A9AH   LINE      CODE     ---       #5404
      01009AA1H   LINE      CODE     ---       #5405
      01009AA1H   LINE      CODE     ---       #5406
      ---         BLOCKEND  ---      ---       LVL=0

      0100C780H   BLOCK     CODE     ---       LVL=0
      0100C780H   BLOCK     CODE     NEAR LAB  LVL=1
LX51 LINKER/LOCATER V4.66.87.0                                                        10/15/2020  10:36:21  PAGE 155


      0200945EH   SYMBOL    XDATA    ---       k_data
      ---         BLOCKEND  ---      ---       LVL=1
      0100C780H   LINE      CODE     ---       #5408
      0100C780H   LINE      CODE     ---       #5409
      0100C780H   LINE      CODE     ---       #5413
      0100C789H   LINE      CODE     ---       #5414
      0100C78FH   LINE      CODE     ---       #5415
      0100C78FH   LINE      CODE     ---       #5416
      0100C794H   LINE      CODE     ---       #5417
      0100C797H   LINE      CODE     ---       #5418
      0100C7A5H   LINE      CODE     ---       #5419
      0100C7B3H   LINE      CODE     ---       #5420
      0100C7C1H   LINE      CODE     ---       #5421
      0100C7C7H   LINE      CODE     ---       #5422
      0100C7CEH   LINE      CODE     ---       #5423
      0100C7D3H   LINE      CODE     ---       #5424
      0100C7D6H   LINE      CODE     ---       #5425
      0100C7D6H   LINE      CODE     ---       #5426
      ---         BLOCKEND  ---      ---       LVL=0

      0100BDD7H   BLOCK     CODE     ---       LVL=0
      0100BDD7H   BLOCK     CODE     NEAR LAB  LVL=1
      0200945EH   SYMBOL    XDATA    ---       k_data
      0200947EH   SYMBOL    XDATA    BYTE      syscfg
      ---         BLOCKEND  ---      ---       LVL=1
      0100BDD7H   LINE      CODE     ---       #5428
      0100BDD7H   LINE      CODE     ---       #5429
      0100BDD7H   LINE      CODE     ---       #5433
      0100BDDCH   LINE      CODE     ---       #5434
      0100BDE5H   LINE      CODE     ---       #5435
      0100BDECH   LINE      CODE     ---       #5436
      0100BDECH   LINE      CODE     ---       #5437
      0100BDEFH   LINE      CODE     ---       #5438
      0100BDEFH   LINE      CODE     ---       #5439
      0100BDF5H   LINE      CODE     ---       #5440
      0100BDF5H   LINE      CODE     ---       #5441
      0100BDF7H   LINE      CODE     ---       #5442
      0100BDFCH   LINE      CODE     ---       #5443
      0100BE01H   LINE      CODE     ---       #5444
      0100BE04H   LINE      CODE     ---       #5445
      0100BE04H   LINE      CODE     ---       #5446
      0100BE06H   LINE      CODE     ---       #5447
      0100BE0DH   LINE      CODE     ---       #5448
      0100BE0DH   LINE      CODE     ---       #5449
      0100BE15H   LINE      CODE     ---       #5450
      0100BE15H   LINE      CODE     ---       #5451
      0100BE18H   LINE      CODE     ---       #5452
      0100BE1CH   LINE      CODE     ---       #5453
      0100BE20H   LINE      CODE     ---       #5454
      0100BE39H   LINE      CODE     ---       #5455
      0100BE39H   LINE      CODE     ---       #5456
      0100BE39H   LINE      CODE     ---       #5457
      0100BE3CH   LINE      CODE     ---       #5458
      0100BE3CH   LINE      CODE     ---       #5459
      0100BE42H   LINE      CODE     ---       #5460
      0100BE42H   LINE      CODE     ---       #5461
      0100BE48H   LINE      CODE     ---       #5462
      0100BE50H   LINE      CODE     ---       #5463
      0100BE59H   LINE      CODE     ---       #5464
      0100BE5FH   LINE      CODE     ---       #5465
      0100BE6BH   LINE      CODE     ---       #5466
      0100BE6EH   LINE      CODE     ---       #5467
      0100BE6EH   LINE      CODE     ---       #5468
      ---         BLOCKEND  ---      ---       LVL=0

LX51 LINKER/LOCATER V4.66.87.0                                                        10/15/2020  10:36:21  PAGE 156


      0100A4E2H   BLOCK     CODE     ---       LVL=0
      0100A4E2H   BLOCK     CODE     NEAR LAB  LVL=1
      0200945EH   SYMBOL    XDATA    ---       k_data
      0200946EH   SYMBOL    XDATA    WORD      tmp1
      00000006H   SYMBOL    DATA     WORD      tmp2
      ---         BLOCKEND  ---      ---       LVL=1
      0100A4E2H   LINE      CODE     ---       #5470
      0100A4E2H   LINE      CODE     ---       #5471
      0100A4E2H   LINE      CODE     ---       #5475
      0100A4EBH   LINE      CODE     ---       #5476
      0100A4F5H   LINE      CODE     ---       #5477
      0100A4F5H   LINE      CODE     ---       #5478
      0100A4F8H   LINE      CODE     ---       #5479
      0100A4F8H   LINE      CODE     ---       #5480
      0100A4FCH   LINE      CODE     ---       #5481
      0100A4FFH   LINE      CODE     ---       #5482
      0100A50AH   LINE      CODE     ---       #5483
      0100A50AH   LINE      CODE     ---       #5484
      0100A523H   LINE      CODE     ---       #5485
      0100A528H   LINE      CODE     ---       #5486
      0100A530H   LINE      CODE     ---       #5487
      0100A54AH   LINE      CODE     ---       #5488
      0100A565H   LINE      CODE     ---       #5489
      0100A578H   LINE      CODE     ---       #5490
      0100A591H   LINE      CODE     ---       #5491
      0100A5A6H   LINE      CODE     ---       #5492
      0100A5BAH   LINE      CODE     ---       #5493
      0100A5CAH   LINE      CODE     ---       #5494
      0100A5DEH   LINE      CODE     ---       #5495
      0100A5E5H   LINE      CODE     ---       #5496
      0100A5EBH   LINE      CODE     ---       #5497
      0100A5EBH   LINE      CODE     ---       #5498
      0100A5EEH   LINE      CODE     ---       #5499
      0100A5EEH   LINE      CODE     ---       #5500
      ---         BLOCKEND  ---      ---       LVL=0

      01008867H   BLOCK     CODE     ---       LVL=0
      01008867H   BLOCK     CODE     NEAR LAB  LVL=1
      0200945EH   SYMBOL    XDATA    ---       k_data
      0200946EH   SYMBOL    XDATA    WORD      tmp16
      ---         BLOCKEND  ---      ---       LVL=1
      01008867H   LINE      CODE     ---       #5502
      01008867H   LINE      CODE     ---       #5503
      01008867H   LINE      CODE     ---       #5507
      0100886DH   LINE      CODE     ---       #5508
      0100886DH   LINE      CODE     ---       #5509
      01008876H   LINE      CODE     ---       #5510
      0100887DH   LINE      CODE     ---       #5511
      0100887DH   LINE      CODE     ---       #5512
      01008880H   LINE      CODE     ---       #5513
      01008880H   LINE      CODE     ---       #5514
      01008880H   LINE      CODE     ---       #5515
      01008882H   LINE      CODE     ---       #5516
      01008889H   LINE      CODE     ---       #5517
      01008889H   LINE      CODE     ---       #5518
      01008890H   LINE      CODE     ---       #5519
      01008890H   LINE      CODE     ---       #5520
      01008893H   LINE      CODE     ---       #5521
      01008893H   LINE      CODE     ---       #5522
      01008893H   LINE      CODE     ---       #5523
      010088A1H   LINE      CODE     ---       #5524
      010088B3H   LINE      CODE     ---       #5525
      010088B3H   LINE      CODE     ---       #5526
      010088B7H   LINE      CODE     ---       #5527
      010088CEH   LINE      CODE     ---       #5528
LX51 LINKER/LOCATER V4.66.87.0                                                        10/15/2020  10:36:21  PAGE 157


      010088CEH   LINE      CODE     ---       #5529
      010088EAH   LINE      CODE     ---       #5530
      0100890CH   LINE      CODE     ---       #5531
      0100892BH   LINE      CODE     ---       #5532
      01008945H   LINE      CODE     ---       #5533
      01008956H   LINE      CODE     ---       #5534
      01008970H   LINE      CODE     ---       #5535
      010089B9H   LINE      CODE     ---       #5536
      010089D2H   LINE      CODE     ---       #5537
      010089D2H   LINE      CODE     ---       #5538
      010089EBH   LINE      CODE     ---       #5539
      010089EBH   LINE      CODE     ---       #5540
      010089F4H   LINE      CODE     ---       #5541
      010089FDH   LINE      CODE     ---       #5542
      010089FDH   LINE      CODE     ---       #5543
      01008A00H   LINE      CODE     ---       #5544
      01008A07H   LINE      CODE     ---       #5545
      01008A07H   LINE      CODE     ---       #5546
      01008A10H   LINE      CODE     ---       #5547
      01008A10H   LINE      CODE     ---       #5548
      01008A10H   LINE      CODE     ---       #5549
      01008A10H   LINE      CODE     ---       #5550
      01008A12H   LINE      CODE     ---       #5551
      01008A1EH   LINE      CODE     ---       #5552
      01008A1EH   LINE      CODE     ---       #5553
      01008A24H   LINE      CODE     ---       #5554
      01008A28H   LINE      CODE     ---       #5555
      01008A28H   LINE      CODE     ---       #5556
      01008A29H   LINE      CODE     ---       #5558
      01008A29H   LINE      CODE     ---       #5559
      01008A30H   LINE      CODE     ---       #5560
      01008A30H   LINE      CODE     ---       #5561
      01008A30H   LINE      CODE     ---       #5562
      01008A30H   LINE      CODE     ---       #5563
      ---         BLOCKEND  ---      ---       LVL=0

      0100BA66H   BLOCK     CODE     ---       LVL=0
      0100BA66H   LINE      CODE     ---       #5565
      0100BA66H   LINE      CODE     ---       #5566
      0100BA66H   LINE      CODE     ---       #5567
      0100BA86H   LINE      CODE     ---       #5568
      0100BA86H   LINE      CODE     ---       #5569
      0100BAACH   LINE      CODE     ---       #5570
      0100BAB7H   LINE      CODE     ---       #5571
      0100BAB7H   LINE      CODE     ---       #5572
      0100BACBH   LINE      CODE     ---       #5573
      0100BACBH   LINE      CODE     ---       #5574
      0100BAE4H   LINE      CODE     ---       #5575
      0100BAE4H   LINE      CODE     ---       #5576
      0100BAEAH   LINE      CODE     ---       #5577
      0100BAECH   LINE      CODE     ---       #5579
      0100BAECH   LINE      CODE     ---       #5580
      0100BB03H   LINE      CODE     ---       #5581
      0100BB03H   LINE      CODE     ---       #5582
      0100BB17H   LINE      CODE     ---       #5583
      0100BB17H   LINE      CODE     ---       #5584
      0100BB17H   LINE      CODE     ---       #5585
      0100BB1DH   LINE      CODE     ---       #5586
      0100BB1DH   LINE      CODE     ---       #5587
      ---         BLOCKEND  ---      ---       LVL=0

      01009D0FH   BLOCK     CODE     ---       LVL=0
      01009D0FH   BLOCK     CODE     NEAR LAB  LVL=1
      00000007H   SYMBOL    DATA     BYTE      tmp1
      02009459H   SYMBOL    XDATA    BYTE      tmp2
LX51 LINKER/LOCATER V4.66.87.0                                                        10/15/2020  10:36:21  PAGE 158


      0200945AH   SYMBOL    XDATA    WORD      TmpPage
      ---         BLOCKEND  ---      ---       LVL=1
      01009D0FH   LINE      CODE     ---       #5589
      01009D0FH   LINE      CODE     ---       #5590
      01009D0FH   LINE      CODE     ---       #5594
      01009D14H   LINE      CODE     ---       #5595
      01009D20H   LINE      CODE     ---       #5596
      01009D20H   LINE      CODE     ---       #5597
      01009D20H   LINE      CODE     ---       #5598
      01009D20H   LINE      CODE     ---       #5599
      01009D20H   LINE      CODE     ---       #5600
      01009D20H   LINE      CODE     ---       #5601
      01009D20H   LINE      CODE     ---       #5602
      01009D23H   LINE      CODE     ---       #5603
      01009D23H   LINE      CODE     ---       #5604
      01009D23H   LINE      CODE     ---       #5605
      01009D23H   LINE      CODE     ---       #5606
      01009D23H   LINE      CODE     ---       #5607
      01009D2EH   LINE      CODE     ---       #5608
      01009D2EH   LINE      CODE     ---       #5609
      01009D2FH   LINE      CODE     ---       #5610
      01009D41H   LINE      CODE     ---       #5611
      01009D41H   LINE      CODE     ---       #5612
      01009D41H   LINE      CODE     ---       #5613
      01009D43H   LINE      CODE     ---       #5614
      01009D47H   LINE      CODE     ---       #5615
      01009D47H   LINE      CODE     ---       #5616
      01009D6AH   LINE      CODE     ---       #5617
      01009D72H   LINE      CODE     ---       #5618
      01009D72H   LINE      CODE     ---       #5619
      01009D77H   LINE      CODE     ---       #5620
      01009D79H   LINE      CODE     ---       #5627
      01009D79H   LINE      CODE     ---       #5628
      01009D7FH   LINE      CODE     ---       #5629
      01009D7FH   LINE      CODE     ---       #5630
      01009D85H   LINE      CODE     ---       #5631
      01009D85H   LINE      CODE     ---       #5632
      01009DA8H   LINE      CODE     ---       #5633
      01009DB3H   LINE      CODE     ---       #5634
      01009DC3H   LINE      CODE     ---       #5635
      01009DCDH   LINE      CODE     ---       #5636
      01009DCDH   LINE      CODE     ---       #5637
      01009DCDH   LINE      CODE     ---       #5638
      01009DCFH   LINE      CODE     ---       #5640
      01009DCFH   LINE      CODE     ---       #5641
      01009DF5H   LINE      CODE     ---       #5642
      01009E04H   LINE      CODE     ---       #5643
      01009E04H   LINE      CODE     ---       #5644
      01009E10H   LINE      CODE     ---       #5645
      01009E1CH   LINE      CODE     ---       #5646
      01009E1CH   LINE      CODE     ---       #5647
      01009E33H   LINE      CODE     ---       #5648
      01009E39H   LINE      CODE     ---       #5649
      01009E39H   LINE      CODE     ---       #5650
      01009E39H   LINE      CODE     ---       #5651
      01009E39H   LINE      CODE     ---       #5652
      01009E39H   LINE      CODE     ---       #5653
      01009E39H   LINE      CODE     ---       #5654
      01009E39H   LINE      CODE     ---       #5665
      ---         BLOCKEND  ---      ---       LVL=0

      01005995H   BLOCK     CODE     ---       LVL=0
      01005995H   BLOCK     CODE     NEAR LAB  LVL=1
      02009459H   SYMBOL    XDATA    WORD      tmp
      00000007H   SYMBOL    DATA     BYTE      tmp1
LX51 LINKER/LOCATER V4.66.87.0                                                        10/15/2020  10:36:21  PAGE 159


      00000006H   SYMBOL    DATA     BYTE      tmp2
      0200945BH   SYMBOL    XDATA    BYTE      i
      0200945CH   SYMBOL    XDATA    ---       k_data
      0200946CH   SYMBOL    XDATA    ---       Pos
      ---         BLOCKEND  ---      ---       LVL=1
      01005995H   LINE      CODE     ---       #5667
      01005995H   LINE      CODE     ---       #5668
      01005995H   LINE      CODE     ---       #5674
      010059A9H   LINE      CODE     ---       #5675
      010059A9H   LINE      CODE     ---       #5676
      010059D4H   LINE      CODE     ---       #5677
      010059DEH   LINE      CODE     ---       #5678
      010059E0H   LINE      CODE     ---       #5679
      010059E9H   LINE      CODE     ---       #5680
      010059E9H   LINE      CODE     ---       #5681
      010059F2H   LINE      CODE     ---       #5682
      01005A0FH   LINE      CODE     ---       #5683
      01005A0FH   LINE      CODE     ---       #5684
      01005A0FH   LINE      CODE     ---       #5685
      01005A11H   LINE      CODE     ---       #5686
      01005A27H   LINE      CODE     ---       #5687
      01005A27H   LINE      CODE     ---       #5688
      01005A2DH   LINE      CODE     ---       #5689
      01005A2FH   LINE      CODE     ---       #5690
      01005A45H   LINE      CODE     ---       #5691
      01005A45H   LINE      CODE     ---       #5692
      01005A4CH   LINE      CODE     ---       #5693
      01005A4CH   LINE      CODE     ---       #5694
      01005A73H   LINE      CODE     ---       #5695
      01005A73H   LINE      CODE     ---       #5696
      01005A73H   LINE      CODE     ---       #5697
      01005A76H   LINE      CODE     ---       #5698
      01005A7FH   LINE      CODE     ---       #5699
      01005A7FH   LINE      CODE     ---       #5700
      01005A8AH   LINE      CODE     ---       #5701
      01005A98H   LINE      CODE     ---       #5702
      01005A9AH   LINE      CODE     ---       #5704
      01005A9AH   LINE      CODE     ---       #5705
      01005AA5H   LINE      CODE     ---       #5706
      01005AB3H   LINE      CODE     ---       #5707
      01005AB3H   LINE      CODE     ---       #5708
      01005ABDH   LINE      CODE     ---       #5709
      01005AF7H   LINE      CODE     ---       #5710
      01005AFDH   LINE      CODE     ---       #5711
      01005B11H   LINE      CODE     ---       #5712
      01005B1AH   LINE      CODE     ---       #5713
      01005B20H   LINE      CODE     ---       #5714
      01005B35H   LINE      CODE     ---       #5715
      01005B38H   LINE      CODE     ---       #5716
      01005B4BH   LINE      CODE     ---       #5717
      01005B55H   LINE      CODE     ---       #5719
      01005B5CH   LINE      CODE     ---       #5720
      01005B76H   LINE      CODE     ---       #5721
      01005B7CH   LINE      CODE     ---       #5722
      01005BAFH   LINE      CODE     ---       #5723
      01005BB2H   LINE      CODE     ---       #5724
      01005BC6H   LINE      CODE     ---       #5725
      01005BC9H   LINE      CODE     ---       #5726
      01005BCCH   LINE      CODE     ---       #5727
      01005BD5H   LINE      CODE     ---       #5728
      01005BDDH   LINE      CODE     ---       #5729
      01005BE5H   LINE      CODE     ---       #5730
      01005BEDH   LINE      CODE     ---       #5731
      01005BFCH   LINE      CODE     ---       #5732
      01005BFCH   LINE      CODE     ---       #5733
LX51 LINKER/LOCATER V4.66.87.0                                                        10/15/2020  10:36:21  PAGE 160


      01005C1FH   LINE      CODE     ---       #5734
      01005C27H   LINE      CODE     ---       #5735
      01005C2CH   LINE      CODE     ---       #5736
      01005C32H   LINE      CODE     ---       #5737
      01005C32H   LINE      CODE     ---       #5738
      01005C32H   LINE      CODE     ---       #5739
      01005C32H   LINE      CODE     ---       #5740
      ---         BLOCKEND  ---      ---       LVL=0

      0100AFB5H   BLOCK     CODE     ---       LVL=0
      02009459H   SYMBOL    XDATA    BYTE      type
      0100AFB5H   LINE      CODE     ---       #5742
      0100AFBAH   LINE      CODE     ---       #5743
      0100AFBAH   LINE      CODE     ---       #5745
      0100AFDAH   LINE      CODE     ---       #5746
      0100AFDAH   LINE      CODE     ---       #5747
      0100B000H   LINE      CODE     ---       #5748
      0100B00BH   LINE      CODE     ---       #5749
      0100B00BH   LINE      CODE     ---       #5750
      0100B01FH   LINE      CODE     ---       #5751
      0100B01FH   LINE      CODE     ---       #5752
      0100B038H   LINE      CODE     ---       #5753
      0100B038H   LINE      CODE     ---       #5754
      0100B03EH   LINE      CODE     ---       #5755
      0100B040H   LINE      CODE     ---       #5757
      0100B040H   LINE      CODE     ---       #5758
      0100B057H   LINE      CODE     ---       #5759
      0100B057H   LINE      CODE     ---       #5760
      0100B06BH   LINE      CODE     ---       #5761
      0100B06BH   LINE      CODE     ---       #5762
      0100B06BH   LINE      CODE     ---       #5763
      0100B073H   LINE      CODE     ---       #5764
      0100B073H   LINE      CODE     ---       #5765
      0100B083H   LINE      CODE     ---       #5766
      0100B083H   LINE      CODE     ---       #5767
      0100B089H   LINE      CODE     ---       #5768
      0100B08AH   LINE      CODE     ---       #5769
      0100B095H   LINE      CODE     ---       #5770
      0100B095H   LINE      CODE     ---       #5771
      0100B09BH   LINE      CODE     ---       #5772
      0100B09BH   LINE      CODE     ---       #5773
      ---         BLOCKEND  ---      ---       LVL=0

      0100B182H   BLOCK     CODE     ---       LVL=0
      0100B182H   BLOCK     CODE     NEAR LAB  LVL=1
      00000007H   SYMBOL    DATA     BYTE      tmp1
      ---         BLOCKEND  ---      ---       LVL=1
      0100B182H   LINE      CODE     ---       #5775
      0100B182H   LINE      CODE     ---       #5776
      0100B182H   LINE      CODE     ---       #5779
      0100B187H   LINE      CODE     ---       #5780
      0100B197H   LINE      CODE     ---       #5781
      0100B197H   LINE      CODE     ---       #5782
      0100B197H   LINE      CODE     ---       #5783
      0100B197H   LINE      CODE     ---       #5784
      0100B197H   LINE      CODE     ---       #5785
      0100B19AH   LINE      CODE     ---       #5786
      0100B19DH   LINE      CODE     ---       #5787
      0100B19DH   LINE      CODE     ---       #5788
      0100B1A2H   LINE      CODE     ---       #5790
      0100B1A5H   LINE      CODE     ---       #5791
      0100B1A5H   LINE      CODE     ---       #5792
      0100B1A5H   LINE      CODE     ---       #5793
      0100B1A5H   LINE      CODE     ---       #5794
      0100B1B0H   LINE      CODE     ---       #5795
LX51 LINKER/LOCATER V4.66.87.0                                                        10/15/2020  10:36:21  PAGE 161


      0100B1B0H   LINE      CODE     ---       #5796
      0100B1B1H   LINE      CODE     ---       #5797
      0100B1CDH   LINE      CODE     ---       #5798
      0100B1D8H   LINE      CODE     ---       #5799
      0100B1D8H   LINE      CODE     ---       #5800
      0100B1ECH   LINE      CODE     ---       #5801
      0100B1ECH   LINE      CODE     ---       #5802
      0100B205H   LINE      CODE     ---       #5803
      0100B205H   LINE      CODE     ---       #5804
      0100B20BH   LINE      CODE     ---       #5809
      0100B20DH   LINE      CODE     ---       #5811
      0100B20DH   LINE      CODE     ---       #5812
      0100B224H   LINE      CODE     ---       #5813
      0100B224H   LINE      CODE     ---       #5814
      0100B238H   LINE      CODE     ---       #5815
      0100B238H   LINE      CODE     ---       #5816
      0100B238H   LINE      CODE     ---       #5817
      0100B254H   LINE      CODE     ---       #5818
      0100B25AH   LINE      CODE     ---       #5819
      0100B25AH   LINE      CODE     ---       #5820
      0100B25AH   LINE      CODE     ---       #5821
      0100B25AH   LINE      CODE     ---       #5822
      0100B25AH   LINE      CODE     ---       #5823
      0100B25AH   LINE      CODE     ---       #5834
      ---         BLOCKEND  ---      ---       LVL=0

      01007515H   BLOCK     CODE     ---       LVL=0
      01007515H   BLOCK     CODE     NEAR LAB  LVL=1
      00000004H   SYMBOL    DATA     WORD      tmp
      02009459H   SYMBOL    XDATA    BYTE      tmp1
      0200945AH   SYMBOL    XDATA    BYTE      tmp2
      0200945BH   SYMBOL    XDATA    BYTE      i
      00000007H   SYMBOL    DATA     BYTE      meuntmp
      ---         BLOCKEND  ---      ---       LVL=1
      01007515H   LINE      CODE     ---       #5838
      01007515H   LINE      CODE     ---       #5839
      01007515H   LINE      CODE     ---       #5844
      01007529H   LINE      CODE     ---       #5845
      01007529H   LINE      CODE     ---       #5846
      0100754DH   LINE      CODE     ---       #5847
      01007551H   LINE      CODE     ---       #5848
      01007554H   LINE      CODE     ---       #5849
      01007565H   LINE      CODE     ---       #5850
      01007565H   LINE      CODE     ---       #5851
      0100756EH   LINE      CODE     ---       #5852
      0100758BH   LINE      CODE     ---       #5853
      0100758BH   LINE      CODE     ---       #5854
      0100758BH   LINE      CODE     ---       #5855
      0100758DH   LINE      CODE     ---       #5856
      010075A3H   LINE      CODE     ---       #5857
      010075A3H   LINE      CODE     ---       #5858
      010075A4H   LINE      CODE     ---       #5859
      010075A6H   LINE      CODE     ---       #5860
      010075BCH   LINE      CODE     ---       #5861
      010075BCH   LINE      CODE     ---       #5862
      010075BEH   LINE      CODE     ---       #5863
      010075BEH   LINE      CODE     ---       #5864
      010075E2H   LINE      CODE     ---       #5865
      010075E2H   LINE      CODE     ---       #5866
      01007604H   LINE      CODE     ---       #5867
      01007604H   LINE      CODE     ---       #5868
      0100763DH   LINE      CODE     ---       #5869
      01007645H   LINE      CODE     ---       #5870
      0100765AH   LINE      CODE     ---       #5871
      01007660H   LINE      CODE     ---       #5872
LX51 LINKER/LOCATER V4.66.87.0                                                        10/15/2020  10:36:21  PAGE 162


      01007668H   LINE      CODE     ---       #5873
      01007671H   LINE      CODE     ---       #5874
      01007677H   LINE      CODE     ---       #5875
      01007687H   LINE      CODE     ---       #5876
      0100768AH   LINE      CODE     ---       #5877
      010076B1H   LINE      CODE     ---       #5878
      010076BDH   LINE      CODE     ---       #5879
      010076BFH   LINE      CODE     ---       #5880
      010076C5H   LINE      CODE     ---       #5881
      010076DBH   LINE      CODE     ---       #5882
      010076F4H   LINE      CODE     ---       #5883
      010076F4H   LINE      CODE     ---       #5884
      010076FAH   LINE      CODE     ---       #5889
      010076FCH   LINE      CODE     ---       #5891
      010076FCH   LINE      CODE     ---       #5892
      01007713H   LINE      CODE     ---       #5893
      01007713H   LINE      CODE     ---       #5894
      01007727H   LINE      CODE     ---       #5895
      01007727H   LINE      CODE     ---       #5896
      01007727H   LINE      CODE     ---       #5897
      0100772DH   LINE      CODE     ---       #5898
      0100772DH   LINE      CODE     ---       #5899
      0100772DH   LINE      CODE     ---       #5900
      0100772DH   LINE      CODE     ---       #5901
      ---         BLOCKEND  ---      ---       LVL=0

      0100B25FH   BLOCK     CODE     ---       LVL=0
      0100B25FH   BLOCK     CODE     NEAR LAB  LVL=1
      00000007H   SYMBOL    DATA     BYTE      tmp
      ---         BLOCKEND  ---      ---       LVL=1
      0100B25FH   LINE      CODE     ---       #5903
      0100B25FH   LINE      CODE     ---       #5904
      0100B25FH   LINE      CODE     ---       #5907
      0100B264H   LINE      CODE     ---       #5908
      0100B274H   LINE      CODE     ---       #5909
      0100B274H   LINE      CODE     ---       #5910
      0100B274H   LINE      CODE     ---       #5911
      0100B277H   LINE      CODE     ---       #5912
      0100B27AH   LINE      CODE     ---       #5913
      0100B27AH   LINE      CODE     ---       #5914
      0100B27FH   LINE      CODE     ---       #5915
      0100B282H   LINE      CODE     ---       #5916
      0100B282H   LINE      CODE     ---       #5917
      0100B282H   LINE      CODE     ---       #5918
      0100B282H   LINE      CODE     ---       #5919
      0100B28DH   LINE      CODE     ---       #5920
      0100B28DH   LINE      CODE     ---       #5921
      0100B28EH   LINE      CODE     ---       #5922
      0100B2AAH   LINE      CODE     ---       #5923
      0100B2B0H   LINE      CODE     ---       #5924
      0100B2BBH   LINE      CODE     ---       #5925
      0100B2BBH   LINE      CODE     ---       #5926
      0100B2CFH   LINE      CODE     ---       #5927
      0100B2CFH   LINE      CODE     ---       #5928
      0100B2E8H   LINE      CODE     ---       #5929
      0100B2E8H   LINE      CODE     ---       #5930
      0100B2EEH   LINE      CODE     ---       #5935
      0100B2F0H   LINE      CODE     ---       #5937
      0100B2F0H   LINE      CODE     ---       #5938
      0100B307H   LINE      CODE     ---       #5939
      0100B307H   LINE      CODE     ---       #5940
      0100B31BH   LINE      CODE     ---       #5941
      0100B31BH   LINE      CODE     ---       #5942
      0100B31BH   LINE      CODE     ---       #5943
      0100B337H   LINE      CODE     ---       #5944
LX51 LINKER/LOCATER V4.66.87.0                                                        10/15/2020  10:36:21  PAGE 163


      0100B337H   LINE      CODE     ---       #5945
      0100B337H   LINE      CODE     ---       #5946
      0100B337H   LINE      CODE     ---       #5947
      0100B337H   LINE      CODE     ---       #5948
      0100B337H   LINE      CODE     ---       #5949
      ---         BLOCKEND  ---      ---       LVL=0

      01004FFCH   BLOCK     CODE     ---       LVL=0
      01004FFCH   BLOCK     CODE     NEAR LAB  LVL=1
      02009459H   SYMBOL    XDATA    WORD      ActuralY
      0200945BH   SYMBOL    XDATA    ---       k_data
      0200945FH   SYMBOL    XDATA    WORD      Percent
      02009461H   SYMBOL    XDATA    BYTE      syscfg
      ---         BLOCKEND  ---      ---       LVL=1
      01004FFCH   LINE      CODE     ---       #5952
      01004FFCH   LINE      CODE     ---       #5953
      01004FFCH   LINE      CODE     ---       #5959
      01005017H   LINE      CODE     ---       #5960
      0100501CH   LINE      CODE     ---       #5961
      01005025H   LINE      CODE     ---       #5962
      01005025H   LINE      CODE     ---       #5963
      01005038H   LINE      CODE     ---       #5964
      0100503AH   LINE      CODE     ---       #5965
      0100503DH   LINE      CODE     ---       #5966
      01005056H   LINE      CODE     ---       #5967
      01005056H   LINE      CODE     ---       #5968
      01005079H   LINE      CODE     ---       #5969
      01005079H   LINE      CODE     ---       #5970
      01005093H   LINE      CODE     ---       #5971
      010050A2H   LINE      CODE     ---       #5972
      010050BCH   LINE      CODE     ---       #5973
      010050C4H   LINE      CODE     ---       #5974
      010050C4H   LINE      CODE     ---       #5975
      010050C4H   LINE      CODE     ---       #5976
      010050C7H   LINE      CODE     ---       #5977
      010050E6H   LINE      CODE     ---       #5978
      010050E6H   LINE      CODE     ---       #5979
      01005109H   LINE      CODE     ---       #5980
      01005109H   LINE      CODE     ---       #5981
      01005117H   LINE      CODE     ---       #5982
      0100512EH   LINE      CODE     ---       #5983
      01005144H   LINE      CODE     ---       #5984
      0100514DH   LINE      CODE     ---       #5985
      01005166H   LINE      CODE     ---       #5986
      01005180H   LINE      CODE     ---       #5987
      01005196H   LINE      CODE     ---       #5988
      010051AAH   LINE      CODE     ---       #5989
      010051B3H   LINE      CODE     ---       #5990
      010051CDH   LINE      CODE     ---       #5991
      010051CDH   LINE      CODE     ---       #5992
      010051CDH   LINE      CODE     ---       #5993
      010051D0H   LINE      CODE     ---       #5994
      010051EFH   LINE      CODE     ---       #5995
      010051EFH   LINE      CODE     ---       #5996
      01005212H   LINE      CODE     ---       #5997
      01005212H   LINE      CODE     ---       #5998
      01005220H   LINE      CODE     ---       #5999
      01005237H   LINE      CODE     ---       #6000
      0100524DH   LINE      CODE     ---       #6001
      01005256H   LINE      CODE     ---       #6002
      0100526FH   LINE      CODE     ---       #6003
      01005289H   LINE      CODE     ---       #6004
      010052A0H   LINE      CODE     ---       #6005
      010052B5H   LINE      CODE     ---       #6006
      010052C0H   LINE      CODE     ---       #6007
LX51 LINKER/LOCATER V4.66.87.0                                                        10/15/2020  10:36:21  PAGE 164


      010052C6H   LINE      CODE     ---       #6008
      010052E0H   LINE      CODE     ---       #6009
      010052E6H   LINE      CODE     ---       #6010
      010052E6H   LINE      CODE     ---       #6011
      010052E8H   LINE      CODE     ---       #6012
      01005301H   LINE      CODE     ---       #6013
      01005301H   LINE      CODE     ---       #6014
      0100531EH   LINE      CODE     ---       #6015
      0100531EH   LINE      CODE     ---       #6016
      01005325H   LINE      CODE     ---       #6017
      01005325H   LINE      CODE     ---       #6018
      01005325H   LINE      CODE     ---       #6019
      0100532BH   LINE      CODE     ---       #6020
      0100532BH   LINE      CODE     ---       #6021
      01005331H   LINE      CODE     ---       #6022
      01005339H   LINE      CODE     ---       #6023
      01005342H   LINE      CODE     ---       #6024
      01005348H   LINE      CODE     ---       #6025
      01005354H   LINE      CODE     ---       #6026
      01005357H   LINE      CODE     ---       #6027
      01005357H   LINE      CODE     ---       #6028
      ---         BLOCKEND  ---      ---       LVL=0

      0100C5BAH   BLOCK     CODE     ---       LVL=0
      0100C5BAH   LINE      CODE     ---       #6030
      0100C5BAH   LINE      CODE     ---       #6031
      0100C5BAH   LINE      CODE     ---       #6032
      0100C5D7H   LINE      CODE     ---       #6033
      0100C5D7H   LINE      CODE     ---       #6034
      0100C5F2H   LINE      CODE     ---       #6035
      0100C5F6H   LINE      CODE     ---       #6036
      0100C5F6H   LINE      CODE     ---       #6037
      0100C5FDH   LINE      CODE     ---       #6038
      0100C5FDH   LINE      CODE     ---       #6039
      0100C60CH   LINE      CODE     ---       #6040
      0100C60CH   LINE      CODE     ---       #6041
      0100C613H   LINE      CODE     ---       #6042
      0100C613H   LINE      CODE     ---       #6043
      0100C619H   LINE      CODE     ---       #6044
      0100C619H   LINE      CODE     ---       #6045
      ---         BLOCKEND  ---      ---       LVL=0

      01005C33H   BLOCK     CODE     ---       LVL=0
      01005C33H   BLOCK     CODE     NEAR LAB  LVL=1
      02009459H   SYMBOL    XDATA    WORD      ActuralY
      0200945BH   SYMBOL    XDATA    ---       k_data
      0200945FH   SYMBOL    XDATA    WORD      Percent
      00000005H   SYMBOL    DATA     BYTE      syscfg
      ---         BLOCKEND  ---      ---       LVL=1
      01005C33H   LINE      CODE     ---       #6047
      01005C33H   LINE      CODE     ---       #6048
      01005C33H   LINE      CODE     ---       #6054
      01005C4EH   LINE      CODE     ---       #6055
      01005C50H   LINE      CODE     ---       #6056
      01005C6BH   LINE      CODE     ---       #6057
      01005C6BH   LINE      CODE     ---       #6058
      01005C71H   LINE      CODE     ---       #6059
      01005C71H   LINE      CODE     ---       #6060
      01005C73H   LINE      CODE     ---       #6061
      01005C73H   LINE      CODE     ---       #6062
      01005CA1H   LINE      CODE     ---       #6063
      01005CA1H   LINE      CODE     ---       #6064
      01005CB5H   LINE      CODE     ---       #6065
      01005CCCH   LINE      CODE     ---       #6066
      01005CE2H   LINE      CODE     ---       #6067
LX51 LINKER/LOCATER V4.66.87.0                                                        10/15/2020  10:36:21  PAGE 165


      01005CEBH   LINE      CODE     ---       #6068
      01005D04H   LINE      CODE     ---       #6069
      01005D1EH   LINE      CODE     ---       #6070
      01005D34H   LINE      CODE     ---       #6071
      01005D48H   LINE      CODE     ---       #6072
      01005D51H   LINE      CODE     ---       #6073
      01005D62H   LINE      CODE     ---       #6074
      01005D62H   LINE      CODE     ---       #6075
      01005D62H   LINE      CODE     ---       #6076
      01005D65H   LINE      CODE     ---       #6077
      01005D84H   LINE      CODE     ---       #6078
      01005D84H   LINE      CODE     ---       #6079
      01005D8AH   LINE      CODE     ---       #6080
      01005D8AH   LINE      CODE     ---       #6081
      01005D8DH   LINE      CODE     ---       #6082
      01005D8DH   LINE      CODE     ---       #6083
      01005DBBH   LINE      CODE     ---       #6084
      01005DBBH   LINE      CODE     ---       #6085
      01005DCFH   LINE      CODE     ---       #6086
      01005DE6H   LINE      CODE     ---       #6087
      01005DFCH   LINE      CODE     ---       #6088
      01005E05H   LINE      CODE     ---       #6089
      01005E1EH   LINE      CODE     ---       #6090
      01005E38H   LINE      CODE     ---       #6091
      01005E4FH   LINE      CODE     ---       #6092
      01005E64H   LINE      CODE     ---       #6093
      01005E6FH   LINE      CODE     ---       #6094
      01005E75H   LINE      CODE     ---       #6095
      01005E8FH   LINE      CODE     ---       #6096
      01005E91H   LINE      CODE     ---       #6097
      01005E91H   LINE      CODE     ---       #6098
      01005E91H   LINE      CODE     ---       #6099
      01005E94H   LINE      CODE     ---       #6100
      01005E94H   LINE      CODE     ---       #6101
      01005E9AH   LINE      CODE     ---       #6102
      01005EA2H   LINE      CODE     ---       #6103
      01005EABH   LINE      CODE     ---       #6104
      01005EB1H   LINE      CODE     ---       #6105
      01005EBDH   LINE      CODE     ---       #6106
      01005EC0H   LINE      CODE     ---       #6107
      01005EC0H   LINE      CODE     ---       #6108
      ---         BLOCKEND  ---      ---       LVL=0

      0100C13EH   BLOCK     CODE     ---       LVL=0
      0100C13EH   BLOCK     CODE     NEAR LAB  LVL=1
      00000007H   SYMBOL    DATA     BYTE      tmp
      ---         BLOCKEND  ---      ---       LVL=1
      0100C13EH   LINE      CODE     ---       #6110
      0100C13EH   LINE      CODE     ---       #6111
      0100C13EH   LINE      CODE     ---       #6114
      0100C143H   LINE      CODE     ---       #6115
      0100C152H   LINE      CODE     ---       #6116
      0100C152H   LINE      CODE     ---       #6117
      0100C152H   LINE      CODE     ---       #6118
      0100C155H   LINE      CODE     ---       #6119
      0100C155H   LINE      CODE     ---       #6120
      0100C155H   LINE      CODE     ---       #6121
      0100C158H   LINE      CODE     ---       #6122
      0100C158H   LINE      CODE     ---       #6123
      0100C158H   LINE      CODE     ---       #6124
      0100C15BH   LINE      CODE     ---       #6125
      0100C15BH   LINE      CODE     ---       #6126
      0100C15BH   LINE      CODE     ---       #6127
      0100C164H   LINE      CODE     ---       #6128
      0100C164H   LINE      CODE     ---       #6129
LX51 LINKER/LOCATER V4.66.87.0                                                        10/15/2020  10:36:21  PAGE 166


      0100C165H   LINE      CODE     ---       #6130
      0100C179H   LINE      CODE     ---       #6131
      0100C17DH   LINE      CODE     ---       #6132
      0100C17DH   LINE      CODE     ---       #6133
      0100C184H   LINE      CODE     ---       #6134
      0100C184H   LINE      CODE     ---       #6135
      0100C193H   LINE      CODE     ---       #6136
      0100C193H   LINE      CODE     ---       #6137
      0100C19AH   LINE      CODE     ---       #6138
      0100C19AH   LINE      CODE     ---       #6139
      0100C1A9H   LINE      CODE     ---       #6140
      0100C1AFH   LINE      CODE     ---       #6141
      0100C1B0H   LINE      CODE     ---       #6142
      0100C1B4H   LINE      CODE     ---       #6143
      0100C1B4H   LINE      CODE     ---       #6144
      0100C1B9H   LINE      CODE     ---       #6145
      0100C1BDH   LINE      CODE     ---       #6146
      0100C1BDH   LINE      CODE     ---       #6147
      0100C1BDH   LINE      CODE     ---       #6148
      0100C1BDH   LINE      CODE     ---       #6149
      0100C1BDH   LINE      CODE     ---       #6150
      0100C1BDH   LINE      CODE     ---       #6151
      ---         BLOCKEND  ---      ---       LVL=0

      0100BB1EH   BLOCK     CODE     ---       LVL=0
      0100BB1EH   LINE      CODE     ---       #6154
      0100BB1EH   LINE      CODE     ---       #6155
      0100BB1EH   LINE      CODE     ---       #6156
      0100BB3EH   LINE      CODE     ---       #6157
      0100BB3EH   LINE      CODE     ---       #6158
      0100BB64H   LINE      CODE     ---       #6159
      0100BB6FH   LINE      CODE     ---       #6160
      0100BB6FH   LINE      CODE     ---       #6161
      0100BB83H   LINE      CODE     ---       #6162
      0100BB83H   LINE      CODE     ---       #6163
      0100BB9CH   LINE      CODE     ---       #6164
      0100BB9CH   LINE      CODE     ---       #6165
      0100BBA2H   LINE      CODE     ---       #6166
      0100BBA4H   LINE      CODE     ---       #6168
      0100BBA4H   LINE      CODE     ---       #6169
      0100BBBBH   LINE      CODE     ---       #6170
      0100BBBBH   LINE      CODE     ---       #6171
      0100BBCFH   LINE      CODE     ---       #6172
      0100BBCFH   LINE      CODE     ---       #6173
      0100BBCFH   LINE      CODE     ---       #6174
      0100BBD5H   LINE      CODE     ---       #6175
      0100BBD5H   LINE      CODE     ---       #6176
      ---         BLOCKEND  ---      ---       LVL=0

      0100A084H   BLOCK     CODE     ---       LVL=0
      0100A084H   BLOCK     CODE     NEAR LAB  LVL=1
      00000007H   SYMBOL    DATA     BYTE      tmp1
      02009459H   SYMBOL    XDATA    BYTE      tmp2
      0200945AH   SYMBOL    XDATA    WORD      TmpPage
      ---         BLOCKEND  ---      ---       LVL=1
      0100A084H   LINE      CODE     ---       #6178
      0100A084H   LINE      CODE     ---       #6179
      0100A084H   LINE      CODE     ---       #6183
      0100A089H   LINE      CODE     ---       #6184
      0100A091H   LINE      CODE     ---       #6185
      0100A091H   LINE      CODE     ---       #6186
      0100A091H   LINE      CODE     ---       #6187
      0100A091H   LINE      CODE     ---       #6188
      0100A091H   LINE      CODE     ---       #6189
      0100A091H   LINE      CODE     ---       #6190
LX51 LINKER/LOCATER V4.66.87.0                                                        10/15/2020  10:36:21  PAGE 167


      0100A091H   LINE      CODE     ---       #6191
      0100A091H   LINE      CODE     ---       #6192
      0100A091H   LINE      CODE     ---       #6194
      0100A091H   LINE      CODE     ---       #6195
      0100A091H   LINE      CODE     ---       #6196
      0100A09CH   LINE      CODE     ---       #6197
      0100A09CH   LINE      CODE     ---       #6198
      0100A09DH   LINE      CODE     ---       #6199
      0100A0AFH   LINE      CODE     ---       #6200
      0100A0AFH   LINE      CODE     ---       #6201
      0100A0AFH   LINE      CODE     ---       #6202
      0100A0B1H   LINE      CODE     ---       #6203
      0100A0B5H   LINE      CODE     ---       #6204
      0100A0B5H   LINE      CODE     ---       #6205
      0100A0D8H   LINE      CODE     ---       #6206
      0100A0E0H   LINE      CODE     ---       #6207
      0100A0E0H   LINE      CODE     ---       #6208
      0100A0E5H   LINE      CODE     ---       #6209
      0100A0E7H   LINE      CODE     ---       #6216
      0100A0E7H   LINE      CODE     ---       #6217
      0100A0EDH   LINE      CODE     ---       #6218
      0100A0EDH   LINE      CODE     ---       #6219
      0100A0F3H   LINE      CODE     ---       #6220
      0100A0F3H   LINE      CODE     ---       #6221
      0100A116H   LINE      CODE     ---       #6222
      0100A121H   LINE      CODE     ---       #6223
      0100A131H   LINE      CODE     ---       #6224
      0100A13BH   LINE      CODE     ---       #6225
      0100A13BH   LINE      CODE     ---       #6226
      0100A13BH   LINE      CODE     ---       #6227
      0100A13DH   LINE      CODE     ---       #6229
      0100A13DH   LINE      CODE     ---       #6230
      0100A163H   LINE      CODE     ---       #6231
      0100A172H   LINE      CODE     ---       #6232
      0100A172H   LINE      CODE     ---       #6233
      0100A17EH   LINE      CODE     ---       #6234
      0100A18AH   LINE      CODE     ---       #6235
      0100A18AH   LINE      CODE     ---       #6236
      0100A1A1H   LINE      CODE     ---       #6237
      0100A1A7H   LINE      CODE     ---       #6238
      0100A1A7H   LINE      CODE     ---       #6239
      0100A1A7H   LINE      CODE     ---       #6240
      0100A1A7H   LINE      CODE     ---       #6241
      0100A1A7H   LINE      CODE     ---       #6242
      0100A1A7H   LINE      CODE     ---       #6243
      0100A1A7H   LINE      CODE     ---       #6254
      ---         BLOCKEND  ---      ---       LVL=0

      01005EC1H   BLOCK     CODE     ---       LVL=0
      00000006H   SYMBOL    DATA     WORD      SerialAddress
      02009502H   SYMBOL    XDATA    BYTE      IncreseID
      01005EC6H   BLOCK     CODE     NEAR LAB  LVL=1
      02009503H   SYMBOL    XDATA    BYTE      i
      00000007H   SYMBOL    DATA     BYTE      j
      02009504H   SYMBOL    XDATA    ---       tmp
      02009704H   SYMBOL    XDATA    ---       k_data
      02009708H   SYMBOL    XDATA    BYTE      RefDisplay
      00000007H   SYMBOL    DATA     BYTE      tmp1
      00000006H   SYMBOL    DATA     BYTE      tmp2
      ---         BLOCKEND  ---      ---       LVL=1
      01005EC1H   LINE      CODE     ---       #6256
      01005EC6H   LINE      CODE     ---       #6257
      01005EC6H   LINE      CODE     ---       #6264
      01005ECBH   LINE      CODE     ---       #6265
      01005ED1H   LINE      CODE     ---       #6266
LX51 LINKER/LOCATER V4.66.87.0                                                        10/15/2020  10:36:21  PAGE 168


      01005EDFH   LINE      CODE     ---       #6267
      01005EE8H   LINE      CODE     ---       #6268
      01005EEEH   LINE      CODE     ---       #6269
      01005EFBH   LINE      CODE     ---       #6270
      01005EFEH   LINE      CODE     ---       #6271
      01005F10H   LINE      CODE     ---       #6273
      01005F22H   LINE      CODE     ---       #6275
      01005F24H   LINE      CODE     ---       #6276
      01005F2CH   LINE      CODE     ---       #6277
      01005F36H   LINE      CODE     ---       #6278
      01005F4FH   LINE      CODE     ---       #6279
      01005F4FH   LINE      CODE     ---       #6280
      01005F6AH   LINE      CODE     ---       #6281
      01005F6AH   LINE      CODE     ---       #6282
      01005F93H   LINE      CODE     ---       #6283
      01005F94H   LINE      CODE     ---       #6284
      01005FA2H   LINE      CODE     ---       #6285
      01005FA2H   LINE      CODE     ---       #6286
      01005FAAH   LINE      CODE     ---       #6287
      01005FB0H   LINE      CODE     ---       #6288
      01005FB0H   LINE      CODE     ---       #6289
      01005FC3H   LINE      CODE     ---       #6290
      01005FC6H   LINE      CODE     ---       #6291
      01005FCCH   LINE      CODE     ---       #6292
      01005FDAH   LINE      CODE     ---       #6293
      01005FDDH   LINE      CODE     ---       #6294
      01005FF7H   LINE      CODE     ---       #6295
      01005FFFH   LINE      CODE     ---       #6296
      01005FFFH   LINE      CODE     ---       #6297
      01006005H   LINE      CODE     ---       #6298
      01006007H   LINE      CODE     ---       #6299
      0100600BH   LINE      CODE     ---       #6300
      0100600BH   LINE      CODE     ---       #6301
      01006011H   LINE      CODE     ---       #6302
      01006011H   LINE      CODE     ---       #6303
      0100601AH   LINE      CODE     ---       #6304
      0100601AH   LINE      CODE     ---       #6305
      0100601FH   LINE      CODE     ---       #6306
      0100601FH   LINE      CODE     ---       #6307
      01006057H   LINE      CODE     ---       #6308
      01006061H   LINE      CODE     ---       #6309
      0100607DH   LINE      CODE     ---       #6310
      01006089H   LINE      CODE     ---       #6311
      01006089H   LINE      CODE     ---       #6312
      01006098H   LINE      CODE     ---       #6313
      010060A1H   LINE      CODE     ---       #6314
      010060A3H   LINE      CODE     ---       #6315
      010060A4H   LINE      CODE     ---       #6316
      010060B7H   LINE      CODE     ---       #6317
      010060C9H   LINE      CODE     ---       #6318
      010060CBH   LINE      CODE     ---       #6320
      010060CBH   LINE      CODE     ---       #6321
      010060DCH   LINE      CODE     ---       #6322
      010060DCH   LINE      CODE     ---       #6323
      01006102H   LINE      CODE     ---       #6324
      01006102H   LINE      CODE     ---       #6325
      0100610BH   LINE      CODE     ---       #6326
      0100611CH   LINE      CODE     ---       #6327
      0100611CH   LINE      CODE     ---       #6328
      01006123H   LINE      CODE     ---       #6329
      01006123H   LINE      CODE     ---       #6330
      01006127H   LINE      CODE     ---       #6331
      01006129H   LINE      CODE     ---       #6333
      01006129H   LINE      CODE     ---       #6334
      01006130H   LINE      CODE     ---       #6335
LX51 LINKER/LOCATER V4.66.87.0                                                        10/15/2020  10:36:21  PAGE 169


      01006130H   LINE      CODE     ---       #6336
      01006130H   LINE      CODE     ---       #6337
      ---         BLOCKEND  ---      ---       LVL=0

      010065E2H   BLOCK     CODE     ---       LVL=0
      00000006H   SYMBOL    DATA     WORD      SerialAddress
      0200947CH   SYMBOL    XDATA    BYTE      DecreseID
      010065E7H   BLOCK     CODE     NEAR LAB  LVL=1
      0200947DH   SYMBOL    XDATA    BYTE      i
      00000007H   SYMBOL    DATA     BYTE      j
      0200947EH   SYMBOL    XDATA    ---       tmp
      0200967EH   SYMBOL    XDATA    ---       k_data
      02009682H   SYMBOL    XDATA    BYTE      RefDisplay
      00000007H   SYMBOL    DATA     BYTE      tmp1
      00000006H   SYMBOL    DATA     BYTE      tmp2
      ---         BLOCKEND  ---      ---       LVL=1
      010065E2H   LINE      CODE     ---       #6339
      010065E7H   LINE      CODE     ---       #6340
      010065E7H   LINE      CODE     ---       #6347
      010065EDH   LINE      CODE     ---       #6348
      010065FBH   LINE      CODE     ---       #6349
      01006604H   LINE      CODE     ---       #6350
      0100660AH   LINE      CODE     ---       #6351
      01006617H   LINE      CODE     ---       #6352
      0100661AH   LINE      CODE     ---       #6353
      0100662CH   LINE      CODE     ---       #6355
      0100662EH   LINE      CODE     ---       #6356
      01006634H   LINE      CODE     ---       #6357
      0100664CH   LINE      CODE     ---       #6358
      0100664CH   LINE      CODE     ---       #6359
      0100666CH   LINE      CODE     ---       #6360
      0100666CH   LINE      CODE     ---       #6361
      01006695H   LINE      CODE     ---       #6362
      01006696H   LINE      CODE     ---       #6363
      010066A4H   LINE      CODE     ---       #6364
      010066A4H   LINE      CODE     ---       #6365
      010066ACH   LINE      CODE     ---       #6366
      010066B2H   LINE      CODE     ---       #6367
      010066B2H   LINE      CODE     ---       #6368
      010066C5H   LINE      CODE     ---       #6369
      010066C8H   LINE      CODE     ---       #6370
      010066CEH   LINE      CODE     ---       #6371
      010066DCH   LINE      CODE     ---       #6372
      010066DFH   LINE      CODE     ---       #6373
      010066F9H   LINE      CODE     ---       #6374
      01006701H   LINE      CODE     ---       #6375
      01006701H   LINE      CODE     ---       #6376
      01006707H   LINE      CODE     ---       #6377
      01006709H   LINE      CODE     ---       #6378
      0100670DH   LINE      CODE     ---       #6379
      0100670DH   LINE      CODE     ---       #6380
      01006713H   LINE      CODE     ---       #6381
      01006713H   LINE      CODE     ---       #6382
      0100671CH   LINE      CODE     ---       #6383
      0100671CH   LINE      CODE     ---       #6384
      01006721H   LINE      CODE     ---       #6385
      01006721H   LINE      CODE     ---       #6386
      01006759H   LINE      CODE     ---       #6387
      01006763H   LINE      CODE     ---       #6388
      0100677FH   LINE      CODE     ---       #6389
      0100678BH   LINE      CODE     ---       #6390
      0100678BH   LINE      CODE     ---       #6391
      0100679AH   LINE      CODE     ---       #6392
      010067A3H   LINE      CODE     ---       #6393
      010067A5H   LINE      CODE     ---       #6394
LX51 LINKER/LOCATER V4.66.87.0                                                        10/15/2020  10:36:21  PAGE 170


      010067A6H   LINE      CODE     ---       #6395
      010067B9H   LINE      CODE     ---       #6396
      010067CBH   LINE      CODE     ---       #6397
      010067CDH   LINE      CODE     ---       #6399
      010067CDH   LINE      CODE     ---       #6400
      010067DEH   LINE      CODE     ---       #6401
      010067DEH   LINE      CODE     ---       #6402
      01006804H   LINE      CODE     ---       #6403
      01006804H   LINE      CODE     ---       #6404
      0100680DH   LINE      CODE     ---       #6405
      0100681EH   LINE      CODE     ---       #6406
      0100681EH   LINE      CODE     ---       #6407
      01006825H   LINE      CODE     ---       #6408
      01006825H   LINE      CODE     ---       #6409
      01006829H   LINE      CODE     ---       #6410
      0100682BH   LINE      CODE     ---       #6412
      0100682BH   LINE      CODE     ---       #6413
      01006832H   LINE      CODE     ---       #6414
      01006832H   LINE      CODE     ---       #6415
      01006832H   LINE      CODE     ---       #6416
      ---         BLOCKEND  ---      ---       LVL=0

      010070DBH   BLOCK     CODE     ---       LVL=0
      010070DBH   BLOCK     CODE     NEAR LAB  LVL=1
      0200945AH   SYMBOL    XDATA    ---       k_data
      0200947AH   SYMBOL    XDATA    WORD      AtualY
      00000006H   SYMBOL    DATA     WORD      tmp
      ---         BLOCKEND  ---      ---       LVL=1
      010070DBH   LINE      CODE     ---       #6418
      010070DBH   LINE      CODE     ---       #6419
      010070DBH   LINE      CODE     ---       #6424
      01007101H   LINE      CODE     ---       #6425
      0100711BH   LINE      CODE     ---       #6426
      0100711BH   LINE      CODE     ---       #6427
      0100713EH   LINE      CODE     ---       #6428
      0100713EH   LINE      CODE     ---       #6429
      0100713EH   LINE      CODE     ---       #6430
      01007141H   LINE      CODE     ---       #6431
      0100715BH   LINE      CODE     ---       #6432
      0100716AH   LINE      CODE     ---       #6433
      01007184H   LINE      CODE     ---       #6434
      0100719BH   LINE      CODE     ---       #6435
      010071AEH   LINE      CODE     ---       #6436
      010071BBH   LINE      CODE     ---       #6437
      010071C3H   LINE      CODE     ---       #6438
      010071C9H   LINE      CODE     ---       #6439
      010071D7H   LINE      CODE     ---       #6440
      010071E0H   LINE      CODE     ---       #6441
      010071E6H   LINE      CODE     ---       #6442
      010071FBH   LINE      CODE     ---       #6443
      010071FEH   LINE      CODE     ---       #6444
      01007214H   LINE      CODE     ---       #6445
      01007214H   LINE      CODE     ---       #6446
      0100722AH   LINE      CODE     ---       #6447
      0100722AH   LINE      CODE     ---       #6449
      0100722AH   LINE      CODE     ---       #6450
      01007240H   LINE      CODE     ---       #6451
      01007240H   LINE      CODE     ---       #6452
      01007240H   LINE      CODE     ---       #6453
      01007254H   LINE      CODE     ---       #6454
      01007254H   LINE      CODE     ---       #6455
      0100725BH   LINE      CODE     ---       #6456
      01007260H   LINE      CODE     ---       #6457
      01007264H   LINE      CODE     ---       #6458
      0100726FH   LINE      CODE     ---       #6459
LX51 LINKER/LOCATER V4.66.87.0                                                        10/15/2020  10:36:21  PAGE 171


      0100726FH   LINE      CODE     ---       #6460
      0100726FH   LINE      CODE     ---       #6461
      01007288H   LINE      CODE     ---       #6462
      01007288H   LINE      CODE     ---       #6463
      010072A5H   LINE      CODE     ---       #6464
      010072A5H   LINE      CODE     ---       #6465
      010072A5H   LINE      CODE     ---       #6466
      010072A8H   LINE      CODE     ---       #6467
      010072AEH   LINE      CODE     ---       #6468
      010072AEH   LINE      CODE     ---       #6469
      010072B1H   LINE      CODE     ---       #6470
      010072B6H   LINE      CODE     ---       #6471
      010072BBH   LINE      CODE     ---       #6472
      010072BBH   LINE      CODE     ---       #6473
      010072BBH   LINE      CODE     ---       #6474
      010072D8H   LINE      CODE     ---       #6475
      010072D8H   LINE      CODE     ---       #6476
      010072D8H   LINE      CODE     ---       #6477
      010072DBH   LINE      CODE     ---       #6478
      010072F1H   LINE      CODE     ---       #6479
      010072F6H   LINE      CODE     ---       #6480
      010072F9H   LINE      CODE     ---       #6481
      010072F9H   LINE      CODE     ---       #6482
      010072F9H   LINE      CODE     ---       #6483
      ---         BLOCKEND  ---      ---       LVL=0

      0100BF99H   BLOCK     CODE     ---       LVL=0
      0100BF99H   LINE      CODE     ---       #6485
      0100BF99H   LINE      CODE     ---       #6486
      0100BF99H   LINE      CODE     ---       #6487
      0100BFADH   LINE      CODE     ---       #6488
      0100BFADH   LINE      CODE     ---       #6489
      0100BFCDH   LINE      CODE     ---       #6490
      0100BFD8H   LINE      CODE     ---       #6491
      0100BFD8H   LINE      CODE     ---       #6492
      0100BFECH   LINE      CODE     ---       #6493
      0100BFECH   LINE      CODE     ---       #6494
      0100C012H   LINE      CODE     ---       #6495
      0100C012H   LINE      CODE     ---       #6496
      0100C01BH   LINE      CODE     ---       #6497
      0100C01BH   LINE      CODE     ---       #6498
      0100C021H   LINE      CODE     ---       #6499
      0100C027H   LINE      CODE     ---       #6500
      0100C027H   LINE      CODE     ---       #6501
      ---         BLOCKEND  ---      ---       LVL=0

      0100B5B0H   BLOCK     CODE     ---       LVL=0
      0100B5B0H   BLOCK     CODE     NEAR LAB  LVL=1
      00000007H   SYMBOL    DATA     BYTE      tmp1
      02009459H   SYMBOL    XDATA    BYTE      CurrentScan
      ---         BLOCKEND  ---      ---       LVL=1
      0100B5B0H   LINE      CODE     ---       #6503
      0100B5B0H   LINE      CODE     ---       #6504
      0100B5B0H   LINE      CODE     ---       #6508
      0100B5B8H   LINE      CODE     ---       #6509
      0100B5BDH   LINE      CODE     ---       #6510
      0100B5CDH   LINE      CODE     ---       #6511
      0100B5CDH   LINE      CODE     ---       #6512
      0100B5CDH   LINE      CODE     ---       #6513
      0100B5D0H   LINE      CODE     ---       #6514
      0100B5D2H   LINE      CODE     ---       #6515
      0100B5D2H   LINE      CODE     ---       #6516
      0100B5D5H   LINE      CODE     ---       #6517
      0100B5D7H   LINE      CODE     ---       #6518
      0100B5D7H   LINE      CODE     ---       #6519
LX51 LINKER/LOCATER V4.66.87.0                                                        10/15/2020  10:36:21  PAGE 172


      0100B5D7H   LINE      CODE     ---       #6520
      0100B5D7H   LINE      CODE     ---       #6521
      0100B5DFH   LINE      CODE     ---       #6522
      0100B5DFH   LINE      CODE     ---       #6523
      0100B5E0H   LINE      CODE     ---       #6524
      0100B5FCH   LINE      CODE     ---       #6525
      0100B607H   LINE      CODE     ---       #6526
      0100B607H   LINE      CODE     ---       #6527
      0100B61BH   LINE      CODE     ---       #6528
      0100B61BH   LINE      CODE     ---       #6529
      0100B641H   LINE      CODE     ---       #6530
      0100B641H   LINE      CODE     ---       #6531
      0100B64AH   LINE      CODE     ---       #6532
      0100B64AH   LINE      CODE     ---       #6533
      0100B650H   LINE      CODE     ---       #6534
      0100B650H   LINE      CODE     ---       #6535
      0100B650H   LINE      CODE     ---       #6536
      0100B650H   LINE      CODE     ---       #6537
      0100B650H   LINE      CODE     ---       #6538
      0100B650H   LINE      CODE     ---       #6551
      0100B653H   LINE      CODE     ---       #6552
      0100B65AH   LINE      CODE     ---       #6553
      0100B65AH   LINE      CODE     ---       #6554
      0100B661H   LINE      CODE     ---       #6555
      0100B661H   LINE      CODE     ---       #6556
      0100B67AH   LINE      CODE     ---       #6557
      0100B67AH   LINE      CODE     ---       #6558
      0100B67AH   LINE      CODE     ---       #6559
      ---         BLOCKEND  ---      ---       LVL=0

      0100C9C1H   BLOCK     CODE     ---       LVL=0
      0100C9C1H   BLOCK     CODE     NEAR LAB  LVL=1
      00000007H   SYMBOL    DATA     BYTE      page_id
      ---         BLOCKEND  ---      ---       LVL=1
      0100C9C1H   LINE      CODE     ---       #6562
      0100C9C1H   LINE      CODE     ---       #6563
      0100C9C1H   LINE      CODE     ---       #6566
      0100C9C3H   LINE      CODE     ---       #6567
      0100C9C6H   LINE      CODE     ---       #6568
      0100C9C8H   LINE      CODE     ---       #6569
      0100C9CBH   LINE      CODE     ---       #6570
      0100C9CEH   LINE      CODE     ---       #6571
      0100C9D1H   LINE      CODE     ---       #6572
      0100C9D4H   LINE      CODE     ---       #6573
      0100C9D6H   LINE      CODE     ---       #6574
      0100C9D9H   LINE      CODE     ---       #6575
      0100C9DBH   LINE      CODE     ---       #6576
      0100C9DEH   LINE      CODE     ---       #6577
      0100C9E0H   LINE      CODE     ---       #6578
      0100C9F8H   LINE      CODE     ---       #6579
      0100C9F8H   LINE      CODE     ---       #6580
      0100C9F8H   LINE      CODE     ---       #6581
      0100C9FBH   LINE      CODE     ---       #6582
      0100C9FBH   LINE      CODE     ---       #6583
      0100C9FBH   LINE      CODE     ---       #6584
      0100C9FEH   LINE      CODE     ---       #6585
      0100C9FEH   LINE      CODE     ---       #6586
      0100C9FEH   LINE      CODE     ---       #6587
      0100CA01H   LINE      CODE     ---       #6588
      0100CA01H   LINE      CODE     ---       #6589
      0100CA01H   LINE      CODE     ---       #6590
      0100CA04H   LINE      CODE     ---       #6591
      0100CA04H   LINE      CODE     ---       #6592
      0100CA04H   LINE      CODE     ---       #6593
      0100CA07H   LINE      CODE     ---       #6594
LX51 LINKER/LOCATER V4.66.87.0                                                        10/15/2020  10:36:21  PAGE 173


      0100CA07H   LINE      CODE     ---       #6595
      0100CA07H   LINE      CODE     ---       #6596
      0100CA0AH   LINE      CODE     ---       #6597
      0100CA0AH   LINE      CODE     ---       #6598
      0100CA0AH   LINE      CODE     ---       #6599
      0100CA0AH   LINE      CODE     ---       #6600
      0100CA0AH   LINE      CODE     ---       #6601
      ---         BLOCKEND  ---      ---       LVL=0

      0100AA0BH   BLOCK     CODE     ---       LVL=0
      0100AA0BH   BLOCK     CODE     NEAR LAB  LVL=1
      02009459H   SYMBOL    XDATA    BYTE      page_id
      0200945AH   SYMBOL    XDATA    ---       k_data
      ---         BLOCKEND  ---      ---       LVL=1
      0100AA0BH   LINE      CODE     ---       #6622
      0100AA0BH   LINE      CODE     ---       #6623
      0100AA0BH   LINE      CODE     ---       #6627
      0100AA0DH   LINE      CODE     ---       #6628
      0100AA10H   LINE      CODE     ---       #6629
      0100AA12H   LINE      CODE     ---       #6630
      0100AA15H   LINE      CODE     ---       #6631
      0100AA18H   LINE      CODE     ---       #6632
      0100AA1BH   LINE      CODE     ---       #6633
      0100AA1EH   LINE      CODE     ---       #6634
      0100AA20H   LINE      CODE     ---       #6635
      0100AA23H   LINE      CODE     ---       #6636
      0100AA29H   LINE      CODE     ---       #6637
      0100AA2CH   LINE      CODE     ---       #6638
      0100AA2EH   LINE      CODE     ---       #6639
      0100AA48H   LINE      CODE     ---       #6640
      0100AA48H   LINE      CODE     ---       #6641
      0100AA4BH   LINE      CODE     ---       #6642
      0100AA4BH   LINE      CODE     ---       #6643
      0100AA68H   LINE      CODE     ---       #6644
      0100AA68H   LINE      CODE     ---       #6645
      0100AA6DH   LINE      CODE     ---       #6646
      0100AA6FH   LINE      CODE     ---       #6647
      0100AA74H   LINE      CODE     ---       #6648
      0100AA74H   LINE      CODE     ---       #6649
      0100AA7AH   LINE      CODE     ---       #6650
      0100AA7CH   LINE      CODE     ---       #6651
      0100AA7CH   LINE      CODE     ---       #6652
      0100AA81H   LINE      CODE     ---       #6653
      0100AA89H   LINE      CODE     ---       #6654
      0100AAA3H   LINE      CODE     ---       #6655
      0100AAAAH   LINE      CODE     ---       #6656
      0100AAAAH   LINE      CODE     ---       #6657
      0100AAC3H   LINE      CODE     ---       #6658
      0100AAC3H   LINE      CODE     ---       #6660
      0100AAC3H   LINE      CODE     ---       #6661
      0100AAC9H   LINE      CODE     ---       #6662
      0100AAC9H   LINE      CODE     ---       #6663
      0100AAD1H   LINE      CODE     ---       #6664
      0100AAF4H   LINE      CODE     ---       #6665
      0100AAF4H   LINE      CODE     ---       #6666
      0100AB00H   LINE      CODE     ---       #6667
      0100AB00H   LINE      CODE     ---       #6668
      0100AB04H   LINE      CODE     ---       #6669
      0100AB07H   LINE      CODE     ---       #6670
      0100AB07H   LINE      CODE     ---       #6671
      0100AB07H   LINE      CODE     ---       #6672
      0100AB07H   LINE      CODE     ---       #6673
      0100AB07H   LINE      CODE     ---       #6674
      ---         BLOCKEND  ---      ---       LVL=0

LX51 LINKER/LOCATER V4.66.87.0                                                        10/15/2020  10:36:21  PAGE 174


      ---         MODULE    ---      ---       KEY
      02009865H   PUBLIC    XDATA    ---       Flick_Num
      02009864H   PUBLIC    XDATA    BYTE      PmenuWeight
      02009863H   PUBLIC    XDATA    BYTE      PclibSeria
      02009862H   PUBLIC    XDATA    BYTE      PMoreBack
      0200985EH   PUBLIC    XDATA    ---       Key_Enable
      0200985DH   PUBLIC    XDATA    BYTE      PMainBack
      0200985CH   PUBLIC    XDATA    BYTE      PtestEn
      0200985AH   PUBLIC    XDATA    WORD      PtestCnt
      02009859H   PUBLIC    XDATA    BYTE      PWeightBack
      02009858H   PUBLIC    XDATA    BYTE      PageToWeight
      02009857H   PUBLIC    XDATA    BYTE      PclibEn
      02009856H   PUBLIC    XDATA    BYTE      PwrokState
      02009852H   PUBLIC    XDATA    ---       Flick_Enable
      02009851H   PUBLIC    XDATA    BYTE      PowerState
      0200984FH   PUBLIC    XDATA    WORD      PclibCnt
      0200984AH   PUBLIC    XDATA    ---       Key_Value
      02009846H   PUBLIC    XDATA    ---       Key_Touch_Time
      02009845H   PUBLIC    XDATA    BYTE      PweithtMenu
      02009841H   PUBLIC    XDATA    ---       Flick_Now
      0100D384H   PUBLIC    CONST    ---       _pagekey
      01007B4CH   PUBLIC    CODE     ---       Key_Action
      01006A64H   PUBLIC    CODE     ---       _PMorePage
      0100B80FH   PUBLIC    CODE     ---       _PMainPage
      0100A2BEH   PUBLIC    CODE     ---       _PPowerPage
      01008122H   PUBLIC    CODE     ---       _PWeightPage
      0100BC8CH   PUBLIC    CODE     ---       Key_Init
      00000090H.5 SFRSYM    DATA     BIT       key4
      00000098H.3 SFRSYM    DATA     BIT       TB80
      000000C8H.0 SFRSYM    DATA     BIT       T2I0
      000000F1H   SFRSYM    DATA     BYTE      ADR_H
      000000C3H   SFRSYM    DATA     BYTE      CCH1
      00000080H   SFRSYM    DATA     BYTE      P0
      000000C8H.1 SFRSYM    DATA     BIT       T2I1
      000000C5H   SFRSYM    DATA     BYTE      CCH2
      00000090H   SFRSYM    DATA     BYTE      P1
      000000C7H   SFRSYM    DATA     BYTE      CCH3
      000000A0H   SFRSYM    DATA     BYTE      P2
      00000098H.5 SFRSYM    DATA     BIT       SM20
      000000B0H   SFRSYM    DATA     BYTE      P3
      000000D0H.6 SFRSYM    DATA     BIT       AC
      000000F3H   SFRSYM    DATA     BYTE      ADR_L
      000000C2H   SFRSYM    DATA     BYTE      CCL1
      00000094H   SFRSYM    DATA     BYTE      PAGESEL
      000000F2H   SFRSYM    DATA     BYTE      ADR_M
      000000E2H   SFRSYM    DATA     BYTE      SPCON
      000000C4H   SFRSYM    DATA     BYTE      CCL2
      000000D8H.7 SFRSYM    DATA     BIT       BD
      000000A8H.7 SFRSYM    DATA     BIT       EA
      000000C6H   SFRSYM    DATA     BYTE      CCL3
      000000F8H   SFRSYM    DATA     BYTE      RAMMODE
      000000C8H.3 SFRSYM    DATA     BIT       T2R0
      000000C8H.4 SFRSYM    DATA     BIT       T2R1
      000000B7H   SFRSYM    DATA     BYTE      P0MDOUT
      000000E1H   SFRSYM    DATA     BYTE      SPSTA
      000000BCH   SFRSYM    DATA     BYTE      P1MDOUT
      000000A8H   SFRSYM    DATA     BYTE      IEN0
      000000BDH   SFRSYM    DATA     BYTE      P2MDOUT
      000000B8H   SFRSYM    DATA     BYTE      IEN1
      00000085H   SFRSYM    DATA     BYTE      DPH1
      000000BEH   SFRSYM    DATA     BYTE      P3MDOUT
      0000009AH   SFRSYM    DATA     BYTE      IEN2
      000000D1H   SFRSYM    DATA     BYTE      IEN4
      000000F8H.4 SFRSYM    DATA     BIT       APP_ACK
      000000C0H.0 SFRSYM    DATA     BIT       IADC
LX51 LINKER/LOCATER V4.66.87.0                                                        10/15/2020  10:36:21  PAGE 175


      00000084H   SFRSYM    DATA     BYTE      DPL1
      000000F4H   SFRSYM    DATA     BYTE      ADR_INC
      000000C8H.5 SFRSYM    DATA     BIT       I2FR
      000000C8H.6 SFRSYM    DATA     BIT       I3FR
      000000C0H.7 SFRSYM    DATA     BIT       EXF2
      00000098H.4 SFRSYM    DATA     BIT       REN0
      000000C8H.2 SFRSYM    DATA     BIT       T2CM
      000000DBH   SFRSYM    DATA     BYTE      I2CADR
      000000B8H.1 SFRSYM    DATA     BIT       ECAN
      000000C0H.1 SFRSYM    DATA     BIT       IEX2
      000000E4H   SFRSYM    DATA     BYTE      SPSSN
      000000DAH   SFRSYM    DATA     BYTE      I2CDAT
      000000C0H.2 SFRSYM    DATA     BIT       IEX3
      000000C1H   SFRSYM    DATA     BYTE      CCEN
      000000C0H.3 SFRSYM    DATA     BIT       IEX4
      000000C0H.4 SFRSYM    DATA     BIT       IEX5
      000000D0H.7 SFRSYM    DATA     BIT       CY
      000000C0H.5 SFRSYM    DATA     BIT       IEX6
      000000B8H.3 SFRSYM    DATA     BIT       ES2R
      000000B8H.5 SFRSYM    DATA     BIT       ES3R
      000000B8H.2 SFRSYM    DATA     BIT       ES2T
      000000B8H.4 SFRSYM    DATA     BIT       ES3T
      000000DCH   SFRSYM    DATA     BYTE      I2CCON
      00000081H   SFRSYM    DATA     BYTE      SP
      000000D0H.2 SFRSYM    DATA     BIT       OV
      000000DDH   SFRSYM    DATA     BYTE      I2CSTA
      00000095H   SFRSYM    DATA     BYTE      D_PAGESEL
      000000C8H.7 SFRSYM    DATA     BIT       T2PS
      000000F8H.7 SFRSYM    DATA     BIT       APP_REQ
      000000BFH   SFRSYM    DATA     BYTE      IRCON2
      00000080H.0 SFRSYM    DATA     BIT       P00
      000000BAH   SFRSYM    DATA     BYTE      SREL0H
      00000090H.0 SFRSYM    DATA     BIT       P10
      00000080H.1 SFRSYM    DATA     BIT       P01
      000000BBH   SFRSYM    DATA     BYTE      SREL1H
      00000087H   SFRSYM    DATA     BYTE      PCON
      000000A0H.0 SFRSYM    DATA     BIT       P20
      00000090H.1 SFRSYM    DATA     BIT       P11
      00000080H.2 SFRSYM    DATA     BIT       P02
      000000B0H.0 SFRSYM    DATA     BIT       P30
      000000A0H.1 SFRSYM    DATA     BIT       P21
      00000090H.2 SFRSYM    DATA     BIT       P12
      00000080H.3 SFRSYM    DATA     BIT       P03
      000000B0H.1 SFRSYM    DATA     BIT       P31
      000000A0H.2 SFRSYM    DATA     BIT       P22
      00000090H.3 SFRSYM    DATA     BIT       P13
      00000080H.4 SFRSYM    DATA     BIT       P04
      000000F9H   SFRSYM    DATA     BYTE      PORTDRV
      000000AAH   SFRSYM    DATA     BYTE      SREL0L
      000000B0H.2 SFRSYM    DATA     BIT       P32
      000000A0H.3 SFRSYM    DATA     BIT       P23
      00000090H.4 SFRSYM    DATA     BIT       P14
      00000080H.5 SFRSYM    DATA     BIT       P05
      0000009DH   SFRSYM    DATA     BYTE      SREL1L
      00000089H   SFRSYM    DATA     BYTE      TMOD
      00000088H   SFRSYM    DATA     BYTE      TCON
      000000B0H.3 SFRSYM    DATA     BIT       P33
      000000A0H.4 SFRSYM    DATA     BIT       P24
      00000090H.5 SFRSYM    DATA     BIT       P15
      00000080H.6 SFRSYM    DATA     BIT       P06
      000000B0H.4 SFRSYM    DATA     BIT       P34
      000000A0H.5 SFRSYM    DATA     BIT       P25
      00000090H.6 SFRSYM    DATA     BIT       P16
      00000080H.7 SFRSYM    DATA     BIT       P07
      000000B0H.5 SFRSYM    DATA     BIT       P35
LX51 LINKER/LOCATER V4.66.87.0                                                        10/15/2020  10:36:21  PAGE 176


      000000A0H.6 SFRSYM    DATA     BIT       P26
      00000090H.7 SFRSYM    DATA     BIT       P17
      000000B4H   SFRSYM    DATA     BYTE      DMASEL
      000000B0H.6 SFRSYM    DATA     BIT       P36
      000000A0H.7 SFRSYM    DATA     BIT       P27
      000000FFH   SFRSYM    DATA     BYTE      EXDATA
      00000097H   SFRSYM    DATA     BYTE      SCON2R
      000000B0H.7 SFRSYM    DATA     BIT       P37
      000000D9H   SFRSYM    DATA     BYTE      BODE2_DIV_H
      000000ABH   SFRSYM    DATA     BYTE      SCON3R
      000000AEH   SFRSYM    DATA     BYTE      BODE3_DIV_H
      00000096H   SFRSYM    DATA     BYTE      SCON2T
      000000A7H   SFRSYM    DATA     BYTE      SCON3T
      00000088H.1 SFRSYM    DATA     BIT       IE0
      000000F5H   SFRSYM    DATA     BYTE      ISCHEADER2
      000000E7H   SFRSYM    DATA     BYTE      BODE2_DIV_L
      00000088H.3 SFRSYM    DATA     BIT       IE1
      000000F6H   SFRSYM    DATA     BYTE      ISCHEADER3
      000000AFH   SFRSYM    DATA     BYTE      BODE3_DIV_L
      000000C9H   SFRSYM    DATA     BYTE      MUX_SEL
      000000F0H   SFRSYM    DATA     BYTE      B
      000000E9H   SFRSYM    DATA     BYTE      MD0
      000000EAH   SFRSYM    DATA     BYTE      MD1
      000000B8H.6 SFRSYM    DATA     BIT       SWDT
      000000EBH   SFRSYM    DATA     BYTE      MD2
      000000ECH   SFRSYM    DATA     BYTE      MD3
      000000EDH   SFRSYM    DATA     BYTE      MD4
      000000EEH   SFRSYM    DATA     BYTE      MD5
      000000B1H   SFRSYM    DATA     BYTE      DMAC0
      000000E0H   SFRSYM    DATA     BYTE      ACC
      000000B2H   SFRSYM    DATA     BYTE      DMAC1
      000000A8H.4 SFRSYM    DATA     BIT       ES0
      000000B3H   SFRSYM    DATA     BYTE      DMAC2
      0000008FH   SFRSYM    DATA     BYTE      CAN_CR
      000000A8H.1 SFRSYM    DATA     BIT       ET0
      000000A9H   SFRSYM    DATA     BYTE      IP0
      000000A8H.3 SFRSYM    DATA     BIT       ET1
      00000088H.5 SFRSYM    DATA     BIT       TF0
      000000B9H   SFRSYM    DATA     BYTE      IP1
      000000A8H.5 SFRSYM    DATA     BIT       ET2
      00000098H.0 SFRSYM    DATA     BIT       RI0
      00000088H.7 SFRSYM    DATA     BIT       TF1
      000000FDH   SFRSYM    DATA     BYTE      DATA0
      000000C0H.6 SFRSYM    DATA     BIT       TF2
      000000FCH   SFRSYM    DATA     BYTE      DATA1
      000000E8H   SFRSYM    DATA     BYTE      CAN_ET
      0000008CH   SFRSYM    DATA     BYTE      TH0
      000000A8H.0 SFRSYM    DATA     BIT       EX0
      00000098H.1 SFRSYM    DATA     BIT       TI0
      00000088H.0 SFRSYM    DATA     BIT       IT0
      000000FBH   SFRSYM    DATA     BYTE      DATA2
      000000F7H   SFRSYM    DATA     BYTE      SRST
      0000008DH   SFRSYM    DATA     BYTE      TH1
      000000A8H.2 SFRSYM    DATA     BIT       EX1
      00000088H.2 SFRSYM    DATA     BIT       IT1
      000000FAH   SFRSYM    DATA     BYTE      DATA3
      000000CDH   SFRSYM    DATA     BYTE      TH2
      00000091H   SFRSYM    DATA     BYTE      CAN_IR
      000000D0H.0 SFRSYM    DATA     BIT       P
      00000098H.7 SFRSYM    DATA     BIT       SM0
      000000B5H   SFRSYM    DATA     BYTE      DMAM0
      0000008AH   SFRSYM    DATA     BYTE      TL0
      00000098H.6 SFRSYM    DATA     BIT       SM1
      000000B6H   SFRSYM    DATA     BYTE      DMAM1
      0000008BH   SFRSYM    DATA     BYTE      TL1
LX51 LINKER/LOCATER V4.66.87.0                                                        10/15/2020  10:36:21  PAGE 177


      000000CCH   SFRSYM    DATA     BYTE      TL2
      000000B8H.0 SFRSYM    DATA     BIT       EX7
      00000086H   SFRSYM    DATA     BYTE      WDTREL
      000000F8H.6 SFRSYM    DATA     BIT       APP_EN
      000000D0H.3 SFRSYM    DATA     BIT       RS0
      00000088H.4 SFRSYM    DATA     BIT       TR0
      000000D0H.4 SFRSYM    DATA     BIT       RS1
      000000A1H   SFRSYM    DATA     BYTE      DMAS0
      00000088H.6 SFRSYM    DATA     BIT       TR1
      000000A4H   SFRSYM    DATA     BYTE      DMAT0
      000000A2H   SFRSYM    DATA     BYTE      DMAS1
      00000093H   SFRSYM    DATA     BYTE      DPC
      000000E5H   SFRSYM    DATA     BYTE      MAC_MODE
      000000A5H   SFRSYM    DATA     BYTE      DMAT1
      000000A3H   SFRSYM    DATA     BYTE      DMAS2
      000000A6H   SFRSYM    DATA     BYTE      DMAT2
      00000083H   SFRSYM    DATA     BYTE      DPH
      00000082H   SFRSYM    DATA     BYTE      DPL
      00000099H   SFRSYM    DATA     BYTE      SBUF0
      0000009CH   SFRSYM    DATA     BYTE      SBUF1
      000000B8H.7 SFRSYM    DATA     BIT       EXEN2
      00000098H   SFRSYM    DATA     BYTE      SCON0
      0000009BH   SFRSYM    DATA     BYTE      SCON1
      000000D8H   SFRSYM    DATA     BYTE      ADCON
      000000C8H   SFRSYM    DATA     BYTE      T2CON
      000000E6H   SFRSYM    DATA     BYTE      DIV_MODE
      000000F8H.5 SFRSYM    DATA     BIT       APP_RW
      000000CBH   SFRSYM    DATA     BYTE      TRL2H
      0000009FH   SFRSYM    DATA     BYTE      SBUF2_RX
      000000A8H.6 SFRSYM    DATA     BIT       WDT
      000000ADH   SFRSYM    DATA     BYTE      SBUF3_RX
      0000008EH   SFRSYM    DATA     BYTE      CKCON
      0000009EH   SFRSYM    DATA     BYTE      SBUF2_TX
      000000CAH   SFRSYM    DATA     BYTE      TRL2L
      000000ACH   SFRSYM    DATA     BYTE      SBUF3_TX
      000000EFH   SFRSYM    DATA     BYTE      ARCON
      000000D0H.5 SFRSYM    DATA     BIT       F0
      000000FEH   SFRSYM    DATA     BYTE      EXADR
      000000D0H.1 SFRSYM    DATA     BIT       F1
      00000092H   SFRSYM    DATA     BYTE      DPSEL
      000000D0H   SFRSYM    DATA     BYTE      PSW
      00000090H.2 SFRSYM    DATA     BIT       key1
      00000090H.3 SFRSYM    DATA     BIT       key2
      00000098H.2 SFRSYM    DATA     BIT       RB80
      000000C0H   SFRSYM    DATA     BYTE      IRCON
      00000090H.4 SFRSYM    DATA     BIT       key3
      000000E3H   SFRSYM    DATA     BYTE      SPDAT
      0200984EH   SYMBOL    XDATA    BYTE      MusicID

      0100BC8CH   BLOCK     CODE     ---       LVL=0
      0100BC8CH   BLOCK     CODE     NEAR LAB  LVL=1
      00000008H   SYMBOL    DATA     BYTE      i
      ---         BLOCKEND  ---      ---       LVL=1
      0100BC8CH   LINE      CODE     ---       #20
      0100BC8CH   LINE      CODE     ---       #21
      0100BC8CH   LINE      CODE     ---       #24
      0100BC8FH   LINE      CODE     ---       #25
      0100BC92H   LINE      CODE     ---       #26
      0100BC95H   LINE      CODE     ---       #27
      0100BC98H   LINE      CODE     ---       #28
      0100BC9AH   LINE      CODE     ---       #29
      0100BC9AH   LINE      CODE     ---       #30
      0100BCA7H   LINE      CODE     ---       #31
      0100BCB4H   LINE      CODE     ---       #32
      0100BCC1H   LINE      CODE     ---       #33
LX51 LINKER/LOCATER V4.66.87.0                                                        10/15/2020  10:36:21  PAGE 178


      0100BCCEH   LINE      CODE     ---       #34
      0100BCD5H   LINE      CODE     ---       #35
      0100BCDAH   LINE      CODE     ---       #36
      0100BCDEH   LINE      CODE     ---       #37
      0100BCE2H   LINE      CODE     ---       #38
      0100BCE6H   LINE      CODE     ---       #39
      0100BCEAH   LINE      CODE     ---       #40
      0100BCEEH   LINE      CODE     ---       #41
      0100BCFDH   LINE      CODE     ---       #42
      0100BD0AH   LINE      CODE     ---       #43
      0100BD17H   LINE      CODE     ---       #44
      0100BD1EH   LINE      CODE     ---       #45
      0100BD24H   LINE      CODE     ---       #46
      0100BD28H   LINE      CODE     ---       #47
      0100BD31H   LINE      CODE     ---       #48
      0100BD36H   LINE      CODE     ---       #49
      ---         BLOCKEND  ---      ---       LVL=0

      01008122H   BLOCK     CODE     ---       LVL=0
      0200947CH   SYMBOL    XDATA    BYTE      Pid
      01008122H   LINE      CODE     ---       #110
      01008127H   LINE      CODE     ---       #111
      01008127H   LINE      CODE     ---       #115
      0100812CH   LINE      CODE     ---       #116
      01008137H   LINE      CODE     ---       #117
      0100813CH   LINE      CODE     ---       #118
      01008145H   LINE      CODE     ---       #119
      01008145H   LINE      CODE     ---       #120
      0100814BH   LINE      CODE     ---       #121
      0100814BH   LINE      CODE     ---       #122
      01008155H   LINE      CODE     ---       #123
      01008155H   LINE      CODE     ---       #124
      0100815AH   LINE      CODE     ---       #125
      0100815AH   LINE      CODE     ---       #126
      0100815AH   LINE      CODE     ---       #127
      0100815DH   LINE      CODE     ---       #129
      0100815DH   LINE      CODE     ---       #130
      0100816BH   LINE      CODE     ---       #131
      0100816BH   LINE      CODE     ---       #132
      0100817CH   LINE      CODE     ---       #133
      0100817CH   LINE      CODE     ---       #134
      01008181H   LINE      CODE     ---       #135
      01008183H   LINE      CODE     ---       #136
      01008183H   LINE      CODE     ---       #137
      01008186H   LINE      CODE     ---       #139
      01008186H   LINE      CODE     ---       #140
      0100818BH   LINE      CODE     ---       #141
      010081A5H   LINE      CODE     ---       #142
      010081A5H   LINE      CODE     ---       #143
      010081ADH   LINE      CODE     ---       #144
      010081B2H   LINE      CODE     ---       #145
      010081B6H   LINE      CODE     ---       #146
      010081B6H   LINE      CODE     ---       #147
      010081BCH   LINE      CODE     ---       #148
      01008242H   LINE      CODE     ---       #149
      01008242H   LINE      CODE     ---       #150
      01008242H   LINE      CODE     ---       #153
      01008242H   LINE      CODE     ---       #156
      01008242H   LINE      CODE     ---       #159
      01008242H   LINE      CODE     ---       #162
      01008242H   LINE      CODE     ---       #165
      01008242H   LINE      CODE     ---       #168
      01008242H   LINE      CODE     ---       #171
      01008242H   LINE      CODE     ---       #174
      01008242H   LINE      CODE     ---       #177
LX51 LINKER/LOCATER V4.66.87.0                                                        10/15/2020  10:36:21  PAGE 179


      01008242H   LINE      CODE     ---       #180
      01008242H   LINE      CODE     ---       #183
      01008242H   LINE      CODE     ---       #186
      01008242H   LINE      CODE     ---       #187
      0100824EH   LINE      CODE     ---       #188
      0100824EH   LINE      CODE     ---       #189
      01008253H   LINE      CODE     ---       #190
      0100825BH   LINE      CODE     ---       #191
      0100825BH   LINE      CODE     ---       #192
      0100825BH   LINE      CODE     ---       #193
      0100825DH   LINE      CODE     ---       #194
      0100825DH   LINE      CODE     ---       #195
      01008269H   LINE      CODE     ---       #196
      01008269H   LINE      CODE     ---       #197
      0100826BH   LINE      CODE     ---       #198
      0100826FH   LINE      CODE     ---       #199
      01008272H   LINE      CODE     ---       #200
      01008275H   LINE      CODE     ---       #202
      01008275H   LINE      CODE     ---       #203
      0100827BH   LINE      CODE     ---       #204
      0100827BH   LINE      CODE     ---       #205
      0100828BH   LINE      CODE     ---       #206
      0100828BH   LINE      CODE     ---       #207
      0100828FH   LINE      CODE     ---       #208
      0100828FH   LINE      CODE     ---       #209
      01008291H   LINE      CODE     ---       #211
      01008291H   LINE      CODE     ---       #212
      010082A1H   LINE      CODE     ---       #213
      010082A1H   LINE      CODE     ---       #214
      010082A6H   LINE      CODE     ---       #215
      010082ACH   LINE      CODE     ---       #217
      010082B2H   LINE      CODE     ---       #218
      010082B2H   LINE      CODE     ---       #219
      010082B2H   LINE      CODE     ---       #220
      010082B9H   LINE      CODE     ---       #221
      010082B9H   LINE      CODE     ---       #222
      010082BBH   LINE      CODE     ---       #223
      010082BFH   LINE      CODE     ---       #225
      010082C1H   LINE      CODE     ---       #226
      010082C1H   LINE      CODE     ---       #229
      010082C1H   LINE      CODE     ---       #232
      010082C1H   LINE      CODE     ---       #235
      010082C1H   LINE      CODE     ---       #238
      010082C1H   LINE      CODE     ---       #241
      010082C1H   LINE      CODE     ---       #244
      010082C1H   LINE      CODE     ---       #247
      010082C1H   LINE      CODE     ---       #250
      010082C1H   LINE      CODE     ---       #253
      010082C1H   LINE      CODE     ---       #256
      010082C1H   LINE      CODE     ---       #259
      010082C1H   LINE      CODE     ---       #260
      010082C7H   LINE      CODE     ---       #261
      010082CBH   LINE      CODE     ---       #262
      010082CDH   LINE      CODE     ---       #263
      010082CDH   LINE      CODE     ---       #266
      010082CDH   LINE      CODE     ---       #267
      010082D3H   LINE      CODE     ---       #268
      010082D7H   LINE      CODE     ---       #269
      010082D9H   LINE      CODE     ---       #270
      010082D9H   LINE      CODE     ---       #273
      010082D9H   LINE      CODE     ---       #276
      010082D9H   LINE      CODE     ---       #279
      010082D9H   LINE      CODE     ---       #282
      010082D9H   LINE      CODE     ---       #285
      010082D9H   LINE      CODE     ---       #286
LX51 LINKER/LOCATER V4.66.87.0                                                        10/15/2020  10:36:21  PAGE 180


      010082DFH   LINE      CODE     ---       #287
      010082E3H   LINE      CODE     ---       #288
      010082E5H   LINE      CODE     ---       #289
      010082E5H   LINE      CODE     ---       #292
      010082E5H   LINE      CODE     ---       #295
      010082E5H   LINE      CODE     ---       #298
      010082E5H   LINE      CODE     ---       #299
      010082E9H   LINE      CODE     ---       #300
      010082EBH   LINE      CODE     ---       #301
      010082EBH   LINE      CODE     ---       #304
      010082EBH   LINE      CODE     ---       #305
      010082F1H   LINE      CODE     ---       #306
      010082F8H   LINE      CODE     ---       #307
      010082F8H   LINE      CODE     ---       #308
      010082F8H   LINE      CODE     ---       #309
      010082F8H   LINE      CODE     ---       #310
      010082F8H   LINE      CODE     ---       #311
      010082F8H   LINE      CODE     ---       #312
      010082F8H   LINE      CODE     ---       #313
      010082F8H   LINE      CODE     ---       #325
      ---         BLOCKEND  ---      ---       LVL=0

      0100A2BEH   BLOCK     CODE     ---       LVL=0
      00000007H   SYMBOL    DATA     BYTE      Pid
      0100A2BEH   BLOCK     CODE     NEAR LAB  LVL=1
      0200947CH   SYMBOL    XDATA    ---       k_data
      00000006H   SYMBOL    DATA     WORD      tmp16
      ---         BLOCKEND  ---      ---       LVL=1
      0100A2BEH   LINE      CODE     ---       #327
      0100A2BEH   LINE      CODE     ---       #328
      0100A2BEH   LINE      CODE     ---       #332
      0100A2C7H   LINE      CODE     ---       #333
      0100A2C7H   LINE      CODE     ---       #334
      0100A2CFH   LINE      CODE     ---       #335
      0100A2CFH   LINE      CODE     ---       #336
      0100A2D8H   LINE      CODE     ---       #337
      0100A2D8H   LINE      CODE     ---       #338
      0100A2E5H   LINE      CODE     ---       #339
      0100A2E5H   LINE      CODE     ---       #340
      0100A2EBH   LINE      CODE     ---       #341
      0100A2EBH   LINE      CODE     ---       #342
      0100A2EBH   LINE      CODE     ---       #343
      0100A2EEH   LINE      CODE     ---       #344
      0100A2F6H   LINE      CODE     ---       #345
      0100A2F6H   LINE      CODE     ---       #346
      0100A2FCH   LINE      CODE     ---       #347
      0100A2FCH   LINE      CODE     ---       #348
      0100A302H   LINE      CODE     ---       #349
      0100A302H   LINE      CODE     ---       #350
      0100A307H   LINE      CODE     ---       #351
      0100A307H   LINE      CODE     ---       #352
      0100A30EH   LINE      CODE     ---       #353
      0100A311H   LINE      CODE     ---       #355
      0100A311H   LINE      CODE     ---       #356
      0100A316H   LINE      CODE     ---       #357
      0100A31AH   LINE      CODE     ---       #358
      0100A31CH   LINE      CODE     ---       #359
      0100A334H   LINE      CODE     ---       #360
      0100A339H   LINE      CODE     ---       #361
      0100A344H   LINE      CODE     ---       #362
      0100A34BH   LINE      CODE     ---       #363
      0100A34EH   LINE      CODE     ---       #364
      0100A34EH   LINE      CODE     ---       #365
      0100A34EH   LINE      CODE     ---       #366
      0100A350H   LINE      CODE     ---       #368
LX51 LINKER/LOCATER V4.66.87.0                                                        10/15/2020  10:36:21  PAGE 181


      0100A350H   LINE      CODE     ---       #369
      0100A358H   LINE      CODE     ---       #370
      0100A358H   LINE      CODE     ---       #371
      0100A35DH   LINE      CODE     ---       #372
      0100A363H   LINE      CODE     ---       #373
      0100A37DH   LINE      CODE     ---       #374
      0100A384H   LINE      CODE     ---       #375
      0100A38BH   LINE      CODE     ---       #376
      0100A390H   LINE      CODE     ---       #377
      0100A396H   LINE      CODE     ---       #378
      0100A39BH   LINE      CODE     ---       #379
      0100A3B5H   LINE      CODE     ---       #380
      0100A3B8H   LINE      CODE     ---       #381
      0100A3BEH   LINE      CODE     ---       #382
      0100A3C2H   LINE      CODE     ---       #383
      0100A3CDH   LINE      CODE     ---       #384
      0100A3CDH   LINE      CODE     ---       #385
      0100A3CDH   LINE      CODE     ---       #386
      0100A3D2H   LINE      CODE     ---       #387
      ---         BLOCKEND  ---      ---       LVL=0

      0100B80FH   BLOCK     CODE     ---       LVL=0
      0200947CH   SYMBOL    XDATA    BYTE      Pid
      0100B814H   BLOCK     CODE     NEAR LAB  LVL=1
      0200947DH   SYMBOL    XDATA    ---       k_data
      ---         BLOCKEND  ---      ---       LVL=1
      0100B80FH   LINE      CODE     ---       #389
      0100B814H   LINE      CODE     ---       #390
      0100B814H   LINE      CODE     ---       #393
      0100B819H   LINE      CODE     ---       #394
      0100B81DH   LINE      CODE     ---       #395
      0100B828H   LINE      CODE     ---       #396
      0100B83EH   LINE      CODE     ---       #397
      0100B83EH   LINE      CODE     ---       #398
      0100B844H   LINE      CODE     ---       #399
      0100B844H   LINE      CODE     ---       #400
      0100B844H   LINE      CODE     ---       #401
      0100B846H   LINE      CODE     ---       #403
      0100B846H   LINE      CODE     ---       #404
      0100B85DH   LINE      CODE     ---       #405
      0100B85DH   LINE      CODE     ---       #406
      0100B865H   LINE      CODE     ---       #407
      0100B865H   LINE      CODE     ---       #408
      0100B867H   LINE      CODE     ---       #410
      0100B867H   LINE      CODE     ---       #411
      0100B86DH   LINE      CODE     ---       #412
      0100B86DH   LINE      CODE     ---       #413
      0100B87AH   LINE      CODE     ---       #414
      0100B87AH   LINE      CODE     ---       #415
      0100B882H   LINE      CODE     ---       #416
      0100B882H   LINE      CODE     ---       #417
      0100B885H   LINE      CODE     ---       #418
      0100B887H   LINE      CODE     ---       #419
      0100B88BH   LINE      CODE     ---       #420
      0100B88BH   LINE      CODE     ---       #421
      0100B891H   LINE      CODE     ---       #422
      0100B893H   LINE      CODE     ---       #424
      0100B898H   LINE      CODE     ---       #425
      0100B898H   LINE      CODE     ---       #426
      0100B898H   LINE      CODE     ---       #427
      0100B89DH   LINE      CODE     ---       #428
      0100B89DH   LINE      CODE     ---       #429
      0100B89DH   LINE      CODE     ---       #430
      0100B8A2H   LINE      CODE     ---       #431
      0100B8A6H   LINE      CODE     ---       #432
LX51 LINKER/LOCATER V4.66.87.0                                                        10/15/2020  10:36:21  PAGE 182


      0100B8B8H   LINE      CODE     ---       #433
      0100B8BDH   LINE      CODE     ---       #434
      0100B8BFH   LINE      CODE     ---       #435
      0100B8D7H   LINE      CODE     ---       #436
      0100B8D7H   LINE      CODE     ---       #437
      ---         BLOCKEND  ---      ---       LVL=0

      01006A64H   BLOCK     CODE     ---       LVL=0
      0200947CH   SYMBOL    XDATA    BYTE      Pid
      01006A69H   BLOCK     CODE     NEAR LAB  LVL=1
      0200947DH   SYMBOL    XDATA    ---       k_data
      ---         BLOCKEND  ---      ---       LVL=1
      01006A64H   LINE      CODE     ---       #439
      01006A69H   LINE      CODE     ---       #440
      01006A69H   LINE      CODE     ---       #443
      01006A6EH   LINE      CODE     ---       #444
      01006A79H   LINE      CODE     ---       #445
      01006A7EH   LINE      CODE     ---       #446
      01006A94H   LINE      CODE     ---       #447
      01006A94H   LINE      CODE     ---       #448
      01006A99H   LINE      CODE     ---       #449
      01006AB6H   LINE      CODE     ---       #450
      01006AB6H   LINE      CODE     ---       #451
      01006ABBH   LINE      CODE     ---       #452
      01006ABFH   LINE      CODE     ---       #453
      01006AD6H   LINE      CODE     ---       #454
      01006AD6H   LINE      CODE     ---       #455
      01006ADCH   LINE      CODE     ---       #456
      01006AE4H   LINE      CODE     ---       #457
      01006AE6H   LINE      CODE     ---       #458
      01006AEEH   LINE      CODE     ---       #459
      01006AEEH   LINE      CODE     ---       #460
      01006B07H   LINE      CODE     ---       #461
      01006B1AH   LINE      CODE     ---       #462
      01006B1AH   LINE      CODE     ---       #463
      01006B22H   LINE      CODE     ---       #464
      01006B22H   LINE      CODE     ---       #465
      01006B24H   LINE      CODE     ---       #466
      01006B3CH   LINE      CODE     ---       #467
      01006B3CH   LINE      CODE     ---       #468
      01006B41H   LINE      CODE     ---       #469
      01006B41H   LINE      CODE     ---       #470
      01006B41H   LINE      CODE     ---       #471
      01006BCDH   LINE      CODE     ---       #472
      01006BCDH   LINE      CODE     ---       #473
      01006BCDH   LINE      CODE     ---       #476
      01006BCDH   LINE      CODE     ---       #479
      01006BCDH   LINE      CODE     ---       #482
      01006BCDH   LINE      CODE     ---       #485
      01006BCDH   LINE      CODE     ---       #488
      01006BCDH   LINE      CODE     ---       #491
      01006BCDH   LINE      CODE     ---       #494
      01006BCDH   LINE      CODE     ---       #497
      01006BCDH   LINE      CODE     ---       #500
      01006BCDH   LINE      CODE     ---       #503
      01006BCDH   LINE      CODE     ---       #506
      01006BCDH   LINE      CODE     ---       #509
      01006BCDH   LINE      CODE     ---       #512
      01006BCDH   LINE      CODE     ---       #513
      01006BD9H   LINE      CODE     ---       #514
      01006BD9H   LINE      CODE     ---       #515
      01006BDBH   LINE      CODE     ---       #516
      01006BDFH   LINE      CODE     ---       #517
      01006BE2H   LINE      CODE     ---       #518
      01006BE5H   LINE      CODE     ---       #520
LX51 LINKER/LOCATER V4.66.87.0                                                        10/15/2020  10:36:21  PAGE 183


      01006BE5H   LINE      CODE     ---       #521
      01006BECH   LINE      CODE     ---       #522
      01006BECH   LINE      CODE     ---       #523
      01006BF1H   LINE      CODE     ---       #524
      01006BF6H   LINE      CODE     ---       #525
      01006C05H   LINE      CODE     ---       #526
      01006C12H   LINE      CODE     ---       #527
      01006C1FH   LINE      CODE     ---       #528
      01006C20H   LINE      CODE     ---       #530
      01006C20H   LINE      CODE     ---       #531
      01006C26H   LINE      CODE     ---       #532
      01006C26H   LINE      CODE     ---       #533
      01006C36H   LINE      CODE     ---       #534
      01006C36H   LINE      CODE     ---       #535
      01006C3AH   LINE      CODE     ---       #536
      01006C3AH   LINE      CODE     ---       #537
      01006C3CH   LINE      CODE     ---       #539
      01006C3CH   LINE      CODE     ---       #540
      01006C4CH   LINE      CODE     ---       #541
      01006C4CH   LINE      CODE     ---       #542
      01006C51H   LINE      CODE     ---       #543
      01006C57H   LINE      CODE     ---       #545
      01006C5DH   LINE      CODE     ---       #546
      01006C5DH   LINE      CODE     ---       #547
      01006C5DH   LINE      CODE     ---       #548
      01006C67H   LINE      CODE     ---       #549
      01006C6CH   LINE      CODE     ---       #550
      01006C6CH   LINE      CODE     ---       #551
      01006C6CH   LINE      CODE     ---       #552
      01006C6DH   LINE      CODE     ---       #553
      01006C6DH   LINE      CODE     ---       #554
      01006C79H   LINE      CODE     ---       #555
      01006C79H   LINE      CODE     ---       #556
      01006C7BH   LINE      CODE     ---       #557
      01006C83H   LINE      CODE     ---       #558
      01006C83H   LINE      CODE     ---       #559
      01006C87H   LINE      CODE     ---       #560
      01006C89H   LINE      CODE     ---       #561
      01006C89H   LINE      CODE     ---       #564
      01006C89H   LINE      CODE     ---       #567
      01006C89H   LINE      CODE     ---       #570
      01006C89H   LINE      CODE     ---       #573
      01006C89H   LINE      CODE     ---       #576
      01006C89H   LINE      CODE     ---       #579
      01006C89H   LINE      CODE     ---       #582
      01006C89H   LINE      CODE     ---       #585
      01006C89H   LINE      CODE     ---       #588
      01006C89H   LINE      CODE     ---       #591
      01006C89H   LINE      CODE     ---       #594
      01006C89H   LINE      CODE     ---       #597
      01006C89H   LINE      CODE     ---       #600
      01006C89H   LINE      CODE     ---       #603
      01006C89H   LINE      CODE     ---       #606
      01006C89H   LINE      CODE     ---       #609
      01006C89H   LINE      CODE     ---       #612
      01006C89H   LINE      CODE     ---       #615
      01006C89H   LINE      CODE     ---       #618
      01006C89H   LINE      CODE     ---       #621
      01006C89H   LINE      CODE     ---       #624
      01006C89H   LINE      CODE     ---       #627
      01006C89H   LINE      CODE     ---       #630
      01006C89H   LINE      CODE     ---       #633
      01006C89H   LINE      CODE     ---       #636
      01006C89H   LINE      CODE     ---       #639
      01006C89H   LINE      CODE     ---       #640
LX51 LINKER/LOCATER V4.66.87.0                                                        10/15/2020  10:36:21  PAGE 184


      01006C8DH   LINE      CODE     ---       #641
      01006C8DH   LINE      CODE     ---       #642
      01006C90H   LINE      CODE     ---       #644
      01006C90H   LINE      CODE     ---       #645
      01006C90H   LINE      CODE     ---       #646
      01006C90H   LINE      CODE     ---       #647
      01006C90H   LINE      CODE     ---       #648
      01006C90H   LINE      CODE     ---       #660
      ---         BLOCKEND  ---      ---       LVL=0

      01007B4CH   BLOCK     CODE     ---       LVL=0
      01007B4CH   BLOCK     CODE     NEAR LAB  LVL=1
      02009459H   SYMBOL    XDATA    BYTE      Page_ID
      0200945AH   SYMBOL    XDATA    BYTE      i
      00000007H   SYMBOL    DATA     BYTE      j
      0200945BH   SYMBOL    XDATA    BYTE      serial
      0200945CH   SYMBOL    XDATA    ---       k_data
      ---         BLOCKEND  ---      ---       LVL=1
      01007B4CH   LINE      CODE     ---       #663
      01007B4CH   LINE      CODE     ---       #664
      01007B4CH   LINE      CODE     ---       #693
      01007B4EH   LINE      CODE     ---       #694
      01007B54H   LINE      CODE     ---       #695
      01007B63H   LINE      CODE     ---       #696
      01007B63H   LINE      CODE     ---       #697
      01007B81H   LINE      CODE     ---       #698
      01007B81H   LINE      CODE     ---       #699
      01007B84H   LINE      CODE     ---       #700
      01007B84H   LINE      CODE     ---       #702
      01007B95H   LINE      CODE     ---       #703
      01007BA1H   LINE      CODE     ---       #704
      01007BAEH   LINE      CODE     ---       #705
      01007BB9H   LINE      CODE     ---       #706
      01007BB9H   LINE      CODE     ---       #707
      01007BC8H   LINE      CODE     ---       #708
      01007BC8H   LINE      CODE     ---       #709
      01007BCEH   LINE      CODE     ---       #710
      01007BCEH   LINE      CODE     ---       #711
      01007BCFH   LINE      CODE     ---       #712
      01007BCFH   LINE      CODE     ---       #713
      01007BD7H   LINE      CODE     ---       #714
      01007BDDH   LINE      CODE     ---       #715
      01007BDDH   LINE      CODE     ---       #716
      01007BDFH   LINE      CODE     ---       #717
      01007BE2H   LINE      CODE     ---       #718
      01007BE4H   LINE      CODE     ---       #719
      01007BE7H   LINE      CODE     ---       #720
      01007BEAH   LINE      CODE     ---       #721
      01007BEDH   LINE      CODE     ---       #722
      01007BF0H   LINE      CODE     ---       #723
      01007BF2H   LINE      CODE     ---       #724
      01007BF5H   LINE      CODE     ---       #725
      01007BFBH   LINE      CODE     ---       #726
      01007BFEH   LINE      CODE     ---       #727
      01007C00H   LINE      CODE     ---       #728
      01007C04H   LINE      CODE     ---       #729
      01007C04H   LINE      CODE     ---       #730
      01007C11H   LINE      CODE     ---       #731
      01007C32H   LINE      CODE     ---       #732
      01007C35H   LINE      CODE     ---       #734
      01007C35H   LINE      CODE     ---       #735
      01007C48H   LINE      CODE     ---       #736
      01007C48H   LINE      CODE     ---       #737
      01007C56H   LINE      CODE     ---       #738
      01007C56H   LINE      CODE     ---       #739
LX51 LINKER/LOCATER V4.66.87.0                                                        10/15/2020  10:36:21  PAGE 185


      01007C5EH   LINE      CODE     ---       #740
      01007C6EH   LINE      CODE     ---       #741
      01007C6EH   LINE      CODE     ---       #742
      01007C83H   LINE      CODE     ---       #743
      01007C8BH   LINE      CODE     ---       #744
      01007C90H   LINE      CODE     ---       #745
      01007C96H   LINE      CODE     ---       #746
      01007C96H   LINE      CODE     ---       #747
      01007C9CH   LINE      CODE     ---       #748
      01007C9EH   LINE      CODE     ---       #750
      01007C9EH   LINE      CODE     ---       #751
      01007CA3H   LINE      CODE     ---       #752
      01007CA3H   LINE      CODE     ---       #753
      01007CBDH   LINE      CODE     ---       #754
      01007CC4H   LINE      CODE     ---       #755
      01007CC4H   LINE      CODE     ---       #756
      01007CC4H   LINE      CODE     ---       #757
      01007CCAH   LINE      CODE     ---       #758
      01007CCAH   LINE      CODE     ---       #759
      01007CD2H   LINE      CODE     ---       #760
      01007CD2H   LINE      CODE     ---       #761
      01007CD4H   LINE      CODE     ---       #762
      01007CD4H   LINE      CODE     ---       #763
      01007CDCH   LINE      CODE     ---       #764
      01007CDCH   LINE      CODE     ---       #765
      01007CDEH   LINE      CODE     ---       #766
      01007CDEH   LINE      CODE     ---       #767
      01007CE0H   LINE      CODE     ---       #769
      01007CE0H   LINE      CODE     ---       #770
      01007CE5H   LINE      CODE     ---       #771
      01007CE9H   LINE      CODE     ---       #772
      01007CE9H   LINE      CODE     ---       #773
      01007CEEH   LINE      CODE     ---       #774
      01007CF2H   LINE      CODE     ---       #775
      01007CF2H   LINE      CODE     ---       #776
      01007CF2H   LINE      CODE     ---       #777
      01007CF8H   LINE      CODE     ---       #778
      01007CF8H   LINE      CODE     ---       #779
      01007D06H   LINE      CODE     ---       #780
      01007D15H   LINE      CODE     ---       #781
      01007D15H   LINE      CODE     ---       #782
      01007D19H   LINE      CODE     ---       #783
      01007D1BH   LINE      CODE     ---       #784
      01007D1BH   LINE      CODE     ---       #785
      01007D1BH   LINE      CODE     ---       #786
      01007D21H   LINE      CODE     ---       #787
      01007D21H   LINE      CODE     ---       #788
      01007D2FH   LINE      CODE     ---       #789
      01007D3EH   LINE      CODE     ---       #790
      01007D3EH   LINE      CODE     ---       #791
      01007D42H   LINE      CODE     ---       #792
      01007D46H   LINE      CODE     ---       #793
      01007D46H   LINE      CODE     ---       #794
      01007D46H   LINE      CODE     ---       #795
      ---         BLOCKEND  ---      ---       LVL=0

      ---         MODULE    ---      ---       FIXDATA
      0100D34DH   PUBLIC    CONST    ---       ManualMusicType
      0100D325H   PUBLIC    CONST    ---       MenuMusicType
      0100D2FDH   PUBLIC    CONST    ---       MenuMFunction
      0100D2F9H   PUBLIC    CONST    ---       StirType
      0100D2BDH   PUBLIC    CONST    ---       Cover
      0100D2AEH   PUBLIC    CONST    ---       Appontment
      0100D272H   PUBLIC    CONST    ---       Default_Para
      0100D263H   PUBLIC    CONST    ---       gaizi
LX51 LINKER/LOCATER V4.66.87.0                                                        10/15/2020  10:36:21  PAGE 186


      0100D254H   PUBLIC    CONST    ---       FunctionType
      0100D245H   PUBLIC    CONST    ---       IconType
      0100D1EBH   PUBLIC    CONST    ---       TimeLimit
      0100D1CDH   PUBLIC    CONST    ---       PowerLimit
      00000098H.3 SFRSYM    DATA     BIT       TB80
      000000C8H.0 SFRSYM    DATA     BIT       T2I0
      000000F1H   SFRSYM    DATA     BYTE      ADR_H
      000000C3H   SFRSYM    DATA     BYTE      CCH1
      00000080H   SFRSYM    DATA     BYTE      P0
      000000C8H.1 SFRSYM    DATA     BIT       T2I1
      000000C5H   SFRSYM    DATA     BYTE      CCH2
      00000090H   SFRSYM    DATA     BYTE      P1
      000000C7H   SFRSYM    DATA     BYTE      CCH3
      000000A0H   SFRSYM    DATA     BYTE      P2
      00000098H.5 SFRSYM    DATA     BIT       SM20
      000000B0H   SFRSYM    DATA     BYTE      P3
      000000D0H.6 SFRSYM    DATA     BIT       AC
      000000F3H   SFRSYM    DATA     BYTE      ADR_L
      000000C2H   SFRSYM    DATA     BYTE      CCL1
      00000094H   SFRSYM    DATA     BYTE      PAGESEL
      000000F2H   SFRSYM    DATA     BYTE      ADR_M
      000000E2H   SFRSYM    DATA     BYTE      SPCON
      000000C4H   SFRSYM    DATA     BYTE      CCL2
      000000D8H.7 SFRSYM    DATA     BIT       BD
      000000A8H.7 SFRSYM    DATA     BIT       EA
      000000C6H   SFRSYM    DATA     BYTE      CCL3
      000000F8H   SFRSYM    DATA     BYTE      RAMMODE
      000000C8H.3 SFRSYM    DATA     BIT       T2R0
      000000C8H.4 SFRSYM    DATA     BIT       T2R1
      000000B7H   SFRSYM    DATA     BYTE      P0MDOUT
      000000E1H   SFRSYM    DATA     BYTE      SPSTA
      000000BCH   SFRSYM    DATA     BYTE      P1MDOUT
      000000A8H   SFRSYM    DATA     BYTE      IEN0
      000000BDH   SFRSYM    DATA     BYTE      P2MDOUT
      000000B8H   SFRSYM    DATA     BYTE      IEN1
      00000085H   SFRSYM    DATA     BYTE      DPH1
      000000BEH   SFRSYM    DATA     BYTE      P3MDOUT
      0000009AH   SFRSYM    DATA     BYTE      IEN2
      000000D1H   SFRSYM    DATA     BYTE      IEN4
      000000F8H.4 SFRSYM    DATA     BIT       APP_ACK
      000000C0H.0 SFRSYM    DATA     BIT       IADC
      00000084H   SFRSYM    DATA     BYTE      DPL1
      000000F4H   SFRSYM    DATA     BYTE      ADR_INC
      000000C8H.5 SFRSYM    DATA     BIT       I2FR
      000000C8H.6 SFRSYM    DATA     BIT       I3FR
      000000C0H.7 SFRSYM    DATA     BIT       EXF2
      00000098H.4 SFRSYM    DATA     BIT       REN0
      000000C8H.2 SFRSYM    DATA     BIT       T2CM
      000000DBH   SFRSYM    DATA     BYTE      I2CADR
      000000B8H.1 SFRSYM    DATA     BIT       ECAN
      000000C0H.1 SFRSYM    DATA     BIT       IEX2
      000000E4H   SFRSYM    DATA     BYTE      SPSSN
      000000DAH   SFRSYM    DATA     BYTE      I2CDAT
      000000C0H.2 SFRSYM    DATA     BIT       IEX3
      000000C1H   SFRSYM    DATA     BYTE      CCEN
      000000C0H.3 SFRSYM    DATA     BIT       IEX4
      000000C0H.4 SFRSYM    DATA     BIT       IEX5
      000000D0H.7 SFRSYM    DATA     BIT       CY
      000000C0H.5 SFRSYM    DATA     BIT       IEX6
      000000B8H.3 SFRSYM    DATA     BIT       ES2R
      000000B8H.5 SFRSYM    DATA     BIT       ES3R
      000000B8H.2 SFRSYM    DATA     BIT       ES2T
      000000B8H.4 SFRSYM    DATA     BIT       ES3T
      000000DCH   SFRSYM    DATA     BYTE      I2CCON
      00000081H   SFRSYM    DATA     BYTE      SP
LX51 LINKER/LOCATER V4.66.87.0                                                        10/15/2020  10:36:21  PAGE 187


      000000D0H.2 SFRSYM    DATA     BIT       OV
      000000DDH   SFRSYM    DATA     BYTE      I2CSTA
      00000095H   SFRSYM    DATA     BYTE      D_PAGESEL
      000000C8H.7 SFRSYM    DATA     BIT       T2PS
      000000F8H.7 SFRSYM    DATA     BIT       APP_REQ
      000000BFH   SFRSYM    DATA     BYTE      IRCON2
      00000080H.0 SFRSYM    DATA     BIT       P00
      000000BAH   SFRSYM    DATA     BYTE      SREL0H
      00000090H.0 SFRSYM    DATA     BIT       P10
      00000080H.1 SFRSYM    DATA     BIT       P01
      000000BBH   SFRSYM    DATA     BYTE      SREL1H
      00000087H   SFRSYM    DATA     BYTE      PCON
      000000A0H.0 SFRSYM    DATA     BIT       P20
      00000090H.1 SFRSYM    DATA     BIT       P11
      00000080H.2 SFRSYM    DATA     BIT       P02
      000000B0H.0 SFRSYM    DATA     BIT       P30
      000000A0H.1 SFRSYM    DATA     BIT       P21
      00000090H.2 SFRSYM    DATA     BIT       P12
      00000080H.3 SFRSYM    DATA     BIT       P03
      000000B0H.1 SFRSYM    DATA     BIT       P31
      000000A0H.2 SFRSYM    DATA     BIT       P22
      00000090H.3 SFRSYM    DATA     BIT       P13
      00000080H.4 SFRSYM    DATA     BIT       P04
      000000F9H   SFRSYM    DATA     BYTE      PORTDRV
      000000AAH   SFRSYM    DATA     BYTE      SREL0L
      000000B0H.2 SFRSYM    DATA     BIT       P32
      000000A0H.3 SFRSYM    DATA     BIT       P23
      00000090H.4 SFRSYM    DATA     BIT       P14
      00000080H.5 SFRSYM    DATA     BIT       P05
      0000009DH   SFRSYM    DATA     BYTE      SREL1L
      00000089H   SFRSYM    DATA     BYTE      TMOD
      00000088H   SFRSYM    DATA     BYTE      TCON
      000000B0H.3 SFRSYM    DATA     BIT       P33
      000000A0H.4 SFRSYM    DATA     BIT       P24
      00000090H.5 SFRSYM    DATA     BIT       P15
      00000080H.6 SFRSYM    DATA     BIT       P06
      000000B0H.4 SFRSYM    DATA     BIT       P34
      000000A0H.5 SFRSYM    DATA     BIT       P25
      00000090H.6 SFRSYM    DATA     BIT       P16
      00000080H.7 SFRSYM    DATA     BIT       P07
      000000B0H.5 SFRSYM    DATA     BIT       P35
      000000A0H.6 SFRSYM    DATA     BIT       P26
      00000090H.7 SFRSYM    DATA     BIT       P17
      000000B4H   SFRSYM    DATA     BYTE      DMASEL
      000000B0H.6 SFRSYM    DATA     BIT       P36
      000000A0H.7 SFRSYM    DATA     BIT       P27
      000000FFH   SFRSYM    DATA     BYTE      EXDATA
      00000097H   SFRSYM    DATA     BYTE      SCON2R
      000000B0H.7 SFRSYM    DATA     BIT       P37
      000000D9H   SFRSYM    DATA     BYTE      BODE2_DIV_H
      000000ABH   SFRSYM    DATA     BYTE      SCON3R
      000000AEH   SFRSYM    DATA     BYTE      BODE3_DIV_H
      00000096H   SFRSYM    DATA     BYTE      SCON2T
      000000A7H   SFRSYM    DATA     BYTE      SCON3T
      00000088H.1 SFRSYM    DATA     BIT       IE0
      000000F5H   SFRSYM    DATA     BYTE      ISCHEADER2
      000000E7H   SFRSYM    DATA     BYTE      BODE2_DIV_L
      00000088H.3 SFRSYM    DATA     BIT       IE1
      000000F6H   SFRSYM    DATA     BYTE      ISCHEADER3
      000000AFH   SFRSYM    DATA     BYTE      BODE3_DIV_L
      000000C9H   SFRSYM    DATA     BYTE      MUX_SEL
      000000F0H   SFRSYM    DATA     BYTE      B
      000000E9H   SFRSYM    DATA     BYTE      MD0
      000000EAH   SFRSYM    DATA     BYTE      MD1
      000000B8H.6 SFRSYM    DATA     BIT       SWDT
LX51 LINKER/LOCATER V4.66.87.0                                                        10/15/2020  10:36:21  PAGE 188


      000000EBH   SFRSYM    DATA     BYTE      MD2
      000000ECH   SFRSYM    DATA     BYTE      MD3
      000000EDH   SFRSYM    DATA     BYTE      MD4
      000000EEH   SFRSYM    DATA     BYTE      MD5
      000000B1H   SFRSYM    DATA     BYTE      DMAC0
      000000E0H   SFRSYM    DATA     BYTE      ACC
      000000B2H   SFRSYM    DATA     BYTE      DMAC1
      000000A8H.4 SFRSYM    DATA     BIT       ES0
      000000B3H   SFRSYM    DATA     BYTE      DMAC2
      0000008FH   SFRSYM    DATA     BYTE      CAN_CR
      000000A8H.1 SFRSYM    DATA     BIT       ET0
      000000A9H   SFRSYM    DATA     BYTE      IP0
      000000A8H.3 SFRSYM    DATA     BIT       ET1
      00000088H.5 SFRSYM    DATA     BIT       TF0
      000000B9H   SFRSYM    DATA     BYTE      IP1
      000000A8H.5 SFRSYM    DATA     BIT       ET2
      00000098H.0 SFRSYM    DATA     BIT       RI0
      00000088H.7 SFRSYM    DATA     BIT       TF1
      000000FDH   SFRSYM    DATA     BYTE      DATA0
      000000C0H.6 SFRSYM    DATA     BIT       TF2
      000000FCH   SFRSYM    DATA     BYTE      DATA1
      000000E8H   SFRSYM    DATA     BYTE      CAN_ET
      0000008CH   SFRSYM    DATA     BYTE      TH0
      000000A8H.0 SFRSYM    DATA     BIT       EX0
      00000098H.1 SFRSYM    DATA     BIT       TI0
      00000088H.0 SFRSYM    DATA     BIT       IT0
      000000FBH   SFRSYM    DATA     BYTE      DATA2
      000000F7H   SFRSYM    DATA     BYTE      SRST
      0000008DH   SFRSYM    DATA     BYTE      TH1
      000000A8H.2 SFRSYM    DATA     BIT       EX1
      00000088H.2 SFRSYM    DATA     BIT       IT1
      000000FAH   SFRSYM    DATA     BYTE      DATA3
      000000CDH   SFRSYM    DATA     BYTE      TH2
      00000091H   SFRSYM    DATA     BYTE      CAN_IR
      000000D0H.0 SFRSYM    DATA     BIT       P
      00000098H.7 SFRSYM    DATA     BIT       SM0
      000000B5H   SFRSYM    DATA     BYTE      DMAM0
      0000008AH   SFRSYM    DATA     BYTE      TL0
      00000098H.6 SFRSYM    DATA     BIT       SM1
      000000B6H   SFRSYM    DATA     BYTE      DMAM1
      0000008BH   SFRSYM    DATA     BYTE      TL1
      000000CCH   SFRSYM    DATA     BYTE      TL2
      000000B8H.0 SFRSYM    DATA     BIT       EX7
      00000086H   SFRSYM    DATA     BYTE      WDTREL
      000000F8H.6 SFRSYM    DATA     BIT       APP_EN
      000000D0H.3 SFRSYM    DATA     BIT       RS0
      00000088H.4 SFRSYM    DATA     BIT       TR0
      000000D0H.4 SFRSYM    DATA     BIT       RS1
      000000A1H   SFRSYM    DATA     BYTE      DMAS0
      00000088H.6 SFRSYM    DATA     BIT       TR1
      000000A4H   SFRSYM    DATA     BYTE      DMAT0
      000000A2H   SFRSYM    DATA     BYTE      DMAS1
      00000093H   SFRSYM    DATA     BYTE      DPC
      000000E5H   SFRSYM    DATA     BYTE      MAC_MODE
      000000A5H   SFRSYM    DATA     BYTE      DMAT1
      000000A3H   SFRSYM    DATA     BYTE      DMAS2
      000000A6H   SFRSYM    DATA     BYTE      DMAT2
      00000083H   SFRSYM    DATA     BYTE      DPH
      00000082H   SFRSYM    DATA     BYTE      DPL
      00000099H   SFRSYM    DATA     BYTE      SBUF0
      0000009CH   SFRSYM    DATA     BYTE      SBUF1
      000000B8H.7 SFRSYM    DATA     BIT       EXEN2
      00000098H   SFRSYM    DATA     BYTE      SCON0
      0000009BH   SFRSYM    DATA     BYTE      SCON1
      000000D8H   SFRSYM    DATA     BYTE      ADCON
LX51 LINKER/LOCATER V4.66.87.0                                                        10/15/2020  10:36:21  PAGE 189


      000000C8H   SFRSYM    DATA     BYTE      T2CON
      000000E6H   SFRSYM    DATA     BYTE      DIV_MODE
      000000F8H.5 SFRSYM    DATA     BIT       APP_RW
      000000CBH   SFRSYM    DATA     BYTE      TRL2H
      0000009FH   SFRSYM    DATA     BYTE      SBUF2_RX
      000000A8H.6 SFRSYM    DATA     BIT       WDT
      000000ADH   SFRSYM    DATA     BYTE      SBUF3_RX
      0000008EH   SFRSYM    DATA     BYTE      CKCON
      0000009EH   SFRSYM    DATA     BYTE      SBUF2_TX
      000000CAH   SFRSYM    DATA     BYTE      TRL2L
      000000ACH   SFRSYM    DATA     BYTE      SBUF3_TX
      000000EFH   SFRSYM    DATA     BYTE      ARCON
      000000D0H.5 SFRSYM    DATA     BIT       F0
      000000FEH   SFRSYM    DATA     BYTE      EXADR
      000000D0H.1 SFRSYM    DATA     BIT       F1
      00000092H   SFRSYM    DATA     BYTE      DPSEL
      000000D0H   SFRSYM    DATA     BYTE      PSW
      00000098H.2 SFRSYM    DATA     BIT       RB80
      000000C0H   SFRSYM    DATA     BYTE      IRCON
      000000E3H   SFRSYM    DATA     BYTE      SPDAT

      ---         MODULE    ---      ---       ERROR
      02009887H   PUBLIC    XDATA    BYTE      ErrorBackup
      02009885H   PUBLIC    XDATA    WORD      ErrorCnt
      0100638CH   PUBLIC    CODE     ---       ErrorDisplay
      0100CFB8H   PUBLIC    CODE     ---       ErrorInit
      00000090H.5 SFRSYM    DATA     BIT       key4
      00000098H.3 SFRSYM    DATA     BIT       TB80
      000000C8H.0 SFRSYM    DATA     BIT       T2I0
      000000F1H   SFRSYM    DATA     BYTE      ADR_H
      000000C3H   SFRSYM    DATA     BYTE      CCH1
      00000080H   SFRSYM    DATA     BYTE      P0
      000000C8H.1 SFRSYM    DATA     BIT       T2I1
      000000C5H   SFRSYM    DATA     BYTE      CCH2
      00000090H   SFRSYM    DATA     BYTE      P1
      000000C7H   SFRSYM    DATA     BYTE      CCH3
      000000A0H   SFRSYM    DATA     BYTE      P2
      00000098H.5 SFRSYM    DATA     BIT       SM20
      000000B0H   SFRSYM    DATA     BYTE      P3
      000000D0H.6 SFRSYM    DATA     BIT       AC
      000000F3H   SFRSYM    DATA     BYTE      ADR_L
      000000C2H   SFRSYM    DATA     BYTE      CCL1
      00000094H   SFRSYM    DATA     BYTE      PAGESEL
      000000F2H   SFRSYM    DATA     BYTE      ADR_M
      000000E2H   SFRSYM    DATA     BYTE      SPCON
      000000C4H   SFRSYM    DATA     BYTE      CCL2
      000000D8H.7 SFRSYM    DATA     BIT       BD
      000000A8H.7 SFRSYM    DATA     BIT       EA
      000000C6H   SFRSYM    DATA     BYTE      CCL3
      000000F8H   SFRSYM    DATA     BYTE      RAMMODE
      000000C8H.3 SFRSYM    DATA     BIT       T2R0
      000000C8H.4 SFRSYM    DATA     BIT       T2R1
      000000B7H   SFRSYM    DATA     BYTE      P0MDOUT
      000000E1H   SFRSYM    DATA     BYTE      SPSTA
      000000BCH   SFRSYM    DATA     BYTE      P1MDOUT
      000000A8H   SFRSYM    DATA     BYTE      IEN0
      000000BDH   SFRSYM    DATA     BYTE      P2MDOUT
      000000B8H   SFRSYM    DATA     BYTE      IEN1
      00000085H   SFRSYM    DATA     BYTE      DPH1
      000000BEH   SFRSYM    DATA     BYTE      P3MDOUT
      0000009AH   SFRSYM    DATA     BYTE      IEN2
      000000D1H   SFRSYM    DATA     BYTE      IEN4
      000000F8H.4 SFRSYM    DATA     BIT       APP_ACK
      000000C0H.0 SFRSYM    DATA     BIT       IADC
      00000084H   SFRSYM    DATA     BYTE      DPL1
LX51 LINKER/LOCATER V4.66.87.0                                                        10/15/2020  10:36:21  PAGE 190


      000000F4H   SFRSYM    DATA     BYTE      ADR_INC
      000000C8H.5 SFRSYM    DATA     BIT       I2FR
      000000C8H.6 SFRSYM    DATA     BIT       I3FR
      000000C0H.7 SFRSYM    DATA     BIT       EXF2
      00000098H.4 SFRSYM    DATA     BIT       REN0
      000000C8H.2 SFRSYM    DATA     BIT       T2CM
      000000DBH   SFRSYM    DATA     BYTE      I2CADR
      000000B8H.1 SFRSYM    DATA     BIT       ECAN
      000000C0H.1 SFRSYM    DATA     BIT       IEX2
      000000E4H   SFRSYM    DATA     BYTE      SPSSN
      000000DAH   SFRSYM    DATA     BYTE      I2CDAT
      000000C0H.2 SFRSYM    DATA     BIT       IEX3
      000000C1H   SFRSYM    DATA     BYTE      CCEN
      000000C0H.3 SFRSYM    DATA     BIT       IEX4
      000000C0H.4 SFRSYM    DATA     BIT       IEX5
      000000D0H.7 SFRSYM    DATA     BIT       CY
      000000C0H.5 SFRSYM    DATA     BIT       IEX6
      000000B8H.3 SFRSYM    DATA     BIT       ES2R
      000000B8H.5 SFRSYM    DATA     BIT       ES3R
      000000B8H.2 SFRSYM    DATA     BIT       ES2T
      000000B8H.4 SFRSYM    DATA     BIT       ES3T
      000000DCH   SFRSYM    DATA     BYTE      I2CCON
      00000081H   SFRSYM    DATA     BYTE      SP
      000000D0H.2 SFRSYM    DATA     BIT       OV
      000000DDH   SFRSYM    DATA     BYTE      I2CSTA
      00000095H   SFRSYM    DATA     BYTE      D_PAGESEL
      000000C8H.7 SFRSYM    DATA     BIT       T2PS
      000000F8H.7 SFRSYM    DATA     BIT       APP_REQ
      000000BFH   SFRSYM    DATA     BYTE      IRCON2
      00000080H.0 SFRSYM    DATA     BIT       P00
      000000BAH   SFRSYM    DATA     BYTE      SREL0H
      00000090H.0 SFRSYM    DATA     BIT       P10
      00000080H.1 SFRSYM    DATA     BIT       P01
      000000BBH   SFRSYM    DATA     BYTE      SREL1H
      00000087H   SFRSYM    DATA     BYTE      PCON
      000000A0H.0 SFRSYM    DATA     BIT       P20
      00000090H.1 SFRSYM    DATA     BIT       P11
      00000080H.2 SFRSYM    DATA     BIT       P02
      000000B0H.0 SFRSYM    DATA     BIT       P30
      000000A0H.1 SFRSYM    DATA     BIT       P21
      00000090H.2 SFRSYM    DATA     BIT       P12
      00000080H.3 SFRSYM    DATA     BIT       P03
      000000B0H.1 SFRSYM    DATA     BIT       P31
      000000A0H.2 SFRSYM    DATA     BIT       P22
      00000090H.3 SFRSYM    DATA     BIT       P13
      00000080H.4 SFRSYM    DATA     BIT       P04
      000000F9H   SFRSYM    DATA     BYTE      PORTDRV
      000000AAH   SFRSYM    DATA     BYTE      SREL0L
      000000B0H.2 SFRSYM    DATA     BIT       P32
      000000A0H.3 SFRSYM    DATA     BIT       P23
      00000090H.4 SFRSYM    DATA     BIT       P14
      00000080H.5 SFRSYM    DATA     BIT       P05
      0000009DH   SFRSYM    DATA     BYTE      SREL1L
      00000089H   SFRSYM    DATA     BYTE      TMOD
      00000088H   SFRSYM    DATA     BYTE      TCON
      000000B0H.3 SFRSYM    DATA     BIT       P33
      000000A0H.4 SFRSYM    DATA     BIT       P24
      00000090H.5 SFRSYM    DATA     BIT       P15
      00000080H.6 SFRSYM    DATA     BIT       P06
      000000B0H.4 SFRSYM    DATA     BIT       P34
      000000A0H.5 SFRSYM    DATA     BIT       P25
      00000090H.6 SFRSYM    DATA     BIT       P16
      00000080H.7 SFRSYM    DATA     BIT       P07
      000000B0H.5 SFRSYM    DATA     BIT       P35
      000000A0H.6 SFRSYM    DATA     BIT       P26
LX51 LINKER/LOCATER V4.66.87.0                                                        10/15/2020  10:36:21  PAGE 191


      00000090H.7 SFRSYM    DATA     BIT       P17
      000000B4H   SFRSYM    DATA     BYTE      DMASEL
      000000B0H.6 SFRSYM    DATA     BIT       P36
      000000A0H.7 SFRSYM    DATA     BIT       P27
      000000FFH   SFRSYM    DATA     BYTE      EXDATA
      00000097H   SFRSYM    DATA     BYTE      SCON2R
      000000B0H.7 SFRSYM    DATA     BIT       P37
      000000D9H   SFRSYM    DATA     BYTE      BODE2_DIV_H
      000000ABH   SFRSYM    DATA     BYTE      SCON3R
      000000AEH   SFRSYM    DATA     BYTE      BODE3_DIV_H
      00000096H   SFRSYM    DATA     BYTE      SCON2T
      000000A7H   SFRSYM    DATA     BYTE      SCON3T
      00000088H.1 SFRSYM    DATA     BIT       IE0
      000000F5H   SFRSYM    DATA     BYTE      ISCHEADER2
      000000E7H   SFRSYM    DATA     BYTE      BODE2_DIV_L
      00000088H.3 SFRSYM    DATA     BIT       IE1
      000000F6H   SFRSYM    DATA     BYTE      ISCHEADER3
      000000AFH   SFRSYM    DATA     BYTE      BODE3_DIV_L
      000000C9H   SFRSYM    DATA     BYTE      MUX_SEL
      000000F0H   SFRSYM    DATA     BYTE      B
      000000E9H   SFRSYM    DATA     BYTE      MD0
      000000EAH   SFRSYM    DATA     BYTE      MD1
      000000B8H.6 SFRSYM    DATA     BIT       SWDT
      000000EBH   SFRSYM    DATA     BYTE      MD2
      000000ECH   SFRSYM    DATA     BYTE      MD3
      000000EDH   SFRSYM    DATA     BYTE      MD4
      000000EEH   SFRSYM    DATA     BYTE      MD5
      000000B1H   SFRSYM    DATA     BYTE      DMAC0
      000000E0H   SFRSYM    DATA     BYTE      ACC
      000000B2H   SFRSYM    DATA     BYTE      DMAC1
      000000A8H.4 SFRSYM    DATA     BIT       ES0
      000000B3H   SFRSYM    DATA     BYTE      DMAC2
      0000008FH   SFRSYM    DATA     BYTE      CAN_CR
      000000A8H.1 SFRSYM    DATA     BIT       ET0
      000000A9H   SFRSYM    DATA     BYTE      IP0
      000000A8H.3 SFRSYM    DATA     BIT       ET1
      00000088H.5 SFRSYM    DATA     BIT       TF0
      000000B9H   SFRSYM    DATA     BYTE      IP1
      000000A8H.5 SFRSYM    DATA     BIT       ET2
      00000098H.0 SFRSYM    DATA     BIT       RI0
      00000088H.7 SFRSYM    DATA     BIT       TF1
      000000FDH   SFRSYM    DATA     BYTE      DATA0
      000000C0H.6 SFRSYM    DATA     BIT       TF2
      000000FCH   SFRSYM    DATA     BYTE      DATA1
      000000E8H   SFRSYM    DATA     BYTE      CAN_ET
      0000008CH   SFRSYM    DATA     BYTE      TH0
      000000A8H.0 SFRSYM    DATA     BIT       EX0
      00000098H.1 SFRSYM    DATA     BIT       TI0
      00000088H.0 SFRSYM    DATA     BIT       IT0
      000000FBH   SFRSYM    DATA     BYTE      DATA2
      000000F7H   SFRSYM    DATA     BYTE      SRST
      0000008DH   SFRSYM    DATA     BYTE      TH1
      000000A8H.2 SFRSYM    DATA     BIT       EX1
      00000088H.2 SFRSYM    DATA     BIT       IT1
      000000FAH   SFRSYM    DATA     BYTE      DATA3
      000000CDH   SFRSYM    DATA     BYTE      TH2
      00000091H   SFRSYM    DATA     BYTE      CAN_IR
      000000D0H.0 SFRSYM    DATA     BIT       P
      00000098H.7 SFRSYM    DATA     BIT       SM0
      000000B5H   SFRSYM    DATA     BYTE      DMAM0
      0000008AH   SFRSYM    DATA     BYTE      TL0
      00000098H.6 SFRSYM    DATA     BIT       SM1
      000000B6H   SFRSYM    DATA     BYTE      DMAM1
      0000008BH   SFRSYM    DATA     BYTE      TL1
      000000CCH   SFRSYM    DATA     BYTE      TL2
LX51 LINKER/LOCATER V4.66.87.0                                                        10/15/2020  10:36:21  PAGE 192


      000000B8H.0 SFRSYM    DATA     BIT       EX7
      00000086H   SFRSYM    DATA     BYTE      WDTREL
      000000F8H.6 SFRSYM    DATA     BIT       APP_EN
      000000D0H.3 SFRSYM    DATA     BIT       RS0
      00000088H.4 SFRSYM    DATA     BIT       TR0
      000000D0H.4 SFRSYM    DATA     BIT       RS1
      000000A1H   SFRSYM    DATA     BYTE      DMAS0
      00000088H.6 SFRSYM    DATA     BIT       TR1
      000000A4H   SFRSYM    DATA     BYTE      DMAT0
      000000A2H   SFRSYM    DATA     BYTE      DMAS1
      00000093H   SFRSYM    DATA     BYTE      DPC
      000000E5H   SFRSYM    DATA     BYTE      MAC_MODE
      000000A5H   SFRSYM    DATA     BYTE      DMAT1
      000000A3H   SFRSYM    DATA     BYTE      DMAS2
      000000A6H   SFRSYM    DATA     BYTE      DMAT2
      00000083H   SFRSYM    DATA     BYTE      DPH
      00000082H   SFRSYM    DATA     BYTE      DPL
      00000099H   SFRSYM    DATA     BYTE      SBUF0
      0000009CH   SFRSYM    DATA     BYTE      SBUF1
      000000B8H.7 SFRSYM    DATA     BIT       EXEN2
      00000098H   SFRSYM    DATA     BYTE      SCON0
      0000009BH   SFRSYM    DATA     BYTE      SCON1
      000000D8H   SFRSYM    DATA     BYTE      ADCON
      000000C8H   SFRSYM    DATA     BYTE      T2CON
      000000E6H   SFRSYM    DATA     BYTE      DIV_MODE
      000000F8H.5 SFRSYM    DATA     BIT       APP_RW
      000000CBH   SFRSYM    DATA     BYTE      TRL2H
      0000009FH   SFRSYM    DATA     BYTE      SBUF2_RX
      000000A8H.6 SFRSYM    DATA     BIT       WDT
      000000ADH   SFRSYM    DATA     BYTE      SBUF3_RX
      0000008EH   SFRSYM    DATA     BYTE      CKCON
      0000009EH   SFRSYM    DATA     BYTE      SBUF2_TX
      000000CAH   SFRSYM    DATA     BYTE      TRL2L
      000000ACH   SFRSYM    DATA     BYTE      SBUF3_TX
      000000EFH   SFRSYM    DATA     BYTE      ARCON
      000000D0H.5 SFRSYM    DATA     BIT       F0
      000000FEH   SFRSYM    DATA     BYTE      EXADR
      000000D0H.1 SFRSYM    DATA     BIT       F1
      00000092H   SFRSYM    DATA     BYTE      DPSEL
      000000D0H   SFRSYM    DATA     BYTE      PSW
      00000090H.2 SFRSYM    DATA     BIT       key1
      00000090H.3 SFRSYM    DATA     BIT       key2
      00000098H.2 SFRSYM    DATA     BIT       RB80
      000000C0H   SFRSYM    DATA     BYTE      IRCON
      00000090H.4 SFRSYM    DATA     BIT       key3
      000000E3H   SFRSYM    DATA     BYTE      SPDAT
      02009884H   SYMBOL    XDATA    BYTE      ErrorStatus

      0100CFB8H   BLOCK     CODE     ---       LVL=0
      0100CFB8H   LINE      CODE     ---       #11
      0100CFB8H   LINE      CODE     ---       #12
      0100CFB8H   LINE      CODE     ---       #13
      0100CFBDH   LINE      CODE     ---       #14
      0100CFC1H   LINE      CODE     ---       #15
      0100CFC7H   LINE      CODE     ---       #16
      ---         BLOCKEND  ---      ---       LVL=0

      0100638CH   BLOCK     CODE     ---       LVL=0
      0100638CH   BLOCK     CODE     NEAR LAB  LVL=1
      02009880H   SYMBOL    XDATA    ---       k_data
      ---         BLOCKEND  ---      ---       LVL=1
      0100638CH   LINE      CODE     ---       #36
      0100638CH   LINE      CODE     ---       #37
      0100638CH   LINE      CODE     ---       #40
      010063A0H   LINE      CODE     ---       #41
LX51 LINKER/LOCATER V4.66.87.0                                                        10/15/2020  10:36:21  PAGE 193


      010063A0H   LINE      CODE     ---       #42
      010063A4H   LINE      CODE     ---       #43
      010063A4H   LINE      CODE     ---       #44
      010063AAH   LINE      CODE     ---       #45
      010063ACH   LINE      CODE     ---       #46
      010063B4H   LINE      CODE     ---       #47
      010063B4H   LINE      CODE     ---       #48
      010063BAH   LINE      CODE     ---       #49
      010063BCH   LINE      CODE     ---       #50
      010063C3H   LINE      CODE     ---       #51
      010063C3H   LINE      CODE     ---       #52
      010063C9H   LINE      CODE     ---       #53
      010063CBH   LINE      CODE     ---       #54
      010063D0H   LINE      CODE     ---       #55
      010063D0H   LINE      CODE     ---       #56
      010063D6H   LINE      CODE     ---       #57
      010063D8H   LINE      CODE     ---       #58
      010063DFH   LINE      CODE     ---       #59
      010063DFH   LINE      CODE     ---       #60
      010063E5H   LINE      CODE     ---       #61
      010063E7H   LINE      CODE     ---       #63
      010063E7H   LINE      CODE     ---       #64
      010063EBH   LINE      CODE     ---       #65
      010063EBH   LINE      CODE     ---       #66
      010063F1H   LINE      CODE     ---       #67
      010063F3H   LINE      CODE     ---       #68
      010063F7H   LINE      CODE     ---       #69
      010063F7H   LINE      CODE     ---       #70
      010063FDH   LINE      CODE     ---       #71
      010063FDH   LINE      CODE     ---       #72
      010063FDH   LINE      CODE     ---       #73
      010063FFH   LINE      CODE     ---       #75
      010063FFH   LINE      CODE     ---       #76
      01006404H   LINE      CODE     ---       #77
      01006404H   LINE      CODE     ---       #78
      01006413H   LINE      CODE     ---       #79
      01006413H   LINE      CODE     ---       #80
      0100642DH   LINE      CODE     ---       #81
      01006436H   LINE      CODE     ---       #82
      0100643DH   LINE      CODE     ---       #83
      01006443H   LINE      CODE     ---       #84
      01006443H   LINE      CODE     ---       #85
      01006449H   LINE      CODE     ---       #86
      01006449H   LINE      CODE     ---       #87
      01006462H   LINE      CODE     ---       #88
      01006462H   LINE      CODE     ---       #89
      01006467H   LINE      CODE     ---       #90
      01006471H   LINE      CODE     ---       #91
      01006489H   LINE      CODE     ---       #92
      01006489H   LINE      CODE     ---       #93
      01006489H   LINE      CODE     ---       #94
      01006489H   LINE      CODE     ---       #95
      0100648CH   LINE      CODE     ---       #96
      01006497H   LINE      CODE     ---       #97
      01006497H   LINE      CODE     ---       #98
      01006497H   LINE      CODE     ---       #99
      01006497H   LINE      CODE     ---       #100
      01006497H   LINE      CODE     ---       #101
      01006497H   LINE      CODE     ---       #102
      0100649AH   LINE      CODE     ---       #104
      0100649AH   LINE      CODE     ---       #105
      010064ABH   LINE      CODE     ---       #106
      010064ABH   LINE      CODE     ---       #107
      010064C7H   LINE      CODE     ---       #108
      010064C7H   LINE      CODE     ---       #109
LX51 LINKER/LOCATER V4.66.87.0                                                        10/15/2020  10:36:21  PAGE 194


      010064C7H   LINE      CODE     ---       #110
      010064C7H   LINE      CODE     ---       #111
      010064C7H   LINE      CODE     ---       #112
      010064C7H   LINE      CODE     ---       #113
      010064C7H   LINE      CODE     ---       #114
      010064CAH   LINE      CODE     ---       #116
      010064CAH   LINE      CODE     ---       #117
      010064D6H   LINE      CODE     ---       #118
      010064DDH   LINE      CODE     ---       #119
      010064DDH   LINE      CODE     ---       #120
      010064E0H   LINE      CODE     ---       #122
      010064E0H   LINE      CODE     ---       #123
      010064E9H   LINE      CODE     ---       #124
      010064E9H   LINE      CODE     ---       #125
      01006503H   LINE      CODE     ---       #126
      01006509H   LINE      CODE     ---       #127
      01006509H   LINE      CODE     ---       #128
      0100650BH   LINE      CODE     ---       #129
      01006518H   LINE      CODE     ---       #130
      01006518H   LINE      CODE     ---       #131
      01006520H   LINE      CODE     ---       #132
      0100652DH   LINE      CODE     ---       #133
      0100652DH   LINE      CODE     ---       #134
      0100652DH   LINE      CODE     ---       #135
      0100653BH   LINE      CODE     ---       #136
      0100654DH   LINE      CODE     ---       #137
      0100654DH   LINE      CODE     ---       #138
      01006551H   LINE      CODE     ---       #140
      01006557H   LINE      CODE     ---       #141
      01006557H   LINE      CODE     ---       #142
      01006564H   LINE      CODE     ---       #143
      01006564H   LINE      CODE     ---       #144
      0100656EH   LINE      CODE     ---       #145
      0100656EH   LINE      CODE     ---       #146
      01006573H   LINE      CODE     ---       #147
      0100657DH   LINE      CODE     ---       #148
      0100658FH   LINE      CODE     ---       #149
      0100658FH   LINE      CODE     ---       #150
      01006595H   LINE      CODE     ---       #151
      01006595H   LINE      CODE     ---       #152
      01006597H   LINE      CODE     ---       #153
      0100659FH   LINE      CODE     ---       #154
      0100659FH   LINE      CODE     ---       #155
      010065A5H   LINE      CODE     ---       #156
      010065B0H   LINE      CODE     ---       #157
      010065B0H   LINE      CODE     ---       #158
      010065B0H   LINE      CODE     ---       #159
      010065B0H   LINE      CODE     ---       #160
      010065B0H   LINE      CODE     ---       #162
      010065B0H   LINE      CODE     ---       #163
      010065BDH   LINE      CODE     ---       #164
      010065BDH   LINE      CODE     ---       #165
      010065CFH   LINE      CODE     ---       #166
      010065CFH   LINE      CODE     ---       #167
      010065D4H   LINE      CODE     ---       #168
      010065E1H   LINE      CODE     ---       #169
      010065E1H   LINE      CODE     ---       #170
      010065E1H   LINE      CODE     ---       #171
      010065E1H   LINE      CODE     ---       #172
      010065E1H   LINE      CODE     ---       #173
      010065E1H   LINE      CODE     ---       #174
      010065E1H   LINE      CODE     ---       #175
      ---         BLOCKEND  ---      ---       LVL=0

      ---         MODULE    ---      ---       ?C_STARTUP
LX51 LINKER/LOCATER V4.66.87.0                                                        10/15/2020  10:36:21  PAGE 195


      01000000H   PUBLIC    CODE     ---       ?C_STARTUP

      ---         MODULE    ---      ---       ?C?CLDPTR
      01004BD1H   PUBLIC    CODE     ---       ?C?CLDPTR

      ---         MODULE    ---      ---       ?C?CLDOPTR
      01004BEAH   PUBLIC    CODE     ---       ?C?CLDOPTR

      ---         MODULE    ---      ---       ?C?CSTPTR
      01004C17H   PUBLIC    CODE     ---       ?C?CSTPTR

      ---         MODULE    ---      ---       ?C?CSTOPTR
      01004C29H   PUBLIC    CODE     ---       ?C?CSTOPTR

      ---         MODULE    ---      ---       ?C?IMUL
      01004C4BH   PUBLIC    CODE     ---       ?C?IMUL

      ---         MODULE    ---      ---       ?C?UIDIV
      01004C5DH   PUBLIC    CODE     ---       ?C?UIDIV

      ---         MODULE    ---      ---       ?C?ILDIX
      01004CB2H   PUBLIC    CODE     ---       ?C?ILDIX

      ---         MODULE    ---      ---       ?C?ILDPTR
      01004CC8H   PUBLIC    CODE     ---       ?C?ILDPTR

      ---         MODULE    ---      ---       ?C?ILDOPTR
      01004CF3H   PUBLIC    CODE     ---       ?C?ILDOPTR

      ---         MODULE    ---      ---       ?C?IILDPTR
      01004D2BH   PUBLIC    CODE     ---       ?C?IILDPTR

      ---         MODULE    ---      ---       ?C?IILDOPTR
      01004D63H   PUBLIC    CODE     ---       ?C?IILDOPTR

      ---         MODULE    ---      ---       ?C?ISTPTR
      01004DB0H   PUBLIC    CODE     ---       ?C?ISTPTR

      ---         MODULE    ---      ---       ?C?ISTOPTR
      01004DCFH   PUBLIC    CODE     ---       ?C?ISTOPTR

      ---         MODULE    ---      ---       ?C?LMUL
      01004DFCH   PUBLIC    CODE     ---       ?C?LMUL

      ---         MODULE    ---      ---       ?C?ULDIV
      01004E87H   PUBLIC    CODE     ---       ?C?ULDIV

      ---         MODULE    ---      ---       ?C?ULCMP
      01004F19H   PUBLIC    CODE     ---       ?C?ULCMP

      ---         MODULE    ---      ---       ?C?ULSHR
      01004F2AH   PUBLIC    CODE     ---       ?C?ULSHR

      ---         MODULE    ---      ---       ?C?LSHL
      01004F3DH   PUBLIC    CODE     ---       ?C?LSHL

      ---         MODULE    ---      ---       ?C?LSTXDATA
      01004F50H   PUBLIC    CODE     ---       ?C?LSTXDATA

      ---         MODULE    ---      ---       ?C?LSTKXDATA
      01004F5CH   PUBLIC    CODE     ---       ?C?LSTKXDATA

      ---         MODULE    ---      ---       ?C?CCASE
      01004F8DH   PUBLIC    CODE     ---       ?C?CCASE

LX51 LINKER/LOCATER V4.66.87.0                                                        10/15/2020  10:36:21  PAGE 196


      ---         MODULE    ---      ---       ?C?ICALL
      01004FB3H   PUBLIC    CODE     ---       ?C?ICALL
      01004FB7H   PUBLIC    CODE     ---       ?C?ICALL2

      ---         MODULE    ---      ---       ?C?LIMUL
      01004FB9H   PUBLIC    CODE     ---       ?C?LIMUL

      ---         MODULE    ---      ---       ?C?IILDX
      01004FE6H   PUBLIC    CODE     ---       ?C?IILDX



*** WARNING L57: UNCALLED FUNCTION, IGNORED FOR OVERLAY PROCESS
    NAME:    _TOUCHSWITCH/SYS

*** WARNING L57: UNCALLED FUNCTION, IGNORED FOR OVERLAY PROCESS
    NAME:    _PINOUTPUT/SYS

*** WARNING L57: UNCALLED FUNCTION, IGNORED FOR OVERLAY PROCESS
    NAME:    _GETPININ/SYS

*** WARNING L57: UNCALLED FUNCTION, IGNORED FOR OVERLAY PROCESS
    NAME:    _KILLTIMER/TIMER

*** WARNING L57: UNCALLED FUNCTION, IGNORED FOR OVERLAY PROCESS
    NAME:    _UART3_INIT/UART

*** WARNING L57: UNCALLED FUNCTION, IGNORED FOR OVERLAY PROCESS
    NAME:    _UART5_INIT/UART

*** WARNING L57: UNCALLED FUNCTION, IGNORED FOR OVERLAY PROCESS
    NAME:    _GETMENUDIRECT/PAGE

*** WARNING L57: UNCALLED FUNCTION, IGNORED FOR OVERLAY PROCESS
    NAME:    P133_HSLIDE/PAGE

*** WARNING L57: UNCALLED FUNCTION, IGNORED FOR OVERLAY PROCESS
    NAME:    ERRORDISPLAY/ERROR

Program Size: data=10.0 xdata=6284 const=922 code=53017
LX51 RUN COMPLETE.  9 WARNING(S),  0 ERROR(S)
