C51 COMPILER V9.53.0.0   TEMP                                                              12/01/2023 15:51:08 PAGE 1   


C51 COMPILER V9.53.0.0, COMPILATION OF MODULE TEMP
OBJECT MODULE PLACED IN .\Objects\temp.obj
COMPILER INVOKED BY: D:\DWIN\Keil_v5\C51\BIN\C51.EXE source\temp.c LARGE OPTIMIZE(8,SPEED) BROWSE INCDIR(.\driver;.\sour
                    -ce) DEBUG OBJECTEXTEND CODE SYMBOLS PRINT(.\Listings\temp.lst) OBJECT(.\Objects\temp.obj)

line level    source

   1          #include "temp.h"
   2          #include "sys.h"
   3          #include "string.h"
   4          #include "stdio.h"
   5          #include "drawing.h"
   6          #include "encoder.h"
   7          
   8          code const u8  LINE_HIGHT   = 13;//px
   9          idata      u16 LINE_WIDTH   = 150;//px
  10          idata      u16 FONT_SIZE    = 24;
  11          code const u8  LEVEL_HEIGHT = 120;//px
  12          code const u8  TOUCH_HEIGHT = 100;//px
  13          idata      u16 TIME_Y_LEVEL = 800 - 150;
  14          code const u16 ICON_RECT_SZ = 128;
  15          
  16          
  17          typedef enum { //–¥–ª—è id –∫–∞—Ä—Ç–∏–Ω–æ–∫ 
  18              EIID_TIG,       EIID_TIG_SPOT, EIID_MMA,
  19              EIID_AC,        EIID_AC_MIX,   EIID_DC_MINUS, EIID_DC_PLUS,
  20              EIID_2T,        EIID_4T,       EIID_4T_PLUS,
  21              EIID_HF,        EIID_LIFT,
  22              EIID_PULSE_OFF, EIID_PULSE_ON,
  23              EIID_D_10,      EIID_D_16,     EIID_D_20,     EIID_D_24, EIID_D_32, EIID_D_40,
  24              EIID_SIN,       EIID_TRIG,     EIID_RECT,     EIID_TRAP,
  25              EIID_H2O_ON,    EIID_H2O_OFF,
  26              
  27              EIID_PRE_FLOW_T1,  //–¢1  –≤—Ä–µ–º—è –ø—Ä–µ–¥–≤. –ø—Ä–æ–¥—É–≤–∫–∏, —Å
  28              EIID_START_I1,     //I1  –Ω–∞—á–∞–ª—å–Ω—ã–π —Ç–æ–∫, –ê
  29              EIID_START_T2,     //T2  –≤—Ä–µ–º—è –Ω–∞—á–∞–ª—å–Ω–æ–≥–æ —Ç–æ–∫–∞, c
  30              EIID_UP_T3,        //–¢3  –≤—Ä–µ–º—è –Ω–∞—Ä–∞—Å—Ç–∞–Ω–∏—è, —Å
  31              EIID_BASE_I2,      //I2  —Å–≤–∞—Ä–æ—á–Ω—ã–π —Ç–æ–∫ (—Ç–æ–∫ –±–∞–∑—ã), –ê
  32              EIID_BASE_T4,      //–¢4  –≤—Ä–µ–º—è —Ç–æ–∫–∞ –±–∞–∑—ã, —Å
  33              EIID_IMPULSE_I3,   //I3  –∏–º–ø—É–ª—å—Å–Ω—ã–π —Ç–æ–∫, –ê
  34              EIID_IMPULSE_T5,   //–¢5  –≤—Ä–µ–º—è —Ç–æ–∫–∞ –∏–º–ø—É–ª—å—Å–∞, —Å
  35              EIID_FREQ_F1,      //F1  —á–∞—Å—Ç–æ—Ç–∞, –ì—Ü
  36              EIID_BALANCE_D1,   //D1  –±–∞–ª–∞–Ω—Å *
  37              EIID_DOWN_T6,      //–¢6  –≤—Ä–µ–º—è —Å–ø–∞–¥–∞, —Å
  38              EIID_END_I4,       //I4  —Ç–æ–∫ –æ–∫–æ–Ω—á–∞–Ω–∏—è —Å–≤–∞—Ä–∫–∏, –ê
  39              EIID_END_T7,       //T7  –≤—Ä–µ–º—è –∫–æ–Ω–µ—á–Ω–æ–≥–æ —Ç–æ–∫–∞, —Å
  40              EIID_POST_FLOW_T8, //–¢8  –≤—Ä–µ–º—è –ø—Ä–æ–¥—É–≤–∫–∏ –≤ –∫–æ–Ω—Ü–µ, —Å
  41              EIDD_KZ_I5,        //I5  —Ç–æ–∫ –∫–æ—Ä–æ—Ç–∫–æ–≥–æ –∑–∞–º—ã–∫–∞–Ω–∏—è, %
  42              EIID_BASE2_I2X,    //I2—Ö –≤—Ç–æ—Ä–æ–π —Ç–æ–∫ –±–∞–∑—ã (—Ç–æ–ª—å–∫–æ –≤ 4–¢+), –ê
  43              EIID_SIZE,
  44          };
  45          
  46          enum {
  47              MEN_WELD_MOD, 
  48              MEN_BTN_MOD,
  49              MEN_POL_MOD, 
  50              MEN_IGN_MOD,
  51              MEN_PLS_MOD,
  52              MEN_PLS_WAVE_SHAPE_MOD,  
  53              MEN_D_MOD,   
  54              MEN_FLOW_MOD,
C51 COMPILER V9.53.0.0   TEMP                                                              12/01/2023 15:51:08 PAGE 2   

  55          };
  56          
  57          enum {
  58              TIG,
  59              TIG_SPOT,
  60              MMA,
  61          };
  62          
  63          code const u32 active_items[] = {
  64              ((u32)1 << EIID_TIG)       | ((u32)1 << EIID_TIG_SPOT) | ((u32)1 << EIID_MMA)      |
  65              ((u32)1 << EIID_2T)        | ((u32)1 << EIID_4T)       | ((u32)1 << EIID_4T_PLUS)  |
  66              ((u32)1 << EIID_AC)        | ((u32)1 << EIID_AC_MIX)   | ((u32)1 << EIID_DC_MINUS) |
  67              ((u32)1 << EIID_HF)        | ((u32)1 << EIID_LIFT)     |
  68              ((u32)1 << EIID_PULSE_OFF) | ((u32)1 << EIID_PULSE_ON) |
  69              ((u32)1 << EIID_SIN)       | ((u32)1 << EIID_TRIG)     | ((u32)1 << EIID_RECT)     | ((u32)1 << EIID_T
             -RAP) |
  70              ((u32)1 << EIID_D_10)      | ((u32)1 << EIID_D_16)     | ((u32)1 << EIID_D_20)     | ((u32)1 << EIID_D
             -_24) | ((u32)1 << EIID_D_32) | ((u32)1 << EIID_D_40) |
  71              ((u32)1 << EIID_H2O_OFF)   | ((u32)1 << EIID_H2O_ON),    //tig;
  72          
  73              ((u32)1 << EIID_TIG)       | ((u32)1 << EIID_TIG_SPOT) | ((u32)1 << EIID_MMA)      |
  74              ((u32)1 << EIID_2T)        | 
  75              ((u32)1 << EIID_AC)        | ((u32)1 << EIID_AC_MIX)   | ((u32)1 << EIID_DC_MINUS) |
  76              ((u32)1 << EIID_HF)        | ((u32)1 << EIID_LIFT)     |
  77              ((u32)1 << EIID_PULSE_OFF) | ((u32)1 << EIID_PULSE_ON) |
  78              ((u32)1 << EIID_SIN)       | ((u32)1 << EIID_TRIG)     | ((u32)1 << EIID_RECT)     | ((u32)1 << EIID_T
             -RAP) |
  79              ((u32)1 << EIID_D_10)      | ((u32)1 << EIID_D_16)     | ((u32)1 << EIID_D_20)     | ((u32)1 << EIID_D
             -_24) | ((u32)1 << EIID_D_32) | ((u32)1 << EIID_D_40) |
  80              ((u32)1 << EIID_H2O_OFF)   | ((u32)1 << EIID_H2O_ON),     //tig /spot;
  81          
  82              ((u32)1 << EIID_TIG)       | ((u32)1 << EIID_TIG_SPOT) | ((u32)1 << EIID_MMA)     |
  83              ((u32)1 << EIID_AC)        | ((u32)1 << EIID_DC_MINUS) | ((u32)1 << EIID_DC_PLUS) |
  84              ((u32)1 << EIID_PULSE_OFF) | ((u32)1 << EIID_PULSE_ON),     //mma
  85          };
  86          
  87          code const u32 menu_item_bm[] = { 
  88              ((u32)1 << EIID_TIG)       | ((u32)1 << EIID_TIG_SPOT) | ((u32)1 << EIID_MMA),      
  89              ((u32)1 << EIID_2T)        | ((u32)1 << EIID_4T)       | ((u32)1 << EIID_4T_PLUS),    
  90              ((u32)1 << EIID_AC)        | ((u32)1 << EIID_AC_MIX)   | ((u32)1 << EIID_DC_MINUS) | ((u32)1 << EIID_D
             -C_PLUS),                                             
  91              ((u32)1 << EIID_HF)        | ((u32)1 << EIID_LIFT),
  92              ((u32)1 << EIID_PULSE_OFF) | ((u32)1 << EIID_PULSE_ON),
  93              ((u32)1 << EIID_SIN)       | ((u32)1 << EIID_TRIG)     | ((u32)1 << EIID_RECT)     | ((u32)1 << EIID_T
             -RAP),                                                
  94              ((u32)1 << EIID_D_10)      | ((u32)1 << EIID_D_16)     | ((u32)1 << EIID_D_20)     | ((u32)1 << EIID_D
             -_24) | ((u32)1 << EIID_D_32) | ((u32)1 << EIID_D_40),
  95              ((u32)1 << EIID_H2O_OFF)   | ((u32)1 << EIID_H2O_ON),   
  96          }; 
  97          
  98          //—Ç–µ —ç–ª–µ–º–µ–Ω—Ç—ã –∫–æ—Ç–æ—Ä—ã–µ –±—É–¥—É—Ç –æ—Ç–æ–±—Ä–∞–∂–µ–Ω—ã –≤ –≥–æ—Ä–∏–∑–æ–Ω—Ç–∞–ª—å–Ω–æ–º –º–
             -µ–Ω—é
  99          idata u32 main_menu_bm = (((u32)1 << EIID_TIG)       |
 100                                   ((u32)1 << EIID_2T)        |
 101                                   ((u32)1 << EIID_AC)        |
 102                                   ((u32)1 << EIID_HF)        |
 103                                   ((u32)1 << EIID_PULSE_OFF) |
 104                                   ((u32)1 << EIID_SIN)       |
 105                                   ((u32)1 << EIID_D_10)      |
 106                                   ((u32)1 << EIID_H2O_OFF)      
 107                                         
 108          );
C51 COMPILER V9.53.0.0   TEMP                                                              12/01/2023 15:51:08 PAGE 3   

 109          //–±–∏—Ç–æ–≤–∞—è –º–∞—Å–∫–∞ –≥–æ—Ä–∏–∑–æ–Ω—Ç–∞–ª—å–Ω–æ–≥–æ –º–µ–Ω—é –Ω–∞ –Ω–∏–∂–Ω–µ–º —ç–∫—Ä–∞–Ω–µ –Ω–µ–æ–
             -±—Ö–æ–¥–∏–º–∞ –ø–µ—Ä–≤–æ–Ω–∞—á–∞–ª—å–Ω–∞—è –∏–Ω–∏—Ü–∏–∞–ª–∏–∑–∞—Ü–∏—è
 110          
 111          icon_t cur_menu[48];
 112          u32 cur_menu_active;
 113          u8 cur_menu_size;
 114          
 115          u8 idata cur_active_items_id = TIG;
 116          
 117          
 118          xdata u16 text_sp[EIID_SIZE]; //–º–∞—Å—Å–∏–≤ sp –∏–¥–µ–Ω—Ç–∏—Ñ–∏–∫–∞—Ç–æ—Ä–æ–≤ –ª–∏–Ω–∏–π, –∫–∞—Ä—Ç–∏–Ω–æ–
             -∫, —á–∏—Å–µ–ª
 119          xdata s16 par[EIID_SIZE];
 120          xdata u16 cur_par_id; //–Ω–æ–º–µ—Ä —Ç–µ–∫—É—â–µ–≥–æ –ø–∞—Ä–∞–º–µ—Ç—Ä–∞ –∫ –æ—Ç–æ–±—Ä–∞–∂–µ–Ω–∏—é
 121          
 122          typedef struct {
 123              s16 min;
 124              s16 max;
 125          }lim_t;
 126          lim_t par_lim[EIID_SIZE];
 127          s16   par_step[EIID_SIZE];
 128          
 129          struct {
 130              point_t p;
 131              u8 desimal_pleaces;
 132              u16 font_size;
 133          }number_info[EIID_SIZE];
 134          
 135          
 136          
 137          u16 icon_sp_bottom_menu[16]; //sp –∫–∞—Ä—Ç–∏–Ω–æ–∫ –Ω–∏–∂–Ω–µ–≥–æ –≥–æ—Ä–∏–∑–æ–Ω—Ç–∞–ª—å–Ω–æ–≥–æ –º–µ–Ω—é 
             -// –¥–ª—è –∏—Ö –∏–∑–º–µ–Ω–µ–Ω–∏—è
 138          
 139          void (*cur_menu_fanc)(u8 item_pos);
 140          void change_mode_control(u8 item_pos);
 141          void make_menu_bar(u8 is_vertical, u16 start_x, u16 start_y, u32 id_bm, void (*cur_menu_fanc)(u8 item_pos)
             -);
 142          
 143          
 144          
 145          void make_lim(lim_t *lim, s16 min, s16 max) {
 146   1          lim->min = min;
 147   1          lim->max = max;
 148   1      }
 149          
 150          
 151          void do_nothing(u8 item_pos)
 152          {
 153   1          static u8 sw = 0;
 154   1      
 155   1          if(sw & 1){
 156   2              
 157   2          } else {
 158   2              
 159   2          }
 160   1          sw++;
 161   1          return;
 162   1      }
*** WARNING C280 IN LINE 151 OF source\temp.c: 'item_pos': unreferenced local variable
 163          
 164          
 165          void add_touch_place(u16 x0, u16 y0, u16 x1, u16 y1, u8 touch_id)
C51 COMPILER V9.53.0.0   TEMP                                                              12/01/2023 15:51:08 PAGE 4   

 166          {
 167   1          if(cur_menu_size > ARR_SIZE(cur_menu)) return;
 168   1      
 169   1          cur_menu[cur_menu_size].ico = touch_id;
 170   1          cur_menu[cur_menu_size].r.x0 = x0;
 171   1          cur_menu[cur_menu_size].r.y0 = y0;
 172   1          cur_menu[cur_menu_size].r.x1 = x1;
 173   1          cur_menu[cur_menu_size].r.y1 = y1; // —Ä–∞–∑–º–µ—Ä –∫–Ω–æ–ø–∫–∏
 174   1          cur_menu_size++;        
 175   1      }
 176          
 177          
 178          
 179          
 180          
 181          
 182          
 183          
 184          
 185          
 186          void draw_number_centered_on_line(point_t line_start, u16 n, u8 decimal_places, u8* units, u16 font_size, 
             -u16 color, u8 touch_id)
 187          {
 188   1          u16 integer_digits;
 189   1          u8 buf[20];
 190   1          if      (n < 10)    integer_digits = 1;
 191   1          else if (n < 100)   integer_digits = 2;
 192   1          else if (n < 1000)  integer_digits = 3;
 193   1          else if (n < 10000) integer_digits = 4;
 194   1      
 195   1          number_info[touch_id].desimal_pleaces = strlen(units) + decimal_places;
 196   1          number_info[touch_id].p = make_point(line_start.x, line_start.y - (font_size * 2) - LINE_HIGHT);
 197   1          number_info[touch_id].font_size = font_size;
 198   1      
 199   1          integer_digits += number_info[touch_id].desimal_pleaces;
 200   1      
 201   1          sprintf(buf, "%d%s", n, units);
 202   1          
 203   1          text_sp[touch_id] = Draw_text(line_start.x - 50, line_start.y - (font_size * 2), line_start.x + LINE_W
             -IDTH + 50, line_start.y, buf, font_size, color);
 204   1          add_touch_place(line_start.x, line_start.y - (font_size * 2), line_start.x + LINE_WIDTH, line_start.y,
             - touch_id);
 205   1          // number_sp[touch_id] = Draw_Number(line_start.x + ((LINE_WIDTH - (integer_digits * font_size)) / 2L)
             -, 
 206   1          //                                 number_info[touch_id].p.y, 
 207   1          //                                 n, 
 208   1          //                                 decimal_places, 
 209   1          //                                 units, 
 210   1          //                                 font_size, 
 211   1          //                                 color);
 212   1      
 213   1          
 214   1      }
 215          
 216          
 217             
 218          void redraw_number_centered(u8 id, u16 n)
 219          {
 220   1          u16 places;
 221   1      
 222   1          if      (n < 10)    places = 1;
 223   1          else if (n < 100)   places = 2;
C51 COMPILER V9.53.0.0   TEMP                                                              12/01/2023 15:51:08 PAGE 5   

 224   1          else if (n < 1000)  places = 3;
 225   1          else if (n < 10000) places = 4;
 226   1          
 227   1          places += number_info[id].desimal_pleaces;  
 228   1      
 229   1          change_number_pos(text_sp[id], make_point(number_info[id].p.x + ((LINE_WIDTH - (places * number_info[i
             -d].font_size)) / 2L), number_info[id].p.y));
 230   1          change_number_value(text_sp[id], n);
 231   1      }
 232          
 233          
 234          
 235          point_t dummy_line_up(point_t p)
 236          {
 237   1          point_t p2; 
 238   1          p2 = make_point(p.x, p.y - LEVEL_HEIGHT);
 239   1          draw_line(p.x, p.y, p2.x, p2.y, LINE_HIGHT, GREEN);
 240   1          return p2;
 241   1      }
 242          
 243          point_t dummy_line_down(point_t p)
 244          {
 245   1          point_t p2; 
 246   1          p2 = make_point(p.x, p.y + LEVEL_HEIGHT);
 247   1          draw_line(p.x, p.y, p2.x, p2.y, LINE_HIGHT, GREEN);
 248   1          return p2;
 249   1      }
 250          
 251          point_t add_t_preflow(point_t p) //–≤–æ–∑–≤—Ä–∞—â–∞–µ—Ç –∫–æ–Ω–µ—á–Ω—É—é —Ç–æ—á–∫—É –ø–æ—Å–ª–µ –æ—Ç—Ä–∏—Å–
             -æ–≤–∫–∏ –¥–∞–Ω–Ω–æ–≥–æ —É—á–∞—Å—Ç–∫–∞
 252          {
 253   1          point_t p2;
 254   1          p2 = make_point(p.x + LINE_WIDTH, p.y);
 255   1      
 256   1          draw_line(p.x, p.y, p2.x, p2.y, LINE_HIGHT, GREEN);
 257   1      
 258   1          //add_touch_place(p.x, p.y, p2.x, TIME_Y_LEVEL + TOUCH_HEIGHT, EIID_PRE_FLOW_T1);//—Å–æ–∑–¥–∞–Ω–∏–µ –æ
             -–±–ª–∞—Å—Ç–∏ –∫–∞—Å–∞–Ω–∏—è –¥–ª—è –Ω–∞—Å—Ç—Ä–æ–π–∫–∏ –≤—Ä–µ–º–µ–Ω–∏ –ø—Ä–æ–¥—É–≤–∫–∏
 259   1          draw_number_centered_on_line(make_point(p.x, TIME_Y_LEVEL), par[EIID_PRE_FLOW_T1] , 1, "s", 36, CYAN, 
             -EIID_PRE_FLOW_T1); //–≤—Ä–µ–º—è –ø—Ä–æ–¥—É–≤–∫–∏
 260   1          return p2;    
 261   1      }
 262          
 263          
 264          
 265          point_t add_t_start_i(point_t p) 
 266          {
 267   1          point_t p2; 
 268   1          p2 = make_point(p.x + LINE_WIDTH, p.y);
 269   1          draw_line(p.x, p.y, p2.x, p2.y,  LINE_HIGHT, GREEN);
 270   1          
 271   1          draw_number_centered_on_line(p, par[EIID_START_I1], 0, "A", FONT_SIZE, YELLOW, EIID_START_I1);//–Ω–∞—á
             -–∞–ª—å–Ω—ã–π —Ç–æ–∫
 272   1          draw_number_centered_on_line(make_point(p.x, TIME_Y_LEVEL), par[EIID_START_T2], 1, "s", 36, CYAN, EIID
             -_START_T2);//–≤—Ä–µ–º—è –Ω–∞—á–∞–ª—å–Ω–æ–≥–æ —Ç–æ–∫–∞
 273   1      
 274   1          return p2;
 275   1      }
 276          
 277          
 278          point_t add_t_up(point_t p) 
 279          {
C51 COMPILER V9.53.0.0   TEMP                                                              12/01/2023 15:51:08 PAGE 6   

 280   1          point_t p2;
 281   1          p2 = make_point(p.x + LINE_WIDTH, p.y - LEVEL_HEIGHT);
 282   1          draw_line(p.x, p.y, p2.x, p2.y,  LINE_HIGHT, GREEN);
 283   1          
 284   1          draw_number_centered_on_line(make_point(p.x, TIME_Y_LEVEL), par[EIID_UP_T3], 1, "s", 36, CYAN, EIID_UP
             -_T3); //–≤—Ä–µ–º—è –Ω–∞—Ä–æ—Å—Ç–∞–Ω–∏—è
 285   1      
 286   1          return p2;
 287   1      }
 288          
 289          point_t add_base_i1_i2_t(point_t p) 
 290          {
 291   1          point_t p2;
 292   1          u16 half_height = LINE_HIGHT / 2;
 293   1          p2 = make_point(p.x + LINE_WIDTH, p.y);
 294   1      
 295   1          draw_line(p.x, p.y, p2.x, p2.y,  LINE_HIGHT, GREEN);
 296   1      
 297   1          draw_number_centered_on_line(make_point(p.x, TIME_Y_LEVEL), par[EIID_BASE_T4], 3, "ms", 30, CYAN, EIID
             -_BASE_T4); //–≤—Ä–µ–º—è –±–∞–∑—ã
 298   1          draw_number_centered_on_line(p, par[EIID_BASE_I2], 0, "A", FONT_SIZE, PINK, EIID_BASE_I2); //—Ç–æ–∫ –±
             -–∞–∑—ã
 299   1          if(main_menu_bm & (u32)1 << EIID_4T_PLUS) 
 300   1              draw_number_centered_on_line(make_point(p.x, p.y + (FONT_SIZE * 2) + (LINE_HIGHT * 2)), par[EIID_B
             -ASE2_I2X], 0, "A", FONT_SIZE, YELLOW, EIID_BASE2_I2X); //–≤—Ç–æ—Ä–æ–π —Ç–æ–∫ –±–∞–∑—ã
 301   1          return p2;
 302   1      }
 303          
 304          point_t add_i_t_impulse(point_t p) 
 305          {
 306   1          point_t p2;
 307   1          p2 = make_point(p.x + LINE_WIDTH, p.y);
 308   1      
 309   1          draw_line(p.x, p.y, p2.x, p2.y,  LINE_HIGHT, GREEN);
 310   1      
 311   1          draw_number_centered_on_line(make_point(p.x, TIME_Y_LEVEL), par[EIID_IMPULSE_T5], 3, "ms", 30, CYAN, E
             -IID_IMPULSE_T5);// –≤—Ä–µ–º—è –∏–º–ø—É–ª—å—Å–∞
 312   1          draw_number_centered_on_line(p, par[EIID_IMPULSE_I3], 0, "A", FONT_SIZE, YELLOW, EIID_IMPULSE_I3);  //
             -—Ç–æ–∫ –∏–º–ø—É–ª—å—Å–∞
 313   1      
 314   1          return p2;
 315   1      }
 316          
 317          point_t add_t_down(point_t p)
 318          {
 319   1          point_t p2;
 320   1          p2 = make_point(p.x + LINE_WIDTH, p.y + LEVEL_HEIGHT);
 321   1      
 322   1          draw_line(p.x, p.y, p2.x, p2.y,  LINE_HIGHT, GREEN);
 323   1      
 324   1          draw_number_centered_on_line(make_point(p.x, TIME_Y_LEVEL), par[EIID_DOWN_T6], 1, "s", 36, CYAN, EIID_
             -DOWN_T6); //–≤—Ä–µ–º—è —Å–ø–∞–¥–∞
 325   1          return p2;
 326   1      }
 327          
 328          point_t add_end_i_t(point_t p)
 329          {
 330   1          point_t p2;
 331   1          p2 = make_point(p.x + LINE_WIDTH, p.y);
 332   1      
 333   1          draw_line(p.x, p.y, p2.x, p2.y,  LINE_HIGHT, GREEN);
 334   1          
C51 COMPILER V9.53.0.0   TEMP                                                              12/01/2023 15:51:08 PAGE 7   

 335   1          draw_number_centered_on_line(make_point(p.x, TIME_Y_LEVEL), par[EIID_END_T7], 1, "s", 36, CYAN, EIID_E
             -ND_T7); //–≤—Ä–µ–º—è –∫–æ–Ω–µ—á–Ω–æ–≥–æ —Ç–æ–∫–∞
 336   1          draw_number_centered_on_line(p, par[EIID_END_I4], 0, "A", FONT_SIZE, YELLOW, EIID_END_I4); //–∫–æ–Ω–µ—
             -á–Ω—ã–π —Ç–æ–∫
 337   1          return p2;
 338   1      }
 339          
 340          point_t add_t_postflow(point_t p)
 341          {
 342   1          point_t p2;
 343   1          p2 = make_point(p.x + LINE_WIDTH, p.y);
 344   1      
 345   1          draw_line(p.x, p.y, p2.x, p2.y,  LINE_HIGHT, GREEN);
 346   1          
 347   1          draw_number_centered_on_line(make_point(p.x, TIME_Y_LEVEL), par[EIID_POST_FLOW_T8], 0, "s", 36, CYAN, 
             -EIID_POST_FLOW_T8);//–≤—Ä–µ–º—è –∫–æ–Ω–µ—á–Ω–æ–π –ø—Ä–æ–¥—É–≤–∫–∏
 348   1          return p2;
 349   1      }
 350          
 351          
 352          point_t add_i_kz(point_t p)
 353          {
 354   1          point_t p2;
 355   1          p2 = make_point(p.x + LINE_WIDTH, p.y - LEVEL_HEIGHT);
 356   1          draw_line(p.x, p.y, p2.x, p2.y, LINE_HIGHT, GREEN);
 357   1      
 358   1          draw_number_centered_on_line(make_point(p.x, p2.y), par[EIDD_KZ_I5], 0, "%", FONT_SIZE, YELLOW, EIDD_K
             -Z_I5);//–≤—Ä–µ–º—è –∫–æ–Ω–µ—á–Ω–æ–π –ø—Ä–æ–¥—É–≤–∫–∏
 359   1          return p2;   
 360   1      }
 361          
 362          
 363          
 364          
 365          void bottom_level_controls(u8 item_pos);
 366          
 367          void make_bottom_menu(void)
 368          {
 369   1          cur_menu_size = 0;
 370   1          {
 371   2              u8 i;
 372   2              u8 id; 
 373   2              u16 start_x = 0;
 374   2              u16 start_y = 800 - ICON_RECT_SZ;
 375   2              u32 id_bm = main_menu_bm;
 376   2              id = 0;
 377   2              i = 0;
 378   2              while (id_bm != 0) {
 379   3                  if((u32)id_bm & (u32)1) {
 380   4                      add_touch_place(start_x, start_y, start_x + ICON_RECT_SZ, start_y + ICON_RECT_SZ, id);
 381   4                      image_change_id(icon_sp_bottom_menu[i], id);
 382   4                      image_change_pos(icon_sp_bottom_menu[i], make_point(start_x, start_y));
 383   4                      start_x += ICON_RECT_SZ;
 384   4                      i++;
 385   4                  }
 386   3                  id_bm >>= 1;
 387   3                  id++;
 388   3              }
 389   2      
 390   2              add_touch_place(start_x, start_y, start_x + ICON_RECT_SZ, start_y + ICON_RECT_SZ, i);//—Ä–µ–∑–µ—Ä–
             -≤
 391   2      
C51 COMPILER V9.53.0.0   TEMP                                                              12/01/2023 15:51:08 PAGE 8   

 392   2              start_x += ICON_RECT_SZ;
 393   2              add_touch_place(start_x, start_y, start_x + ICON_RECT_SZ, start_y + ICON_RECT_SZ, i);
 394   2              image_change_id(icon_sp_bottom_menu[i], 0);
 395   2              image_change_pos(icon_sp_bottom_menu[i], make_point(start_x, start_y));
 396   2      
 397   2              for(i = 0; i < 6; i++) {
 398   3                  add_touch_place(0, 0, 0, 0, 0); //—Ä–µ–∑–µ—Ä–≤ –¥–ª—è –≤–µ—Ä—Ç–∏–∫–∞–ª—å–Ω–æ–≥–æ –º–µ–Ω—é + 6
 399   3              }
 400   2      
 401   2              cur_menu_fanc = bottom_level_controls;
 402   2          }
 403   1      }
 404          
 405          
 406          
 407          void par_select(u8 pair_id);
 408          
 409          void bottom_level_controls(u8 item_pos)
 410          { //–≤—ã–∑–æ–≤–µ—Ç—Å—è –ø–æ—Å–ª–µ –≤—ã–±–æ—Ä–∞ —ç–ª–µ–º–µ–Ω—Ç–∞ –≤ –≥–æ—Ä–∏–∑–æ–Ω—Ç–∞–ª—å–Ω–æ–º –º–µ–Ω—é
 411   1          u32 bm = 0;
 412   1          u8 i;
 413   1          u8 id;     
 414   1          u16 start_x;
 415   1          u16 start_y;
 416   1      
 417   1      
 418   1          for(i = 10; i < 16; i++) { //–∑–∞—á–∏—Å—Ç–∫–∞ –ø—Ä–æ—à–ª–æ–≥–æ –º–µ–Ω—é
 419   2              image_change_id(icon_sp_bottom_menu[i], 0xffff);
 420   2              cur_menu[i].r.x0 = 0;
 421   2              cur_menu[i].r.y0 = 0;  
 422   2              cur_menu[i].r.x1 = 0;  
 423   2              cur_menu[i].r.y1 = 0;      
 424   2          }
 425   1          //–ø–æ–ª—É—á–∏—Ç—å –∏–Ω–¥–µ–∫—Å —Ç–∏–ø–∞ –º–µ–Ω—é
 426   1          if(item_pos < 8) { //–æ—Ç—Ä–∏–∑–æ–≤–∞—Ç—å –≤–µ—Ä—Ç–∏–∫–∞–ª—å–Ω–æ–µ –º–µ–Ω—é
 427   2              for(i = 0; i < ARR_SIZE(menu_item_bm); i++) {
 428   3                  if((u32)menu_item_bm[i] & (u32)((u32)1 << cur_menu[item_pos].ico)) { //–ø–æ–∏—Å–∫ –º–µ–Ω—é –∫ 
             -–∫–æ—Ç–æ—Ä–º—É –æ—Ç–Ω–æ—Å–∏—Ç—Å—è –¥–∞–Ω–Ω—ã–π —ç–ª–µ–º–µ–Ω—Ç
 429   4                      bm = active_items[cur_active_items_id] & menu_item_bm[i];//—É–±—Ä–∞—Ç—å –∏–∑ –æ—Ç–æ–±—Ä–∞–
             -∂–µ–Ω–∏—è —ç–µ–ª–µ–º–µ–Ω—Ç—ã –∫–æ—Ç–æ—Ä—ã–µ –Ω–µ –¥–æ—Å—Ç—É–ø–Ω—ã –≤ –¥–∞–Ω–Ω–æ–º —Ä–µ–∂–∏–º–µ 
 430   4                      bm &= ~((u32)1 << cur_menu[item_pos].ico); //—É–±—Ä–∞—Ç—å –∏–∑ –æ—Ç–±–æ—Ä–∞–∂–µ–Ω–∏—è —ç–ª
             -–µ–º–µ–Ω—Ç –∫–æ—Ç–æ—Ä—ã–π —É–∂–µ –≤—ã—Å–≤–µ—á–µ–Ω –≤ –Ω–∏–∂–Ω–µ–º –º–µ–Ω—é
 431   4                      if(bm != 0 ) { //–µ—Å–ª–∏ –Ω–µ—á–µ–≥–æ –≤—ã–≤–æ–¥–∏—Ç—å –Ω–µ —Ä–∏—Å–æ–≤–∞—Ç—å –≥–æ—Ä–∏–∑–æ
             -–Ω—Ç–∞–ª—å–Ω–æ–µ –º–µ–Ω—é
 432   5                        
 433   5                          
 434   5                          id = 0;
 435   5                          i = 10;
 436   5                          
 437   5                          start_x = ICON_RECT_SZ * item_pos;
 438   5                          start_y = 800 - (ICON_RECT_SZ * 2);
 439   5                          while (bm != 0) {
 440   6                              if((u32)bm & (u32)1) {
 441   7                                  image_change_pos(icon_sp_bottom_menu[i], make_point(start_x, start_y));
 442   7                                  image_change_id(icon_sp_bottom_menu[i], id);
 443   7                                  
 444   7                                  cur_menu[i].r.x0 = start_x;
 445   7                                  cur_menu[i].r.y0 = start_y;
 446   7                                  cur_menu[i].r.x1 = start_x + ICON_RECT_SZ;
 447   7                                  cur_menu[i].r.y1 = start_y + ICON_RECT_SZ;
 448   7                                  cur_menu[i].ico  = id;
 449   7                                  start_y -= ICON_RECT_SZ; 
C51 COMPILER V9.53.0.0   TEMP                                                              12/01/2023 15:51:08 PAGE 9   

 450   7                                  i++;
 451   7                              }
 452   6                              bm >>= 1;
 453   6                             
 454   6                              id++;
 455   6                          } 
 456   5                      }
 457   4                      break;
 458   4                  }
 459   3              }
 460   2          } else { //–µ—Å–ª—ã –≤—ã–±–æ—Ä –∏–∑ –≤–µ—Ä—Ç–∏–∫–∞–ª—å–Ω–æ–≥–æ –º–µ–Ω—é //–µ–ª—Å–∏ –ø–æ–∑—Ü–∏—è –±–æ–ª
             -—à–µ 10
 461   2              
 462   2              if(item_pos > 15)  { //–≤–±–æ—Ä –∏–∑ –Ω–∞—Å—Ç—Ä–æ–π–∫–∏ –ø–∞—Ä–∞–º–µ—Ç—Ä–æ–≤
 463   3                 par_select(cur_menu[item_pos].ico);
 464   3                 return;
 465   3              }
 466   2      
 467   2      
 468   2              for(i = 0; i < ARR_SIZE(menu_item_bm); i++) {
 469   3                  if(menu_item_bm[i] & (u32)1 << cur_menu[item_pos].ico) {
 470   4                      main_menu_bm &= (u32)~menu_item_bm[i]; //–æ—á–∏—Å—Ç—å –æ–±–ª–∞—Å—Ç—å —Å–≤—è–∑–∞–Ω–Ω—É—é —Å
             - —ç—Ç–∏–º –ø–æ–¥–º–µ–Ω—é –≤ –≥–∞–≤–Ω–æ–º –º–µ–Ω—é
 471   4                      
 472   4                      main_menu_bm |= ((u32)1 << cur_menu[item_pos].ico); //–≤—Å—Ç–∞–≤–∏—Ç—å —Ç–µ–∫—É—â–∏–π –≤—ã
             -–±—Ä–∞–Ω–Ω—ã–π —ç–ª–µ–º–µ–Ω—Ç –≤ –≥–ª–∞–≤–Ω–æ–µ –º–µ–Ω—é
 473   4                      
 474   4                      
 475   4      
 476   4                      switch (cur_menu[item_pos].ico)
 477   4                      {
 478   5                          case EIID_TIG:
 479   5                          case EIID_TIG_SPOT:
 480   5                          case EIID_MMA: {
 481   6                              cur_active_items_id = cur_menu[item_pos].ico;
 482   6                              make_scene(); 
 483   6                          } break;
 484   5      
 485   5                          case EIID_PULSE_ON :
 486   5                          case EIID_PULSE_OFF: {
 487   6                              make_scene();         
 488   6                          } break;
 489   5      
 490   5                          case EIID_2T:
 491   5                          case EIID_4T:
 492   5                          case EIID_4T_PLUS : {
 493   6                              make_scene();         
 494   6                          } break;
 495   5      
 496   5                             
 497   5                      }
 498   4                     
 499   4                      bm = main_menu_bm & active_items[cur_active_items_id];
 500   4                      
 501   4                      
 502   4      
 503   4                      for(i = 0; i < 8; i++) { //–∑–∞—á–∏—Å—Ç–∫–∞ –ø—Ä–æ—à–ª–æ–≥–æ –º–µ–Ω—é
 504   5                          image_change_id(icon_sp_bottom_menu[i], 0xffff);    
 505   5                      }
 506   4                     
 507   4                      id = 0;
 508   4                      i = 0;
C51 COMPILER V9.53.0.0   TEMP                                                              12/01/2023 15:51:08 PAGE 10  

 509   4                      start_x = 0;
 510   4                      start_y = 800 - (ICON_RECT_SZ);
 511   4      
 512   4                      while (bm != 0) { //–æ—Ç—Ä–∏—Å–æ–≤–∫–∞ –Ω–∏–∂–Ω–µ–≥–æ –º–µ–Ω—é
 513   5                          if((u32)bm & (u32)1) {
 514   6                              image_change_pos(icon_sp_bottom_menu[i], make_point(start_x, start_y));
 515   6                              image_change_id(icon_sp_bottom_menu[i], id);
 516   6                              
 517   6                              cur_menu[i].r.x0 = start_x;
 518   6                              cur_menu[i].r.y0 = start_y;
 519   6                              cur_menu[i].r.x1 = start_x + ICON_RECT_SZ;
 520   6                              cur_menu[i].r.y1 = start_y + ICON_RECT_SZ;
 521   6                              cur_menu[i].ico  = id;
 522   6                              start_x += ICON_RECT_SZ; 
 523   6                              i++;
 524   6                          }
 525   5                          bm >>= 1;
 526   5                          id++;
 527   5                      }
 528   4                      for(; i < 10; i++) { //–∑–∞—á–∏—Å—Ç–∫–∞ –æ–±–ª–∞—Å—Ç–µ–π –∫–∞—Å–∞–Ω–∏—è
 529   5                          cur_menu[i].r.x0 = 0;
 530   5                          cur_menu[i].r.y0 = 0;
 531   5                          cur_menu[i].r.x1 = 0;
 532   5                          cur_menu[i].r.y1 = 0;
 533   5                      } 
 534   4                     
 535   4                      break;
 536   4                  }
 537   3              }
 538   2          }
 539   1          
 540   1      }
 541          
 542          
 543          // void draw_par_value(u16 par_id, u16 new_value) 
 544          // {
 545            
 546          // }
 547          
 548          
 549          
 550          void cur_par_value_change(u16 cur_par_id, s8 shift)
 551          {
 552   1          par[cur_par_id] += ((s16)par_step[cur_par_id] * shift); 
 553   1      
 554   1      
 555   1      
 556   1          if(par[cur_par_id] > par_lim[cur_par_id].max)       
 557   1              par[cur_par_id] = par_lim[cur_par_id].max;
 558   1          else if(par[cur_par_id] < par_lim[cur_par_id].min) 
 559   1              par[cur_par_id] = par_lim[cur_par_id].min;
 560   1      
 561   1          {
 562   2              s16 tmp;
 563   2              switch (cur_par_id)
 564   2              {
 565   3                  case EIID_PRE_FLOW_T1:
 566   3                  case EIID_START_T2   :
 567   3                  case EIID_UP_T3      :
 568   3                  case EIID_DOWN_T6    :
 569   3                  case EIID_END_T7     : {
 570   4                      //Draw_text_change_text("%.1fs", text_sp[cur_par_id], (float)par[cur_par_id] / (float)1000
C51 COMPILER V9.53.0.0   TEMP                                                              12/01/2023 15:51:08 PAGE 11  

             -.0);
 571   4                  } break;
 572   3                  
 573   3                  case EIID_POST_FLOW_T8: {
 574   4                      //Draw_text_change_text("%ds", text_sp[cur_par_id], par[cur_par_id]);    
 575   4                  } break;
 576   3      
 577   3                  case EIID_BASE_T4   :
 578   3                  case EIID_IMPULSE_T5: {
 579   4                      if(par[cur_par_id] >= 1000)
 580   4                          tmp = par[cur_par_id] / 1000; 
 581   4                      if(par[cur_par_id] >= 100) 
 582   4                          tmp = par[cur_par_id] / 100;
 583   4                      //Draw_text_change_text("%dms", text_sp[cur_par_id], par[cur_par_id]);
 584   4                  }break;
 585   3                  default:
 586   3                  {
 587   4                      Draw_text_change_text("%dA", text_sp[cur_par_id], par[cur_par_id]);
 588   4                  }
 589   3        
 590   3              }
 591   2              
 592   2          }
 593   1      }
 594          
 595          
 596          void Process_Encoder(u8 state)
 597          {
 598   1          code const s8 shifts[] = {-1, -5, +1, +5};
 599   1        
 600   1          cur_par_value_change(cur_par_id, shifts[state]);     
 601   1         
 602   1      }
 603          
 604          
 605          
 606          void par_select(u8 new_par_id)
 607          {
 608   1          static idata u16 old_color = YELLOW;
 609   1      
 610   1          if(cur_par_id == new_par_id) 
 611   1              return;
 612   1          else {
 613   2              Draw_text_change_color(text_sp[cur_par_id], old_color);  
 614   2              old_color = Draw_text_get_color(text_sp[new_par_id]);//–∑–∞–ø–æ–º–Ω–∏—Ç—å —Å—Ç–∞—Ä—ã–π —Ü–≤–µ—Ç
 615   2              Draw_text_change_color(text_sp[new_par_id], PINK);//–∑–∞–º–µ–Ω–∏—Ç—å –Ω–∞ —Ü–≤–µ—Ç "–≤—ã–±—Ä–∞–Ω–Ω
             -–æ–≥–æ —ç–ª–µ–º–µ–Ω—Ç–∞"
 616   2              cur_par_id = new_par_id;
 617   2          }      
 618   1      }
 619          
 620          
 621          void init_par_udgu(void)
 622          {
 623   1          make_lim(&par_lim[EIID_PRE_FLOW_T1],  100, 10000); //–¢1  –≤—Ä–µ–º—è –ø—Ä–µ–¥–≤. –ø—Ä–æ–¥—É–≤–∫–∏, —Å 
 624   1          make_lim(&par_lim[EIID_START_I1],     5,   350  );
 625   1          make_lim(&par_lim[EIID_START_T2],     100, 10000);
 626   1          make_lim(&par_lim[EIID_UP_T3],        100, 10000);
 627   1          make_lim(&par_lim[EIID_BASE_I2],      5,   350  );
 628   1          make_lim(&par_lim[EIID_BASE_T4],      1,   10000);
 629   1          make_lim(&par_lim[EIID_IMPULSE_I3],   5,   350  );
 630   1          make_lim(&par_lim[EIID_IMPULSE_T5],   1,   10000);
C51 COMPILER V9.53.0.0   TEMP                                                              12/01/2023 15:51:08 PAGE 12  

 631   1          make_lim(&par_lim[EIID_FREQ_F1],      20,  200  );
 632   1          make_lim(&par_lim[EIID_BALANCE_D1],   30,  80   );
 633   1          make_lim(&par_lim[EIID_DOWN_T6],      100, 10000);
 634   1          make_lim(&par_lim[EIID_END_I4],       5,   350  );
 635   1          make_lim(&par_lim[EIID_END_T7],       100, 10000);
 636   1          make_lim(&par_lim[EIID_POST_FLOW_T8], 1,   60   );
 637   1          make_lim(&par_lim[EIDD_KZ_I5],        0,   100  );
 638   1          make_lim(&par_lim[EIID_BASE2_I2X],    5,   350  );
 639   1      
 640   1          par_step[EIID_PRE_FLOW_T1]  =  100; //ms
 641   1          par_step[EIID_START_I1]     =  1  ; //A  
 642   1          par_step[EIID_START_T2]     =  100; //ms  
 643   1          par_step[EIID_UP_T3]        =  100; //ms     
 644   1          par_step[EIID_BASE_I2]      =  1  ; //A    
 645   1          par_step[EIID_BASE_T4]      =  1  ; //ms   
 646   1          par_step[EIID_IMPULSE_I3]   =  1  ; //A
 647   1          par_step[EIID_IMPULSE_T5]   =  1  ; //ms 
 648   1          par_step[EIID_FREQ_F1]      =  1  ;   
 649   1          par_step[EIID_BALANCE_D1]   =  5  ;
 650   1          par_step[EIID_DOWN_T6]      =  100; //ms   
 651   1          par_step[EIID_END_I4]       =  1  ; //A     
 652   1          par_step[EIID_END_T7]       =  100; //ms    
 653   1          par_step[EIID_POST_FLOW_T8] =  1  ; //
 654   1          par_step[EIDD_KZ_I5]        =  1  ; //%     
 655   1          par_step[EIID_BASE2_I2X]    =  1  ; //A 
 656   1      
 657   1      
 658   1          {
 659   2              u16 *temp_ptr = par;
 660   2              u8 i;
 661   2              for(i = 0; i < ARR_SIZE(par); i++) {
 662   3                  *temp_ptr++ = 10;
 663   3              }
 664   2          }
 665   1      }
 666          
 667          
 668          
 669          void make_scene(void) 
 670          {
 671   1          u16 x = 40;
 672   1          u16 y = 550;
 673   1          u8 i;
 674   1      
 675   1          drawing_init();
 676   1          
 677   1          Draw_clear_screen();
 678   1          init_par_udgu();
 679   1      
 680   1          for(i = 0; i < ARR_SIZE(icon_sp_bottom_menu); i++) {
 681   2              icon_sp_bottom_menu[i] = draw_image(0, 0, 0xffff); // —Å–æ–∑–¥–∞–Ω–∏–µ –ø—É–ª–∞ –∫–∞—Ä—Ç–∏–Ω–æ–∫ –
             -±–µ–∑ –æ—Ç–æ–±—Ä–∞–∂–µ–Ω–∏—è –∫–∞—Ä—Ç–∏–Ω–∫–∏
 682   2          }
 683   1          
 684   1          make_bottom_menu();
 685   1      
 686   1          cur_par_id = EIID_BASE_I2;
 687   1      
 688   1      
 689   1          if(main_menu_bm & (u32)1 << EIID_TIG) {//tig pulse ac
 690   2              point_t p;
 691   2              LINE_WIDTH = 150;
C51 COMPILER V9.53.0.0   TEMP                                                              12/01/2023 15:51:08 PAGE 13  

 692   2              FONT_SIZE = 35; 
 693   2              p = add_t_preflow(make_point(x, y));
 694   2              p = dummy_line_up(p);
 695   2              p = add_t_start_i(p);
 696   2              p = add_t_up(p);
 697   2              p = add_base_i1_i2_t(p);
 698   2              p = dummy_line_down(p);
 699   2              p = add_i_t_impulse(p);
 700   2              p = dummy_line_up(p);
 701   2              p = add_t_down(p);
 702   2              p = add_end_i_t(p);
 703   2              p = dummy_line_down(p);
 704   2              p = add_t_postflow(p);
 705   2      
 706   2      
 707   2          } else if(main_menu_bm & (u32)1 << EIID_MMA) {//mma
 708   2              point_t p;
 709   2              if(main_menu_bm & (u32)1 << EIID_PULSE_ON) {
 710   3                  LINE_WIDTH = 300;
 711   3                  FONT_SIZE = 48;
 712   3              } else {
 713   3                  LINE_WIDTH = 400;
 714   3                  FONT_SIZE = 64;
 715   3              }
 716   2              
 717   2              p = dummy_line_up(make_point(40, 450));
 718   2              p = add_t_start_i(p);
 719   2              p = dummy_line_down(p);
 720   2              p = add_base_i1_i2_t(p);
 721   2              if(main_menu_bm & (u32)1 << EIID_PULSE_ON) {
 722   3                  p = dummy_line_up(p);
 723   3                  p = add_i_t_impulse(p);             
 724   3              }
 725   2              p = add_i_kz(p);
 726   2              p = dummy_line_down(p);
 727   2              p = dummy_line_down(p);
 728   2          }
 729   1         
 730   1         //Draw_Number(0,0, 999, 0, "A", 64, PINK);
 731   1         
 732   1          
 733   1          
 734   1          // {
 735   1          //     u8 i;
 736   1          //     u16 new_id = 0;
 737   1      
 738   1          //     while (1)
 739   1          //     {
 740   1          //         for (i = 0; i < 8; i++) {
 741   1          //             image_change_id(icon_sp_bottom_menu[i], new_id);
 742   1          //         }
 743   1          //         new_id++;
 744   1          //         if(new_id == 10) new_id = 0;
 745   1          //         delay_ms(300);
 746   1          //     }
 747   1          // }
 748   1      
 749   1          
 750   1              
 751   1           
 752   1          //draw_bottom_menu();
 753   1      }
C51 COMPILER V9.53.0.0   TEMP                                                              12/01/2023 15:51:08 PAGE 14  

 754          
 755          
 756          
 757          //To do
 758          // -–£–±—Ä–∞—Ç—å –ø–æ–¥–º–µ–Ω—é –≤—ã–±–æ—Ä–∞ —Ä–µ–∂–∏–º–∞ —Å–≤–∞—Ä–∫–∏ —Ä–µ–∂–∏–º tig spot
 759          //  sprt –¥–æ–±–∞–≤–∏—Ç—å –≤ –≤—ã–±–æ—Ä —Ä–µ–∂–∏–º–∞ –∫–Ω–æ–ø–∫–∏ –Ω–∞ –≥–æ—Ä–µ–ª–∫–µ
C51 COMPILER V9.53.0.0   TEMP                                                              12/01/2023 15:51:08 PAGE 15  

ASSEMBLY LISTING OF GENERATED OBJECT CODE


             ; FUNCTION L?0126 (BEGIN)
0000         L?0127:
0000 900000      R     MOV     DPTR,#?_make_lim?BYTE+05H
0003 7401              MOV     A,#01H
0005 F0                MOVX    @DPTR,A
0006 A3                INC     DPTR
0007 745E              MOV     A,#05EH
0009 F0                MOVX    @DPTR,A
000A 7D05              MOV     R5,#05H
             ; FUNCTION _make_lim (BEGIN)
                                           ; SOURCE LINE # 145
;---- Variable 'lim' assigned to Register 'R1/R2/R3' ----
;---- Variable 'min' assigned to Register 'R4/R5' ----
                                           ; SOURCE LINE # 146
000C AF05              MOV     R7,AR5
000E EC                MOV     A,R4
000F 8FF0              MOV     B,R7
0011 120000      E     LCALL   ?C?ISTPTR
                                           ; SOURCE LINE # 147
0014 900000      R     MOV     DPTR,#max
0017 E0                MOVX    A,@DPTR
0018 FF                MOV     R7,A
0019 A3                INC     DPTR
001A E0                MOVX    A,@DPTR
001B 900002            MOV     DPTR,#02H
001E CF                XCH     A,R7
001F 8FF0              MOV     B,R7
0021 020000      E     LJMP    ?C?ISTOPTR
             ; FUNCTION _make_lim (END)

             ; FUNCTION _do_nothing (BEGIN)
                                           ; SOURCE LINE # 151
0000 900000      R     MOV     DPTR,#item_pos
0003 EF                MOV     A,R7
0004 F0                MOVX    @DPTR,A
                                           ; SOURCE LINE # 152
                                           ; SOURCE LINE # 155
                                           ; SOURCE LINE # 157
0005         ?C0002:
                                           ; SOURCE LINE # 159
0005         ?C0003:
                                           ; SOURCE LINE # 160
0005 900000      R     MOV     DPTR,#sw
0008 E0                MOVX    A,@DPTR
0009 04                INC     A
000A F0                MOVX    @DPTR,A
                                           ; SOURCE LINE # 162
000B         ?C0004:
000B 22                RET     
             ; FUNCTION _do_nothing (END)

             ; FUNCTION L?0121 (BEGIN)
0000 900000      R     MOV     DPTR,#start_x
0003 E0                MOVX    A,@DPTR
0004 FA                MOV     R2,A
0005 A3                INC     DPTR
0006 E0                MOVX    A,@DPTR
0007 2F                ADD     A,R7
0008 FB                MOV     R3,A
C51 COMPILER V9.53.0.0   TEMP                                                              12/01/2023 15:51:08 PAGE 16  

0009 EA                MOV     A,R2
000A 3E                ADDC    A,R6
000B FA                MOV     R2,A
000C 900000      R     MOV     DPTR,#start_y
000F E0                MOVX    A,@DPTR
0010 F8                MOV     R0,A
0011 A3                INC     DPTR
0012 E0                MOVX    A,@DPTR
0013 2F                ADD     A,R7
0014 FF                MOV     R7,A
0015 E8                MOV     A,R0
0016 3E                ADDC    A,R6
0017 900000      R     MOV     DPTR,#?_add_touch_place?BYTE+06H
001A F0                MOVX    @DPTR,A
001B A3                INC     DPTR
001C EF                MOV     A,R7
001D F0                MOVX    @DPTR,A
001E 900000      R     MOV     DPTR,#i
0021         L?0122:
0021 E0                MOVX    A,@DPTR
0022 900000      R     MOV     DPTR,#?_add_touch_place?BYTE+08H
0025 F0                MOVX    @DPTR,A
0026 900000      R     MOV     DPTR,#start_x
0029 E0                MOVX    A,@DPTR
002A FE                MOV     R6,A
002B A3                INC     DPTR
002C E0                MOVX    A,@DPTR
002D FF                MOV     R7,A
             ; FUNCTION _add_touch_place (BEGIN)
                                           ; SOURCE LINE # 165
002E 900000      R     MOV     DPTR,#x0
0031 EE                MOV     A,R6
0032 F0                MOVX    @DPTR,A
0033 A3                INC     DPTR
0034 EF                MOV     A,R7
0035 F0                MOVX    @DPTR,A
0036 A3                INC     DPTR
0037 EC                MOV     A,R4
0038 F0                MOVX    @DPTR,A
0039 A3                INC     DPTR
003A ED                MOV     A,R5
003B F0                MOVX    @DPTR,A
;---- Variable 'x1' assigned to Register 'R2/R3' ----
                                           ; SOURCE LINE # 166
                                           ; SOURCE LINE # 167
003C 900000      R     MOV     DPTR,#cur_menu_size
003F E0                MOVX    A,@DPTR
0040 D3                SETB    C
0041 9430              SUBB    A,#030H
0043 4003              JC      $ + 5H
0045 020000      R     LJMP    ?C0006
0048         ?C0005:
                                           ; SOURCE LINE # 169
0048 900000      R     MOV     DPTR,#touch_id
004B E0                MOVX    A,@DPTR
004C FF                MOV     R7,A
004D 900000      R     MOV     DPTR,#cur_menu_size
0050 E0                MOVX    A,@DPTR
0051 FE                MOV     R6,A
0052 75F009            MOV     B,#09H
0055 A4                MUL     AB
0056 2400        R     ADD     A,#LOW cur_menu
C51 COMPILER V9.53.0.0   TEMP                                                              12/01/2023 15:51:08 PAGE 17  

0058 F582              MOV     DPL,A
005A E5F0              MOV     A,B
005C 3400        R     ADDC    A,#HIGH cur_menu
005E F583              MOV     DPH,A
0060 EF                MOV     A,R7
0061 F0                MOVX    @DPTR,A
                                           ; SOURCE LINE # 170
0062 900000      R     MOV     DPTR,#x0
0065 E0                MOVX    A,@DPTR
0066 FC                MOV     R4,A
0067 A3                INC     DPTR
0068 E0                MOVX    A,@DPTR
0069 FD                MOV     R5,A
006A 75F009            MOV     B,#09H
006D EE                MOV     A,R6
006E A4                MUL     AB
006F 2400        R     ADD     A,#LOW cur_menu+01H
0071 F582              MOV     DPL,A
0073 E5F0              MOV     A,B
0075 3400        R     ADDC    A,#HIGH cur_menu+01H
0077 F583              MOV     DPH,A
0079 EC                MOV     A,R4
007A F0                MOVX    @DPTR,A
007B A3                INC     DPTR
007C ED                MOV     A,R5
007D F0                MOVX    @DPTR,A
                                           ; SOURCE LINE # 171
007E 900000      R     MOV     DPTR,#y0
0081 E0                MOVX    A,@DPTR
0082 FE                MOV     R6,A
0083 A3                INC     DPTR
0084 E0                MOVX    A,@DPTR
0085 FF                MOV     R7,A
0086 900000      R     MOV     DPTR,#cur_menu_size
0089 E0                MOVX    A,@DPTR
008A FD                MOV     R5,A
008B 75F009            MOV     B,#09H
008E A4                MUL     AB
008F 2400        R     ADD     A,#LOW cur_menu+03H
0091 F582              MOV     DPL,A
0093 E5F0              MOV     A,B
0095 3400        R     ADDC    A,#HIGH cur_menu+03H
0097 F583              MOV     DPH,A
0099 EE                MOV     A,R6
009A F0                MOVX    @DPTR,A
009B A3                INC     DPTR
009C EF                MOV     A,R7
009D F0                MOVX    @DPTR,A
                                           ; SOURCE LINE # 172
009E AF03              MOV     R7,AR3
00A0 75F009            MOV     B,#09H
00A3 ED                MOV     A,R5
00A4 A4                MUL     AB
00A5 2400        R     ADD     A,#LOW cur_menu+05H
00A7 F582              MOV     DPL,A
00A9 E5F0              MOV     A,B
00AB 3400        R     ADDC    A,#HIGH cur_menu+05H
00AD F583              MOV     DPH,A
00AF EA                MOV     A,R2
00B0 F0                MOVX    @DPTR,A
00B1 A3                INC     DPTR
00B2 EF                MOV     A,R7
C51 COMPILER V9.53.0.0   TEMP                                                              12/01/2023 15:51:08 PAGE 18  

00B3 F0                MOVX    @DPTR,A
                                           ; SOURCE LINE # 173
00B4 900000      R     MOV     DPTR,#y1
00B7 E0                MOVX    A,@DPTR
00B8 FE                MOV     R6,A
00B9 A3                INC     DPTR
00BA E0                MOVX    A,@DPTR
00BB FF                MOV     R7,A
00BC 75F009            MOV     B,#09H
00BF ED                MOV     A,R5
00C0 A4                MUL     AB
00C1 2400        R     ADD     A,#LOW cur_menu+07H
00C3 F582              MOV     DPL,A
00C5 E5F0              MOV     A,B
00C7 3400        R     ADDC    A,#HIGH cur_menu+07H
00C9 F583              MOV     DPH,A
00CB EE                MOV     A,R6
00CC F0                MOVX    @DPTR,A
00CD A3                INC     DPTR
00CE EF                MOV     A,R7
00CF F0                MOVX    @DPTR,A
                                           ; SOURCE LINE # 174
00D0 900000      R     MOV     DPTR,#cur_menu_size
00D3 E0                MOVX    A,@DPTR
00D4 04                INC     A
00D5 F0                MOVX    @DPTR,A
                                           ; SOURCE LINE # 175
00D6         ?C0006:
00D6 22                RET     
             ; FUNCTION _add_touch_place (END)

             ; FUNCTION draw_number_centered_on_line (BEGIN)
                                           ; SOURCE LINE # 186
                                           ; SOURCE LINE # 187
                                           ; SOURCE LINE # 190
0000 900000      R     MOV     DPTR,#n
0003 E0                MOVX    A,@DPTR
0004 FE                MOV     R6,A
0005 A3                INC     DPTR
0006 E0                MOVX    A,@DPTR
0007 FF                MOV     R7,A
0008 C3                CLR     C
0009 940A              SUBB    A,#0AH
000B EE                MOV     A,R6
000C 9400              SUBB    A,#00H
000E 500A              JNC     ?C0007
0010 900000      R     MOV     DPTR,#integer_digits
0013 E4                CLR     A
0014 F0                MOVX    @DPTR,A
0015 A3                INC     DPTR
0016 04                INC     A
0017 F0                MOVX    @DPTR,A
0018 803A              SJMP    ?C0008
001A         ?C0007:
                                           ; SOURCE LINE # 191
001A C3                CLR     C
001B EF                MOV     A,R7
001C 9464              SUBB    A,#064H
001E EE                MOV     A,R6
001F 9400              SUBB    A,#00H
0021 500B              JNC     ?C0009
0023 900000      R     MOV     DPTR,#integer_digits
C51 COMPILER V9.53.0.0   TEMP                                                              12/01/2023 15:51:08 PAGE 19  

0026 E4                CLR     A
0027 F0                MOVX    @DPTR,A
0028 A3                INC     DPTR
0029 7402              MOV     A,#02H
002B F0                MOVX    @DPTR,A
002C 8026              SJMP    ?C0008
002E         ?C0009:
                                           ; SOURCE LINE # 192
002E C3                CLR     C
002F EF                MOV     A,R7
0030 94E8              SUBB    A,#0E8H
0032 EE                MOV     A,R6
0033 9403              SUBB    A,#03H
0035 500B              JNC     ?C0011
0037 900000      R     MOV     DPTR,#integer_digits
003A E4                CLR     A
003B F0                MOVX    @DPTR,A
003C A3                INC     DPTR
003D 7403              MOV     A,#03H
003F F0                MOVX    @DPTR,A
0040 8012              SJMP    ?C0008
0042         ?C0011:
                                           ; SOURCE LINE # 193
0042 C3                CLR     C
0043 EF                MOV     A,R7
0044 9410              SUBB    A,#010H
0046 EE                MOV     A,R6
0047 9427              SUBB    A,#027H
0049 5009              JNC     ?C0008
004B 900000      R     MOV     DPTR,#integer_digits
004E E4                CLR     A
004F F0                MOVX    @DPTR,A
0050 A3                INC     DPTR
0051 7404              MOV     A,#04H
0053 F0                MOVX    @DPTR,A
0054         ?C0008:
                                           ; SOURCE LINE # 195
0054 900000      R     MOV     DPTR,#units
0057 E0                MOVX    A,@DPTR
0058 FB                MOV     R3,A
0059 A3                INC     DPTR
005A E0                MOVX    A,@DPTR
005B FA                MOV     R2,A
005C A3                INC     DPTR
005D E0                MOVX    A,@DPTR
005E F9                MOV     R1,A
005F 120000      E     LCALL   _strlen
0062 900000      R     MOV     DPTR,#decimal_places
0065 E0                MOVX    A,@DPTR
0066 2F                ADD     A,R7
0067 FF                MOV     R7,A
0068 900000      R     MOV     DPTR,#touch_id
006B E0                MOVX    A,@DPTR
006C 75F007            MOV     B,#07H
006F A4                MUL     AB
0070 2400        R     ADD     A,#LOW number_info+04H
0072 F582              MOV     DPL,A
0074 E5F0              MOV     A,B
0076 3400        R     ADDC    A,#HIGH number_info+04H
0078 F583              MOV     DPH,A
007A EF                MOV     A,R7
007B F0                MOVX    @DPTR,A
C51 COMPILER V9.53.0.0   TEMP                                                              12/01/2023 15:51:08 PAGE 20  

                                           ; SOURCE LINE # 196
007C 900000      R     MOV     DPTR,#font_size+01H
007F E0                MOVX    A,@DPTR
0080 25E0              ADD     A,ACC
0082 FF                MOV     R7,A
0083 900000      R     MOV     DPTR,#font_size
0086 E0                MOVX    A,@DPTR
0087 33                RLC     A
0088 FE                MOV     R6,A
0089 C3                CLR     C
008A 900000      R     MOV     DPTR,#line_start+03H
008D E0                MOVX    A,@DPTR
008E 9F                SUBB    A,R7
008F FF                MOV     R7,A
0090 900000      R     MOV     DPTR,#line_start+02H
0093 E0                MOVX    A,@DPTR
0094 9E                SUBB    A,R6
0095 FE                MOV     R6,A
0096 900000      R     MOV     DPTR,#LINE_HIGHT
0099 E4                CLR     A
009A 93                MOVC    A,@A+DPTR
009B FD                MOV     R5,A
009C C3                CLR     C
009D EF                MOV     A,R7
009E 9D                SUBB    A,R5
009F FD                MOV     R5,A
00A0 EE                MOV     A,R6
00A1 9400              SUBB    A,#00H
00A3 FC                MOV     R4,A
00A4 900000      R     MOV     DPTR,#line_start
00A7 E0                MOVX    A,@DPTR
00A8 FE                MOV     R6,A
00A9 A3                INC     DPTR
00AA E0                MOVX    A,@DPTR
00AB FF                MOV     R7,A
00AC 120000      E     LCALL   _make_point
00AF C001              PUSH    AR1
00B1 900000      R     MOV     DPTR,#touch_id
00B4 E0                MOVX    A,@DPTR
00B5 75F007            MOV     B,#07H
00B8 A4                MUL     AB
00B9 2400        R     ADD     A,#LOW number_info
00BB F9                MOV     R1,A
00BC 7400        R     MOV     A,#HIGH number_info
00BE 35F0              ADDC    A,B
00C0 A801              MOV     R0,AR1
00C2 FC                MOV     R4,A
00C3 7D01              MOV     R5,#01H
00C5 D001              POP     AR1
00C7 7E00              MOV     R6,#00H
00C9 7F04              MOV     R7,#04H
00CB 120000      E     LCALL   ?C?COPY
                                           ; SOURCE LINE # 197
00CE 900000      R     MOV     DPTR,#font_size
00D1 E0                MOVX    A,@DPTR
00D2 FE                MOV     R6,A
00D3 A3                INC     DPTR
00D4 E0                MOVX    A,@DPTR
00D5 FF                MOV     R7,A
00D6 900000      R     MOV     DPTR,#touch_id
00D9 E0                MOVX    A,@DPTR
00DA FD                MOV     R5,A
C51 COMPILER V9.53.0.0   TEMP                                                              12/01/2023 15:51:08 PAGE 21  

00DB 75F007            MOV     B,#07H
00DE A4                MUL     AB
00DF 2400        R     ADD     A,#LOW number_info+05H
00E1 F582              MOV     DPL,A
00E3 E5F0              MOV     A,B
00E5 3400        R     ADDC    A,#HIGH number_info+05H
00E7 F583              MOV     DPH,A
00E9 EE                MOV     A,R6
00EA F0                MOVX    @DPTR,A
00EB A3                INC     DPTR
00EC EF                MOV     A,R7
00ED F0                MOVX    @DPTR,A
                                           ; SOURCE LINE # 199
00EE 75F007            MOV     B,#07H
00F1 ED                MOV     A,R5
00F2 A4                MUL     AB
00F3 2400        R     ADD     A,#LOW number_info+04H
00F5 F582              MOV     DPL,A
00F7 E5F0              MOV     A,B
00F9 3400        R     ADDC    A,#HIGH number_info+04H
00FB F583              MOV     DPH,A
00FD E0                MOVX    A,@DPTR
00FE FF                MOV     R7,A
00FF 900000      R     MOV     DPTR,#integer_digits+01H
0102 E0                MOVX    A,@DPTR
0103 2F                ADD     A,R7
0104 F0                MOVX    @DPTR,A
0105 900000      R     MOV     DPTR,#integer_digits
0108 E0                MOVX    A,@DPTR
0109 3400              ADDC    A,#00H
010B F0                MOVX    @DPTR,A
                                           ; SOURCE LINE # 201
010C 900000      E     MOV     DPTR,#?_sprintf?BYTE+03H
010F 74FF              MOV     A,#0FFH
0111 F0                MOVX    @DPTR,A
0112 A3                INC     DPTR
0113 7400        R     MOV     A,#HIGH ?SC_0
0115 F0                MOVX    @DPTR,A
0116 A3                INC     DPTR
0117 7400        R     MOV     A,#LOW ?SC_0
0119 F0                MOVX    @DPTR,A
011A 900000      R     MOV     DPTR,#n
011D E0                MOVX    A,@DPTR
011E FF                MOV     R7,A
011F A3                INC     DPTR
0120 E0                MOVX    A,@DPTR
0121 900000      E     MOV     DPTR,#?_sprintf?BYTE+06H
0124 CF                XCH     A,R7
0125 F0                MOVX    @DPTR,A
0126 A3                INC     DPTR
0127 EF                MOV     A,R7
0128 F0                MOVX    @DPTR,A
0129 900000      R     MOV     DPTR,#units
012C E0                MOVX    A,@DPTR
012D F9                MOV     R1,A
012E A3                INC     DPTR
012F E0                MOVX    A,@DPTR
0130 FA                MOV     R2,A
0131 A3                INC     DPTR
0132 E0                MOVX    A,@DPTR
0133 900000      E     MOV     DPTR,#?_sprintf?BYTE+08H
0136 C9                XCH     A,R1
C51 COMPILER V9.53.0.0   TEMP                                                              12/01/2023 15:51:08 PAGE 22  

0137 F0                MOVX    @DPTR,A
0138 A3                INC     DPTR
0139 EA                MOV     A,R2
013A F0                MOVX    @DPTR,A
013B A3                INC     DPTR
013C E9                MOV     A,R1
013D F0                MOVX    @DPTR,A
013E 7B01              MOV     R3,#01H
0140 7A00        R     MOV     R2,#HIGH buf
0142 7900        R     MOV     R1,#LOW buf
0144 120000      E     LCALL   _sprintf
                                           ; SOURCE LINE # 203
0147 900000      R     MOV     DPTR,#line_start
014A E0                MOVX    A,@DPTR
014B FA                MOV     R2,A
014C A3                INC     DPTR
014D E0                MOVX    A,@DPTR
014E FB                MOV     R3,A
014F 24CE              ADD     A,#0CEH
0151 FF                MOV     R7,A
0152 EA                MOV     A,R2
0153 34FF              ADDC    A,#0FFH
0155 FE                MOV     R6,A
0156 C006              PUSH    AR6
0158 C007              PUSH    AR7
015A 900000      R     MOV     DPTR,#font_size+01H
015D E0                MOVX    A,@DPTR
015E 25E0              ADD     A,ACC
0160 FF                MOV     R7,A
0161 900000      R     MOV     DPTR,#font_size
0164 E0                MOVX    A,@DPTR
0165 33                RLC     A
0166 FE                MOV     R6,A
0167 C3                CLR     C
0168 900000      R     MOV     DPTR,#line_start+03H
016B E0                MOVX    A,@DPTR
016C 9F                SUBB    A,R7
016D FD                MOV     R5,A
016E 900000      R     MOV     DPTR,#line_start+02H
0171 E0                MOVX    A,@DPTR
0172 9E                SUBB    A,R6
0173 FC                MOV     R4,A
0174 EB                MOV     A,R3
0175 7800        R     MOV     R0,#LOW LINE_WIDTH+01H
0177 26                ADD     A,@R0
0178 FF                MOV     R7,A
0179 EA                MOV     A,R2
017A 18                DEC     R0
017B 36                ADDC    A,@R0
017C CF                XCH     A,R7
017D 2432              ADD     A,#032H
017F FB                MOV     R3,A
0180 E4                CLR     A
0181 3F                ADDC    A,R7
0182 FA                MOV     R2,A
0183 E0                MOVX    A,@DPTR
0184 FF                MOV     R7,A
0185 A3                INC     DPTR
0186 E0                MOVX    A,@DPTR
0187 900000      E     MOV     DPTR,#?_Draw_text?BYTE+06H
018A CF                XCH     A,R7
018B F0                MOVX    @DPTR,A
C51 COMPILER V9.53.0.0   TEMP                                                              12/01/2023 15:51:08 PAGE 23  

018C A3                INC     DPTR
018D EF                MOV     A,R7
018E F0                MOVX    @DPTR,A
018F A3                INC     DPTR
0190 7401              MOV     A,#01H
0192 F0                MOVX    @DPTR,A
0193 A3                INC     DPTR
0194 7400        R     MOV     A,#HIGH buf
0196 F0                MOVX    @DPTR,A
0197 A3                INC     DPTR
0198 7400        R     MOV     A,#LOW buf
019A F0                MOVX    @DPTR,A
019B 900000      R     MOV     DPTR,#font_size
019E A3                INC     DPTR
019F E0                MOVX    A,@DPTR
01A0 900000      E     MOV     DPTR,#?_Draw_text?BYTE+0BH
01A3 F0                MOVX    @DPTR,A
01A4 900000      R     MOV     DPTR,#color
01A7 E0                MOVX    A,@DPTR
01A8 FF                MOV     R7,A
01A9 A3                INC     DPTR
01AA E0                MOVX    A,@DPTR
01AB 900000      E     MOV     DPTR,#?_Draw_text?BYTE+0CH
01AE CF                XCH     A,R7
01AF F0                MOVX    @DPTR,A
01B0 A3                INC     DPTR
01B1 EF                MOV     A,R7
01B2 F0                MOVX    @DPTR,A
01B3 D007              POP     AR7
01B5 D006              POP     AR6
01B7 120000      E     LCALL   _Draw_text
01BA 900000      R     MOV     DPTR,#touch_id
01BD E0                MOVX    A,@DPTR
01BE F9                MOV     R1,A
01BF 25E0              ADD     A,ACC
01C1 2400        R     ADD     A,#LOW text_sp
01C3 F582              MOV     DPL,A
01C5 E4                CLR     A
01C6 3400        R     ADDC    A,#HIGH text_sp
01C8 F583              MOV     DPH,A
01CA EE                MOV     A,R6
01CB F0                MOVX    @DPTR,A
01CC A3                INC     DPTR
01CD EF                MOV     A,R7
01CE F0                MOVX    @DPTR,A
                                           ; SOURCE LINE # 204
01CF 900000      R     MOV     DPTR,#line_start
01D2 E0                MOVX    A,@DPTR
01D3 FA                MOV     R2,A
01D4 A3                INC     DPTR
01D5 E0                MOVX    A,@DPTR
01D6 FB                MOV     R3,A
01D7 FF                MOV     R7,A
01D8 AE02              MOV     R6,AR2
01DA C006              PUSH    AR6
01DC C007              PUSH    AR7
01DE 900000      R     MOV     DPTR,#font_size+01H
01E1 E0                MOVX    A,@DPTR
01E2 25E0              ADD     A,ACC
01E4 FF                MOV     R7,A
01E5 900000      R     MOV     DPTR,#font_size
01E8 E0                MOVX    A,@DPTR
C51 COMPILER V9.53.0.0   TEMP                                                              12/01/2023 15:51:08 PAGE 24  

01E9 33                RLC     A
01EA FE                MOV     R6,A
01EB C3                CLR     C
01EC 900000      R     MOV     DPTR,#line_start+03H
01EF E0                MOVX    A,@DPTR
01F0 9F                SUBB    A,R7
01F1 FD                MOV     R5,A
01F2 900000      R     MOV     DPTR,#line_start+02H
01F5 E0                MOVX    A,@DPTR
01F6 9E                SUBB    A,R6
01F7 FC                MOV     R4,A
01F8 EB                MOV     A,R3
01F9 7800        R     MOV     R0,#LOW LINE_WIDTH+01H
01FB 26                ADD     A,@R0
01FC FB                MOV     R3,A
01FD EA                MOV     A,R2
01FE 18                DEC     R0
01FF 36                ADDC    A,@R0
0200 FA                MOV     R2,A
0201 E0                MOVX    A,@DPTR
0202 FF                MOV     R7,A
0203 A3                INC     DPTR
0204 E0                MOVX    A,@DPTR
0205 900000      R     MOV     DPTR,#?_add_touch_place?BYTE+06H
0208 CF                XCH     A,R7
0209 F0                MOVX    @DPTR,A
020A A3                INC     DPTR
020B EF                MOV     A,R7
020C F0                MOVX    @DPTR,A
020D A3                INC     DPTR
020E E9                MOV     A,R1
020F F0                MOVX    @DPTR,A
0210 D007              POP     AR7
0212 D006              POP     AR6
0214 020000      R     LJMP    _add_touch_place
             ; FUNCTION draw_number_centered_on_line (END)

             ; FUNCTION _redraw_number_centered (BEGIN)
                                           ; SOURCE LINE # 218
0000 900000      R     MOV     DPTR,#id
0003 EF                MOV     A,R7
0004 F0                MOVX    @DPTR,A
0005 A3                INC     DPTR
0006 EC                MOV     A,R4
0007 F0                MOVX    @DPTR,A
0008 A3                INC     DPTR
0009 ED                MOV     A,R5
000A F0                MOVX    @DPTR,A
                                           ; SOURCE LINE # 219
                                           ; SOURCE LINE # 222
000B C3                CLR     C
000C 940A              SUBB    A,#0AH
000E EC                MOV     A,R4
000F 9400              SUBB    A,#00H
0011 5008              JNC     ?C0015
0013 A3                INC     DPTR
0014 E4                CLR     A
0015 F0                MOVX    @DPTR,A
0016 A3                INC     DPTR
0017 04                INC     A
0018 F0                MOVX    @DPTR,A
0019 803F              SJMP    ?C0016
C51 COMPILER V9.53.0.0   TEMP                                                              12/01/2023 15:51:08 PAGE 25  

001B         ?C0015:
                                           ; SOURCE LINE # 223
001B 900000      R     MOV     DPTR,#n
001E E0                MOVX    A,@DPTR
001F FE                MOV     R6,A
0020 A3                INC     DPTR
0021 E0                MOVX    A,@DPTR
0022 FF                MOV     R7,A
0023 C3                CLR     C
0024 9464              SUBB    A,#064H
0026 EE                MOV     A,R6
0027 9400              SUBB    A,#00H
0029 5009              JNC     ?C0017
002B A3                INC     DPTR
002C E4                CLR     A
002D F0                MOVX    @DPTR,A
002E A3                INC     DPTR
002F 7402              MOV     A,#02H
0031 F0                MOVX    @DPTR,A
0032 8026              SJMP    ?C0016
0034         ?C0017:
                                           ; SOURCE LINE # 224
0034 C3                CLR     C
0035 EF                MOV     A,R7
0036 94E8              SUBB    A,#0E8H
0038 EE                MOV     A,R6
0039 9403              SUBB    A,#03H
003B 500B              JNC     ?C0019
003D 900000      R     MOV     DPTR,#places
0040 E4                CLR     A
0041 F0                MOVX    @DPTR,A
0042 A3                INC     DPTR
0043 7403              MOV     A,#03H
0045 F0                MOVX    @DPTR,A
0046 8012              SJMP    ?C0016
0048         ?C0019:
                                           ; SOURCE LINE # 225
0048 C3                CLR     C
0049 EF                MOV     A,R7
004A 9410              SUBB    A,#010H
004C EE                MOV     A,R6
004D 9427              SUBB    A,#027H
004F 5009              JNC     ?C0016
0051 900000      R     MOV     DPTR,#places
0054 E4                CLR     A
0055 F0                MOVX    @DPTR,A
0056 A3                INC     DPTR
0057 7404              MOV     A,#04H
0059 F0                MOVX    @DPTR,A
005A         ?C0016:
                                           ; SOURCE LINE # 227
005A 900000      R     MOV     DPTR,#id
005D E0                MOVX    A,@DPTR
005E FF                MOV     R7,A
005F 75F007            MOV     B,#07H
0062 A4                MUL     AB
0063 2400        R     ADD     A,#LOW number_info+04H
0065 F582              MOV     DPL,A
0067 E5F0              MOV     A,B
0069 3400        R     ADDC    A,#HIGH number_info+04H
006B F583              MOV     DPH,A
006D E0                MOVX    A,@DPTR
C51 COMPILER V9.53.0.0   TEMP                                                              12/01/2023 15:51:08 PAGE 26  

006E FD                MOV     R5,A
006F 900000      R     MOV     DPTR,#places+01H
0072 E0                MOVX    A,@DPTR
0073 2D                ADD     A,R5
0074 F0                MOVX    @DPTR,A
0075 900000      R     MOV     DPTR,#places
0078 E0                MOVX    A,@DPTR
0079 3400              ADDC    A,#00H
007B F0                MOVX    @DPTR,A
                                           ; SOURCE LINE # 229
007C EF                MOV     A,R7
007D 25E0              ADD     A,ACC
007F 2400        R     ADD     A,#LOW text_sp
0081 F582              MOV     DPL,A
0083 E4                CLR     A
0084 3400        R     ADDC    A,#HIGH text_sp
0086 F583              MOV     DPH,A
0088 E0                MOVX    A,@DPTR
0089 FE                MOV     R6,A
008A A3                INC     DPTR
008B E0                MOVX    A,@DPTR
008C FF                MOV     R7,A
008D C006              PUSH    AR6
008F C007              PUSH    AR7
0091 900000      R     MOV     DPTR,#id
0094 E0                MOVX    A,@DPTR
0095 75F007            MOV     B,#07H
0098 A4                MUL     AB
0099 2400        R     ADD     A,#LOW number_info+05H
009B F582              MOV     DPL,A
009D E5F0              MOV     A,B
009F 3400        R     ADDC    A,#HIGH number_info+05H
00A1 F583              MOV     DPH,A
00A3 E0                MOVX    A,@DPTR
00A4 FC                MOV     R4,A
00A5 A3                INC     DPTR
00A6 E0                MOVX    A,@DPTR
00A7 FD                MOV     R5,A
00A8 900000      R     MOV     DPTR,#places
00AB E0                MOVX    A,@DPTR
00AC FE                MOV     R6,A
00AD A3                INC     DPTR
00AE E0                MOVX    A,@DPTR
00AF FF                MOV     R7,A
00B0 120000      E     LCALL   ?C?IMUL
00B3 C3                CLR     C
00B4 7800        R     MOV     R0,#LOW LINE_WIDTH+01H
00B6 E6                MOV     A,@R0
00B7 9F                SUBB    A,R7
00B8 FF                MOV     R7,A
00B9 18                DEC     R0
00BA E6                MOV     A,@R0
00BB 9E                SUBB    A,R6
00BC FE                MOV     R6,A
00BD E4                CLR     A
00BE FC                MOV     R4,A
00BF FD                MOV     R5,A
00C0 7B02              MOV     R3,#02H
00C2 FA                MOV     R2,A
00C3 F9                MOV     R1,A
00C4 F8                MOV     R0,A
00C5 120000      E     LCALL   ?C?SLDIV
C51 COMPILER V9.53.0.0   TEMP                                                              12/01/2023 15:51:08 PAGE 27  

00C8 900000      R     MOV     DPTR,#id
00CB E0                MOVX    A,@DPTR
00CC FD                MOV     R5,A
00CD 75F007            MOV     B,#07H
00D0 A4                MUL     AB
00D1 2400        R     ADD     A,#LOW number_info
00D3 F582              MOV     DPL,A
00D5 E5F0              MOV     A,B
00D7 3400        R     ADDC    A,#HIGH number_info
00D9 F583              MOV     DPH,A
00DB E0                MOVX    A,@DPTR
00DC FA                MOV     R2,A
00DD A3                INC     DPTR
00DE E0                MOVX    A,@DPTR
00DF 2F                ADD     A,R7
00E0 FF                MOV     R7,A
00E1 EA                MOV     A,R2
00E2 3E                ADDC    A,R6
00E3 FE                MOV     R6,A
00E4 75F007            MOV     B,#07H
00E7 ED                MOV     A,R5
00E8 A4                MUL     AB
00E9 2400        R     ADD     A,#LOW number_info+02H
00EB F582              MOV     DPL,A
00ED E5F0              MOV     A,B
00EF 3400        R     ADDC    A,#HIGH number_info+02H
00F1 F583              MOV     DPH,A
00F3 E0                MOVX    A,@DPTR
00F4 FC                MOV     R4,A
00F5 A3                INC     DPTR
00F6 E0                MOVX    A,@DPTR
00F7 FD                MOV     R5,A
00F8 120000      E     LCALL   _make_point
00FB 7800        E     MOV     R0,#LOW ?_change_number_pos?BYTE+02H
00FD 7C00        E     MOV     R4,#HIGH ?_change_number_pos?BYTE+02H
00FF 7D01              MOV     R5,#01H
0101 7E00              MOV     R6,#00H
0103 7F04              MOV     R7,#04H
0105 120000      E     LCALL   ?C?COPY
0108 D007              POP     AR7
010A D006              POP     AR6
010C 120000      E     LCALL   _change_number_pos
                                           ; SOURCE LINE # 230
010F 900000      R     MOV     DPTR,#id
0112 E0                MOVX    A,@DPTR
0113 25E0              ADD     A,ACC
0115 2400        R     ADD     A,#LOW text_sp
0117 F582              MOV     DPL,A
0119 E4                CLR     A
011A 3400        R     ADDC    A,#HIGH text_sp
011C F583              MOV     DPH,A
011E E0                MOVX    A,@DPTR
011F FE                MOV     R6,A
0120 A3                INC     DPTR
0121 E0                MOVX    A,@DPTR
0122 FF                MOV     R7,A
0123 900000      R     MOV     DPTR,#n
0126 E0                MOVX    A,@DPTR
0127 FC                MOV     R4,A
0128 A3                INC     DPTR
0129 E0                MOVX    A,@DPTR
012A FD                MOV     R5,A
C51 COMPILER V9.53.0.0   TEMP                                                              12/01/2023 15:51:08 PAGE 28  

012B 020000      E     LJMP    _change_number_value
             ; FUNCTION _redraw_number_centered (END)

             ; FUNCTION L?0123 (BEGIN)
0000 7800        R     MOV     R0,#LOW p
0002 7C00        R     MOV     R4,#HIGH p
0004 7D01              MOV     R5,#01H
0006 7E00              MOV     R6,#00H
0008 7F04              MOV     R7,#04H
000A 120000      E     LCALL   ?C?COPY
000D 7800        R     MOV     R0,#LOW ?dummy_line_up?BYTE
000F 7C00        R     MOV     R4,#HIGH ?dummy_line_up?BYTE
0011 7D01              MOV     R5,#01H
0013 7B01              MOV     R3,#01H
0015         L?0124:
0015 7A00        R     MOV     R2,#HIGH p
0017 7900        R     MOV     R1,#LOW p
0019         L?0125:
0019 7E00              MOV     R6,#00H
001B 7F04              MOV     R7,#04H
001D 120000      E     LCALL   ?C?COPY
             ; FUNCTION dummy_line_up (BEGIN)
                                           ; SOURCE LINE # 235
                                           ; SOURCE LINE # 236
                                           ; SOURCE LINE # 238
0020 900000      R     MOV     DPTR,#p
0023 E0                MOVX    A,@DPTR
0024 FE                MOV     R6,A
0025 A3                INC     DPTR
0026 E0                MOVX    A,@DPTR
0027 FF                MOV     R7,A
0028 900000      R     MOV     DPTR,#LEVEL_HEIGHT
002B E4                CLR     A
002C 93                MOVC    A,@A+DPTR
002D FD                MOV     R5,A
002E C3                CLR     C
002F 900000      R     MOV     DPTR,#p+03H
0032 E0                MOVX    A,@DPTR
0033 9D                SUBB    A,R5
0034 FD                MOV     R5,A
0035 900000      R     MOV     DPTR,#p+02H
0038 E0                MOVX    A,@DPTR
0039 9400              SUBB    A,#00H
003B FC                MOV     R4,A
003C 120000      E     LCALL   _make_point
003F 7800        R     MOV     R0,#LOW p2
0041 7C00        R     MOV     R4,#HIGH p2
0043 7D01              MOV     R5,#01H
0045 7E00              MOV     R6,#00H
0047 7F04              MOV     R7,#04H
0049 120000      E     LCALL   ?C?COPY
                                           ; SOURCE LINE # 239
004C 900000      R     MOV     DPTR,#p+02H
004F E0                MOVX    A,@DPTR
0050 FC                MOV     R4,A
0051 A3                INC     DPTR
0052 E0                MOVX    A,@DPTR
0053 FD                MOV     R5,A
0054 A3                INC     DPTR
0055 E0                MOVX    A,@DPTR
0056 FA                MOV     R2,A
0057 A3                INC     DPTR
C51 COMPILER V9.53.0.0   TEMP                                                              12/01/2023 15:51:08 PAGE 29  

0058 E0                MOVX    A,@DPTR
0059 FB                MOV     R3,A
005A A3                INC     DPTR
005B E0                MOVX    A,@DPTR
005C FF                MOV     R7,A
005D A3                INC     DPTR
005E E0                MOVX    A,@DPTR
005F 900000      E     MOV     DPTR,#?_draw_line?BYTE+06H
0062 CF                XCH     A,R7
0063 F0                MOVX    @DPTR,A
0064 A3                INC     DPTR
0065 EF                MOV     A,R7
0066 F0                MOVX    @DPTR,A
0067 900000      R     MOV     DPTR,#LINE_HIGHT
006A E4                CLR     A
006B 93                MOVC    A,@A+DPTR
006C 900000      E     MOV     DPTR,#?_draw_line?BYTE+08H
006F F0                MOVX    @DPTR,A
0070 A3                INC     DPTR
0071 7407              MOV     A,#07H
0073 F0                MOVX    @DPTR,A
0074 A3                INC     DPTR
0075 74E0              MOV     A,#0E0H
0077 F0                MOVX    @DPTR,A
0078 900000      R     MOV     DPTR,#p
007B E0                MOVX    A,@DPTR
007C FE                MOV     R6,A
007D A3                INC     DPTR
007E E0                MOVX    A,@DPTR
007F FF                MOV     R7,A
0080 120000      E     LCALL   _draw_line
                                           ; SOURCE LINE # 240
0083 7B01              MOV     R3,#01H
0085 7A00        R     MOV     R2,#HIGH p2
0087 7900        R     MOV     R1,#LOW p2
                                           ; SOURCE LINE # 241
0089         ?C0023:
0089 22                RET     
             ; FUNCTION dummy_line_up (END)

             ; FUNCTION L?0119 (BEGIN)
0000         L?0120:
0000 7800        R     MOV     R0,#LOW p
0002 7C00        R     MOV     R4,#HIGH p
0004 7D01              MOV     R5,#01H
0006 7E00              MOV     R6,#00H
0008 7F04              MOV     R7,#04H
000A 120000      E     LCALL   ?C?COPY
000D 7800        R     MOV     R0,#LOW ?dummy_line_down?BYTE
000F 7C00        R     MOV     R4,#HIGH ?dummy_line_down?BYTE
0011 7D01              MOV     R5,#01H
0013 7B01              MOV     R3,#01H
0015 7A00        R     MOV     R2,#HIGH p
0017 7900        R     MOV     R1,#LOW p
0019 7E00              MOV     R6,#00H
001B 7F04              MOV     R7,#04H
001D 120000      E     LCALL   ?C?COPY
             ; FUNCTION dummy_line_down (BEGIN)
                                           ; SOURCE LINE # 243
                                           ; SOURCE LINE # 244
                                           ; SOURCE LINE # 246
0020 900000      R     MOV     DPTR,#p
C51 COMPILER V9.53.0.0   TEMP                                                              12/01/2023 15:51:08 PAGE 30  

0023 E0                MOVX    A,@DPTR
0024 FE                MOV     R6,A
0025 A3                INC     DPTR
0026 E0                MOVX    A,@DPTR
0027 FF                MOV     R7,A
0028 900000      R     MOV     DPTR,#LEVEL_HEIGHT
002B E4                CLR     A
002C 93                MOVC    A,@A+DPTR
002D FD                MOV     R5,A
002E 900000      R     MOV     DPTR,#p+03H
0031 E0                MOVX    A,@DPTR
0032 2D                ADD     A,R5
0033 FD                MOV     R5,A
0034 900000      R     MOV     DPTR,#p+02H
0037 E0                MOVX    A,@DPTR
0038 3400              ADDC    A,#00H
003A FC                MOV     R4,A
003B 120000      E     LCALL   _make_point
003E 7800        R     MOV     R0,#LOW p2
0040 7C00        R     MOV     R4,#HIGH p2
0042 7D01              MOV     R5,#01H
0044 7E00              MOV     R6,#00H
0046 7F04              MOV     R7,#04H
0048 120000      E     LCALL   ?C?COPY
                                           ; SOURCE LINE # 247
004B 900000      R     MOV     DPTR,#p+02H
004E E0                MOVX    A,@DPTR
004F FC                MOV     R4,A
0050 A3                INC     DPTR
0051 E0                MOVX    A,@DPTR
0052 FD                MOV     R5,A
0053 A3                INC     DPTR
0054 E0                MOVX    A,@DPTR
0055 FA                MOV     R2,A
0056 A3                INC     DPTR
0057 E0                MOVX    A,@DPTR
0058 FB                MOV     R3,A
0059 A3                INC     DPTR
005A E0                MOVX    A,@DPTR
005B FF                MOV     R7,A
005C A3                INC     DPTR
005D E0                MOVX    A,@DPTR
005E 900000      E     MOV     DPTR,#?_draw_line?BYTE+06H
0061 CF                XCH     A,R7
0062 F0                MOVX    @DPTR,A
0063 A3                INC     DPTR
0064 EF                MOV     A,R7
0065 F0                MOVX    @DPTR,A
0066 900000      R     MOV     DPTR,#LINE_HIGHT
0069 E4                CLR     A
006A 93                MOVC    A,@A+DPTR
006B 900000      E     MOV     DPTR,#?_draw_line?BYTE+08H
006E F0                MOVX    @DPTR,A
006F A3                INC     DPTR
0070 7407              MOV     A,#07H
0072 F0                MOVX    @DPTR,A
0073 A3                INC     DPTR
0074 74E0              MOV     A,#0E0H
0076 F0                MOVX    @DPTR,A
0077 900000      R     MOV     DPTR,#p
007A E0                MOVX    A,@DPTR
007B FE                MOV     R6,A
C51 COMPILER V9.53.0.0   TEMP                                                              12/01/2023 15:51:08 PAGE 31  

007C A3                INC     DPTR
007D E0                MOVX    A,@DPTR
007E FF                MOV     R7,A
007F 120000      E     LCALL   _draw_line
                                           ; SOURCE LINE # 248
0082 7B01              MOV     R3,#01H
0084 7A00        R     MOV     R2,#HIGH p2
0086 7900        R     MOV     R1,#LOW p2
                                           ; SOURCE LINE # 249
0088         ?C0024:
0088 22                RET     
             ; FUNCTION dummy_line_down (END)

             ; FUNCTION add_t_preflow (BEGIN)
                                           ; SOURCE LINE # 251
                                           ; SOURCE LINE # 252
                                           ; SOURCE LINE # 254
0000 7800        R     MOV     R0,#LOW LINE_WIDTH
0002 E6                MOV     A,@R0
0003 FE                MOV     R6,A
0004 08                INC     R0
0005 E6                MOV     A,@R0
0006 FF                MOV     R7,A
0007 900000      R     MOV     DPTR,#p+01H
000A E0                MOVX    A,@DPTR
000B 2F                ADD     A,R7
000C FF                MOV     R7,A
000D 900000      R     MOV     DPTR,#p
0010 E0                MOVX    A,@DPTR
0011 3E                ADDC    A,R6
0012 FE                MOV     R6,A
0013 900000      R     MOV     DPTR,#p+02H
0016 E0                MOVX    A,@DPTR
0017 FC                MOV     R4,A
0018 A3                INC     DPTR
0019 E0                MOVX    A,@DPTR
001A FD                MOV     R5,A
001B 120000      E     LCALL   _make_point
001E 7800        R     MOV     R0,#LOW p2
0020 7C00        R     MOV     R4,#HIGH p2
0022 7D01              MOV     R5,#01H
0024 7E00              MOV     R6,#00H
0026 7F04              MOV     R7,#04H
0028 120000      E     LCALL   ?C?COPY
                                           ; SOURCE LINE # 256
002B 900000      R     MOV     DPTR,#p+02H
002E E0                MOVX    A,@DPTR
002F FC                MOV     R4,A
0030 A3                INC     DPTR
0031 E0                MOVX    A,@DPTR
0032 FD                MOV     R5,A
0033 A3                INC     DPTR
0034 E0                MOVX    A,@DPTR
0035 FA                MOV     R2,A
0036 A3                INC     DPTR
0037 E0                MOVX    A,@DPTR
0038 FB                MOV     R3,A
0039 A3                INC     DPTR
003A E0                MOVX    A,@DPTR
003B FF                MOV     R7,A
003C A3                INC     DPTR
003D E0                MOVX    A,@DPTR
C51 COMPILER V9.53.0.0   TEMP                                                              12/01/2023 15:51:08 PAGE 32  

003E 900000      E     MOV     DPTR,#?_draw_line?BYTE+06H
0041 CF                XCH     A,R7
0042 F0                MOVX    @DPTR,A
0043 A3                INC     DPTR
0044 EF                MOV     A,R7
0045 F0                MOVX    @DPTR,A
0046 900000      R     MOV     DPTR,#LINE_HIGHT
0049 E4                CLR     A
004A 93                MOVC    A,@A+DPTR
004B 900000      E     MOV     DPTR,#?_draw_line?BYTE+08H
004E F0                MOVX    @DPTR,A
004F A3                INC     DPTR
0050 7407              MOV     A,#07H
0052 F0                MOVX    @DPTR,A
0053 A3                INC     DPTR
0054 74E0              MOV     A,#0E0H
0056 F0                MOVX    @DPTR,A
0057 900000      R     MOV     DPTR,#p
005A E0                MOVX    A,@DPTR
005B FE                MOV     R6,A
005C A3                INC     DPTR
005D E0                MOVX    A,@DPTR
005E FF                MOV     R7,A
005F 120000      E     LCALL   _draw_line
                                           ; SOURCE LINE # 259
0062 900000      R     MOV     DPTR,#p
0065 E0                MOVX    A,@DPTR
0066 FE                MOV     R6,A
0067 A3                INC     DPTR
0068 E0                MOVX    A,@DPTR
0069 FF                MOV     R7,A
006A 7800        R     MOV     R0,#LOW TIME_Y_LEVEL
006C E6                MOV     A,@R0
006D FC                MOV     R4,A
006E 08                INC     R0
006F E6                MOV     A,@R0
0070 FD                MOV     R5,A
0071 120000      E     LCALL   _make_point
0074 7800        R     MOV     R0,#LOW ?draw_number_centered_on_line?BYTE
0076 7C00        R     MOV     R4,#HIGH ?draw_number_centered_on_line?BYTE
0078 7D01              MOV     R5,#01H
007A 7E00              MOV     R6,#00H
007C 7F04              MOV     R7,#04H
007E 120000      E     LCALL   ?C?COPY
0081 900000      R     MOV     DPTR,#par+034H
0084 E0                MOVX    A,@DPTR
0085 FF                MOV     R7,A
0086 A3                INC     DPTR
0087 E0                MOVX    A,@DPTR
0088 900000      R     MOV     DPTR,#?draw_number_centered_on_line?BYTE+04H
008B CF                XCH     A,R7
008C F0                MOVX    @DPTR,A
008D A3                INC     DPTR
008E EF                MOV     A,R7
008F F0                MOVX    @DPTR,A
0090 A3                INC     DPTR
0091 7401              MOV     A,#01H
0093 F0                MOVX    @DPTR,A
0094 A3                INC     DPTR
0095 74FF              MOV     A,#0FFH
0097 F0                MOVX    @DPTR,A
0098 A3                INC     DPTR
C51 COMPILER V9.53.0.0   TEMP                                                              12/01/2023 15:51:08 PAGE 33  

0099 7400        R     MOV     A,#HIGH ?SC_5
009B F0                MOVX    @DPTR,A
009C A3                INC     DPTR
009D 7400        R     MOV     A,#LOW ?SC_5
009F F0                MOVX    @DPTR,A
00A0 A3                INC     DPTR
00A1 E4                CLR     A
00A2 F0                MOVX    @DPTR,A
00A3 A3                INC     DPTR
00A4 7424              MOV     A,#024H
00A6 F0                MOVX    @DPTR,A
00A7 A3                INC     DPTR
00A8 7407              MOV     A,#07H
00AA F0                MOVX    @DPTR,A
00AB A3                INC     DPTR
00AC 74FF              MOV     A,#0FFH
00AE F0                MOVX    @DPTR,A
00AF A3                INC     DPTR
00B0 741A              MOV     A,#01AH
00B2 F0                MOVX    @DPTR,A
00B3 120000      R     LCALL   draw_number_centered_on_line
                                           ; SOURCE LINE # 260
00B6 7B01              MOV     R3,#01H
00B8 7A00        R     MOV     R2,#HIGH p2
00BA 7900        R     MOV     R1,#LOW p2
                                           ; SOURCE LINE # 261
00BC         ?C0025:
00BC 22                RET     
             ; FUNCTION add_t_preflow (END)

             ; FUNCTION L?0128 (BEGIN)
0000 7800        R     MOV     R0,#LOW p
0002 7C00        R     MOV     R4,#HIGH p
0004 7D01              MOV     R5,#01H
0006 7E00              MOV     R6,#00H
0008 7F04              MOV     R7,#04H
000A 120000      E     LCALL   ?C?COPY
000D 7800        R     MOV     R0,#LOW ?add_t_start_i?BYTE
000F 7C00        R     MOV     R4,#HIGH ?add_t_start_i?BYTE
0011 7D01              MOV     R5,#01H
0013 7B01              MOV     R3,#01H
0015 7A00        R     MOV     R2,#HIGH p
0017 7900        R     MOV     R1,#LOW p
0019 7E00              MOV     R6,#00H
001B 7F04              MOV     R7,#04H
001D 120000      E     LCALL   ?C?COPY
             ; FUNCTION add_t_start_i (BEGIN)
                                           ; SOURCE LINE # 265
                                           ; SOURCE LINE # 266
                                           ; SOURCE LINE # 268
0020 7800        R     MOV     R0,#LOW LINE_WIDTH
0022 E6                MOV     A,@R0
0023 FE                MOV     R6,A
0024 08                INC     R0
0025 E6                MOV     A,@R0
0026 FF                MOV     R7,A
0027 900000      R     MOV     DPTR,#p+01H
002A E0                MOVX    A,@DPTR
002B 2F                ADD     A,R7
002C FF                MOV     R7,A
002D 900000      R     MOV     DPTR,#p
0030 E0                MOVX    A,@DPTR
C51 COMPILER V9.53.0.0   TEMP                                                              12/01/2023 15:51:08 PAGE 34  

0031 3E                ADDC    A,R6
0032 FE                MOV     R6,A
0033 900000      R     MOV     DPTR,#p+02H
0036 E0                MOVX    A,@DPTR
0037 FC                MOV     R4,A
0038 A3                INC     DPTR
0039 E0                MOVX    A,@DPTR
003A FD                MOV     R5,A
003B 120000      E     LCALL   _make_point
003E 7800        R     MOV     R0,#LOW p2
0040 7C00        R     MOV     R4,#HIGH p2
0042 7D01              MOV     R5,#01H
0044 7E00              MOV     R6,#00H
0046 7F04              MOV     R7,#04H
0048 120000      E     LCALL   ?C?COPY
                                           ; SOURCE LINE # 269
004B 900000      R     MOV     DPTR,#p+02H
004E E0                MOVX    A,@DPTR
004F FC                MOV     R4,A
0050 A3                INC     DPTR
0051 E0                MOVX    A,@DPTR
0052 FD                MOV     R5,A
0053 A3                INC     DPTR
0054 E0                MOVX    A,@DPTR
0055 FA                MOV     R2,A
0056 A3                INC     DPTR
0057 E0                MOVX    A,@DPTR
0058 FB                MOV     R3,A
0059 A3                INC     DPTR
005A E0                MOVX    A,@DPTR
005B FF                MOV     R7,A
005C A3                INC     DPTR
005D E0                MOVX    A,@DPTR
005E 900000      E     MOV     DPTR,#?_draw_line?BYTE+06H
0061 CF                XCH     A,R7
0062 F0                MOVX    @DPTR,A
0063 A3                INC     DPTR
0064 EF                MOV     A,R7
0065 F0                MOVX    @DPTR,A
0066 900000      R     MOV     DPTR,#LINE_HIGHT
0069 E4                CLR     A
006A 93                MOVC    A,@A+DPTR
006B 900000      E     MOV     DPTR,#?_draw_line?BYTE+08H
006E F0                MOVX    @DPTR,A
006F A3                INC     DPTR
0070 7407              MOV     A,#07H
0072 F0                MOVX    @DPTR,A
0073 A3                INC     DPTR
0074 74E0              MOV     A,#0E0H
0076 F0                MOVX    @DPTR,A
0077 900000      R     MOV     DPTR,#p
007A E0                MOVX    A,@DPTR
007B FE                MOV     R6,A
007C A3                INC     DPTR
007D E0                MOVX    A,@DPTR
007E FF                MOV     R7,A
007F 120000      E     LCALL   _draw_line
                                           ; SOURCE LINE # 271
0082 7800        R     MOV     R0,#LOW ?draw_number_centered_on_line?BYTE
0084 7C00        R     MOV     R4,#HIGH ?draw_number_centered_on_line?BYTE
0086 7D01              MOV     R5,#01H
0088 7B01              MOV     R3,#01H
C51 COMPILER V9.53.0.0   TEMP                                                              12/01/2023 15:51:08 PAGE 35  

008A 7A00        R     MOV     R2,#HIGH p
008C 7900        R     MOV     R1,#LOW p
008E 7E00              MOV     R6,#00H
0090 7F04              MOV     R7,#04H
0092 120000      E     LCALL   ?C?COPY
0095 900000      R     MOV     DPTR,#par+036H
0098 E0                MOVX    A,@DPTR
0099 FF                MOV     R7,A
009A A3                INC     DPTR
009B E0                MOVX    A,@DPTR
009C 900000      R     MOV     DPTR,#?draw_number_centered_on_line?BYTE+04H
009F CF                XCH     A,R7
00A0 F0                MOVX    @DPTR,A
00A1 A3                INC     DPTR
00A2 EF                MOV     A,R7
00A3 F0                MOVX    @DPTR,A
00A4 E4                CLR     A
00A5 A3                INC     DPTR
00A6 F0                MOVX    @DPTR,A
00A7 A3                INC     DPTR
00A8 74FF              MOV     A,#0FFH
00AA F0                MOVX    @DPTR,A
00AB A3                INC     DPTR
00AC 7400        R     MOV     A,#HIGH ?SC_7
00AE F0                MOVX    @DPTR,A
00AF A3                INC     DPTR
00B0 7400        R     MOV     A,#LOW ?SC_7
00B2 F0                MOVX    @DPTR,A
00B3 7800        R     MOV     R0,#LOW FONT_SIZE
00B5 E6                MOV     A,@R0
00B6 FF                MOV     R7,A
00B7 08                INC     R0
00B8 E6                MOV     A,@R0
00B9 A3                INC     DPTR
00BA CF                XCH     A,R7
00BB F0                MOVX    @DPTR,A
00BC A3                INC     DPTR
00BD EF                MOV     A,R7
00BE F0                MOVX    @DPTR,A
00BF A3                INC     DPTR
00C0 74FF              MOV     A,#0FFH
00C2 F0                MOVX    @DPTR,A
00C3 A3                INC     DPTR
00C4 74E0              MOV     A,#0E0H
00C6 F0                MOVX    @DPTR,A
00C7 A3                INC     DPTR
00C8 741B              MOV     A,#01BH
00CA F0                MOVX    @DPTR,A
00CB 120000      R     LCALL   draw_number_centered_on_line
                                           ; SOURCE LINE # 272
00CE 900000      R     MOV     DPTR,#p
00D1 E0                MOVX    A,@DPTR
00D2 FE                MOV     R6,A
00D3 A3                INC     DPTR
00D4 E0                MOVX    A,@DPTR
00D5 FF                MOV     R7,A
00D6 7800        R     MOV     R0,#LOW TIME_Y_LEVEL
00D8 E6                MOV     A,@R0
00D9 FC                MOV     R4,A
00DA 08                INC     R0
00DB E6                MOV     A,@R0
00DC FD                MOV     R5,A
C51 COMPILER V9.53.0.0   TEMP                                                              12/01/2023 15:51:08 PAGE 36  

00DD 120000      E     LCALL   _make_point
00E0 7800        R     MOV     R0,#LOW ?draw_number_centered_on_line?BYTE
00E2 7C00        R     MOV     R4,#HIGH ?draw_number_centered_on_line?BYTE
00E4 7D01              MOV     R5,#01H
00E6 7E00              MOV     R6,#00H
00E8 7F04              MOV     R7,#04H
00EA 120000      E     LCALL   ?C?COPY
00ED 900000      R     MOV     DPTR,#par+038H
00F0 E0                MOVX    A,@DPTR
00F1 FF                MOV     R7,A
00F2 A3                INC     DPTR
00F3 E0                MOVX    A,@DPTR
00F4 900000      R     MOV     DPTR,#?draw_number_centered_on_line?BYTE+04H
00F7 CF                XCH     A,R7
00F8 F0                MOVX    @DPTR,A
00F9 A3                INC     DPTR
00FA EF                MOV     A,R7
00FB F0                MOVX    @DPTR,A
00FC A3                INC     DPTR
00FD 7401              MOV     A,#01H
00FF F0                MOVX    @DPTR,A
0100 A3                INC     DPTR
0101 74FF              MOV     A,#0FFH
0103 F0                MOVX    @DPTR,A
0104 A3                INC     DPTR
0105 7400        R     MOV     A,#HIGH ?SC_5
0107 F0                MOVX    @DPTR,A
0108 A3                INC     DPTR
0109 7400        R     MOV     A,#LOW ?SC_5
010B F0                MOVX    @DPTR,A
010C A3                INC     DPTR
010D E4                CLR     A
010E F0                MOVX    @DPTR,A
010F A3                INC     DPTR
0110 7424              MOV     A,#024H
0112 F0                MOVX    @DPTR,A
0113 A3                INC     DPTR
0114 7407              MOV     A,#07H
0116 F0                MOVX    @DPTR,A
0117 A3                INC     DPTR
0118 74FF              MOV     A,#0FFH
011A F0                MOVX    @DPTR,A
011B A3                INC     DPTR
011C 741C              MOV     A,#01CH
011E F0                MOVX    @DPTR,A
011F 120000      R     LCALL   draw_number_centered_on_line
                                           ; SOURCE LINE # 274
0122 7B01              MOV     R3,#01H
0124 7A00        R     MOV     R2,#HIGH p2
0126 7900        R     MOV     R1,#LOW p2
                                           ; SOURCE LINE # 275
0128         ?C0026:
0128 22                RET     
             ; FUNCTION add_t_start_i (END)

             ; FUNCTION add_t_up (BEGIN)
                                           ; SOURCE LINE # 278
                                           ; SOURCE LINE # 279
                                           ; SOURCE LINE # 281
0000 7800        R     MOV     R0,#LOW LINE_WIDTH
0002 E6                MOV     A,@R0
0003 FE                MOV     R6,A
C51 COMPILER V9.53.0.0   TEMP                                                              12/01/2023 15:51:08 PAGE 37  

0004 08                INC     R0
0005 E6                MOV     A,@R0
0006 FF                MOV     R7,A
0007 900000      R     MOV     DPTR,#p+01H
000A E0                MOVX    A,@DPTR
000B 2F                ADD     A,R7
000C FF                MOV     R7,A
000D 900000      R     MOV     DPTR,#p
0010 E0                MOVX    A,@DPTR
0011 3E                ADDC    A,R6
0012 FE                MOV     R6,A
0013 900000      R     MOV     DPTR,#LEVEL_HEIGHT
0016 E4                CLR     A
0017 93                MOVC    A,@A+DPTR
0018 FD                MOV     R5,A
0019 C3                CLR     C
001A 900000      R     MOV     DPTR,#p+03H
001D E0                MOVX    A,@DPTR
001E 9D                SUBB    A,R5
001F FD                MOV     R5,A
0020 900000      R     MOV     DPTR,#p+02H
0023 E0                MOVX    A,@DPTR
0024 9400              SUBB    A,#00H
0026 FC                MOV     R4,A
0027 120000      E     LCALL   _make_point
002A 7800        R     MOV     R0,#LOW p2
002C 7C00        R     MOV     R4,#HIGH p2
002E 7D01              MOV     R5,#01H
0030 7E00              MOV     R6,#00H
0032 7F04              MOV     R7,#04H
0034 120000      E     LCALL   ?C?COPY
                                           ; SOURCE LINE # 282
0037 900000      R     MOV     DPTR,#p+02H
003A E0                MOVX    A,@DPTR
003B FC                MOV     R4,A
003C A3                INC     DPTR
003D E0                MOVX    A,@DPTR
003E FD                MOV     R5,A
003F A3                INC     DPTR
0040 E0                MOVX    A,@DPTR
0041 FA                MOV     R2,A
0042 A3                INC     DPTR
0043 E0                MOVX    A,@DPTR
0044 FB                MOV     R3,A
0045 A3                INC     DPTR
0046 E0                MOVX    A,@DPTR
0047 FF                MOV     R7,A
0048 A3                INC     DPTR
0049 E0                MOVX    A,@DPTR
004A 900000      E     MOV     DPTR,#?_draw_line?BYTE+06H
004D CF                XCH     A,R7
004E F0                MOVX    @DPTR,A
004F A3                INC     DPTR
0050 EF                MOV     A,R7
0051 F0                MOVX    @DPTR,A
0052 900000      R     MOV     DPTR,#LINE_HIGHT
0055 E4                CLR     A
0056 93                MOVC    A,@A+DPTR
0057 900000      E     MOV     DPTR,#?_draw_line?BYTE+08H
005A F0                MOVX    @DPTR,A
005B A3                INC     DPTR
005C 7407              MOV     A,#07H
C51 COMPILER V9.53.0.0   TEMP                                                              12/01/2023 15:51:08 PAGE 38  

005E F0                MOVX    @DPTR,A
005F A3                INC     DPTR
0060 74E0              MOV     A,#0E0H
0062 F0                MOVX    @DPTR,A
0063 900000      R     MOV     DPTR,#p
0066 E0                MOVX    A,@DPTR
0067 FE                MOV     R6,A
0068 A3                INC     DPTR
0069 E0                MOVX    A,@DPTR
006A FF                MOV     R7,A
006B 120000      E     LCALL   _draw_line
                                           ; SOURCE LINE # 284
006E 900000      R     MOV     DPTR,#p
0071 E0                MOVX    A,@DPTR
0072 FE                MOV     R6,A
0073 A3                INC     DPTR
0074 E0                MOVX    A,@DPTR
0075 FF                MOV     R7,A
0076 7800        R     MOV     R0,#LOW TIME_Y_LEVEL
0078 E6                MOV     A,@R0
0079 FC                MOV     R4,A
007A 08                INC     R0
007B E6                MOV     A,@R0
007C FD                MOV     R5,A
007D 120000      E     LCALL   _make_point
0080 7800        R     MOV     R0,#LOW ?draw_number_centered_on_line?BYTE
0082 7C00        R     MOV     R4,#HIGH ?draw_number_centered_on_line?BYTE
0084 7D01              MOV     R5,#01H
0086 7E00              MOV     R6,#00H
0088 7F04              MOV     R7,#04H
008A 120000      E     LCALL   ?C?COPY
008D 900000      R     MOV     DPTR,#par+03AH
0090 E0                MOVX    A,@DPTR
0091 FF                MOV     R7,A
0092 A3                INC     DPTR
0093 E0                MOVX    A,@DPTR
0094 900000      R     MOV     DPTR,#?draw_number_centered_on_line?BYTE+04H
0097 CF                XCH     A,R7
0098 F0                MOVX    @DPTR,A
0099 A3                INC     DPTR
009A EF                MOV     A,R7
009B F0                MOVX    @DPTR,A
009C A3                INC     DPTR
009D 7401              MOV     A,#01H
009F F0                MOVX    @DPTR,A
00A0 A3                INC     DPTR
00A1 74FF              MOV     A,#0FFH
00A3 F0                MOVX    @DPTR,A
00A4 A3                INC     DPTR
00A5 7400        R     MOV     A,#HIGH ?SC_5
00A7 F0                MOVX    @DPTR,A
00A8 A3                INC     DPTR
00A9 7400        R     MOV     A,#LOW ?SC_5
00AB F0                MOVX    @DPTR,A
00AC A3                INC     DPTR
00AD E4                CLR     A
00AE F0                MOVX    @DPTR,A
00AF A3                INC     DPTR
00B0 7424              MOV     A,#024H
00B2 F0                MOVX    @DPTR,A
00B3 A3                INC     DPTR
00B4 7407              MOV     A,#07H
C51 COMPILER V9.53.0.0   TEMP                                                              12/01/2023 15:51:08 PAGE 39  

00B6 F0                MOVX    @DPTR,A
00B7 A3                INC     DPTR
00B8 74FF              MOV     A,#0FFH
00BA F0                MOVX    @DPTR,A
00BB A3                INC     DPTR
00BC 741D              MOV     A,#01DH
00BE F0                MOVX    @DPTR,A
00BF 120000      R     LCALL   draw_number_centered_on_line
                                           ; SOURCE LINE # 286
00C2 7B01              MOV     R3,#01H
00C4 7A00        R     MOV     R2,#HIGH p2
00C6 7900        R     MOV     R1,#LOW p2
                                           ; SOURCE LINE # 287
00C8         ?C0027:
00C8 22                RET     
             ; FUNCTION add_t_up (END)

             ; FUNCTION L?0129 (BEGIN)
0000 7800        R     MOV     R0,#LOW p
0002 7C00        R     MOV     R4,#HIGH p
0004 7D01              MOV     R5,#01H
0006 7E00              MOV     R6,#00H
0008 7F04              MOV     R7,#04H
000A 120000      E     LCALL   ?C?COPY
000D 7800        R     MOV     R0,#LOW ?add_base_i1_i2_t?BYTE
000F 7C00        R     MOV     R4,#HIGH ?add_base_i1_i2_t?BYTE
0011 7D01              MOV     R5,#01H
0013 7B01              MOV     R3,#01H
0015 7A00        R     MOV     R2,#HIGH p
0017 7900        R     MOV     R1,#LOW p
0019 7E00              MOV     R6,#00H
001B 7F04              MOV     R7,#04H
001D 120000      E     LCALL   ?C?COPY
             ; FUNCTION add_base_i1_i2_t (BEGIN)
                                           ; SOURCE LINE # 289
                                           ; SOURCE LINE # 290
                                           ; SOURCE LINE # 292
0020 900000      R     MOV     DPTR,#LINE_HIGHT
0023 E4                CLR     A
0024 93                MOVC    A,@A+DPTR
0025 C3                CLR     C
0026 13                RRC     A
0027 FF                MOV     R7,A
0028 900000      R     MOV     DPTR,#half_height
002B E4                CLR     A
002C F0                MOVX    @DPTR,A
002D A3                INC     DPTR
002E EF                MOV     A,R7
002F F0                MOVX    @DPTR,A
                                           ; SOURCE LINE # 293
0030 7800        R     MOV     R0,#LOW LINE_WIDTH
0032 E6                MOV     A,@R0
0033 FE                MOV     R6,A
0034 08                INC     R0
0035 E6                MOV     A,@R0
0036 FF                MOV     R7,A
0037 900000      R     MOV     DPTR,#p+01H
003A E0                MOVX    A,@DPTR
003B 2F                ADD     A,R7
003C FF                MOV     R7,A
003D 900000      R     MOV     DPTR,#p
0040 E0                MOVX    A,@DPTR
C51 COMPILER V9.53.0.0   TEMP                                                              12/01/2023 15:51:08 PAGE 40  

0041 3E                ADDC    A,R6
0042 FE                MOV     R6,A
0043 900000      R     MOV     DPTR,#p+02H
0046 E0                MOVX    A,@DPTR
0047 FC                MOV     R4,A
0048 A3                INC     DPTR
0049 E0                MOVX    A,@DPTR
004A FD                MOV     R5,A
004B 120000      E     LCALL   _make_point
004E 7800        R     MOV     R0,#LOW p2
0050 7C00        R     MOV     R4,#HIGH p2
0052 7D01              MOV     R5,#01H
0054 7E00              MOV     R6,#00H
0056 7F04              MOV     R7,#04H
0058 120000      E     LCALL   ?C?COPY
                                           ; SOURCE LINE # 295
005B 900000      R     MOV     DPTR,#p+02H
005E E0                MOVX    A,@DPTR
005F FC                MOV     R4,A
0060 A3                INC     DPTR
0061 E0                MOVX    A,@DPTR
0062 FD                MOV     R5,A
0063 A3                INC     DPTR
0064 E0                MOVX    A,@DPTR
0065 FA                MOV     R2,A
0066 A3                INC     DPTR
0067 E0                MOVX    A,@DPTR
0068 FB                MOV     R3,A
0069 A3                INC     DPTR
006A E0                MOVX    A,@DPTR
006B FF                MOV     R7,A
006C A3                INC     DPTR
006D E0                MOVX    A,@DPTR
006E 900000      E     MOV     DPTR,#?_draw_line?BYTE+06H
0071 CF                XCH     A,R7
0072 F0                MOVX    @DPTR,A
0073 A3                INC     DPTR
0074 EF                MOV     A,R7
0075 F0                MOVX    @DPTR,A
0076 900000      R     MOV     DPTR,#LINE_HIGHT
0079 E4                CLR     A
007A 93                MOVC    A,@A+DPTR
007B 900000      E     MOV     DPTR,#?_draw_line?BYTE+08H
007E F0                MOVX    @DPTR,A
007F A3                INC     DPTR
0080 7407              MOV     A,#07H
0082 F0                MOVX    @DPTR,A
0083 A3                INC     DPTR
0084 74E0              MOV     A,#0E0H
0086 F0                MOVX    @DPTR,A
0087 900000      R     MOV     DPTR,#p
008A E0                MOVX    A,@DPTR
008B FE                MOV     R6,A
008C A3                INC     DPTR
008D E0                MOVX    A,@DPTR
008E FF                MOV     R7,A
008F 120000      E     LCALL   _draw_line
                                           ; SOURCE LINE # 297
0092 900000      R     MOV     DPTR,#p
0095 E0                MOVX    A,@DPTR
0096 FE                MOV     R6,A
0097 A3                INC     DPTR
C51 COMPILER V9.53.0.0   TEMP                                                              12/01/2023 15:51:08 PAGE 41  

0098 E0                MOVX    A,@DPTR
0099 FF                MOV     R7,A
009A 7800        R     MOV     R0,#LOW TIME_Y_LEVEL
009C E6                MOV     A,@R0
009D FC                MOV     R4,A
009E 08                INC     R0
009F E6                MOV     A,@R0
00A0 FD                MOV     R5,A
00A1 120000      E     LCALL   _make_point
00A4 7800        R     MOV     R0,#LOW ?draw_number_centered_on_line?BYTE
00A6 7C00        R     MOV     R4,#HIGH ?draw_number_centered_on_line?BYTE
00A8 7D01              MOV     R5,#01H
00AA 7E00              MOV     R6,#00H
00AC 7F04              MOV     R7,#04H
00AE 120000      E     LCALL   ?C?COPY
00B1 900000      R     MOV     DPTR,#par+03EH
00B4 E0                MOVX    A,@DPTR
00B5 FF                MOV     R7,A
00B6 A3                INC     DPTR
00B7 E0                MOVX    A,@DPTR
00B8 900000      R     MOV     DPTR,#?draw_number_centered_on_line?BYTE+04H
00BB CF                XCH     A,R7
00BC F0                MOVX    @DPTR,A
00BD A3                INC     DPTR
00BE EF                MOV     A,R7
00BF F0                MOVX    @DPTR,A
00C0 A3                INC     DPTR
00C1 7403              MOV     A,#03H
00C3 F0                MOVX    @DPTR,A
00C4 A3                INC     DPTR
00C5 74FF              MOV     A,#0FFH
00C7 F0                MOVX    @DPTR,A
00C8 A3                INC     DPTR
00C9 7400        R     MOV     A,#HIGH ?SC_9
00CB F0                MOVX    @DPTR,A
00CC A3                INC     DPTR
00CD 7400        R     MOV     A,#LOW ?SC_9
00CF F0                MOVX    @DPTR,A
00D0 A3                INC     DPTR
00D1 E4                CLR     A
00D2 F0                MOVX    @DPTR,A
00D3 A3                INC     DPTR
00D4 741E              MOV     A,#01EH
00D6 F0                MOVX    @DPTR,A
00D7 A3                INC     DPTR
00D8 7407              MOV     A,#07H
00DA F0                MOVX    @DPTR,A
00DB A3                INC     DPTR
00DC 74FF              MOV     A,#0FFH
00DE F0                MOVX    @DPTR,A
00DF A3                INC     DPTR
00E0 741F              MOV     A,#01FH
00E2 F0                MOVX    @DPTR,A
00E3 120000      R     LCALL   draw_number_centered_on_line
                                           ; SOURCE LINE # 298
00E6 7800        R     MOV     R0,#LOW ?draw_number_centered_on_line?BYTE
00E8 7C00        R     MOV     R4,#HIGH ?draw_number_centered_on_line?BYTE
00EA 7D01              MOV     R5,#01H
00EC 7B01              MOV     R3,#01H
00EE 7A00        R     MOV     R2,#HIGH p
00F0 7900        R     MOV     R1,#LOW p
00F2 7E00              MOV     R6,#00H
C51 COMPILER V9.53.0.0   TEMP                                                              12/01/2023 15:51:08 PAGE 42  

00F4 7F04              MOV     R7,#04H
00F6 120000      E     LCALL   ?C?COPY
00F9 900000      R     MOV     DPTR,#par+03CH
00FC E0                MOVX    A,@DPTR
00FD FF                MOV     R7,A
00FE A3                INC     DPTR
00FF E0                MOVX    A,@DPTR
0100 900000      R     MOV     DPTR,#?draw_number_centered_on_line?BYTE+04H
0103 CF                XCH     A,R7
0104 F0                MOVX    @DPTR,A
0105 A3                INC     DPTR
0106 EF                MOV     A,R7
0107 F0                MOVX    @DPTR,A
0108 E4                CLR     A
0109 A3                INC     DPTR
010A F0                MOVX    @DPTR,A
010B A3                INC     DPTR
010C 74FF              MOV     A,#0FFH
010E F0                MOVX    @DPTR,A
010F A3                INC     DPTR
0110 7400        R     MOV     A,#HIGH ?SC_7
0112 F0                MOVX    @DPTR,A
0113 A3                INC     DPTR
0114 7400        R     MOV     A,#LOW ?SC_7
0116 F0                MOVX    @DPTR,A
0117 7800        R     MOV     R0,#LOW FONT_SIZE
0119 E6                MOV     A,@R0
011A FF                MOV     R7,A
011B 08                INC     R0
011C E6                MOV     A,@R0
011D A3                INC     DPTR
011E CF                XCH     A,R7
011F F0                MOVX    @DPTR,A
0120 A3                INC     DPTR
0121 EF                MOV     A,R7
0122 F0                MOVX    @DPTR,A
0123 A3                INC     DPTR
0124 74F8              MOV     A,#0F8H
0126 F0                MOVX    @DPTR,A
0127 A3                INC     DPTR
0128 741F              MOV     A,#01FH
012A F0                MOVX    @DPTR,A
012B A3                INC     DPTR
012C 14                DEC     A
012D F0                MOVX    @DPTR,A
012E 120000      R     LCALL   draw_number_centered_on_line
                                           ; SOURCE LINE # 299
0131 7800        R     MOV     R0,#LOW main_menu_bm
0133 120000      E     LCALL   ?C?LLDIDATA
0136 EE                MOV     A,R6
0137 5402              ANL     A,#02H
0139 FE                MOV     R6,A
013A EE                MOV     A,R6
013B 6076              JZ      ?C0028
                                           ; SOURCE LINE # 300
013D 7800        R     MOV     R0,#LOW FONT_SIZE+01H
013F E6                MOV     A,@R0
0140 25E0              ADD     A,ACC
0142 FF                MOV     R7,A
0143 18                DEC     R0
0144 E6                MOV     A,@R0
0145 33                RLC     A
C51 COMPILER V9.53.0.0   TEMP                                                              12/01/2023 15:51:08 PAGE 43  

0146 FE                MOV     R6,A
0147 900000      R     MOV     DPTR,#p+03H
014A E0                MOVX    A,@DPTR
014B 2F                ADD     A,R7
014C FD                MOV     R5,A
014D 900000      R     MOV     DPTR,#p+02H
0150 E0                MOVX    A,@DPTR
0151 3E                ADDC    A,R6
0152 FC                MOV     R4,A
0153 900000      R     MOV     DPTR,#LINE_HIGHT
0156 E4                CLR     A
0157 93                MOVC    A,@A+DPTR
0158 75F002            MOV     B,#02H
015B A4                MUL     AB
015C 2D                ADD     A,R5
015D FD                MOV     R5,A
015E E5F0              MOV     A,B
0160 3C                ADDC    A,R4
0161 FC                MOV     R4,A
0162 900000      R     MOV     DPTR,#p
0165 E0                MOVX    A,@DPTR
0166 FE                MOV     R6,A
0167 A3                INC     DPTR
0168 E0                MOVX    A,@DPTR
0169 FF                MOV     R7,A
016A 120000      E     LCALL   _make_point
016D 7800        R     MOV     R0,#LOW ?draw_number_centered_on_line?BYTE
016F 7C00        R     MOV     R4,#HIGH ?draw_number_centered_on_line?BYTE
0171 7D01              MOV     R5,#01H
0173 7E00              MOV     R6,#00H
0175 7F04              MOV     R7,#04H
0177 120000      E     LCALL   ?C?COPY
017A 900000      R     MOV     DPTR,#par+052H
017D E0                MOVX    A,@DPTR
017E FF                MOV     R7,A
017F A3                INC     DPTR
0180 E0                MOVX    A,@DPTR
0181 900000      R     MOV     DPTR,#?draw_number_centered_on_line?BYTE+04H
0184 CF                XCH     A,R7
0185 F0                MOVX    @DPTR,A
0186 A3                INC     DPTR
0187 EF                MOV     A,R7
0188 F0                MOVX    @DPTR,A
0189 E4                CLR     A
018A A3                INC     DPTR
018B F0                MOVX    @DPTR,A
018C A3                INC     DPTR
018D 74FF              MOV     A,#0FFH
018F F0                MOVX    @DPTR,A
0190 A3                INC     DPTR
0191 7400        R     MOV     A,#HIGH ?SC_7
0193 F0                MOVX    @DPTR,A
0194 A3                INC     DPTR
0195 7400        R     MOV     A,#LOW ?SC_7
0197 F0                MOVX    @DPTR,A
0198 7800        R     MOV     R0,#LOW FONT_SIZE
019A E6                MOV     A,@R0
019B FF                MOV     R7,A
019C 08                INC     R0
019D E6                MOV     A,@R0
019E A3                INC     DPTR
019F CF                XCH     A,R7
C51 COMPILER V9.53.0.0   TEMP                                                              12/01/2023 15:51:08 PAGE 44  

01A0 F0                MOVX    @DPTR,A
01A1 A3                INC     DPTR
01A2 EF                MOV     A,R7
01A3 F0                MOVX    @DPTR,A
01A4 A3                INC     DPTR
01A5 74FF              MOV     A,#0FFH
01A7 F0                MOVX    @DPTR,A
01A8 A3                INC     DPTR
01A9 74E0              MOV     A,#0E0H
01AB F0                MOVX    @DPTR,A
01AC A3                INC     DPTR
01AD 7429              MOV     A,#029H
01AF F0                MOVX    @DPTR,A
01B0 120000      R     LCALL   draw_number_centered_on_line
01B3         ?C0028:
                                           ; SOURCE LINE # 301
01B3 7B01              MOV     R3,#01H
01B5 7A00        R     MOV     R2,#HIGH p2
01B7 7900        R     MOV     R1,#LOW p2
                                           ; SOURCE LINE # 302
01B9         ?C0029:
01B9 22                RET     
             ; FUNCTION add_base_i1_i2_t (END)

             ; FUNCTION L?0130 (BEGIN)
0000 7800        R     MOV     R0,#LOW p
0002 7C00        R     MOV     R4,#HIGH p
0004 7D01              MOV     R5,#01H
0006 7E00              MOV     R6,#00H
0008 7F04              MOV     R7,#04H
000A 120000      E     LCALL   ?C?COPY
000D 7800        R     MOV     R0,#LOW ?add_i_t_impulse?BYTE
000F 7C00        R     MOV     R4,#HIGH ?add_i_t_impulse?BYTE
0011 7D01              MOV     R5,#01H
0013 7B01              MOV     R3,#01H
0015 7A00        R     MOV     R2,#HIGH p
0017 7900        R     MOV     R1,#LOW p
0019 7E00              MOV     R6,#00H
001B 7F04              MOV     R7,#04H
001D 120000      E     LCALL   ?C?COPY
             ; FUNCTION add_i_t_impulse (BEGIN)
                                           ; SOURCE LINE # 304
                                           ; SOURCE LINE # 305
                                           ; SOURCE LINE # 307
0020 7800        R     MOV     R0,#LOW LINE_WIDTH
0022 E6                MOV     A,@R0
0023 FE                MOV     R6,A
0024 08                INC     R0
0025 E6                MOV     A,@R0
0026 FF                MOV     R7,A
0027 900000      R     MOV     DPTR,#p+01H
002A E0                MOVX    A,@DPTR
002B 2F                ADD     A,R7
002C FF                MOV     R7,A
002D 900000      R     MOV     DPTR,#p
0030 E0                MOVX    A,@DPTR
0031 3E                ADDC    A,R6
0032 FE                MOV     R6,A
0033 900000      R     MOV     DPTR,#p+02H
0036 E0                MOVX    A,@DPTR
0037 FC                MOV     R4,A
0038 A3                INC     DPTR
C51 COMPILER V9.53.0.0   TEMP                                                              12/01/2023 15:51:08 PAGE 45  

0039 E0                MOVX    A,@DPTR
003A FD                MOV     R5,A
003B 120000      E     LCALL   _make_point
003E 7800        R     MOV     R0,#LOW p2
0040 7C00        R     MOV     R4,#HIGH p2
0042 7D01              MOV     R5,#01H
0044 7E00              MOV     R6,#00H
0046 7F04              MOV     R7,#04H
0048 120000      E     LCALL   ?C?COPY
                                           ; SOURCE LINE # 309
004B 900000      R     MOV     DPTR,#p+02H
004E E0                MOVX    A,@DPTR
004F FC                MOV     R4,A
0050 A3                INC     DPTR
0051 E0                MOVX    A,@DPTR
0052 FD                MOV     R5,A
0053 A3                INC     DPTR
0054 E0                MOVX    A,@DPTR
0055 FA                MOV     R2,A
0056 A3                INC     DPTR
0057 E0                MOVX    A,@DPTR
0058 FB                MOV     R3,A
0059 A3                INC     DPTR
005A E0                MOVX    A,@DPTR
005B FF                MOV     R7,A
005C A3                INC     DPTR
005D E0                MOVX    A,@DPTR
005E 900000      E     MOV     DPTR,#?_draw_line?BYTE+06H
0061 CF                XCH     A,R7
0062 F0                MOVX    @DPTR,A
0063 A3                INC     DPTR
0064 EF                MOV     A,R7
0065 F0                MOVX    @DPTR,A
0066 900000      R     MOV     DPTR,#LINE_HIGHT
0069 E4                CLR     A
006A 93                MOVC    A,@A+DPTR
006B 900000      E     MOV     DPTR,#?_draw_line?BYTE+08H
006E F0                MOVX    @DPTR,A
006F A3                INC     DPTR
0070 7407              MOV     A,#07H
0072 F0                MOVX    @DPTR,A
0073 A3                INC     DPTR
0074 74E0              MOV     A,#0E0H
0076 F0                MOVX    @DPTR,A
0077 900000      R     MOV     DPTR,#p
007A E0                MOVX    A,@DPTR
007B FE                MOV     R6,A
007C A3                INC     DPTR
007D E0                MOVX    A,@DPTR
007E FF                MOV     R7,A
007F 120000      E     LCALL   _draw_line
                                           ; SOURCE LINE # 311
0082 900000      R     MOV     DPTR,#p
0085 E0                MOVX    A,@DPTR
0086 FE                MOV     R6,A
0087 A3                INC     DPTR
0088 E0                MOVX    A,@DPTR
0089 FF                MOV     R7,A
008A 7800        R     MOV     R0,#LOW TIME_Y_LEVEL
008C E6                MOV     A,@R0
008D FC                MOV     R4,A
008E 08                INC     R0
C51 COMPILER V9.53.0.0   TEMP                                                              12/01/2023 15:51:08 PAGE 46  

008F E6                MOV     A,@R0
0090 FD                MOV     R5,A
0091 120000      E     LCALL   _make_point
0094 7800        R     MOV     R0,#LOW ?draw_number_centered_on_line?BYTE
0096 7C00        R     MOV     R4,#HIGH ?draw_number_centered_on_line?BYTE
0098 7D01              MOV     R5,#01H
009A 7E00              MOV     R6,#00H
009C 7F04              MOV     R7,#04H
009E 120000      E     LCALL   ?C?COPY
00A1 900000      R     MOV     DPTR,#par+042H
00A4 E0                MOVX    A,@DPTR
00A5 FF                MOV     R7,A
00A6 A3                INC     DPTR
00A7 E0                MOVX    A,@DPTR
00A8 900000      R     MOV     DPTR,#?draw_number_centered_on_line?BYTE+04H
00AB CF                XCH     A,R7
00AC F0                MOVX    @DPTR,A
00AD A3                INC     DPTR
00AE EF                MOV     A,R7
00AF F0                MOVX    @DPTR,A
00B0 A3                INC     DPTR
00B1 7403              MOV     A,#03H
00B3 F0                MOVX    @DPTR,A
00B4 A3                INC     DPTR
00B5 74FF              MOV     A,#0FFH
00B7 F0                MOVX    @DPTR,A
00B8 A3                INC     DPTR
00B9 7400        R     MOV     A,#HIGH ?SC_9
00BB F0                MOVX    @DPTR,A
00BC A3                INC     DPTR
00BD 7400        R     MOV     A,#LOW ?SC_9
00BF F0                MOVX    @DPTR,A
00C0 A3                INC     DPTR
00C1 E4                CLR     A
00C2 F0                MOVX    @DPTR,A
00C3 A3                INC     DPTR
00C4 741E              MOV     A,#01EH
00C6 F0                MOVX    @DPTR,A
00C7 A3                INC     DPTR
00C8 7407              MOV     A,#07H
00CA F0                MOVX    @DPTR,A
00CB A3                INC     DPTR
00CC 74FF              MOV     A,#0FFH
00CE F0                MOVX    @DPTR,A
00CF A3                INC     DPTR
00D0 7421              MOV     A,#021H
00D2 F0                MOVX    @DPTR,A
00D3 120000      R     LCALL   draw_number_centered_on_line
                                           ; SOURCE LINE # 312
00D6 7800        R     MOV     R0,#LOW ?draw_number_centered_on_line?BYTE
00D8 7C00        R     MOV     R4,#HIGH ?draw_number_centered_on_line?BYTE
00DA 7D01              MOV     R5,#01H
00DC 7B01              MOV     R3,#01H
00DE 7A00        R     MOV     R2,#HIGH p
00E0 7900        R     MOV     R1,#LOW p
00E2 7E00              MOV     R6,#00H
00E4 7F04              MOV     R7,#04H
00E6 120000      E     LCALL   ?C?COPY
00E9 900000      R     MOV     DPTR,#par+040H
00EC E0                MOVX    A,@DPTR
00ED FF                MOV     R7,A
00EE A3                INC     DPTR
C51 COMPILER V9.53.0.0   TEMP                                                              12/01/2023 15:51:08 PAGE 47  

00EF E0                MOVX    A,@DPTR
00F0 900000      R     MOV     DPTR,#?draw_number_centered_on_line?BYTE+04H
00F3 CF                XCH     A,R7
00F4 F0                MOVX    @DPTR,A
00F5 A3                INC     DPTR
00F6 EF                MOV     A,R7
00F7 F0                MOVX    @DPTR,A
00F8 E4                CLR     A
00F9 A3                INC     DPTR
00FA F0                MOVX    @DPTR,A
00FB A3                INC     DPTR
00FC 74FF              MOV     A,#0FFH
00FE F0                MOVX    @DPTR,A
00FF A3                INC     DPTR
0100 7400        R     MOV     A,#HIGH ?SC_7
0102 F0                MOVX    @DPTR,A
0103 A3                INC     DPTR
0104 7400        R     MOV     A,#LOW ?SC_7
0106 F0                MOVX    @DPTR,A
0107 7800        R     MOV     R0,#LOW FONT_SIZE
0109 E6                MOV     A,@R0
010A FF                MOV     R7,A
010B 08                INC     R0
010C E6                MOV     A,@R0
010D A3                INC     DPTR
010E CF                XCH     A,R7
010F F0                MOVX    @DPTR,A
0110 A3                INC     DPTR
0111 EF                MOV     A,R7
0112 F0                MOVX    @DPTR,A
0113 A3                INC     DPTR
0114 74FF              MOV     A,#0FFH
0116 F0                MOVX    @DPTR,A
0117 A3                INC     DPTR
0118 74E0              MOV     A,#0E0H
011A F0                MOVX    @DPTR,A
011B A3                INC     DPTR
011C 7420              MOV     A,#020H
011E F0                MOVX    @DPTR,A
011F 120000      R     LCALL   draw_number_centered_on_line
                                           ; SOURCE LINE # 314
0122 7B01              MOV     R3,#01H
0124 7A00        R     MOV     R2,#HIGH p2
0126 7900        R     MOV     R1,#LOW p2
                                           ; SOURCE LINE # 315
0128         ?C0030:
0128 22                RET     
             ; FUNCTION add_i_t_impulse (END)

             ; FUNCTION add_t_down (BEGIN)
                                           ; SOURCE LINE # 317
                                           ; SOURCE LINE # 318
                                           ; SOURCE LINE # 320
0000 7800        R     MOV     R0,#LOW LINE_WIDTH
0002 E6                MOV     A,@R0
0003 FE                MOV     R6,A
0004 08                INC     R0
0005 E6                MOV     A,@R0
0006 FF                MOV     R7,A
0007 900000      R     MOV     DPTR,#p+01H
000A E0                MOVX    A,@DPTR
000B 2F                ADD     A,R7
C51 COMPILER V9.53.0.0   TEMP                                                              12/01/2023 15:51:08 PAGE 48  

000C FF                MOV     R7,A
000D 900000      R     MOV     DPTR,#p
0010 E0                MOVX    A,@DPTR
0011 3E                ADDC    A,R6
0012 FE                MOV     R6,A
0013 900000      R     MOV     DPTR,#LEVEL_HEIGHT
0016 E4                CLR     A
0017 93                MOVC    A,@A+DPTR
0018 FD                MOV     R5,A
0019 900000      R     MOV     DPTR,#p+03H
001C E0                MOVX    A,@DPTR
001D 2D                ADD     A,R5
001E FD                MOV     R5,A
001F 900000      R     MOV     DPTR,#p+02H
0022 E0                MOVX    A,@DPTR
0023 3400              ADDC    A,#00H
0025 FC                MOV     R4,A
0026 120000      E     LCALL   _make_point
0029 7800        R     MOV     R0,#LOW p2
002B 7C00        R     MOV     R4,#HIGH p2
002D 7D01              MOV     R5,#01H
002F 7E00              MOV     R6,#00H
0031 7F04              MOV     R7,#04H
0033 120000      E     LCALL   ?C?COPY
                                           ; SOURCE LINE # 322
0036 900000      R     MOV     DPTR,#p+02H
0039 E0                MOVX    A,@DPTR
003A FC                MOV     R4,A
003B A3                INC     DPTR
003C E0                MOVX    A,@DPTR
003D FD                MOV     R5,A
003E A3                INC     DPTR
003F E0                MOVX    A,@DPTR
0040 FA                MOV     R2,A
0041 A3                INC     DPTR
0042 E0                MOVX    A,@DPTR
0043 FB                MOV     R3,A
0044 A3                INC     DPTR
0045 E0                MOVX    A,@DPTR
0046 FF                MOV     R7,A
0047 A3                INC     DPTR
0048 E0                MOVX    A,@DPTR
0049 900000      E     MOV     DPTR,#?_draw_line?BYTE+06H
004C CF                XCH     A,R7
004D F0                MOVX    @DPTR,A
004E A3                INC     DPTR
004F EF                MOV     A,R7
0050 F0                MOVX    @DPTR,A
0051 900000      R     MOV     DPTR,#LINE_HIGHT
0054 E4                CLR     A
0055 93                MOVC    A,@A+DPTR
0056 900000      E     MOV     DPTR,#?_draw_line?BYTE+08H
0059 F0                MOVX    @DPTR,A
005A A3                INC     DPTR
005B 7407              MOV     A,#07H
005D F0                MOVX    @DPTR,A
005E A3                INC     DPTR
005F 74E0              MOV     A,#0E0H
0061 F0                MOVX    @DPTR,A
0062 900000      R     MOV     DPTR,#p
0065 E0                MOVX    A,@DPTR
0066 FE                MOV     R6,A
C51 COMPILER V9.53.0.0   TEMP                                                              12/01/2023 15:51:08 PAGE 49  

0067 A3                INC     DPTR
0068 E0                MOVX    A,@DPTR
0069 FF                MOV     R7,A
006A 120000      E     LCALL   _draw_line
                                           ; SOURCE LINE # 324
006D 900000      R     MOV     DPTR,#p
0070 E0                MOVX    A,@DPTR
0071 FE                MOV     R6,A
0072 A3                INC     DPTR
0073 E0                MOVX    A,@DPTR
0074 FF                MOV     R7,A
0075 7800        R     MOV     R0,#LOW TIME_Y_LEVEL
0077 E6                MOV     A,@R0
0078 FC                MOV     R4,A
0079 08                INC     R0
007A E6                MOV     A,@R0
007B FD                MOV     R5,A
007C 120000      E     LCALL   _make_point
007F 7800        R     MOV     R0,#LOW ?draw_number_centered_on_line?BYTE
0081 7C00        R     MOV     R4,#HIGH ?draw_number_centered_on_line?BYTE
0083 7D01              MOV     R5,#01H
0085 7E00              MOV     R6,#00H
0087 7F04              MOV     R7,#04H
0089 120000      E     LCALL   ?C?COPY
008C 900000      R     MOV     DPTR,#par+048H
008F E0                MOVX    A,@DPTR
0090 FF                MOV     R7,A
0091 A3                INC     DPTR
0092 E0                MOVX    A,@DPTR
0093 900000      R     MOV     DPTR,#?draw_number_centered_on_line?BYTE+04H
0096 CF                XCH     A,R7
0097 F0                MOVX    @DPTR,A
0098 A3                INC     DPTR
0099 EF                MOV     A,R7
009A F0                MOVX    @DPTR,A
009B A3                INC     DPTR
009C 7401              MOV     A,#01H
009E F0                MOVX    @DPTR,A
009F A3                INC     DPTR
00A0 74FF              MOV     A,#0FFH
00A2 F0                MOVX    @DPTR,A
00A3 A3                INC     DPTR
00A4 7400        R     MOV     A,#HIGH ?SC_5
00A6 F0                MOVX    @DPTR,A
00A7 A3                INC     DPTR
00A8 7400        R     MOV     A,#LOW ?SC_5
00AA F0                MOVX    @DPTR,A
00AB A3                INC     DPTR
00AC E4                CLR     A
00AD F0                MOVX    @DPTR,A
00AE A3                INC     DPTR
00AF 7424              MOV     A,#024H
00B1 F0                MOVX    @DPTR,A
00B2 A3                INC     DPTR
00B3 7407              MOV     A,#07H
00B5 F0                MOVX    @DPTR,A
00B6 A3                INC     DPTR
00B7 74FF              MOV     A,#0FFH
00B9 F0                MOVX    @DPTR,A
00BA A3                INC     DPTR
00BB 7424              MOV     A,#024H
00BD F0                MOVX    @DPTR,A
C51 COMPILER V9.53.0.0   TEMP                                                              12/01/2023 15:51:08 PAGE 50  

00BE 120000      R     LCALL   draw_number_centered_on_line
                                           ; SOURCE LINE # 325
00C1 7B01              MOV     R3,#01H
00C3 7A00        R     MOV     R2,#HIGH p2
00C5 7900        R     MOV     R1,#LOW p2
                                           ; SOURCE LINE # 326
00C7         ?C0031:
00C7 22                RET     
             ; FUNCTION add_t_down (END)

             ; FUNCTION add_end_i_t (BEGIN)
                                           ; SOURCE LINE # 328
                                           ; SOURCE LINE # 329
                                           ; SOURCE LINE # 331
0000 7800        R     MOV     R0,#LOW LINE_WIDTH
0002 E6                MOV     A,@R0
0003 FE                MOV     R6,A
0004 08                INC     R0
0005 E6                MOV     A,@R0
0006 FF                MOV     R7,A
0007 900000      R     MOV     DPTR,#p+01H
000A E0                MOVX    A,@DPTR
000B 2F                ADD     A,R7
000C FF                MOV     R7,A
000D 900000      R     MOV     DPTR,#p
0010 E0                MOVX    A,@DPTR
0011 3E                ADDC    A,R6
0012 FE                MOV     R6,A
0013 900000      R     MOV     DPTR,#p+02H
0016 E0                MOVX    A,@DPTR
0017 FC                MOV     R4,A
0018 A3                INC     DPTR
0019 E0                MOVX    A,@DPTR
001A FD                MOV     R5,A
001B 120000      E     LCALL   _make_point
001E 7800        R     MOV     R0,#LOW p2
0020 7C00        R     MOV     R4,#HIGH p2
0022 7D01              MOV     R5,#01H
0024 7E00              MOV     R6,#00H
0026 7F04              MOV     R7,#04H
0028 120000      E     LCALL   ?C?COPY
                                           ; SOURCE LINE # 333
002B 900000      R     MOV     DPTR,#p+02H
002E E0                MOVX    A,@DPTR
002F FC                MOV     R4,A
0030 A3                INC     DPTR
0031 E0                MOVX    A,@DPTR
0032 FD                MOV     R5,A
0033 A3                INC     DPTR
0034 E0                MOVX    A,@DPTR
0035 FA                MOV     R2,A
0036 A3                INC     DPTR
0037 E0                MOVX    A,@DPTR
0038 FB                MOV     R3,A
0039 A3                INC     DPTR
003A E0                MOVX    A,@DPTR
003B FF                MOV     R7,A
003C A3                INC     DPTR
003D E0                MOVX    A,@DPTR
003E 900000      E     MOV     DPTR,#?_draw_line?BYTE+06H
0041 CF                XCH     A,R7
0042 F0                MOVX    @DPTR,A
C51 COMPILER V9.53.0.0   TEMP                                                              12/01/2023 15:51:08 PAGE 51  

0043 A3                INC     DPTR
0044 EF                MOV     A,R7
0045 F0                MOVX    @DPTR,A
0046 900000      R     MOV     DPTR,#LINE_HIGHT
0049 E4                CLR     A
004A 93                MOVC    A,@A+DPTR
004B 900000      E     MOV     DPTR,#?_draw_line?BYTE+08H
004E F0                MOVX    @DPTR,A
004F A3                INC     DPTR
0050 7407              MOV     A,#07H
0052 F0                MOVX    @DPTR,A
0053 A3                INC     DPTR
0054 74E0              MOV     A,#0E0H
0056 F0                MOVX    @DPTR,A
0057 900000      R     MOV     DPTR,#p
005A E0                MOVX    A,@DPTR
005B FE                MOV     R6,A
005C A3                INC     DPTR
005D E0                MOVX    A,@DPTR
005E FF                MOV     R7,A
005F 120000      E     LCALL   _draw_line
                                           ; SOURCE LINE # 335
0062 900000      R     MOV     DPTR,#p
0065 E0                MOVX    A,@DPTR
0066 FE                MOV     R6,A
0067 A3                INC     DPTR
0068 E0                MOVX    A,@DPTR
0069 FF                MOV     R7,A
006A 7800        R     MOV     R0,#LOW TIME_Y_LEVEL
006C E6                MOV     A,@R0
006D FC                MOV     R4,A
006E 08                INC     R0
006F E6                MOV     A,@R0
0070 FD                MOV     R5,A
0071 120000      E     LCALL   _make_point
0074 7800        R     MOV     R0,#LOW ?draw_number_centered_on_line?BYTE
0076 7C00        R     MOV     R4,#HIGH ?draw_number_centered_on_line?BYTE
0078 7D01              MOV     R5,#01H
007A 7E00              MOV     R6,#00H
007C 7F04              MOV     R7,#04H
007E 120000      E     LCALL   ?C?COPY
0081 900000      R     MOV     DPTR,#par+04CH
0084 E0                MOVX    A,@DPTR
0085 FF                MOV     R7,A
0086 A3                INC     DPTR
0087 E0                MOVX    A,@DPTR
0088 900000      R     MOV     DPTR,#?draw_number_centered_on_line?BYTE+04H
008B CF                XCH     A,R7
008C F0                MOVX    @DPTR,A
008D A3                INC     DPTR
008E EF                MOV     A,R7
008F F0                MOVX    @DPTR,A
0090 A3                INC     DPTR
0091 7401              MOV     A,#01H
0093 F0                MOVX    @DPTR,A
0094 A3                INC     DPTR
0095 74FF              MOV     A,#0FFH
0097 F0                MOVX    @DPTR,A
0098 A3                INC     DPTR
0099 7400        R     MOV     A,#HIGH ?SC_5
009B F0                MOVX    @DPTR,A
009C A3                INC     DPTR
C51 COMPILER V9.53.0.0   TEMP                                                              12/01/2023 15:51:08 PAGE 52  

009D 7400        R     MOV     A,#LOW ?SC_5
009F F0                MOVX    @DPTR,A
00A0 A3                INC     DPTR
00A1 E4                CLR     A
00A2 F0                MOVX    @DPTR,A
00A3 A3                INC     DPTR
00A4 7424              MOV     A,#024H
00A6 F0                MOVX    @DPTR,A
00A7 A3                INC     DPTR
00A8 7407              MOV     A,#07H
00AA F0                MOVX    @DPTR,A
00AB A3                INC     DPTR
00AC 74FF              MOV     A,#0FFH
00AE F0                MOVX    @DPTR,A
00AF A3                INC     DPTR
00B0 7426              MOV     A,#026H
00B2 F0                MOVX    @DPTR,A
00B3 120000      R     LCALL   draw_number_centered_on_line
                                           ; SOURCE LINE # 336
00B6 7800        R     MOV     R0,#LOW ?draw_number_centered_on_line?BYTE
00B8 7C00        R     MOV     R4,#HIGH ?draw_number_centered_on_line?BYTE
00BA 7D01              MOV     R5,#01H
00BC 7B01              MOV     R3,#01H
00BE 7A00        R     MOV     R2,#HIGH p
00C0 7900        R     MOV     R1,#LOW p
00C2 7E00              MOV     R6,#00H
00C4 7F04              MOV     R7,#04H
00C6 120000      E     LCALL   ?C?COPY
00C9 900000      R     MOV     DPTR,#par+04AH
00CC E0                MOVX    A,@DPTR
00CD FF                MOV     R7,A
00CE A3                INC     DPTR
00CF E0                MOVX    A,@DPTR
00D0 900000      R     MOV     DPTR,#?draw_number_centered_on_line?BYTE+04H
00D3 CF                XCH     A,R7
00D4 F0                MOVX    @DPTR,A
00D5 A3                INC     DPTR
00D6 EF                MOV     A,R7
00D7 F0                MOVX    @DPTR,A
00D8 E4                CLR     A
00D9 A3                INC     DPTR
00DA F0                MOVX    @DPTR,A
00DB A3                INC     DPTR
00DC 74FF              MOV     A,#0FFH
00DE F0                MOVX    @DPTR,A
00DF A3                INC     DPTR
00E0 7400        R     MOV     A,#HIGH ?SC_7
00E2 F0                MOVX    @DPTR,A
00E3 A3                INC     DPTR
00E4 7400        R     MOV     A,#LOW ?SC_7
00E6 F0                MOVX    @DPTR,A
00E7 7800        R     MOV     R0,#LOW FONT_SIZE
00E9 E6                MOV     A,@R0
00EA FF                MOV     R7,A
00EB 08                INC     R0
00EC E6                MOV     A,@R0
00ED A3                INC     DPTR
00EE CF                XCH     A,R7
00EF F0                MOVX    @DPTR,A
00F0 A3                INC     DPTR
00F1 EF                MOV     A,R7
00F2 F0                MOVX    @DPTR,A
C51 COMPILER V9.53.0.0   TEMP                                                              12/01/2023 15:51:08 PAGE 53  

00F3 A3                INC     DPTR
00F4 74FF              MOV     A,#0FFH
00F6 F0                MOVX    @DPTR,A
00F7 A3                INC     DPTR
00F8 74E0              MOV     A,#0E0H
00FA F0                MOVX    @DPTR,A
00FB A3                INC     DPTR
00FC 7425              MOV     A,#025H
00FE F0                MOVX    @DPTR,A
00FF 120000      R     LCALL   draw_number_centered_on_line
                                           ; SOURCE LINE # 337
0102 7B01              MOV     R3,#01H
0104 7A00        R     MOV     R2,#HIGH p2
0106 7900        R     MOV     R1,#LOW p2
                                           ; SOURCE LINE # 338
0108         ?C0032:
0108 22                RET     
             ; FUNCTION add_end_i_t (END)

             ; FUNCTION add_t_postflow (BEGIN)
                                           ; SOURCE LINE # 340
                                           ; SOURCE LINE # 341
                                           ; SOURCE LINE # 343
0000 7800        R     MOV     R0,#LOW LINE_WIDTH
0002 E6                MOV     A,@R0
0003 FE                MOV     R6,A
0004 08                INC     R0
0005 E6                MOV     A,@R0
0006 FF                MOV     R7,A
0007 900000      R     MOV     DPTR,#p+01H
000A E0                MOVX    A,@DPTR
000B 2F                ADD     A,R7
000C FF                MOV     R7,A
000D 900000      R     MOV     DPTR,#p
0010 E0                MOVX    A,@DPTR
0011 3E                ADDC    A,R6
0012 FE                MOV     R6,A
0013 900000      R     MOV     DPTR,#p+02H
0016 E0                MOVX    A,@DPTR
0017 FC                MOV     R4,A
0018 A3                INC     DPTR
0019 E0                MOVX    A,@DPTR
001A FD                MOV     R5,A
001B 120000      E     LCALL   _make_point
001E 7800        R     MOV     R0,#LOW p2
0020 7C00        R     MOV     R4,#HIGH p2
0022 7D01              MOV     R5,#01H
0024 7E00              MOV     R6,#00H
0026 7F04              MOV     R7,#04H
0028 120000      E     LCALL   ?C?COPY
                                           ; SOURCE LINE # 345
002B 900000      R     MOV     DPTR,#p+02H
002E E0                MOVX    A,@DPTR
002F FC                MOV     R4,A
0030 A3                INC     DPTR
0031 E0                MOVX    A,@DPTR
0032 FD                MOV     R5,A
0033 A3                INC     DPTR
0034 E0                MOVX    A,@DPTR
0035 FA                MOV     R2,A
0036 A3                INC     DPTR
0037 E0                MOVX    A,@DPTR
C51 COMPILER V9.53.0.0   TEMP                                                              12/01/2023 15:51:08 PAGE 54  

0038 FB                MOV     R3,A
0039 A3                INC     DPTR
003A E0                MOVX    A,@DPTR
003B FF                MOV     R7,A
003C A3                INC     DPTR
003D E0                MOVX    A,@DPTR
003E 900000      E     MOV     DPTR,#?_draw_line?BYTE+06H
0041 CF                XCH     A,R7
0042 F0                MOVX    @DPTR,A
0043 A3                INC     DPTR
0044 EF                MOV     A,R7
0045 F0                MOVX    @DPTR,A
0046 900000      R     MOV     DPTR,#LINE_HIGHT
0049 E4                CLR     A
004A 93                MOVC    A,@A+DPTR
004B 900000      E     MOV     DPTR,#?_draw_line?BYTE+08H
004E F0                MOVX    @DPTR,A
004F A3                INC     DPTR
0050 7407              MOV     A,#07H
0052 F0                MOVX    @DPTR,A
0053 A3                INC     DPTR
0054 74E0              MOV     A,#0E0H
0056 F0                MOVX    @DPTR,A
0057 900000      R     MOV     DPTR,#p
005A E0                MOVX    A,@DPTR
005B FE                MOV     R6,A
005C A3                INC     DPTR
005D E0                MOVX    A,@DPTR
005E FF                MOV     R7,A
005F 120000      E     LCALL   _draw_line
                                           ; SOURCE LINE # 347
0062 900000      R     MOV     DPTR,#p
0065 E0                MOVX    A,@DPTR
0066 FE                MOV     R6,A
0067 A3                INC     DPTR
0068 E0                MOVX    A,@DPTR
0069 FF                MOV     R7,A
006A 7800        R     MOV     R0,#LOW TIME_Y_LEVEL
006C E6                MOV     A,@R0
006D FC                MOV     R4,A
006E 08                INC     R0
006F E6                MOV     A,@R0
0070 FD                MOV     R5,A
0071 120000      E     LCALL   _make_point
0074 7800        R     MOV     R0,#LOW ?draw_number_centered_on_line?BYTE
0076 7C00        R     MOV     R4,#HIGH ?draw_number_centered_on_line?BYTE
0078 7D01              MOV     R5,#01H
007A 7E00              MOV     R6,#00H
007C 7F04              MOV     R7,#04H
007E 120000      E     LCALL   ?C?COPY
0081 900000      R     MOV     DPTR,#par+04EH
0084 E0                MOVX    A,@DPTR
0085 FF                MOV     R7,A
0086 A3                INC     DPTR
0087 E0                MOVX    A,@DPTR
0088 900000      R     MOV     DPTR,#?draw_number_centered_on_line?BYTE+04H
008B CF                XCH     A,R7
008C F0                MOVX    @DPTR,A
008D A3                INC     DPTR
008E EF                MOV     A,R7
008F F0                MOVX    @DPTR,A
0090 E4                CLR     A
C51 COMPILER V9.53.0.0   TEMP                                                              12/01/2023 15:51:08 PAGE 55  

0091 A3                INC     DPTR
0092 F0                MOVX    @DPTR,A
0093 A3                INC     DPTR
0094 74FF              MOV     A,#0FFH
0096 F0                MOVX    @DPTR,A
0097 A3                INC     DPTR
0098 7400        R     MOV     A,#HIGH ?SC_5
009A F0                MOVX    @DPTR,A
009B A3                INC     DPTR
009C 7400        R     MOV     A,#LOW ?SC_5
009E F0                MOVX    @DPTR,A
009F A3                INC     DPTR
00A0 E4                CLR     A
00A1 F0                MOVX    @DPTR,A
00A2 A3                INC     DPTR
00A3 7424              MOV     A,#024H
00A5 F0                MOVX    @DPTR,A
00A6 A3                INC     DPTR
00A7 7407              MOV     A,#07H
00A9 F0                MOVX    @DPTR,A
00AA A3                INC     DPTR
00AB 74FF              MOV     A,#0FFH
00AD F0                MOVX    @DPTR,A
00AE A3                INC     DPTR
00AF 7427              MOV     A,#027H
00B1 F0                MOVX    @DPTR,A
00B2 120000      R     LCALL   draw_number_centered_on_line
                                           ; SOURCE LINE # 348
00B5 7B01              MOV     R3,#01H
00B7 7A00        R     MOV     R2,#HIGH p2
00B9 7900        R     MOV     R1,#LOW p2
                                           ; SOURCE LINE # 349
00BB         ?C0033:
00BB 22                RET     
             ; FUNCTION add_t_postflow (END)

             ; FUNCTION add_i_kz (BEGIN)
                                           ; SOURCE LINE # 352
                                           ; SOURCE LINE # 353
                                           ; SOURCE LINE # 355
0000 7800        R     MOV     R0,#LOW LINE_WIDTH
0002 E6                MOV     A,@R0
0003 FE                MOV     R6,A
0004 08                INC     R0
0005 E6                MOV     A,@R0
0006 FF                MOV     R7,A
0007 900000      R     MOV     DPTR,#p+01H
000A E0                MOVX    A,@DPTR
000B 2F                ADD     A,R7
000C FF                MOV     R7,A
000D 900000      R     MOV     DPTR,#p
0010 E0                MOVX    A,@DPTR
0011 3E                ADDC    A,R6
0012 FE                MOV     R6,A
0013 900000      R     MOV     DPTR,#LEVEL_HEIGHT
0016 E4                CLR     A
0017 93                MOVC    A,@A+DPTR
0018 FD                MOV     R5,A
0019 C3                CLR     C
001A 900000      R     MOV     DPTR,#p+03H
001D E0                MOVX    A,@DPTR
001E 9D                SUBB    A,R5
C51 COMPILER V9.53.0.0   TEMP                                                              12/01/2023 15:51:08 PAGE 56  

001F FD                MOV     R5,A
0020 900000      R     MOV     DPTR,#p+02H
0023 E0                MOVX    A,@DPTR
0024 9400              SUBB    A,#00H
0026 FC                MOV     R4,A
0027 120000      E     LCALL   _make_point
002A 7800        R     MOV     R0,#LOW p2
002C 7C00        R     MOV     R4,#HIGH p2
002E 7D01              MOV     R5,#01H
0030 7E00              MOV     R6,#00H
0032 7F04              MOV     R7,#04H
0034 120000      E     LCALL   ?C?COPY
                                           ; SOURCE LINE # 356
0037 900000      R     MOV     DPTR,#p+02H
003A E0                MOVX    A,@DPTR
003B FC                MOV     R4,A
003C A3                INC     DPTR
003D E0                MOVX    A,@DPTR
003E FD                MOV     R5,A
003F A3                INC     DPTR
0040 E0                MOVX    A,@DPTR
0041 FA                MOV     R2,A
0042 A3                INC     DPTR
0043 E0                MOVX    A,@DPTR
0044 FB                MOV     R3,A
0045 A3                INC     DPTR
0046 E0                MOVX    A,@DPTR
0047 FF                MOV     R7,A
0048 A3                INC     DPTR
0049 E0                MOVX    A,@DPTR
004A 900000      E     MOV     DPTR,#?_draw_line?BYTE+06H
004D CF                XCH     A,R7
004E F0                MOVX    @DPTR,A
004F A3                INC     DPTR
0050 EF                MOV     A,R7
0051 F0                MOVX    @DPTR,A
0052 900000      R     MOV     DPTR,#LINE_HIGHT
0055 E4                CLR     A
0056 93                MOVC    A,@A+DPTR
0057 900000      E     MOV     DPTR,#?_draw_line?BYTE+08H
005A F0                MOVX    @DPTR,A
005B A3                INC     DPTR
005C 7407              MOV     A,#07H
005E F0                MOVX    @DPTR,A
005F A3                INC     DPTR
0060 74E0              MOV     A,#0E0H
0062 F0                MOVX    @DPTR,A
0063 900000      R     MOV     DPTR,#p
0066 E0                MOVX    A,@DPTR
0067 FE                MOV     R6,A
0068 A3                INC     DPTR
0069 E0                MOVX    A,@DPTR
006A FF                MOV     R7,A
006B 120000      E     LCALL   _draw_line
                                           ; SOURCE LINE # 358
006E 900000      R     MOV     DPTR,#p
0071 E0                MOVX    A,@DPTR
0072 FE                MOV     R6,A
0073 A3                INC     DPTR
0074 E0                MOVX    A,@DPTR
0075 FF                MOV     R7,A
0076 900000      R     MOV     DPTR,#p2+02H
C51 COMPILER V9.53.0.0   TEMP                                                              12/01/2023 15:51:08 PAGE 57  

0079 E0                MOVX    A,@DPTR
007A FC                MOV     R4,A
007B A3                INC     DPTR
007C E0                MOVX    A,@DPTR
007D FD                MOV     R5,A
007E 120000      E     LCALL   _make_point
0081 7800        R     MOV     R0,#LOW ?draw_number_centered_on_line?BYTE
0083 7C00        R     MOV     R4,#HIGH ?draw_number_centered_on_line?BYTE
0085 7D01              MOV     R5,#01H
0087 7E00              MOV     R6,#00H
0089 7F04              MOV     R7,#04H
008B 120000      E     LCALL   ?C?COPY
008E 900000      R     MOV     DPTR,#par+050H
0091 E0                MOVX    A,@DPTR
0092 FF                MOV     R7,A
0093 A3                INC     DPTR
0094 E0                MOVX    A,@DPTR
0095 900000      R     MOV     DPTR,#?draw_number_centered_on_line?BYTE+04H
0098 CF                XCH     A,R7
0099 F0                MOVX    @DPTR,A
009A A3                INC     DPTR
009B EF                MOV     A,R7
009C F0                MOVX    @DPTR,A
009D E4                CLR     A
009E A3                INC     DPTR
009F F0                MOVX    @DPTR,A
00A0 A3                INC     DPTR
00A1 74FF              MOV     A,#0FFH
00A3 F0                MOVX    @DPTR,A
00A4 A3                INC     DPTR
00A5 7400        R     MOV     A,#HIGH ?SC_12
00A7 F0                MOVX    @DPTR,A
00A8 A3                INC     DPTR
00A9 7400        R     MOV     A,#LOW ?SC_12
00AB F0                MOVX    @DPTR,A
00AC 7800        R     MOV     R0,#LOW FONT_SIZE
00AE E6                MOV     A,@R0
00AF FF                MOV     R7,A
00B0 08                INC     R0
00B1 E6                MOV     A,@R0
00B2 A3                INC     DPTR
00B3 CF                XCH     A,R7
00B4 F0                MOVX    @DPTR,A
00B5 A3                INC     DPTR
00B6 EF                MOV     A,R7
00B7 F0                MOVX    @DPTR,A
00B8 A3                INC     DPTR
00B9 74FF              MOV     A,#0FFH
00BB F0                MOVX    @DPTR,A
00BC A3                INC     DPTR
00BD 74E0              MOV     A,#0E0H
00BF F0                MOVX    @DPTR,A
00C0 A3                INC     DPTR
00C1 7428              MOV     A,#028H
00C3 F0                MOVX    @DPTR,A
00C4 120000      R     LCALL   draw_number_centered_on_line
                                           ; SOURCE LINE # 359
00C7 7B01              MOV     R3,#01H
00C9 7A00        R     MOV     R2,#HIGH p2
00CB 7900        R     MOV     R1,#LOW p2
                                           ; SOURCE LINE # 360
00CD         ?C0034:
C51 COMPILER V9.53.0.0   TEMP                                                              12/01/2023 15:51:08 PAGE 58  

00CD 22                RET     
             ; FUNCTION add_i_kz (END)

             ; FUNCTION make_bottom_menu (BEGIN)
                                           ; SOURCE LINE # 367
                                           ; SOURCE LINE # 368
                                           ; SOURCE LINE # 369
0000 E4                CLR     A
0001 900000      R     MOV     DPTR,#cur_menu_size
0004 F0                MOVX    @DPTR,A
                                           ; SOURCE LINE # 370
                                           ; SOURCE LINE # 373
0005 900000      R     MOV     DPTR,#start_x
0008 F0                MOVX    @DPTR,A
0009 A3                INC     DPTR
000A F0                MOVX    @DPTR,A
                                           ; SOURCE LINE # 374
000B 900000      R     MOV     DPTR,#ICON_RECT_SZ
000E 93                MOVC    A,@A+DPTR
000F FE                MOV     R6,A
0010 7401              MOV     A,#01H
0012 93                MOVC    A,@A+DPTR
0013 FF                MOV     R7,A
0014 C3                CLR     C
0015 7420              MOV     A,#020H
0017 9F                SUBB    A,R7
0018 900000      R     MOV     DPTR,#start_y+01H
001B F0                MOVX    @DPTR,A
001C 7403              MOV     A,#03H
001E 9E                SUBB    A,R6
001F 900000      R     MOV     DPTR,#start_y
0022 F0                MOVX    @DPTR,A
                                           ; SOURCE LINE # 375
0023 7800        R     MOV     R0,#LOW main_menu_bm
0025 120000      E     LCALL   ?C?LLDIDATA
0028 900000      R     MOV     DPTR,#id_bm
002B 120000      E     LCALL   ?C?LSTXDATA
                                           ; SOURCE LINE # 376
002E E4                CLR     A
002F 900000      R     MOV     DPTR,#id
0032 F0                MOVX    @DPTR,A
                                           ; SOURCE LINE # 377
0033 900000      R     MOV     DPTR,#i
0036 F0                MOVX    @DPTR,A
0037         ?C0035:
                                           ; SOURCE LINE # 378
0037 E4                CLR     A
0038 FF                MOV     R7,A
0039 FE                MOV     R6,A
003A FD                MOV     R5,A
003B FC                MOV     R4,A
003C 900000      R     MOV     DPTR,#id_bm
003F E0                MOVX    A,@DPTR
0040 F8                MOV     R0,A
0041 A3                INC     DPTR
0042 E0                MOVX    A,@DPTR
0043 F9                MOV     R1,A
0044 A3                INC     DPTR
0045 E0                MOVX    A,@DPTR
0046 FA                MOV     R2,A
0047 A3                INC     DPTR
0048 E0                MOVX    A,@DPTR
C51 COMPILER V9.53.0.0   TEMP                                                              12/01/2023 15:51:08 PAGE 59  

0049 FB                MOV     R3,A
004A C3                CLR     C
004B 120000      E     LCALL   ?C?ULCMP
004E 7003              JNZ     $ + 5H
0050 020000      R     LJMP    ?C0036
                                           ; SOURCE LINE # 379
0053 900000      R     MOV     DPTR,#id_bm
0056 A3                INC     DPTR
0057 A3                INC     DPTR
0058 A3                INC     DPTR
0059 E0                MOVX    A,@DPTR
005A 5401              ANL     A,#01H
005C FF                MOV     R7,A
005D EF                MOV     A,R7
005E 7003              JNZ     $ + 5H
0060 020000      R     LJMP    ?C0037
                                           ; SOURCE LINE # 380
0063 900000      R     MOV     DPTR,#start_y
0066 E0                MOVX    A,@DPTR
0067 FC                MOV     R4,A
0068 A3                INC     DPTR
0069 E0                MOVX    A,@DPTR
006A FD                MOV     R5,A
006B 900000      R     MOV     DPTR,#ICON_RECT_SZ
006E E4                CLR     A
006F 93                MOVC    A,@A+DPTR
0070 FE                MOV     R6,A
0071 7401              MOV     A,#01H
0073 93                MOVC    A,@A+DPTR
0074 FF                MOV     R7,A
0075 900000      R     MOV     DPTR,#start_x
0078 E0                MOVX    A,@DPTR
0079 FA                MOV     R2,A
007A A3                INC     DPTR
007B E0                MOVX    A,@DPTR
007C 2F                ADD     A,R7
007D FB                MOV     R3,A
007E EA                MOV     A,R2
007F 3E                ADDC    A,R6
0080 FA                MOV     R2,A
0081 900000      R     MOV     DPTR,#start_y
0084 E0                MOVX    A,@DPTR
0085 F8                MOV     R0,A
0086 A3                INC     DPTR
0087 E0                MOVX    A,@DPTR
0088 2F                ADD     A,R7
0089 FF                MOV     R7,A
008A E8                MOV     A,R0
008B 3E                ADDC    A,R6
008C 900000      R     MOV     DPTR,#?_add_touch_place?BYTE+06H
008F F0                MOVX    @DPTR,A
0090 A3                INC     DPTR
0091 EF                MOV     A,R7
0092 F0                MOVX    @DPTR,A
0093 900000      R     MOV     DPTR,#id
0096 120000      R     LCALL   L?0122
                                           ; SOURCE LINE # 381
0099 900000      R     MOV     DPTR,#i
009C E0                MOVX    A,@DPTR
009D 25E0              ADD     A,ACC
009F 2400        R     ADD     A,#LOW icon_sp_bottom_menu
00A1 F582              MOV     DPL,A
C51 COMPILER V9.53.0.0   TEMP                                                              12/01/2023 15:51:08 PAGE 60  

00A3 E4                CLR     A
00A4 3400        R     ADDC    A,#HIGH icon_sp_bottom_menu
00A6 F583              MOV     DPH,A
00A8 E0                MOVX    A,@DPTR
00A9 FE                MOV     R6,A
00AA A3                INC     DPTR
00AB E0                MOVX    A,@DPTR
00AC FF                MOV     R7,A
00AD 900000      R     MOV     DPTR,#id
00B0 E0                MOVX    A,@DPTR
00B1 FD                MOV     R5,A
00B2 7C00              MOV     R4,#00H
00B4 120000      E     LCALL   _image_change_id
                                           ; SOURCE LINE # 382
00B7 900000      R     MOV     DPTR,#i
00BA E0                MOVX    A,@DPTR
00BB 25E0              ADD     A,ACC
00BD 2400        R     ADD     A,#LOW icon_sp_bottom_menu
00BF F582              MOV     DPL,A
00C1 E4                CLR     A
00C2 3400        R     ADDC    A,#HIGH icon_sp_bottom_menu
00C4 F583              MOV     DPH,A
00C6 E0                MOVX    A,@DPTR
00C7 FE                MOV     R6,A
00C8 A3                INC     DPTR
00C9 E0                MOVX    A,@DPTR
00CA FF                MOV     R7,A
00CB C006              PUSH    AR6
00CD C007              PUSH    AR7
00CF 900000      R     MOV     DPTR,#start_x
00D2 E0                MOVX    A,@DPTR
00D3 FE                MOV     R6,A
00D4 A3                INC     DPTR
00D5 E0                MOVX    A,@DPTR
00D6 FF                MOV     R7,A
00D7 A3                INC     DPTR
00D8 E0                MOVX    A,@DPTR
00D9 FC                MOV     R4,A
00DA A3                INC     DPTR
00DB E0                MOVX    A,@DPTR
00DC FD                MOV     R5,A
00DD 120000      E     LCALL   _make_point
00E0 7800        E     MOV     R0,#LOW ?_image_change_pos?BYTE+02H
00E2 7C00        E     MOV     R4,#HIGH ?_image_change_pos?BYTE+02H
00E4 7D01              MOV     R5,#01H
00E6 7E00              MOV     R6,#00H
00E8 7F04              MOV     R7,#04H
00EA 120000      E     LCALL   ?C?COPY
00ED D007              POP     AR7
00EF D006              POP     AR6
00F1 120000      E     LCALL   _image_change_pos
                                           ; SOURCE LINE # 383
00F4 900000      R     MOV     DPTR,#ICON_RECT_SZ
00F7 E4                CLR     A
00F8 93                MOVC    A,@A+DPTR
00F9 FE                MOV     R6,A
00FA 7401              MOV     A,#01H
00FC 93                MOVC    A,@A+DPTR
00FD FF                MOV     R7,A
00FE 900000      R     MOV     DPTR,#start_x+01H
0101 E0                MOVX    A,@DPTR
0102 2F                ADD     A,R7
C51 COMPILER V9.53.0.0   TEMP                                                              12/01/2023 15:51:08 PAGE 61  

0103 F0                MOVX    @DPTR,A
0104 900000      R     MOV     DPTR,#start_x
0107 E0                MOVX    A,@DPTR
0108 3E                ADDC    A,R6
0109 F0                MOVX    @DPTR,A
                                           ; SOURCE LINE # 384
010A 900000      R     MOV     DPTR,#i
010D E0                MOVX    A,@DPTR
010E 04                INC     A
010F F0                MOVX    @DPTR,A
                                           ; SOURCE LINE # 385
0110         ?C0037:
                                           ; SOURCE LINE # 386
0110 900000      R     MOV     DPTR,#id_bm
0113 E0                MOVX    A,@DPTR
0114 FC                MOV     R4,A
0115 A3                INC     DPTR
0116 E0                MOVX    A,@DPTR
0117 FD                MOV     R5,A
0118 A3                INC     DPTR
0119 E0                MOVX    A,@DPTR
011A FE                MOV     R6,A
011B A3                INC     DPTR
011C E0                MOVX    A,@DPTR
011D FF                MOV     R7,A
011E 7801              MOV     R0,#01H
0120 120000      E     LCALL   ?C?ULSHR
0123 900000      R     MOV     DPTR,#id_bm
0126 120000      E     LCALL   ?C?LSTXDATA
                                           ; SOURCE LINE # 387
0129 900000      R     MOV     DPTR,#id
012C E0                MOVX    A,@DPTR
012D 04                INC     A
012E F0                MOVX    @DPTR,A
                                           ; SOURCE LINE # 388
012F 020000      R     LJMP    ?C0035
0132         ?C0036:
                                           ; SOURCE LINE # 390
0132 900000      R     MOV     DPTR,#start_y
0135 E0                MOVX    A,@DPTR
0136 FC                MOV     R4,A
0137 A3                INC     DPTR
0138 E0                MOVX    A,@DPTR
0139 FD                MOV     R5,A
013A 900000      R     MOV     DPTR,#ICON_RECT_SZ
013D E4                CLR     A
013E 93                MOVC    A,@A+DPTR
013F FE                MOV     R6,A
0140 7401              MOV     A,#01H
0142 93                MOVC    A,@A+DPTR
0143 FF                MOV     R7,A
0144 120000      R     LCALL   L?0121
                                           ; SOURCE LINE # 392
0147 900000      R     MOV     DPTR,#ICON_RECT_SZ
014A E4                CLR     A
014B 93                MOVC    A,@A+DPTR
014C FE                MOV     R6,A
014D 7401              MOV     A,#01H
014F 93                MOVC    A,@A+DPTR
0150 FF                MOV     R7,A
0151 900000      R     MOV     DPTR,#start_x+01H
0154 E0                MOVX    A,@DPTR
C51 COMPILER V9.53.0.0   TEMP                                                              12/01/2023 15:51:08 PAGE 62  

0155 2F                ADD     A,R7
0156 F0                MOVX    @DPTR,A
0157 900000      R     MOV     DPTR,#start_x
015A E0                MOVX    A,@DPTR
015B 3E                ADDC    A,R6
015C F0                MOVX    @DPTR,A
                                           ; SOURCE LINE # 393
015D 900000      R     MOV     DPTR,#start_y
0160 E0                MOVX    A,@DPTR
0161 FC                MOV     R4,A
0162 A3                INC     DPTR
0163 E0                MOVX    A,@DPTR
0164 FD                MOV     R5,A
0165 120000      R     LCALL   L?0121
                                           ; SOURCE LINE # 394
0168 900000      R     MOV     DPTR,#i
016B E0                MOVX    A,@DPTR
016C 25E0              ADD     A,ACC
016E 2400        R     ADD     A,#LOW icon_sp_bottom_menu
0170 F582              MOV     DPL,A
0172 E4                CLR     A
0173 3400        R     ADDC    A,#HIGH icon_sp_bottom_menu
0175 F583              MOV     DPH,A
0177 E0                MOVX    A,@DPTR
0178 FE                MOV     R6,A
0179 A3                INC     DPTR
017A E0                MOVX    A,@DPTR
017B FF                MOV     R7,A
017C E4                CLR     A
017D FD                MOV     R5,A
017E FC                MOV     R4,A
017F 120000      E     LCALL   _image_change_id
                                           ; SOURCE LINE # 395
0182 900000      R     MOV     DPTR,#i
0185 E0                MOVX    A,@DPTR
0186 25E0              ADD     A,ACC
0188 2400        R     ADD     A,#LOW icon_sp_bottom_menu
018A F582              MOV     DPL,A
018C E4                CLR     A
018D 3400        R     ADDC    A,#HIGH icon_sp_bottom_menu
018F F583              MOV     DPH,A
0191 E0                MOVX    A,@DPTR
0192 FE                MOV     R6,A
0193 A3                INC     DPTR
0194 E0                MOVX    A,@DPTR
0195 FF                MOV     R7,A
0196 C006              PUSH    AR6
0198 C007              PUSH    AR7
019A 900000      R     MOV     DPTR,#start_x
019D E0                MOVX    A,@DPTR
019E FE                MOV     R6,A
019F A3                INC     DPTR
01A0 E0                MOVX    A,@DPTR
01A1 FF                MOV     R7,A
01A2 A3                INC     DPTR
01A3 E0                MOVX    A,@DPTR
01A4 FC                MOV     R4,A
01A5 A3                INC     DPTR
01A6 E0                MOVX    A,@DPTR
01A7 FD                MOV     R5,A
01A8 120000      E     LCALL   _make_point
01AB 7800        E     MOV     R0,#LOW ?_image_change_pos?BYTE+02H
C51 COMPILER V9.53.0.0   TEMP                                                              12/01/2023 15:51:08 PAGE 63  

01AD 7C00        E     MOV     R4,#HIGH ?_image_change_pos?BYTE+02H
01AF 7D01              MOV     R5,#01H
01B1 7E00              MOV     R6,#00H
01B3 7F04              MOV     R7,#04H
01B5 120000      E     LCALL   ?C?COPY
01B8 D007              POP     AR7
01BA D006              POP     AR6
01BC 120000      E     LCALL   _image_change_pos
                                           ; SOURCE LINE # 397
01BF E4                CLR     A
01C0 900000      R     MOV     DPTR,#i
01C3 F0                MOVX    @DPTR,A
01C4         ?C0038:
                                           ; SOURCE LINE # 398
01C4 E4                CLR     A
01C5 900000      R     MOV     DPTR,#?_add_touch_place?BYTE+06H
01C8 F0                MOVX    @DPTR,A
01C9 A3                INC     DPTR
01CA F0                MOVX    @DPTR,A
01CB A3                INC     DPTR
01CC F0                MOVX    @DPTR,A
01CD FB                MOV     R3,A
01CE FA                MOV     R2,A
01CF FD                MOV     R5,A
01D0 FC                MOV     R4,A
01D1 FF                MOV     R7,A
01D2 FE                MOV     R6,A
01D3 120000      R     LCALL   _add_touch_place
                                           ; SOURCE LINE # 399
01D6 900000      R     MOV     DPTR,#i
01D9 E0                MOVX    A,@DPTR
01DA 04                INC     A
01DB F0                MOVX    @DPTR,A
01DC E0                MOVX    A,@DPTR
01DD C3                CLR     C
01DE 9406              SUBB    A,#06H
01E0 40E2              JC      ?C0038
01E2         ?C0039:
                                           ; SOURCE LINE # 401
01E2 900000      R     MOV     DPTR,#_cur_menu_fanc
01E5 74FF              MOV     A,#0FFH
01E7 F0                MOVX    @DPTR,A
01E8 A3                INC     DPTR
01E9 7400        R     MOV     A,#HIGH _bottom_level_controls
01EB F0                MOVX    @DPTR,A
01EC A3                INC     DPTR
01ED 7400        R     MOV     A,#LOW _bottom_level_controls
01EF F0                MOVX    @DPTR,A
                                           ; SOURCE LINE # 402
                                           ; SOURCE LINE # 403
01F0 22                RET     
             ; FUNCTION make_bottom_menu (END)

             ; FUNCTION _bottom_level_controls (BEGIN)
                                           ; SOURCE LINE # 409
0000 900000      R     MOV     DPTR,#item_pos
0003 EF                MOV     A,R7
0004 F0                MOVX    @DPTR,A
                                           ; SOURCE LINE # 410
                                           ; SOURCE LINE # 411
0005 A3                INC     DPTR
0006 120000      E     LCALL   ?C?LSTKXDATA
C51 COMPILER V9.53.0.0   TEMP                                                              12/01/2023 15:51:08 PAGE 64  

0009 00                DB      00H
000A 00                DB      00H
000B 00                DB      00H
000C 00                DB      00H
                                           ; SOURCE LINE # 418
000D 900000      R     MOV     DPTR,#i
0010 740A              MOV     A,#0AH
0012 F0                MOVX    @DPTR,A
0013         ?C0042:
0013 900000      R     MOV     DPTR,#i
0016 E0                MOVX    A,@DPTR
0017 FF                MOV     R7,A
0018 C3                CLR     C
0019 9410              SUBB    A,#010H
001B 5070              JNC     ?C0043
                                           ; SOURCE LINE # 419
001D EF                MOV     A,R7
001E 25E0              ADD     A,ACC
0020 2400        R     ADD     A,#LOW icon_sp_bottom_menu
0022 F582              MOV     DPL,A
0024 E4                CLR     A
0025 3400        R     ADDC    A,#HIGH icon_sp_bottom_menu
0027 F583              MOV     DPH,A
0029 E0                MOVX    A,@DPTR
002A FE                MOV     R6,A
002B A3                INC     DPTR
002C E0                MOVX    A,@DPTR
002D FF                MOV     R7,A
002E 74FF              MOV     A,#0FFH
0030 FD                MOV     R5,A
0031 FC                MOV     R4,A
0032 120000      E     LCALL   _image_change_id
                                           ; SOURCE LINE # 420
0035 900000      R     MOV     DPTR,#i
0038 E0                MOVX    A,@DPTR
0039 FF                MOV     R7,A
003A 75F009            MOV     B,#09H
003D A4                MUL     AB
003E 2400        R     ADD     A,#LOW cur_menu+01H
0040 F582              MOV     DPL,A
0042 E5F0              MOV     A,B
0044 3400        R     ADDC    A,#HIGH cur_menu+01H
0046 F583              MOV     DPH,A
0048 E4                CLR     A
0049 F0                MOVX    @DPTR,A
004A A3                INC     DPTR
004B F0                MOVX    @DPTR,A
                                           ; SOURCE LINE # 421
004C 75F009            MOV     B,#09H
004F EF                MOV     A,R7
0050 A4                MUL     AB
0051 2400        R     ADD     A,#LOW cur_menu+03H
0053 F582              MOV     DPL,A
0055 E5F0              MOV     A,B
0057 3400        R     ADDC    A,#HIGH cur_menu+03H
0059 F583              MOV     DPH,A
005B E4                CLR     A
005C F0                MOVX    @DPTR,A
005D A3                INC     DPTR
005E F0                MOVX    @DPTR,A
                                           ; SOURCE LINE # 422
005F 75F009            MOV     B,#09H
C51 COMPILER V9.53.0.0   TEMP                                                              12/01/2023 15:51:08 PAGE 65  

0062 EF                MOV     A,R7
0063 A4                MUL     AB
0064 2400        R     ADD     A,#LOW cur_menu+05H
0066 F582              MOV     DPL,A
0068 E5F0              MOV     A,B
006A 3400        R     ADDC    A,#HIGH cur_menu+05H
006C F583              MOV     DPH,A
006E E4                CLR     A
006F F0                MOVX    @DPTR,A
0070 A3                INC     DPTR
0071 F0                MOVX    @DPTR,A
                                           ; SOURCE LINE # 423
0072 75F009            MOV     B,#09H
0075 EF                MOV     A,R7
0076 A4                MUL     AB
0077 2400        R     ADD     A,#LOW cur_menu+07H
0079 F582              MOV     DPL,A
007B E5F0              MOV     A,B
007D 3400        R     ADDC    A,#HIGH cur_menu+07H
007F F583              MOV     DPH,A
0081 E4                CLR     A
0082 F0                MOVX    @DPTR,A
0083 A3                INC     DPTR
0084 F0                MOVX    @DPTR,A
                                           ; SOURCE LINE # 424
0085 900000      R     MOV     DPTR,#i
0088 E0                MOVX    A,@DPTR
0089 04                INC     A
008A F0                MOVX    @DPTR,A
008B 8086              SJMP    ?C0042
008D         ?C0043:
                                           ; SOURCE LINE # 426
008D 900000      R     MOV     DPTR,#item_pos
0090 E0                MOVX    A,@DPTR
0091 C3                CLR     C
0092 9408              SUBB    A,#08H
0094 4003              JC      $ + 5H
0096 020000      R     LJMP    ?C0045
                                           ; SOURCE LINE # 427
0099 E4                CLR     A
009A 900000      R     MOV     DPTR,#i
009D F0                MOVX    @DPTR,A
009E         ?C0046:
009E 900000      R     MOV     DPTR,#i
00A1 E0                MOVX    A,@DPTR
00A2 FB                MOV     R3,A
00A3 C3                CLR     C
00A4 9408              SUBB    A,#08H
00A6 4003              JC      $ + 5H
00A8 020000      R     LJMP    ?C0056
                                           ; SOURCE LINE # 428
00AB E4                CLR     A
00AC 7F01              MOV     R7,#01H
00AE FE                MOV     R6,A
00AF FD                MOV     R5,A
00B0 FC                MOV     R4,A
00B1 900000      R     MOV     DPTR,#item_pos
00B4 E0                MOVX    A,@DPTR
00B5 75F009            MOV     B,#09H
00B8 A4                MUL     AB
00B9 2400        R     ADD     A,#LOW cur_menu
00BB F582              MOV     DPL,A
C51 COMPILER V9.53.0.0   TEMP                                                              12/01/2023 15:51:08 PAGE 66  

00BD E5F0              MOV     A,B
00BF 3400        R     ADDC    A,#HIGH cur_menu
00C1 F583              MOV     DPH,A
00C3 E0                MOVX    A,@DPTR
00C4 F9                MOV     R1,A
00C5 F8                MOV     R0,A
00C6 120000      E     LCALL   ?C?LSHL
00C9 EB                MOV     A,R3
00CA 25E0              ADD     A,ACC
00CC 25E0              ADD     A,ACC
00CE 2400        R     ADD     A,#LOW menu_item_bm
00D0 F582              MOV     DPL,A
00D2 E4                CLR     A
00D3 3400        R     ADDC    A,#HIGH menu_item_bm
00D5 F583              MOV     DPH,A
00D7 120000      E     LCALL   ?C?LLDCODE0
00DA EB                MOV     A,R3
00DB 5F                ANL     A,R7
00DC FF                MOV     R7,A
00DD EA                MOV     A,R2
00DE 5E                ANL     A,R6
00DF FE                MOV     R6,A
00E0 E9                MOV     A,R1
00E1 5D                ANL     A,R5
00E2 FD                MOV     R5,A
00E3 E8                MOV     A,R0
00E4 5C                ANL     A,R4
00E5 FC                MOV     R4,A
00E6 4D                ORL     A,R5
00E7 4E                ORL     A,R6
00E8 4F                ORL     A,R7
00E9 7003              JNZ     $ + 5H
00EB 020000      R     LJMP    ?C0048
                                           ; SOURCE LINE # 429
00EE 900000      R     MOV     DPTR,#i
00F1 E0                MOVX    A,@DPTR
00F2 25E0              ADD     A,ACC
00F4 25E0              ADD     A,ACC
00F6 2400        R     ADD     A,#LOW menu_item_bm
00F8 F582              MOV     DPL,A
00FA E4                CLR     A
00FB 3400        R     ADDC    A,#HIGH menu_item_bm
00FD F583              MOV     DPH,A
00FF 120000      E     LCALL   ?C?LLDCODE
0102 7800        R     MOV     R0,#LOW cur_active_items_id
0104 E6                MOV     A,@R0
0105 25E0              ADD     A,ACC
0107 25E0              ADD     A,ACC
0109 2400        R     ADD     A,#LOW active_items
010B F582              MOV     DPL,A
010D E4                CLR     A
010E 3400        R     ADDC    A,#HIGH active_items
0110 F583              MOV     DPH,A
0112 120000      E     LCALL   ?C?LLDCODE0
0115 EB                MOV     A,R3
0116 5F                ANL     A,R7
0117 FF                MOV     R7,A
0118 EA                MOV     A,R2
0119 5E                ANL     A,R6
011A FE                MOV     R6,A
011B E9                MOV     A,R1
011C 5D                ANL     A,R5
C51 COMPILER V9.53.0.0   TEMP                                                              12/01/2023 15:51:08 PAGE 67  

011D FD                MOV     R5,A
011E E8                MOV     A,R0
011F 5C                ANL     A,R4
0120 FC                MOV     R4,A
0121 900000      R     MOV     DPTR,#bm
0124 120000      E     LCALL   ?C?LSTXDATA
                                           ; SOURCE LINE # 430
0127 900000      R     MOV     DPTR,#bm
012A E0                MOVX    A,@DPTR
012B F8                MOV     R0,A
012C A3                INC     DPTR
012D E0                MOVX    A,@DPTR
012E F9                MOV     R1,A
012F A3                INC     DPTR
0130 E0                MOVX    A,@DPTR
0131 FA                MOV     R2,A
0132 A3                INC     DPTR
0133 E0                MOVX    A,@DPTR
0134 FB                MOV     R3,A
0135 C000              PUSH    AR0
0137 C001              PUSH    AR1
0139 E4                CLR     A
013A 7F01              MOV     R7,#01H
013C FE                MOV     R6,A
013D FD                MOV     R5,A
013E FC                MOV     R4,A
013F 900000      R     MOV     DPTR,#item_pos
0142 E0                MOVX    A,@DPTR
0143 75F009            MOV     B,#09H
0146 A4                MUL     AB
0147 2400        R     ADD     A,#LOW cur_menu
0149 F582              MOV     DPL,A
014B E5F0              MOV     A,B
014D 3400        R     ADDC    A,#HIGH cur_menu
014F F583              MOV     DPH,A
0151 E0                MOVX    A,@DPTR
0152 F9                MOV     R1,A
0153 F8                MOV     R0,A
0154 120000      E     LCALL   ?C?LSHL
0157 120000      E     LCALL   ?C?LNOT
015A D001              POP     AR1
015C D000              POP     AR0
015E EB                MOV     A,R3
015F 5F                ANL     A,R7
0160 FF                MOV     R7,A
0161 EA                MOV     A,R2
0162 5E                ANL     A,R6
0163 FE                MOV     R6,A
0164 E9                MOV     A,R1
0165 5D                ANL     A,R5
0166 FD                MOV     R5,A
0167 E8                MOV     A,R0
0168 5C                ANL     A,R4
0169 FC                MOV     R4,A
016A 900000      R     MOV     DPTR,#bm
016D 120000      E     LCALL   ?C?LSTXDATA
                                           ; SOURCE LINE # 431
0170 E4                CLR     A
0171 FF                MOV     R7,A
0172 FE                MOV     R6,A
0173 FD                MOV     R5,A
0174 FC                MOV     R4,A
C51 COMPILER V9.53.0.0   TEMP                                                              12/01/2023 15:51:08 PAGE 68  

0175 900000      R     MOV     DPTR,#bm
0178 E0                MOVX    A,@DPTR
0179 F8                MOV     R0,A
017A A3                INC     DPTR
017B E0                MOVX    A,@DPTR
017C F9                MOV     R1,A
017D A3                INC     DPTR
017E E0                MOVX    A,@DPTR
017F FA                MOV     R2,A
0180 A3                INC     DPTR
0181 E0                MOVX    A,@DPTR
0182 FB                MOV     R3,A
0183 C3                CLR     C
0184 120000      E     LCALL   ?C?ULCMP
0187 7003              JNZ     $ + 5H
0189 020000      R     LJMP    ?C0056
                                           ; SOURCE LINE # 434
018C E4                CLR     A
018D 900000      R     MOV     DPTR,#id
0190 F0                MOVX    @DPTR,A
                                           ; SOURCE LINE # 435
0191 900000      R     MOV     DPTR,#i
0194 740A              MOV     A,#0AH
0196 F0                MOVX    @DPTR,A
                                           ; SOURCE LINE # 437
0197 900000      R     MOV     DPTR,#item_pos
019A E0                MOVX    A,@DPTR
019B FF                MOV     R7,A
019C 7E00              MOV     R6,#00H
019E 900000      R     MOV     DPTR,#ICON_RECT_SZ
01A1 E4                CLR     A
01A2 93                MOVC    A,@A+DPTR
01A3 FA                MOV     R2,A
01A4 7401              MOV     A,#01H
01A6 93                MOVC    A,@A+DPTR
01A7 FB                MOV     R3,A
01A8 FD                MOV     R5,A
01A9 AC02              MOV     R4,AR2
01AB 120000      E     LCALL   ?C?IMUL
01AE 900000      R     MOV     DPTR,#start_x
01B1 EE                MOV     A,R6
01B2 F0                MOVX    @DPTR,A
01B3 A3                INC     DPTR
01B4 EF                MOV     A,R7
01B5 F0                MOVX    @DPTR,A
                                           ; SOURCE LINE # 438
01B6 EB                MOV     A,R3
01B7 25E0              ADD     A,ACC
01B9 FF                MOV     R7,A
01BA EA                MOV     A,R2
01BB 33                RLC     A
01BC FE                MOV     R6,A
01BD C3                CLR     C
01BE 7420              MOV     A,#020H
01C0 9F                SUBB    A,R7
01C1 900000      R     MOV     DPTR,#start_y+01H
01C4 F0                MOVX    @DPTR,A
01C5 7403              MOV     A,#03H
01C7 9E                SUBB    A,R6
01C8 900000      R     MOV     DPTR,#start_y
01CB F0                MOVX    @DPTR,A
01CC         ?C0051:
C51 COMPILER V9.53.0.0   TEMP                                                              12/01/2023 15:51:08 PAGE 69  

                                           ; SOURCE LINE # 439
01CC E4                CLR     A
01CD FF                MOV     R7,A
01CE FE                MOV     R6,A
01CF FD                MOV     R5,A
01D0 FC                MOV     R4,A
01D1 900000      R     MOV     DPTR,#bm
01D4 E0                MOVX    A,@DPTR
01D5 F8                MOV     R0,A
01D6 A3                INC     DPTR
01D7 E0                MOVX    A,@DPTR
01D8 F9                MOV     R1,A
01D9 A3                INC     DPTR
01DA E0                MOVX    A,@DPTR
01DB FA                MOV     R2,A
01DC A3                INC     DPTR
01DD E0                MOVX    A,@DPTR
01DE FB                MOV     R3,A
01DF C3                CLR     C
01E0 120000      E     LCALL   ?C?ULCMP
01E3 7003              JNZ     $ + 5H
01E5 020000      R     LJMP    ?C0056
                                           ; SOURCE LINE # 440
01E8 900000      R     MOV     DPTR,#bm
01EB A3                INC     DPTR
01EC A3                INC     DPTR
01ED A3                INC     DPTR
01EE E0                MOVX    A,@DPTR
01EF 5401              ANL     A,#01H
01F1 FF                MOV     R7,A
01F2 EF                MOV     A,R7
01F3 7003              JNZ     $ + 5H
01F5 020000      R     LJMP    ?C0053
                                           ; SOURCE LINE # 441
01F8 A3                INC     DPTR
01F9 E0                MOVX    A,@DPTR
01FA 25E0              ADD     A,ACC
01FC 2400        R     ADD     A,#LOW icon_sp_bottom_menu
01FE F582              MOV     DPL,A
0200 E4                CLR     A
0201 3400        R     ADDC    A,#HIGH icon_sp_bottom_menu
0203 F583              MOV     DPH,A
0205 E0                MOVX    A,@DPTR
0206 FE                MOV     R6,A
0207 A3                INC     DPTR
0208 E0                MOVX    A,@DPTR
0209 FF                MOV     R7,A
020A C006              PUSH    AR6
020C C007              PUSH    AR7
020E 900000      R     MOV     DPTR,#start_x
0211 E0                MOVX    A,@DPTR
0212 FE                MOV     R6,A
0213 A3                INC     DPTR
0214 E0                MOVX    A,@DPTR
0215 FF                MOV     R7,A
0216 A3                INC     DPTR
0217 E0                MOVX    A,@DPTR
0218 FC                MOV     R4,A
0219 A3                INC     DPTR
021A E0                MOVX    A,@DPTR
021B FD                MOV     R5,A
021C 120000      E     LCALL   _make_point
C51 COMPILER V9.53.0.0   TEMP                                                              12/01/2023 15:51:08 PAGE 70  

021F 7800        E     MOV     R0,#LOW ?_image_change_pos?BYTE+02H
0221 7C00        E     MOV     R4,#HIGH ?_image_change_pos?BYTE+02H
0223 7D01              MOV     R5,#01H
0225 7E00              MOV     R6,#00H
0227 7F04              MOV     R7,#04H
0229 120000      E     LCALL   ?C?COPY
022C D007              POP     AR7
022E D006              POP     AR6
0230 120000      E     LCALL   _image_change_pos
                                           ; SOURCE LINE # 442
0233 900000      R     MOV     DPTR,#i
0236 E0                MOVX    A,@DPTR
0237 25E0              ADD     A,ACC
0239 2400        R     ADD     A,#LOW icon_sp_bottom_menu
023B F582              MOV     DPL,A
023D E4                CLR     A
023E 3400        R     ADDC    A,#HIGH icon_sp_bottom_menu
0240 F583              MOV     DPH,A
0242 E0                MOVX    A,@DPTR
0243 FE                MOV     R6,A
0244 A3                INC     DPTR
0245 E0                MOVX    A,@DPTR
0246 FF                MOV     R7,A
0247 900000      R     MOV     DPTR,#id
024A E0                MOVX    A,@DPTR
024B FD                MOV     R5,A
024C 7C00              MOV     R4,#00H
024E 120000      E     LCALL   _image_change_id
                                           ; SOURCE LINE # 444
0251 900000      R     MOV     DPTR,#start_x
0254 E0                MOVX    A,@DPTR
0255 FE                MOV     R6,A
0256 A3                INC     DPTR
0257 E0                MOVX    A,@DPTR
0258 FF                MOV     R7,A
0259 900000      R     MOV     DPTR,#i
025C E0                MOVX    A,@DPTR
025D FD                MOV     R5,A
025E 75F009            MOV     B,#09H
0261 A4                MUL     AB
0262 2400        R     ADD     A,#LOW cur_menu+01H
0264 F582              MOV     DPL,A
0266 E5F0              MOV     A,B
0268 3400        R     ADDC    A,#HIGH cur_menu+01H
026A F583              MOV     DPH,A
026C EE                MOV     A,R6
026D F0                MOVX    @DPTR,A
026E A3                INC     DPTR
026F EF                MOV     A,R7
0270 F0                MOVX    @DPTR,A
                                           ; SOURCE LINE # 445
0271 900000      R     MOV     DPTR,#start_y
0274 E0                MOVX    A,@DPTR
0275 FA                MOV     R2,A
0276 A3                INC     DPTR
0277 E0                MOVX    A,@DPTR
0278 FB                MOV     R3,A
0279 75F009            MOV     B,#09H
027C ED                MOV     A,R5
027D A4                MUL     AB
027E 2400        R     ADD     A,#LOW cur_menu+03H
0280 F582              MOV     DPL,A
C51 COMPILER V9.53.0.0   TEMP                                                              12/01/2023 15:51:08 PAGE 71  

0282 E5F0              MOV     A,B
0284 3400        R     ADDC    A,#HIGH cur_menu+03H
0286 F583              MOV     DPH,A
0288 EA                MOV     A,R2
0289 F0                MOVX    @DPTR,A
028A A3                INC     DPTR
028B EB                MOV     A,R3
028C F0                MOVX    @DPTR,A
                                           ; SOURCE LINE # 446
028D 900000      R     MOV     DPTR,#ICON_RECT_SZ
0290 E4                CLR     A
0291 93                MOVC    A,@A+DPTR
0292 FC                MOV     R4,A
0293 7401              MOV     A,#01H
0295 93                MOVC    A,@A+DPTR
0296 FD                MOV     R5,A
0297 EF                MOV     A,R7
0298 2D                ADD     A,R5
0299 FF                MOV     R7,A
029A EE                MOV     A,R6
029B 3C                ADDC    A,R4
029C FE                MOV     R6,A
029D 900000      R     MOV     DPTR,#i
02A0 E0                MOVX    A,@DPTR
02A1 FD                MOV     R5,A
02A2 75F009            MOV     B,#09H
02A5 A4                MUL     AB
02A6 2400        R     ADD     A,#LOW cur_menu+05H
02A8 F582              MOV     DPL,A
02AA E5F0              MOV     A,B
02AC 3400        R     ADDC    A,#HIGH cur_menu+05H
02AE F583              MOV     DPH,A
02B0 EE                MOV     A,R6
02B1 F0                MOVX    @DPTR,A
02B2 A3                INC     DPTR
02B3 EF                MOV     A,R7
02B4 F0                MOVX    @DPTR,A
                                           ; SOURCE LINE # 447
02B5 900000      R     MOV     DPTR,#ICON_RECT_SZ
02B8 E4                CLR     A
02B9 93                MOVC    A,@A+DPTR
02BA FE                MOV     R6,A
02BB 7401              MOV     A,#01H
02BD 93                MOVC    A,@A+DPTR
02BE FF                MOV     R7,A
02BF 900000      R     MOV     DPTR,#start_y+01H
02C2 E0                MOVX    A,@DPTR
02C3 2F                ADD     A,R7
02C4 FF                MOV     R7,A
02C5 900000      R     MOV     DPTR,#start_y
02C8 E0                MOVX    A,@DPTR
02C9 3E                ADDC    A,R6
02CA FE                MOV     R6,A
02CB 75F009            MOV     B,#09H
02CE ED                MOV     A,R5
02CF A4                MUL     AB
02D0 2400        R     ADD     A,#LOW cur_menu+07H
02D2 F582              MOV     DPL,A
02D4 E5F0              MOV     A,B
02D6 3400        R     ADDC    A,#HIGH cur_menu+07H
02D8 F583              MOV     DPH,A
02DA EE                MOV     A,R6
C51 COMPILER V9.53.0.0   TEMP                                                              12/01/2023 15:51:08 PAGE 72  

02DB F0                MOVX    @DPTR,A
02DC A3                INC     DPTR
02DD EF                MOV     A,R7
02DE F0                MOVX    @DPTR,A
                                           ; SOURCE LINE # 448
02DF 900000      R     MOV     DPTR,#id
02E2 E0                MOVX    A,@DPTR
02E3 FF                MOV     R7,A
02E4 900000      R     MOV     DPTR,#i
02E7 E0                MOVX    A,@DPTR
02E8 75F009            MOV     B,#09H
02EB A4                MUL     AB
02EC 2400        R     ADD     A,#LOW cur_menu
02EE F582              MOV     DPL,A
02F0 E5F0              MOV     A,B
02F2 3400        R     ADDC    A,#HIGH cur_menu
02F4 F583              MOV     DPH,A
02F6 EF                MOV     A,R7
02F7 F0                MOVX    @DPTR,A
                                           ; SOURCE LINE # 449
02F8 900000      R     MOV     DPTR,#ICON_RECT_SZ
02FB E4                CLR     A
02FC 93                MOVC    A,@A+DPTR
02FD FE                MOV     R6,A
02FE 7401              MOV     A,#01H
0300 93                MOVC    A,@A+DPTR
0301 FF                MOV     R7,A
0302 C3                CLR     C
0303 900000      R     MOV     DPTR,#start_y+01H
0306 E0                MOVX    A,@DPTR
0307 9F                SUBB    A,R7
0308 F0                MOVX    @DPTR,A
0309 900000      R     MOV     DPTR,#start_y
030C E0                MOVX    A,@DPTR
030D 9E                SUBB    A,R6
030E F0                MOVX    @DPTR,A
                                           ; SOURCE LINE # 450
030F 900000      R     MOV     DPTR,#i
0312 E0                MOVX    A,@DPTR
0313 04                INC     A
0314 F0                MOVX    @DPTR,A
                                           ; SOURCE LINE # 451
0315         ?C0053:
                                           ; SOURCE LINE # 452
0315 900000      R     MOV     DPTR,#bm
0318 E0                MOVX    A,@DPTR
0319 FC                MOV     R4,A
031A A3                INC     DPTR
031B E0                MOVX    A,@DPTR
031C FD                MOV     R5,A
031D A3                INC     DPTR
031E E0                MOVX    A,@DPTR
031F FE                MOV     R6,A
0320 A3                INC     DPTR
0321 E0                MOVX    A,@DPTR
0322 FF                MOV     R7,A
0323 7801              MOV     R0,#01H
0325 120000      E     LCALL   ?C?ULSHR
0328 900000      R     MOV     DPTR,#bm
032B 120000      E     LCALL   ?C?LSTXDATA
                                           ; SOURCE LINE # 454
032E 900000      R     MOV     DPTR,#id
C51 COMPILER V9.53.0.0   TEMP                                                              12/01/2023 15:51:08 PAGE 73  

0331 E0                MOVX    A,@DPTR
0332 04                INC     A
0333 F0                MOVX    @DPTR,A
                                           ; SOURCE LINE # 455
0334 020000      R     LJMP    ?C0051
                                           ; SOURCE LINE # 456
                                           ; SOURCE LINE # 457
                                           ; SOURCE LINE # 458
                                           ; SOURCE LINE # 459
0337         ?C0048:
0337 900000      R     MOV     DPTR,#i
033A E0                MOVX    A,@DPTR
033B 04                INC     A
033C F0                MOVX    @DPTR,A
033D 020000      R     LJMP    ?C0046
                                           ; SOURCE LINE # 460
0340         ?C0045:
                                           ; SOURCE LINE # 462
0340 900000      R     MOV     DPTR,#item_pos
0343 E0                MOVX    A,@DPTR
0344 FF                MOV     R7,A
0345 D3                SETB    C
0346 940F              SUBB    A,#0FH
0348 4014              JC      ?C0055
                                           ; SOURCE LINE # 463
034A 75F009            MOV     B,#09H
034D EF                MOV     A,R7
034E A4                MUL     AB
034F 2400        R     ADD     A,#LOW cur_menu
0351 F582              MOV     DPL,A
0353 E5F0              MOV     A,B
0355 3400        R     ADDC    A,#HIGH cur_menu
0357 F583              MOV     DPH,A
0359 E0                MOVX    A,@DPTR
035A FF                MOV     R7,A
035B 020000      R     LJMP    _par_select
                                           ; SOURCE LINE # 465
035E         ?C0055:
                                           ; SOURCE LINE # 468
035E E4                CLR     A
035F 900000      R     MOV     DPTR,#i
0362 F0                MOVX    @DPTR,A
0363         ?C0057:
0363 900000      R     MOV     DPTR,#i
0366 E0                MOVX    A,@DPTR
0367 FB                MOV     R3,A
0368 C3                CLR     C
0369 9408              SUBB    A,#08H
036B 4003              JC      $ + 5H
036D 020000      R     LJMP    ?C0056
                                           ; SOURCE LINE # 469
0370 E4                CLR     A
0371 7F01              MOV     R7,#01H
0373 FE                MOV     R6,A
0374 FD                MOV     R5,A
0375 FC                MOV     R4,A
0376 900000      R     MOV     DPTR,#item_pos
0379 E0                MOVX    A,@DPTR
037A 75F009            MOV     B,#09H
037D A4                MUL     AB
037E 2400        R     ADD     A,#LOW cur_menu
0380 F582              MOV     DPL,A
C51 COMPILER V9.53.0.0   TEMP                                                              12/01/2023 15:51:08 PAGE 74  

0382 E5F0              MOV     A,B
0384 3400        R     ADDC    A,#HIGH cur_menu
0386 F583              MOV     DPH,A
0388 E0                MOVX    A,@DPTR
0389 F9                MOV     R1,A
038A F8                MOV     R0,A
038B 120000      E     LCALL   ?C?LSHL
038E EB                MOV     A,R3
038F 25E0              ADD     A,ACC
0391 25E0              ADD     A,ACC
0393 2400        R     ADD     A,#LOW menu_item_bm
0395 F582              MOV     DPL,A
0397 E4                CLR     A
0398 3400        R     ADDC    A,#HIGH menu_item_bm
039A F583              MOV     DPH,A
039C 120000      E     LCALL   ?C?LLDCODE0
039F EB                MOV     A,R3
03A0 5F                ANL     A,R7
03A1 FF                MOV     R7,A
03A2 EA                MOV     A,R2
03A3 5E                ANL     A,R6
03A4 FE                MOV     R6,A
03A5 E9                MOV     A,R1
03A6 5D                ANL     A,R5
03A7 FD                MOV     R5,A
03A8 E8                MOV     A,R0
03A9 5C                ANL     A,R4
03AA FC                MOV     R4,A
03AB 4D                ORL     A,R5
03AC 4E                ORL     A,R6
03AD 4F                ORL     A,R7
03AE 7003              JNZ     $ + 5H
03B0 020000      R     LJMP    ?C0059
                                           ; SOURCE LINE # 470
03B3 7800        R     MOV     R0,#LOW main_menu_bm
03B5 120000      E     LCALL   ?C?LLDIDATA0
03B8 900000      R     MOV     DPTR,#i
03BB E0                MOVX    A,@DPTR
03BC 25E0              ADD     A,ACC
03BE 25E0              ADD     A,ACC
03C0 2400        R     ADD     A,#LOW menu_item_bm
03C2 F582              MOV     DPL,A
03C4 E4                CLR     A
03C5 3400        R     ADDC    A,#HIGH menu_item_bm
03C7 F583              MOV     DPH,A
03C9 120000      E     LCALL   ?C?LLDCODE
03CC 120000      E     LCALL   ?C?LNOT
03CF EB                MOV     A,R3
03D0 5F                ANL     A,R7
03D1 FF                MOV     R7,A
03D2 EA                MOV     A,R2
03D3 5E                ANL     A,R6
03D4 FE                MOV     R6,A
03D5 E9                MOV     A,R1
03D6 5D                ANL     A,R5
03D7 FD                MOV     R5,A
03D8 E8                MOV     A,R0
03D9 5C                ANL     A,R4
03DA FC                MOV     R4,A
03DB 7800        R     MOV     R0,#LOW main_menu_bm
03DD 120000      E     LCALL   ?C?LSTIDATA
                                           ; SOURCE LINE # 472
C51 COMPILER V9.53.0.0   TEMP                                                              12/01/2023 15:51:08 PAGE 75  

03E0 7800        R     MOV     R0,#LOW main_menu_bm
03E2 120000      E     LCALL   ?C?LLDIDATA0
03E5 C000              PUSH    AR0
03E7 C001              PUSH    AR1
03E9 E4                CLR     A
03EA 7F01              MOV     R7,#01H
03EC FE                MOV     R6,A
03ED FD                MOV     R5,A
03EE FC                MOV     R4,A
03EF 900000      R     MOV     DPTR,#item_pos
03F2 E0                MOVX    A,@DPTR
03F3 75F009            MOV     B,#09H
03F6 A4                MUL     AB
03F7 2400        R     ADD     A,#LOW cur_menu
03F9 F582              MOV     DPL,A
03FB E5F0              MOV     A,B
03FD 3400        R     ADDC    A,#HIGH cur_menu
03FF F583              MOV     DPH,A
0401 E0                MOVX    A,@DPTR
0402 F9                MOV     R1,A
0403 F8                MOV     R0,A
0404 120000      E     LCALL   ?C?LSHL
0407 D001              POP     AR1
0409 D000              POP     AR0
040B EB                MOV     A,R3
040C 4F                ORL     A,R7
040D FF                MOV     R7,A
040E EA                MOV     A,R2
040F 4E                ORL     A,R6
0410 FE                MOV     R6,A
0411 E9                MOV     A,R1
0412 4D                ORL     A,R5
0413 FD                MOV     R5,A
0414 E8                MOV     A,R0
0415 4C                ORL     A,R4
0416 FC                MOV     R4,A
0417 7800        R     MOV     R0,#LOW main_menu_bm
0419 120000      E     LCALL   ?C?LSTIDATA
                                           ; SOURCE LINE # 476
041C 900000      R     MOV     DPTR,#item_pos
041F E0                MOVX    A,@DPTR
0420 75F009            MOV     B,#09H
0423 A4                MUL     AB
0424 2400        R     ADD     A,#LOW cur_menu
0426 F582              MOV     DPL,A
0428 E5F0              MOV     A,B
042A 3400        R     ADDC    A,#HIGH cur_menu
042C F583              MOV     DPH,A
042E E0                MOVX    A,@DPTR
042F FF                MOV     R7,A
0430 24FD              ADD     A,#0FDH
0432 500F              JNC     ?C0064
0434 24FC              ADD     A,#0FCH
0436 24FD              ADD     A,#0FDH
0438 500F              JNC     ?C0069
043A 24FE              ADD     A,#0FEH
043C 600B              JZ      ?C0069
043E 14                DEC     A
043F 6008              JZ      ?C0069
0441 8009              SJMP    ?C0061
                                           ; SOURCE LINE # 477
                                           ; SOURCE LINE # 478
C51 COMPILER V9.53.0.0   TEMP                                                              12/01/2023 15:51:08 PAGE 76  

                                           ; SOURCE LINE # 479
                                           ; SOURCE LINE # 480
0443         ?C0064:
                                           ; SOURCE LINE # 481
0443 7800        R     MOV     R0,#LOW cur_active_items_id
0445 A607              MOV     @R0,AR7
                                           ; SOURCE LINE # 482
                                           ; SOURCE LINE # 483
0447 8000              SJMP    ?C0117
                                           ; SOURCE LINE # 485
                                           ; SOURCE LINE # 486
                                           ; SOURCE LINE # 490
                                           ; SOURCE LINE # 491
                                           ; SOURCE LINE # 492
0449         ?C0069:
                                           ; SOURCE LINE # 493
0449         ?C0117:
0449 120000      R     LCALL   make_scene
                                           ; SOURCE LINE # 494
                                           ; SOURCE LINE # 497
044C         ?C0061:
                                           ; SOURCE LINE # 499
044C 7800        R     MOV     R0,#LOW cur_active_items_id
044E E6                MOV     A,@R0
044F 25E0              ADD     A,ACC
0451 25E0              ADD     A,ACC
0453 2400        R     ADD     A,#LOW active_items
0455 F582              MOV     DPL,A
0457 E4                CLR     A
0458 3400        R     ADDC    A,#HIGH active_items
045A F583              MOV     DPH,A
045C 120000      E     LCALL   ?C?LLDCODE
045F 08                INC     R0
0460 120000      E     LCALL   ?C?LLDIDATA0
0463 EF                MOV     A,R7
0464 5B                ANL     A,R3
0465 FF                MOV     R7,A
0466 EE                MOV     A,R6
0467 5A                ANL     A,R2
0468 FE                MOV     R6,A
0469 ED                MOV     A,R5
046A 59                ANL     A,R1
046B FD                MOV     R5,A
046C EC                MOV     A,R4
046D 58                ANL     A,R0
046E FC                MOV     R4,A
046F 900000      R     MOV     DPTR,#bm
0472 120000      E     LCALL   ?C?LSTXDATA
                                           ; SOURCE LINE # 503
0475 E4                CLR     A
0476 900000      R     MOV     DPTR,#i
0479 F0                MOVX    @DPTR,A
047A         ?C0070:
047A 900000      R     MOV     DPTR,#i
047D E0                MOVX    A,@DPTR
047E FF                MOV     R7,A
047F C3                CLR     C
0480 9408              SUBB    A,#08H
0482 5020              JNC     ?C0071
                                           ; SOURCE LINE # 504
0484 EF                MOV     A,R7
0485 25E0              ADD     A,ACC
C51 COMPILER V9.53.0.0   TEMP                                                              12/01/2023 15:51:08 PAGE 77  

0487 2400        R     ADD     A,#LOW icon_sp_bottom_menu
0489 F582              MOV     DPL,A
048B E4                CLR     A
048C 3400        R     ADDC    A,#HIGH icon_sp_bottom_menu
048E F583              MOV     DPH,A
0490 E0                MOVX    A,@DPTR
0491 FE                MOV     R6,A
0492 A3                INC     DPTR
0493 E0                MOVX    A,@DPTR
0494 FF                MOV     R7,A
0495 74FF              MOV     A,#0FFH
0497 FD                MOV     R5,A
0498 FC                MOV     R4,A
0499 120000      E     LCALL   _image_change_id
                                           ; SOURCE LINE # 505
049C 900000      R     MOV     DPTR,#i
049F E0                MOVX    A,@DPTR
04A0 04                INC     A
04A1 F0                MOVX    @DPTR,A
04A2 80D6              SJMP    ?C0070
04A4         ?C0071:
                                           ; SOURCE LINE # 507
04A4 E4                CLR     A
04A5 900000      R     MOV     DPTR,#id
04A8 F0                MOVX    @DPTR,A
                                           ; SOURCE LINE # 508
04A9 900000      R     MOV     DPTR,#i
04AC F0                MOVX    @DPTR,A
                                           ; SOURCE LINE # 509
04AD 900000      R     MOV     DPTR,#start_x
04B0 F0                MOVX    @DPTR,A
04B1 A3                INC     DPTR
04B2 F0                MOVX    @DPTR,A
                                           ; SOURCE LINE # 510
04B3 900000      R     MOV     DPTR,#ICON_RECT_SZ
04B6 93                MOVC    A,@A+DPTR
04B7 FE                MOV     R6,A
04B8 7401              MOV     A,#01H
04BA 93                MOVC    A,@A+DPTR
04BB FF                MOV     R7,A
04BC C3                CLR     C
04BD 7420              MOV     A,#020H
04BF 9F                SUBB    A,R7
04C0 900000      R     MOV     DPTR,#start_y+01H
04C3 F0                MOVX    @DPTR,A
04C4 7403              MOV     A,#03H
04C6 9E                SUBB    A,R6
04C7 900000      R     MOV     DPTR,#start_y
04CA F0                MOVX    @DPTR,A
04CB         ?C0073:
                                           ; SOURCE LINE # 512
04CB E4                CLR     A
04CC FF                MOV     R7,A
04CD FE                MOV     R6,A
04CE FD                MOV     R5,A
04CF FC                MOV     R4,A
04D0 900000      R     MOV     DPTR,#bm
04D3 E0                MOVX    A,@DPTR
04D4 F8                MOV     R0,A
04D5 A3                INC     DPTR
04D6 E0                MOVX    A,@DPTR
04D7 F9                MOV     R1,A
C51 COMPILER V9.53.0.0   TEMP                                                              12/01/2023 15:51:08 PAGE 78  

04D8 A3                INC     DPTR
04D9 E0                MOVX    A,@DPTR
04DA FA                MOV     R2,A
04DB A3                INC     DPTR
04DC E0                MOVX    A,@DPTR
04DD FB                MOV     R3,A
04DE C3                CLR     C
04DF 120000      E     LCALL   ?C?ULCMP
04E2 7003              JNZ     $ + 5H
04E4 020000      R     LJMP    ?C0076
                                           ; SOURCE LINE # 513
04E7 900000      R     MOV     DPTR,#bm
04EA A3                INC     DPTR
04EB A3                INC     DPTR
04EC A3                INC     DPTR
04ED E0                MOVX    A,@DPTR
04EE 5401              ANL     A,#01H
04F0 FF                MOV     R7,A
04F1 EF                MOV     A,R7
04F2 7003              JNZ     $ + 5H
04F4 020000      R     LJMP    ?C0075
                                           ; SOURCE LINE # 514
04F7 A3                INC     DPTR
04F8 E0                MOVX    A,@DPTR
04F9 25E0              ADD     A,ACC
04FB 2400        R     ADD     A,#LOW icon_sp_bottom_menu
04FD F582              MOV     DPL,A
04FF E4                CLR     A
0500 3400        R     ADDC    A,#HIGH icon_sp_bottom_menu
0502 F583              MOV     DPH,A
0504 E0                MOVX    A,@DPTR
0505 FE                MOV     R6,A
0506 A3                INC     DPTR
0507 E0                MOVX    A,@DPTR
0508 FF                MOV     R7,A
0509 C006              PUSH    AR6
050B C007              PUSH    AR7
050D 900000      R     MOV     DPTR,#start_x
0510 E0                MOVX    A,@DPTR
0511 FE                MOV     R6,A
0512 A3                INC     DPTR
0513 E0                MOVX    A,@DPTR
0514 FF                MOV     R7,A
0515 A3                INC     DPTR
0516 E0                MOVX    A,@DPTR
0517 FC                MOV     R4,A
0518 A3                INC     DPTR
0519 E0                MOVX    A,@DPTR
051A FD                MOV     R5,A
051B 120000      E     LCALL   _make_point
051E 7800        E     MOV     R0,#LOW ?_image_change_pos?BYTE+02H
0520 7C00        E     MOV     R4,#HIGH ?_image_change_pos?BYTE+02H
0522 7D01              MOV     R5,#01H
0524 7E00              MOV     R6,#00H
0526 7F04              MOV     R7,#04H
0528 120000      E     LCALL   ?C?COPY
052B D007              POP     AR7
052D D006              POP     AR6
052F 120000      E     LCALL   _image_change_pos
                                           ; SOURCE LINE # 515
0532 900000      R     MOV     DPTR,#i
0535 E0                MOVX    A,@DPTR
C51 COMPILER V9.53.0.0   TEMP                                                              12/01/2023 15:51:08 PAGE 79  

0536 25E0              ADD     A,ACC
0538 2400        R     ADD     A,#LOW icon_sp_bottom_menu
053A F582              MOV     DPL,A
053C E4                CLR     A
053D 3400        R     ADDC    A,#HIGH icon_sp_bottom_menu
053F F583              MOV     DPH,A
0541 E0                MOVX    A,@DPTR
0542 FE                MOV     R6,A
0543 A3                INC     DPTR
0544 E0                MOVX    A,@DPTR
0545 FF                MOV     R7,A
0546 900000      R     MOV     DPTR,#id
0549 E0                MOVX    A,@DPTR
054A FD                MOV     R5,A
054B 7C00              MOV     R4,#00H
054D 120000      E     LCALL   _image_change_id
                                           ; SOURCE LINE # 517
0550 900000      R     MOV     DPTR,#start_x
0553 E0                MOVX    A,@DPTR
0554 FE                MOV     R6,A
0555 A3                INC     DPTR
0556 E0                MOVX    A,@DPTR
0557 FF                MOV     R7,A
0558 900000      R     MOV     DPTR,#i
055B E0                MOVX    A,@DPTR
055C FD                MOV     R5,A
055D 75F009            MOV     B,#09H
0560 A4                MUL     AB
0561 2400        R     ADD     A,#LOW cur_menu+01H
0563 F582              MOV     DPL,A
0565 E5F0              MOV     A,B
0567 3400        R     ADDC    A,#HIGH cur_menu+01H
0569 F583              MOV     DPH,A
056B EE                MOV     A,R6
056C F0                MOVX    @DPTR,A
056D A3                INC     DPTR
056E EF                MOV     A,R7
056F F0                MOVX    @DPTR,A
                                           ; SOURCE LINE # 518
0570 900000      R     MOV     DPTR,#start_y
0573 E0                MOVX    A,@DPTR
0574 FA                MOV     R2,A
0575 A3                INC     DPTR
0576 E0                MOVX    A,@DPTR
0577 FB                MOV     R3,A
0578 75F009            MOV     B,#09H
057B ED                MOV     A,R5
057C A4                MUL     AB
057D 2400        R     ADD     A,#LOW cur_menu+03H
057F F582              MOV     DPL,A
0581 E5F0              MOV     A,B
0583 3400        R     ADDC    A,#HIGH cur_menu+03H
0585 F583              MOV     DPH,A
0587 EA                MOV     A,R2
0588 F0                MOVX    @DPTR,A
0589 A3                INC     DPTR
058A EB                MOV     A,R3
058B F0                MOVX    @DPTR,A
                                           ; SOURCE LINE # 519
058C 900000      R     MOV     DPTR,#ICON_RECT_SZ
058F E4                CLR     A
0590 93                MOVC    A,@A+DPTR
C51 COMPILER V9.53.0.0   TEMP                                                              12/01/2023 15:51:08 PAGE 80  

0591 FC                MOV     R4,A
0592 7401              MOV     A,#01H
0594 93                MOVC    A,@A+DPTR
0595 FD                MOV     R5,A
0596 EF                MOV     A,R7
0597 2D                ADD     A,R5
0598 FF                MOV     R7,A
0599 EE                MOV     A,R6
059A 3C                ADDC    A,R4
059B FE                MOV     R6,A
059C 900000      R     MOV     DPTR,#i
059F E0                MOVX    A,@DPTR
05A0 FD                MOV     R5,A
05A1 75F009            MOV     B,#09H
05A4 A4                MUL     AB
05A5 2400        R     ADD     A,#LOW cur_menu+05H
05A7 F582              MOV     DPL,A
05A9 E5F0              MOV     A,B
05AB 3400        R     ADDC    A,#HIGH cur_menu+05H
05AD F583              MOV     DPH,A
05AF EE                MOV     A,R6
05B0 F0                MOVX    @DPTR,A
05B1 A3                INC     DPTR
05B2 EF                MOV     A,R7
05B3 F0                MOVX    @DPTR,A
                                           ; SOURCE LINE # 520
05B4 900000      R     MOV     DPTR,#ICON_RECT_SZ
05B7 E4                CLR     A
05B8 93                MOVC    A,@A+DPTR
05B9 FE                MOV     R6,A
05BA 7401              MOV     A,#01H
05BC 93                MOVC    A,@A+DPTR
05BD FF                MOV     R7,A
05BE 900000      R     MOV     DPTR,#start_y+01H
05C1 E0                MOVX    A,@DPTR
05C2 2F                ADD     A,R7
05C3 FF                MOV     R7,A
05C4 900000      R     MOV     DPTR,#start_y
05C7 E0                MOVX    A,@DPTR
05C8 3E                ADDC    A,R6
05C9 FE                MOV     R6,A
05CA 75F009            MOV     B,#09H
05CD ED                MOV     A,R5
05CE A4                MUL     AB
05CF 2400        R     ADD     A,#LOW cur_menu+07H
05D1 F582              MOV     DPL,A
05D3 E5F0              MOV     A,B
05D5 3400        R     ADDC    A,#HIGH cur_menu+07H
05D7 F583              MOV     DPH,A
05D9 EE                MOV     A,R6
05DA F0                MOVX    @DPTR,A
05DB A3                INC     DPTR
05DC EF                MOV     A,R7
05DD F0                MOVX    @DPTR,A
                                           ; SOURCE LINE # 521
05DE 900000      R     MOV     DPTR,#id
05E1 E0                MOVX    A,@DPTR
05E2 FF                MOV     R7,A
05E3 900000      R     MOV     DPTR,#i
05E6 E0                MOVX    A,@DPTR
05E7 75F009            MOV     B,#09H
05EA A4                MUL     AB
C51 COMPILER V9.53.0.0   TEMP                                                              12/01/2023 15:51:08 PAGE 81  

05EB 2400        R     ADD     A,#LOW cur_menu
05ED F582              MOV     DPL,A
05EF E5F0              MOV     A,B
05F1 3400        R     ADDC    A,#HIGH cur_menu
05F3 F583              MOV     DPH,A
05F5 EF                MOV     A,R7
05F6 F0                MOVX    @DPTR,A
                                           ; SOURCE LINE # 522
05F7 900000      R     MOV     DPTR,#ICON_RECT_SZ
05FA E4                CLR     A
05FB 93                MOVC    A,@A+DPTR
05FC FE                MOV     R6,A
05FD 7401              MOV     A,#01H
05FF 93                MOVC    A,@A+DPTR
0600 FF                MOV     R7,A
0601 900000      R     MOV     DPTR,#start_x+01H
0604 E0                MOVX    A,@DPTR
0605 2F                ADD     A,R7
0606 F0                MOVX    @DPTR,A
0607 900000      R     MOV     DPTR,#start_x
060A E0                MOVX    A,@DPTR
060B 3E                ADDC    A,R6
060C F0                MOVX    @DPTR,A
                                           ; SOURCE LINE # 523
060D 900000      R     MOV     DPTR,#i
0610 E0                MOVX    A,@DPTR
0611 04                INC     A
0612 F0                MOVX    @DPTR,A
                                           ; SOURCE LINE # 524
0613         ?C0075:
                                           ; SOURCE LINE # 525
0613 900000      R     MOV     DPTR,#bm
0616 E0                MOVX    A,@DPTR
0617 FC                MOV     R4,A
0618 A3                INC     DPTR
0619 E0                MOVX    A,@DPTR
061A FD                MOV     R5,A
061B A3                INC     DPTR
061C E0                MOVX    A,@DPTR
061D FE                MOV     R6,A
061E A3                INC     DPTR
061F E0                MOVX    A,@DPTR
0620 FF                MOV     R7,A
0621 7801              MOV     R0,#01H
0623 120000      E     LCALL   ?C?ULSHR
0626 900000      R     MOV     DPTR,#bm
0629 120000      E     LCALL   ?C?LSTXDATA
                                           ; SOURCE LINE # 526
062C 900000      R     MOV     DPTR,#id
062F E0                MOVX    A,@DPTR
0630 04                INC     A
0631 F0                MOVX    @DPTR,A
                                           ; SOURCE LINE # 527
0632 020000      R     LJMP    ?C0073
                                           ; SOURCE LINE # 528
0635         ?C0076:
0635 900000      R     MOV     DPTR,#i
0638 E0                MOVX    A,@DPTR
0639 FF                MOV     R7,A
063A C3                CLR     C
063B 940A              SUBB    A,#0AH
063D 505D              JNC     ?C0056
C51 COMPILER V9.53.0.0   TEMP                                                              12/01/2023 15:51:08 PAGE 82  

                                           ; SOURCE LINE # 529
063F 75F009            MOV     B,#09H
0642 EF                MOV     A,R7
0643 A4                MUL     AB
0644 2400        R     ADD     A,#LOW cur_menu+01H
0646 F582              MOV     DPL,A
0648 E5F0              MOV     A,B
064A 3400        R     ADDC    A,#HIGH cur_menu+01H
064C F583              MOV     DPH,A
064E E4                CLR     A
064F F0                MOVX    @DPTR,A
0650 A3                INC     DPTR
0651 F0                MOVX    @DPTR,A
                                           ; SOURCE LINE # 530
0652 75F009            MOV     B,#09H
0655 EF                MOV     A,R7
0656 A4                MUL     AB
0657 2400        R     ADD     A,#LOW cur_menu+03H
0659 F582              MOV     DPL,A
065B E5F0              MOV     A,B
065D 3400        R     ADDC    A,#HIGH cur_menu+03H
065F F583              MOV     DPH,A
0661 E4                CLR     A
0662 F0                MOVX    @DPTR,A
0663 A3                INC     DPTR
0664 F0                MOVX    @DPTR,A
                                           ; SOURCE LINE # 531
0665 75F009            MOV     B,#09H
0668 EF                MOV     A,R7
0669 A4                MUL     AB
066A 2400        R     ADD     A,#LOW cur_menu+05H
066C F582              MOV     DPL,A
066E E5F0              MOV     A,B
0670 3400        R     ADDC    A,#HIGH cur_menu+05H
0672 F583              MOV     DPH,A
0674 E4                CLR     A
0675 F0                MOVX    @DPTR,A
0676 A3                INC     DPTR
0677 F0                MOVX    @DPTR,A
                                           ; SOURCE LINE # 532
0678 75F009            MOV     B,#09H
067B EF                MOV     A,R7
067C A4                MUL     AB
067D 2400        R     ADD     A,#LOW cur_menu+07H
067F F582              MOV     DPL,A
0681 E5F0              MOV     A,B
0683 3400        R     ADDC    A,#HIGH cur_menu+07H
0685 F583              MOV     DPH,A
0687 E4                CLR     A
0688 F0                MOVX    @DPTR,A
0689 A3                INC     DPTR
068A F0                MOVX    @DPTR,A
                                           ; SOURCE LINE # 533
068B 900000      R     MOV     DPTR,#i
068E E0                MOVX    A,@DPTR
068F 04                INC     A
0690 F0                MOVX    @DPTR,A
0691 80A2              SJMP    ?C0076
                                           ; SOURCE LINE # 535
                                           ; SOURCE LINE # 536
                                           ; SOURCE LINE # 537
0693         ?C0059:
C51 COMPILER V9.53.0.0   TEMP                                                              12/01/2023 15:51:08 PAGE 83  

0693 900000      R     MOV     DPTR,#i
0696 E0                MOVX    A,@DPTR
0697 04                INC     A
0698 F0                MOVX    @DPTR,A
0699 020000      R     LJMP    ?C0057
                                           ; SOURCE LINE # 538
                                           ; SOURCE LINE # 540
069C         ?C0056:
069C 22                RET     
             ; FUNCTION _bottom_level_controls (END)

             ; FUNCTION _cur_par_value_change (BEGIN)
                                           ; SOURCE LINE # 550
0000 900000      R     MOV     DPTR,#cur_par_id
0003 EE                MOV     A,R6
0004 F0                MOVX    @DPTR,A
0005 A3                INC     DPTR
0006 EF                MOV     A,R7
0007 F0                MOVX    @DPTR,A
;---- Variable 'shift' assigned to Register 'R3' ----
0008 AB05              MOV     R3,AR5
                                           ; SOURCE LINE # 551
                                           ; SOURCE LINE # 552
000A E0                MOVX    A,@DPTR
000B 25E0              ADD     A,ACC
000D FF                MOV     R7,A
000E 900000      R     MOV     DPTR,#cur_par_id
0011 E0                MOVX    A,@DPTR
0012 33                RLC     A
0013 FE                MOV     R6,A
0014 7400        R     MOV     A,#LOW par_step
0016 2F                ADD     A,R7
0017 F582              MOV     DPL,A
0019 7400        R     MOV     A,#HIGH par_step
001B 3E                ADDC    A,R6
001C F583              MOV     DPH,A
001E E0                MOVX    A,@DPTR
001F FC                MOV     R4,A
0020 A3                INC     DPTR
0021 E0                MOVX    A,@DPTR
0022 FD                MOV     R5,A
0023 AF03              MOV     R7,AR3
0025 EF                MOV     A,R7
0026 33                RLC     A
0027 95E0              SUBB    A,ACC
0029 FE                MOV     R6,A
002A 120000      E     LCALL   ?C?IMUL
002D 900000      R     MOV     DPTR,#cur_par_id+01H
0030 E0                MOVX    A,@DPTR
0031 25E0              ADD     A,ACC
0033 FB                MOV     R3,A
0034 900000      R     MOV     DPTR,#cur_par_id
0037 E0                MOVX    A,@DPTR
0038 33                RLC     A
0039 FA                MOV     R2,A
003A 7400        R     MOV     A,#LOW par
003C 2B                ADD     A,R3
003D F582              MOV     DPL,A
003F 7400        R     MOV     A,#HIGH par
0041 3A                ADDC    A,R2
0042 F583              MOV     DPH,A
0044 EE                MOV     A,R6
C51 COMPILER V9.53.0.0   TEMP                                                              12/01/2023 15:51:08 PAGE 84  

0045 8FF0              MOV     B,R7
0047 120000      E     LCALL   ?C?IILDX
                                           ; SOURCE LINE # 556
004A 900000      R     MOV     DPTR,#cur_par_id
004D E0                MOVX    A,@DPTR
004E FE                MOV     R6,A
004F A3                INC     DPTR
0050 E0                MOVX    A,@DPTR
0051 7802              MOV     R0,#02H
0053         ?C0113:
0053 C3                CLR     C
0054 33                RLC     A
0055 CE                XCH     A,R6
0056 33                RLC     A
0057 CE                XCH     A,R6
0058 D8F9              DJNZ    R0,?C0113
005A 2400        R     ADD     A,#LOW par_lim+02H
005C F582              MOV     DPL,A
005E 7400        R     MOV     A,#HIGH par_lim+02H
0060 3E                ADDC    A,R6
0061 F583              MOV     DPH,A
0063 E0                MOVX    A,@DPTR
0064 FC                MOV     R4,A
0065 A3                INC     DPTR
0066 E0                MOVX    A,@DPTR
0067 FD                MOV     R5,A
0068 7400        R     MOV     A,#LOW par
006A 2B                ADD     A,R3
006B F582              MOV     DPL,A
006D 7400        R     MOV     A,#HIGH par
006F 3A                ADDC    A,R2
0070 F583              MOV     DPH,A
0072 E0                MOVX    A,@DPTR
0073 FE                MOV     R6,A
0074 A3                INC     DPTR
0075 E0                MOVX    A,@DPTR
0076 D3                SETB    C
0077 9D                SUBB    A,R5
0078 EC                MOV     A,R4
0079 6480              XRL     A,#080H
007B F8                MOV     R0,A
007C EE                MOV     A,R6
007D 6480              XRL     A,#080H
007F 98                SUBB    A,R0
0080 401E              JC      ?C0079
                                           ; SOURCE LINE # 557
0082 900000      R     MOV     DPTR,#cur_par_id+01H
0085 E0                MOVX    A,@DPTR
0086 25E0              ADD     A,ACC
0088 FF                MOV     R7,A
0089 900000      R     MOV     DPTR,#cur_par_id
008C E0                MOVX    A,@DPTR
008D 33                RLC     A
008E FE                MOV     R6,A
008F 7400        R     MOV     A,#LOW par
0091 2F                ADD     A,R7
0092 F582              MOV     DPL,A
0094 7400        R     MOV     A,#HIGH par
0096 3E                ADDC    A,R6
0097 F583              MOV     DPH,A
0099 EC                MOV     A,R4
009A F0                MOVX    @DPTR,A
C51 COMPILER V9.53.0.0   TEMP                                                              12/01/2023 15:51:08 PAGE 85  

009B A3                INC     DPTR
009C ED                MOV     A,R5
009D F0                MOVX    @DPTR,A
009E 805E              SJMP    ?C0080
00A0         ?C0079:
                                           ; SOURCE LINE # 558
00A0 900000      R     MOV     DPTR,#cur_par_id
00A3 E0                MOVX    A,@DPTR
00A4 FC                MOV     R4,A
00A5 A3                INC     DPTR
00A6 E0                MOVX    A,@DPTR
00A7 FD                MOV     R5,A
00A8 AE04              MOV     R6,AR4
00AA 7802              MOV     R0,#02H
00AC         ?C0114:
00AC C3                CLR     C
00AD 33                RLC     A
00AE CE                XCH     A,R6
00AF 33                RLC     A
00B0 CE                XCH     A,R6
00B1 D8F9              DJNZ    R0,?C0114
00B3 2400        R     ADD     A,#LOW par_lim
00B5 F582              MOV     DPL,A
00B7 7400        R     MOV     A,#HIGH par_lim
00B9 3E                ADDC    A,R6
00BA F583              MOV     DPH,A
00BC E0                MOVX    A,@DPTR
00BD FA                MOV     R2,A
00BE A3                INC     DPTR
00BF E0                MOVX    A,@DPTR
00C0 FB                MOV     R3,A
00C1 ED                MOV     A,R5
00C2 25E0              ADD     A,ACC
00C4 FF                MOV     R7,A
00C5 EC                MOV     A,R4
00C6 33                RLC     A
00C7 FE                MOV     R6,A
00C8 7400        R     MOV     A,#LOW par
00CA 2F                ADD     A,R7
00CB F582              MOV     DPL,A
00CD 7400        R     MOV     A,#HIGH par
00CF 3E                ADDC    A,R6
00D0 F583              MOV     DPH,A
00D2 E0                MOVX    A,@DPTR
00D3 FE                MOV     R6,A
00D4 A3                INC     DPTR
00D5 E0                MOVX    A,@DPTR
00D6 C3                CLR     C
00D7 9B                SUBB    A,R3
00D8 EA                MOV     A,R2
00D9 6480              XRL     A,#080H
00DB F8                MOV     R0,A
00DC EE                MOV     A,R6
00DD 6480              XRL     A,#080H
00DF 98                SUBB    A,R0
00E0 501C              JNC     ?C0080
                                           ; SOURCE LINE # 559
00E2 900000      R     MOV     DPTR,#cur_par_id+01H
00E5 E0                MOVX    A,@DPTR
00E6 25E0              ADD     A,ACC
00E8 FF                MOV     R7,A
00E9 900000      R     MOV     DPTR,#cur_par_id
C51 COMPILER V9.53.0.0   TEMP                                                              12/01/2023 15:51:08 PAGE 86  

00EC E0                MOVX    A,@DPTR
00ED 33                RLC     A
00EE FE                MOV     R6,A
00EF 7400        R     MOV     A,#LOW par
00F1 2F                ADD     A,R7
00F2 F582              MOV     DPL,A
00F4 7400        R     MOV     A,#HIGH par
00F6 3E                ADDC    A,R6
00F7 F583              MOV     DPH,A
00F9 EA                MOV     A,R2
00FA F0                MOVX    @DPTR,A
00FB A3                INC     DPTR
00FC EB                MOV     A,R3
00FD F0                MOVX    @DPTR,A
00FE         ?C0080:
                                           ; SOURCE LINE # 561
                                           ; SOURCE LINE # 563
00FE 900000      R     MOV     DPTR,#cur_par_id
0101 E0                MOVX    A,@DPTR
0102 FE                MOV     R6,A
0103 A3                INC     DPTR
0104 E0                MOVX    A,@DPTR
0105 FF                MOV     R7,A
0106 EE                MOV     A,R6
0107 6003              JZ      $ + 5H
0109 020000      R     LJMP    ?C0093
010C EF                MOV     A,R7
010D 24E6              ADD     A,#0E6H
010F 7003              JNZ     $ + 5H
0111 020000      R     LJMP    ?C0094
0114 24FE              ADD     A,#0FEH
0116 7003              JNZ     $ + 5H
0118 020000      R     LJMP    ?C0094
011B 14                DEC     A
011C 7003              JNZ     $ + 5H
011E 020000      R     LJMP    ?C0094
0121 24FE              ADD     A,#0FEH
0123 601A              JZ      ?C0090
0125 24FE              ADD     A,#0FEH
0127 6016              JZ      ?C0090
0129 24FD              ADD     A,#0FDH
012B 7003              JNZ     $ + 5H
012D 020000      R     LJMP    ?C0094
0130 24FE              ADD     A,#0FEH
0132 7003              JNZ     $ + 5H
0134 020000      R     LJMP    ?C0094
0137 14                DEC     A
0138 7003              JNZ     $ + 5H
013A 020000      R     LJMP    ?C0094
013D 8065              SJMP    ?C0093
                                           ; SOURCE LINE # 564
                                           ; SOURCE LINE # 565
                                           ; SOURCE LINE # 566
                                           ; SOURCE LINE # 567
                                           ; SOURCE LINE # 568
                                           ; SOURCE LINE # 569
                                           ; SOURCE LINE # 571
                                           ; SOURCE LINE # 573
                                           ; SOURCE LINE # 575
                                           ; SOURCE LINE # 577
                                           ; SOURCE LINE # 578
013F         ?C0090:
C51 COMPILER V9.53.0.0   TEMP                                                              12/01/2023 15:51:08 PAGE 87  

                                           ; SOURCE LINE # 579
013F EF                MOV     A,R7
0140 25E0              ADD     A,ACC
0142 FF                MOV     R7,A
0143 EE                MOV     A,R6
0144 33                RLC     A
0145 FE                MOV     R6,A
0146 7400        R     MOV     A,#LOW par
0148 2F                ADD     A,R7
0149 F582              MOV     DPL,A
014B 7400        R     MOV     A,#HIGH par
014D 3E                ADDC    A,R6
014E F583              MOV     DPH,A
0150 E0                MOVX    A,@DPTR
0151 FE                MOV     R6,A
0152 A3                INC     DPTR
0153 E0                MOVX    A,@DPTR
0154 FF                MOV     R7,A
0155 C3                CLR     C
0156 94E8              SUBB    A,#0E8H
0158 EE                MOV     A,R6
0159 6480              XRL     A,#080H
015B 9483              SUBB    A,#083H
015D 400F              JC      ?C0091
                                           ; SOURCE LINE # 580
015F 7C03              MOV     R4,#03H
0161 7DE8              MOV     R5,#0E8H
0163 120000      E     LCALL   ?C?SIDIV
0166 900000      R     MOV     DPTR,#tmp
0169 EE                MOV     A,R6
016A F0                MOVX    @DPTR,A
016B A3                INC     DPTR
016C EF                MOV     A,R7
016D F0                MOVX    @DPTR,A
016E         ?C0091:
                                           ; SOURCE LINE # 581
016E 900000      R     MOV     DPTR,#cur_par_id+01H
0171 E0                MOVX    A,@DPTR
0172 25E0              ADD     A,ACC
0174 FF                MOV     R7,A
0175 900000      R     MOV     DPTR,#cur_par_id
0178 E0                MOVX    A,@DPTR
0179 33                RLC     A
017A FE                MOV     R6,A
017B 7400        R     MOV     A,#LOW par
017D 2F                ADD     A,R7
017E F582              MOV     DPL,A
0180 7400        R     MOV     A,#HIGH par
0182 3E                ADDC    A,R6
0183 F583              MOV     DPH,A
0185 E0                MOVX    A,@DPTR
0186 FE                MOV     R6,A
0187 A3                INC     DPTR
0188 E0                MOVX    A,@DPTR
0189 FF                MOV     R7,A
018A C3                CLR     C
018B 9464              SUBB    A,#064H
018D EE                MOV     A,R6
018E 6480              XRL     A,#080H
0190 9480              SUBB    A,#080H
0192 404B              JC      ?C0094
                                           ; SOURCE LINE # 582
C51 COMPILER V9.53.0.0   TEMP                                                              12/01/2023 15:51:08 PAGE 88  

0194 7C00              MOV     R4,#00H
0196 7D64              MOV     R5,#064H
0198 120000      E     LCALL   ?C?SIDIV
019B 900000      R     MOV     DPTR,#tmp
019E EE                MOV     A,R6
019F F0                MOVX    @DPTR,A
01A0 A3                INC     DPTR
01A1 EF                MOV     A,R7
01A2 F0                MOVX    @DPTR,A
                                           ; SOURCE LINE # 584
01A3 22                RET     
                                           ; SOURCE LINE # 585
01A4         ?C0093:
                                           ; SOURCE LINE # 586
                                           ; SOURCE LINE # 587
01A4 7BFF              MOV     R3,#0FFH
01A6 7A00        R     MOV     R2,#HIGH ?SC_14
01A8 7900        R     MOV     R1,#LOW ?SC_14
01AA 900000      R     MOV     DPTR,#cur_par_id+01H
01AD E0                MOVX    A,@DPTR
01AE 25E0              ADD     A,ACC
01B0 FF                MOV     R7,A
01B1 900000      R     MOV     DPTR,#cur_par_id
01B4 E0                MOVX    A,@DPTR
01B5 33                RLC     A
01B6 FE                MOV     R6,A
01B7 7400        R     MOV     A,#LOW text_sp
01B9 2F                ADD     A,R7
01BA F582              MOV     DPL,A
01BC 7400        R     MOV     A,#HIGH text_sp
01BE 3E                ADDC    A,R6
01BF F583              MOV     DPH,A
01C1 E0                MOVX    A,@DPTR
01C2 FC                MOV     R4,A
01C3 A3                INC     DPTR
01C4 E0                MOVX    A,@DPTR
01C5 FD                MOV     R5,A
01C6 7400        R     MOV     A,#LOW par
01C8 2F                ADD     A,R7
01C9 F582              MOV     DPL,A
01CB 7400        R     MOV     A,#HIGH par
01CD 3E                ADDC    A,R6
01CE F583              MOV     DPH,A
01D0 E0                MOVX    A,@DPTR
01D1 FF                MOV     R7,A
01D2 A3                INC     DPTR
01D3 E0                MOVX    A,@DPTR
01D4 900000      E     MOV     DPTR,#?_Draw_text_change_text?BYTE+05H
01D7 CF                XCH     A,R7
01D8 F0                MOVX    @DPTR,A
01D9 A3                INC     DPTR
01DA EF                MOV     A,R7
01DB F0                MOVX    @DPTR,A
01DC 120000      E     LCALL   _Draw_text_change_text
                                           ; SOURCE LINE # 588
                                           ; SOURCE LINE # 590
                                           ; SOURCE LINE # 592
                                           ; SOURCE LINE # 593
01DF         ?C0094:
01DF 22                RET     
             ; FUNCTION _cur_par_value_change (END)

C51 COMPILER V9.53.0.0   TEMP                                                              12/01/2023 15:51:08 PAGE 89  

             ; FUNCTION _Process_Encoder (BEGIN)
                                           ; SOURCE LINE # 596
;---- Variable 'state' assigned to Register 'R5' ----
0000 AD07              MOV     R5,AR7
                                           ; SOURCE LINE # 597
                                           ; SOURCE LINE # 600
0002 900000      R     MOV     DPTR,#cur_par_id
0005 E0                MOVX    A,@DPTR
0006 FE                MOV     R6,A
0007 A3                INC     DPTR
0008 E0                MOVX    A,@DPTR
0009 FF                MOV     R7,A
000A ED                MOV     A,R5
000B 900000      R     MOV     DPTR,#shifts
000E 93                MOVC    A,@A+DPTR
000F FD                MOV     R5,A
0010 020000      R     LJMP    _cur_par_value_change
             ; FUNCTION _Process_Encoder (END)

             ; FUNCTION _par_select (BEGIN)
                                           ; SOURCE LINE # 606
0000 900000      R     MOV     DPTR,#new_par_id
0003 EF                MOV     A,R7
0004 F0                MOVX    @DPTR,A
                                           ; SOURCE LINE # 607
                                           ; SOURCE LINE # 610
0005 7E00              MOV     R6,#00H
0007 900000      R     MOV     DPTR,#cur_par_id
000A E0                MOVX    A,@DPTR
000B FC                MOV     R4,A
000C A3                INC     DPTR
000D E0                MOVX    A,@DPTR
000E FD                MOV     R5,A
000F B50705            CJNE    A,AR7,?C0096
0012 EE                MOV     A,R6
0013 B50401            CJNE    A,AR4,?C0096
0016 22                RET     
0017         ?C0096:
                                           ; SOURCE LINE # 612
                                           ; SOURCE LINE # 613
0017 ED                MOV     A,R5
0018 25E0              ADD     A,ACC
001A FF                MOV     R7,A
001B EC                MOV     A,R4
001C 33                RLC     A
001D FE                MOV     R6,A
001E 7400        R     MOV     A,#LOW text_sp
0020 2F                ADD     A,R7
0021 F582              MOV     DPL,A
0023 7400        R     MOV     A,#HIGH text_sp
0025 3E                ADDC    A,R6
0026 F583              MOV     DPH,A
0028 E0                MOVX    A,@DPTR
0029 FE                MOV     R6,A
002A A3                INC     DPTR
002B E0                MOVX    A,@DPTR
002C FF                MOV     R7,A
002D 7800        R     MOV     R0,#LOW old_color
002F E6                MOV     A,@R0
0030 FC                MOV     R4,A
0031 08                INC     R0
0032 E6                MOV     A,@R0
C51 COMPILER V9.53.0.0   TEMP                                                              12/01/2023 15:51:08 PAGE 90  

0033 FD                MOV     R5,A
0034 120000      E     LCALL   _Draw_text_change_color
                                           ; SOURCE LINE # 614
0037 900000      R     MOV     DPTR,#new_par_id
003A E0                MOVX    A,@DPTR
003B 25E0              ADD     A,ACC
003D 2400        R     ADD     A,#LOW text_sp
003F F582              MOV     DPL,A
0041 E4                CLR     A
0042 3400        R     ADDC    A,#HIGH text_sp
0044 F583              MOV     DPH,A
0046 E0                MOVX    A,@DPTR
0047 FE                MOV     R6,A
0048 A3                INC     DPTR
0049 E0                MOVX    A,@DPTR
004A FF                MOV     R7,A
004B 120000      E     LCALL   _Draw_text_get_color
004E 7800        R     MOV     R0,#LOW old_color
0050 A606              MOV     @R0,AR6
0052 08                INC     R0
0053 A607              MOV     @R0,AR7
                                           ; SOURCE LINE # 615
0055 900000      R     MOV     DPTR,#new_par_id
0058 E0                MOVX    A,@DPTR
0059 25E0              ADD     A,ACC
005B 2400        R     ADD     A,#LOW text_sp
005D F582              MOV     DPL,A
005F E4                CLR     A
0060 3400        R     ADDC    A,#HIGH text_sp
0062 F583              MOV     DPH,A
0064 E0                MOVX    A,@DPTR
0065 FE                MOV     R6,A
0066 A3                INC     DPTR
0067 E0                MOVX    A,@DPTR
0068 FF                MOV     R7,A
0069 7D1F              MOV     R5,#01FH
006B 7CF8              MOV     R4,#0F8H
006D 120000      E     LCALL   _Draw_text_change_color
                                           ; SOURCE LINE # 616
0070 900000      R     MOV     DPTR,#new_par_id
0073 E0                MOVX    A,@DPTR
0074 FF                MOV     R7,A
0075 900000      R     MOV     DPTR,#cur_par_id
0078 E4                CLR     A
0079 F0                MOVX    @DPTR,A
007A A3                INC     DPTR
007B EF                MOV     A,R7
007C F0                MOVX    @DPTR,A
                                           ; SOURCE LINE # 617
                                           ; SOURCE LINE # 618
007D         ?C0097:
007D 22                RET     
             ; FUNCTION _par_select (END)

             ; FUNCTION init_par_udgu (BEGIN)
                                           ; SOURCE LINE # 621
                                           ; SOURCE LINE # 622
                                           ; SOURCE LINE # 623
0000 7B01              MOV     R3,#01H
0002 7A00        R     MOV     R2,#HIGH par_lim+068H
0004 7900        R     MOV     R1,#LOW par_lim+068H
0006 900000      R     MOV     DPTR,#?_make_lim?BYTE+05H
C51 COMPILER V9.53.0.0   TEMP                                                              12/01/2023 15:51:08 PAGE 91  

0009 7427              MOV     A,#027H
000B F0                MOVX    @DPTR,A
000C A3                INC     DPTR
000D 7410              MOV     A,#010H
000F F0                MOVX    @DPTR,A
0010 7D64              MOV     R5,#064H
0012 7C00              MOV     R4,#00H
0014 120000      R     LCALL   _make_lim
                                           ; SOURCE LINE # 624
0017 7A00        R     MOV     R2,#HIGH par_lim+06CH
0019 7900        R     MOV     R1,#LOW par_lim+06CH
001B 120000      R     LCALL   L?0126
                                           ; SOURCE LINE # 625
001E 7A00        R     MOV     R2,#HIGH par_lim+070H
0020 7900        R     MOV     R1,#LOW par_lim+070H
0022 900000      R     MOV     DPTR,#?_make_lim?BYTE+05H
0025 7427              MOV     A,#027H
0027 F0                MOVX    @DPTR,A
0028 A3                INC     DPTR
0029 7410              MOV     A,#010H
002B F0                MOVX    @DPTR,A
002C 7D64              MOV     R5,#064H
002E 120000      R     LCALL   _make_lim
                                           ; SOURCE LINE # 626
0031 7A00        R     MOV     R2,#HIGH par_lim+074H
0033 7900        R     MOV     R1,#LOW par_lim+074H
0035 900000      R     MOV     DPTR,#?_make_lim?BYTE+05H
0038 7427              MOV     A,#027H
003A F0                MOVX    @DPTR,A
003B A3                INC     DPTR
003C 7410              MOV     A,#010H
003E F0                MOVX    @DPTR,A
003F 120000      R     LCALL   _make_lim
                                           ; SOURCE LINE # 627
0042 7A00        R     MOV     R2,#HIGH par_lim+078H
0044 7900        R     MOV     R1,#LOW par_lim+078H
0046 120000      R     LCALL   L?0126
                                           ; SOURCE LINE # 628
0049 7A00        R     MOV     R2,#HIGH par_lim+07CH
004B 7900        R     MOV     R1,#LOW par_lim+07CH
004D 900000      R     MOV     DPTR,#?_make_lim?BYTE+05H
0050 7427              MOV     A,#027H
0052 F0                MOVX    @DPTR,A
0053 A3                INC     DPTR
0054 7410              MOV     A,#010H
0056 F0                MOVX    @DPTR,A
0057 7D01              MOV     R5,#01H
0059 120000      R     LCALL   _make_lim
                                           ; SOURCE LINE # 629
005C 7A00        R     MOV     R2,#HIGH par_lim+080H
005E 7900        R     MOV     R1,#LOW par_lim+080H
0060 120000      R     LCALL   L?0127
                                           ; SOURCE LINE # 630
0063 7A00        R     MOV     R2,#HIGH par_lim+084H
0065 7900        R     MOV     R1,#LOW par_lim+084H
0067 900000      R     MOV     DPTR,#?_make_lim?BYTE+05H
006A 7427              MOV     A,#027H
006C F0                MOVX    @DPTR,A
006D A3                INC     DPTR
006E 7410              MOV     A,#010H
0070 F0                MOVX    @DPTR,A
0071 7D01              MOV     R5,#01H
C51 COMPILER V9.53.0.0   TEMP                                                              12/01/2023 15:51:08 PAGE 92  

0073 120000      R     LCALL   _make_lim
                                           ; SOURCE LINE # 631
0076 7A00        R     MOV     R2,#HIGH par_lim+088H
0078 7900        R     MOV     R1,#LOW par_lim+088H
007A 900000      R     MOV     DPTR,#?_make_lim?BYTE+05H
007D E4                CLR     A
007E F0                MOVX    @DPTR,A
007F A3                INC     DPTR
0080 74C8              MOV     A,#0C8H
0082 F0                MOVX    @DPTR,A
0083 7D14              MOV     R5,#014H
0085 120000      R     LCALL   _make_lim
                                           ; SOURCE LINE # 632
0088 7A00        R     MOV     R2,#HIGH par_lim+08CH
008A 7900        R     MOV     R1,#LOW par_lim+08CH
008C 900000      R     MOV     DPTR,#?_make_lim?BYTE+05H
008F E4                CLR     A
0090 F0                MOVX    @DPTR,A
0091 A3                INC     DPTR
0092 7450              MOV     A,#050H
0094 F0                MOVX    @DPTR,A
0095 7D1E              MOV     R5,#01EH
0097 120000      R     LCALL   _make_lim
                                           ; SOURCE LINE # 633
009A 7A00        R     MOV     R2,#HIGH par_lim+090H
009C 7900        R     MOV     R1,#LOW par_lim+090H
009E 900000      R     MOV     DPTR,#?_make_lim?BYTE+05H
00A1 7427              MOV     A,#027H
00A3 F0                MOVX    @DPTR,A
00A4 A3                INC     DPTR
00A5 7410              MOV     A,#010H
00A7 F0                MOVX    @DPTR,A
00A8 7D64              MOV     R5,#064H
00AA 120000      R     LCALL   _make_lim
                                           ; SOURCE LINE # 634
00AD 7A00        R     MOV     R2,#HIGH par_lim+094H
00AF 7900        R     MOV     R1,#LOW par_lim+094H
00B1 120000      R     LCALL   L?0127
                                           ; SOURCE LINE # 635
00B4 7A00        R     MOV     R2,#HIGH par_lim+098H
00B6 7900        R     MOV     R1,#LOW par_lim+098H
00B8 900000      R     MOV     DPTR,#?_make_lim?BYTE+05H
00BB 7427              MOV     A,#027H
00BD F0                MOVX    @DPTR,A
00BE A3                INC     DPTR
00BF 7410              MOV     A,#010H
00C1 F0                MOVX    @DPTR,A
00C2 7D64              MOV     R5,#064H
00C4 120000      R     LCALL   _make_lim
                                           ; SOURCE LINE # 636
00C7 7A00        R     MOV     R2,#HIGH par_lim+09CH
00C9 7900        R     MOV     R1,#LOW par_lim+09CH
00CB 900000      R     MOV     DPTR,#?_make_lim?BYTE+05H
00CE E4                CLR     A
00CF F0                MOVX    @DPTR,A
00D0 A3                INC     DPTR
00D1 743C              MOV     A,#03CH
00D3 F0                MOVX    @DPTR,A
00D4 7D01              MOV     R5,#01H
00D6 120000      R     LCALL   _make_lim
                                           ; SOURCE LINE # 637
00D9 7A00        R     MOV     R2,#HIGH par_lim+0A0H
C51 COMPILER V9.53.0.0   TEMP                                                              12/01/2023 15:51:08 PAGE 93  

00DB 7900        R     MOV     R1,#LOW par_lim+0A0H
00DD 900000      R     MOV     DPTR,#?_make_lim?BYTE+05H
00E0 E4                CLR     A
00E1 F0                MOVX    @DPTR,A
00E2 A3                INC     DPTR
00E3 7464              MOV     A,#064H
00E5 F0                MOVX    @DPTR,A
00E6 1D                DEC     R5
00E7 120000      R     LCALL   _make_lim
                                           ; SOURCE LINE # 638
00EA 7A00        R     MOV     R2,#HIGH par_lim+0A4H
00EC 7900        R     MOV     R1,#LOW par_lim+0A4H
00EE 120000      R     LCALL   L?0127
                                           ; SOURCE LINE # 640
00F1 900000      R     MOV     DPTR,#par_step+034H
00F4 E4                CLR     A
00F5 F0                MOVX    @DPTR,A
00F6 A3                INC     DPTR
00F7 7464              MOV     A,#064H
00F9 F0                MOVX    @DPTR,A
                                           ; SOURCE LINE # 641
00FA A3                INC     DPTR
00FB E4                CLR     A
00FC F0                MOVX    @DPTR,A
00FD A3                INC     DPTR
00FE 04                INC     A
00FF F0                MOVX    @DPTR,A
                                           ; SOURCE LINE # 642
0100 A3                INC     DPTR
0101 E4                CLR     A
0102 F0                MOVX    @DPTR,A
0103 A3                INC     DPTR
0104 7464              MOV     A,#064H
0106 F0                MOVX    @DPTR,A
                                           ; SOURCE LINE # 643
0107 A3                INC     DPTR
0108 E4                CLR     A
0109 F0                MOVX    @DPTR,A
010A A3                INC     DPTR
010B 7464              MOV     A,#064H
010D F0                MOVX    @DPTR,A
                                           ; SOURCE LINE # 644
010E A3                INC     DPTR
010F E4                CLR     A
0110 F0                MOVX    @DPTR,A
0111 A3                INC     DPTR
0112 04                INC     A
0113 F0                MOVX    @DPTR,A
                                           ; SOURCE LINE # 645
0114 A3                INC     DPTR
0115 E4                CLR     A
0116 F0                MOVX    @DPTR,A
0117 A3                INC     DPTR
0118 04                INC     A
0119 F0                MOVX    @DPTR,A
                                           ; SOURCE LINE # 646
011A A3                INC     DPTR
011B E4                CLR     A
011C F0                MOVX    @DPTR,A
011D A3                INC     DPTR
011E 04                INC     A
011F F0                MOVX    @DPTR,A
C51 COMPILER V9.53.0.0   TEMP                                                              12/01/2023 15:51:08 PAGE 94  

                                           ; SOURCE LINE # 647
0120 A3                INC     DPTR
0121 E4                CLR     A
0122 F0                MOVX    @DPTR,A
0123 A3                INC     DPTR
0124 04                INC     A
0125 F0                MOVX    @DPTR,A
                                           ; SOURCE LINE # 648
0126 A3                INC     DPTR
0127 E4                CLR     A
0128 F0                MOVX    @DPTR,A
0129 A3                INC     DPTR
012A 04                INC     A
012B F0                MOVX    @DPTR,A
                                           ; SOURCE LINE # 649
012C A3                INC     DPTR
012D E4                CLR     A
012E F0                MOVX    @DPTR,A
012F A3                INC     DPTR
0130 7405              MOV     A,#05H
0132 F0                MOVX    @DPTR,A
                                           ; SOURCE LINE # 650
0133 A3                INC     DPTR
0134 E4                CLR     A
0135 F0                MOVX    @DPTR,A
0136 A3                INC     DPTR
0137 7464              MOV     A,#064H
0139 F0                MOVX    @DPTR,A
                                           ; SOURCE LINE # 651
013A A3                INC     DPTR
013B E4                CLR     A
013C F0                MOVX    @DPTR,A
013D A3                INC     DPTR
013E 04                INC     A
013F F0                MOVX    @DPTR,A
                                           ; SOURCE LINE # 652
0140 A3                INC     DPTR
0141 E4                CLR     A
0142 F0                MOVX    @DPTR,A
0143 A3                INC     DPTR
0144 7464              MOV     A,#064H
0146 F0                MOVX    @DPTR,A
                                           ; SOURCE LINE # 653
0147 A3                INC     DPTR
0148 E4                CLR     A
0149 F0                MOVX    @DPTR,A
014A A3                INC     DPTR
014B 04                INC     A
014C F0                MOVX    @DPTR,A
                                           ; SOURCE LINE # 654
014D A3                INC     DPTR
014E E4                CLR     A
014F F0                MOVX    @DPTR,A
0150 A3                INC     DPTR
0151 04                INC     A
0152 F0                MOVX    @DPTR,A
                                           ; SOURCE LINE # 655
0153 A3                INC     DPTR
0154 E4                CLR     A
0155 F0                MOVX    @DPTR,A
0156 A3                INC     DPTR
0157 04                INC     A
C51 COMPILER V9.53.0.0   TEMP                                                              12/01/2023 15:51:08 PAGE 95  

0158 F0                MOVX    @DPTR,A
                                           ; SOURCE LINE # 658
                                           ; SOURCE LINE # 659
0159 900000      R     MOV     DPTR,#temp_ptr
015C F0                MOVX    @DPTR,A
015D A3                INC     DPTR
015E 7400        R     MOV     A,#HIGH par
0160 F0                MOVX    @DPTR,A
0161 A3                INC     DPTR
0162 7400        R     MOV     A,#LOW par
0164 F0                MOVX    @DPTR,A
                                           ; SOURCE LINE # 661
0165 E4                CLR     A
0166 A3                INC     DPTR
0167 F0                MOVX    @DPTR,A
0168         ?C0099:
                                           ; SOURCE LINE # 662
0168 900000      R     MOV     DPTR,#temp_ptr
016B E0                MOVX    A,@DPTR
016C FB                MOV     R3,A
016D A3                INC     DPTR
016E E4                CLR     A
016F 75F002            MOV     B,#02H
0172 120000      E     LCALL   ?C?ILDIX
0175 A9F0              MOV     R1,B
0177 FA                MOV     R2,A
0178 E4                CLR     A
0179 75F00A            MOV     B,#0AH
017C 120000      E     LCALL   ?C?ISTPTR
                                           ; SOURCE LINE # 663
017F 900000      R     MOV     DPTR,#i
0182 E0                MOVX    A,@DPTR
0183 04                INC     A
0184 F0                MOVX    @DPTR,A
0185 E0                MOVX    A,@DPTR
0186 B42ADF            CJNE    A,#02AH,?C0099
                                           ; SOURCE LINE # 664
                                           ; SOURCE LINE # 665
0189         ?C0102:
0189 22                RET     
             ; FUNCTION init_par_udgu (END)

             ; FUNCTION make_scene (BEGIN)
                                           ; SOURCE LINE # 669
                                           ; SOURCE LINE # 670
                                           ; SOURCE LINE # 671
0000 900000      R     MOV     DPTR,#x
0003 E4                CLR     A
0004 F0                MOVX    @DPTR,A
0005 A3                INC     DPTR
0006 7428              MOV     A,#028H
0008 F0                MOVX    @DPTR,A
                                           ; SOURCE LINE # 672
0009 A3                INC     DPTR
000A 7402              MOV     A,#02H
000C F0                MOVX    @DPTR,A
000D A3                INC     DPTR
000E 7426              MOV     A,#026H
0010 F0                MOVX    @DPTR,A
                                           ; SOURCE LINE # 675
0011 120000      E     LCALL   drawing_init
                                           ; SOURCE LINE # 677
C51 COMPILER V9.53.0.0   TEMP                                                              12/01/2023 15:51:08 PAGE 96  

0014 120000      E     LCALL   Draw_clear_screen
                                           ; SOURCE LINE # 678
0017 120000      R     LCALL   init_par_udgu
                                           ; SOURCE LINE # 680
001A E4                CLR     A
001B 900000      R     MOV     DPTR,#i
001E F0                MOVX    @DPTR,A
001F         ?C0103:
                                           ; SOURCE LINE # 681
001F 74FF              MOV     A,#0FFH
0021 FB                MOV     R3,A
0022 FA                MOV     R2,A
0023 E4                CLR     A
0024 FD                MOV     R5,A
0025 FC                MOV     R4,A
0026 FF                MOV     R7,A
0027 FE                MOV     R6,A
0028 120000      E     LCALL   _draw_image
002B 900000      R     MOV     DPTR,#i
002E E0                MOVX    A,@DPTR
002F 25E0              ADD     A,ACC
0031 2400        R     ADD     A,#LOW icon_sp_bottom_menu
0033 F582              MOV     DPL,A
0035 E4                CLR     A
0036 3400        R     ADDC    A,#HIGH icon_sp_bottom_menu
0038 F583              MOV     DPH,A
003A EE                MOV     A,R6
003B F0                MOVX    @DPTR,A
003C A3                INC     DPTR
003D EF                MOV     A,R7
003E F0                MOVX    @DPTR,A
                                           ; SOURCE LINE # 682
003F 900000      R     MOV     DPTR,#i
0042 E0                MOVX    A,@DPTR
0043 04                INC     A
0044 F0                MOVX    @DPTR,A
0045 E0                MOVX    A,@DPTR
0046 C3                CLR     C
0047 9410              SUBB    A,#010H
0049 40D4              JC      ?C0103
004B         ?C0104:
                                           ; SOURCE LINE # 684
004B 120000      R     LCALL   make_bottom_menu
                                           ; SOURCE LINE # 686
004E 900000      R     MOV     DPTR,#cur_par_id
0051 E4                CLR     A
0052 F0                MOVX    @DPTR,A
0053 A3                INC     DPTR
0054 741E              MOV     A,#01EH
0056 F0                MOVX    @DPTR,A
                                           ; SOURCE LINE # 689
0057 7800        R     MOV     R0,#LOW main_menu_bm
0059 120000      E     LCALL   ?C?LLDIDATA
005C EF                MOV     A,R7
005D 5401              ANL     A,#01H
005F FF                MOV     R7,A
0060 E4                CLR     A
0061 FE                MOV     R6,A
0062 FD                MOV     R5,A
0063 FC                MOV     R4,A
0064 EF                MOV     A,R7
0065 7003              JNZ     $ + 5H
C51 COMPILER V9.53.0.0   TEMP                                                              12/01/2023 15:51:08 PAGE 97  

0067 020000      R     LJMP    ?C0106
                                           ; SOURCE LINE # 691
006A 7800        R     MOV     R0,#LOW LINE_WIDTH
006C 7600              MOV     @R0,#00H
006E 08                INC     R0
006F 7696              MOV     @R0,#096H
                                           ; SOURCE LINE # 692
0071 7800        R     MOV     R0,#LOW FONT_SIZE
0073 7600              MOV     @R0,#00H
0075 08                INC     R0
0076 7623              MOV     @R0,#023H
                                           ; SOURCE LINE # 693
0078 900000      R     MOV     DPTR,#x
007B E0                MOVX    A,@DPTR
007C FE                MOV     R6,A
007D A3                INC     DPTR
007E E0                MOVX    A,@DPTR
007F FF                MOV     R7,A
0080 A3                INC     DPTR
0081 E0                MOVX    A,@DPTR
0082 FC                MOV     R4,A
0083 A3                INC     DPTR
0084 E0                MOVX    A,@DPTR
0085 FD                MOV     R5,A
0086 120000      E     LCALL   _make_point
0089 7800        R     MOV     R0,#LOW ?add_t_preflow?BYTE
008B 7C00        R     MOV     R4,#HIGH ?add_t_preflow?BYTE
008D 7D01              MOV     R5,#01H
008F 7E00              MOV     R6,#00H
0091 7F04              MOV     R7,#04H
0093 120000      E     LCALL   ?C?COPY
0096 120000      R     LCALL   add_t_preflow
                                           ; SOURCE LINE # 694
0099 120000      R     LCALL   L?0123
                                           ; SOURCE LINE # 695
009C 120000      R     LCALL   L?0128
009F 7800        R     MOV     R0,#LOW p
00A1 7C00        R     MOV     R4,#HIGH p
00A3 7D01              MOV     R5,#01H
00A5 7E00              MOV     R6,#00H
00A7 7F04              MOV     R7,#04H
00A9 120000      E     LCALL   ?C?COPY
                                           ; SOURCE LINE # 696
00AC 7800        R     MOV     R0,#LOW ?add_t_up?BYTE
00AE 7C00        R     MOV     R4,#HIGH ?add_t_up?BYTE
00B0 7D01              MOV     R5,#01H
00B2 7B01              MOV     R3,#01H
00B4 7A00        R     MOV     R2,#HIGH p
00B6 7900        R     MOV     R1,#LOW p
00B8 7E00              MOV     R6,#00H
00BA 7F04              MOV     R7,#04H
00BC 120000      E     LCALL   ?C?COPY
00BF 120000      R     LCALL   add_t_up
                                           ; SOURCE LINE # 697
00C2 120000      R     LCALL   L?0129
                                           ; SOURCE LINE # 698
00C5 120000      R     LCALL   L?0119
                                           ; SOURCE LINE # 699
00C8 120000      R     LCALL   L?0130
                                           ; SOURCE LINE # 700
00CB 120000      R     LCALL   L?0123
00CE 7800        R     MOV     R0,#LOW p
C51 COMPILER V9.53.0.0   TEMP                                                              12/01/2023 15:51:08 PAGE 98  

00D0 7C00        R     MOV     R4,#HIGH p
00D2 7D01              MOV     R5,#01H
00D4 7E00              MOV     R6,#00H
00D6 7F04              MOV     R7,#04H
00D8 120000      E     LCALL   ?C?COPY
                                           ; SOURCE LINE # 701
00DB 7800        R     MOV     R0,#LOW ?add_t_down?BYTE
00DD 7C00        R     MOV     R4,#HIGH ?add_t_down?BYTE
00DF 7D01              MOV     R5,#01H
00E1 7B01              MOV     R3,#01H
00E3 7A00        R     MOV     R2,#HIGH p
00E5 7900        R     MOV     R1,#LOW p
00E7 7E00              MOV     R6,#00H
00E9 7F04              MOV     R7,#04H
00EB 120000      E     LCALL   ?C?COPY
00EE 120000      R     LCALL   add_t_down
00F1 7800        R     MOV     R0,#LOW p
00F3 7C00        R     MOV     R4,#HIGH p
00F5 7D01              MOV     R5,#01H
00F7 7E00              MOV     R6,#00H
00F9 7F04              MOV     R7,#04H
00FB 120000      E     LCALL   ?C?COPY
                                           ; SOURCE LINE # 702
00FE 7800        R     MOV     R0,#LOW ?add_end_i_t?BYTE
0100 7C00        R     MOV     R4,#HIGH ?add_end_i_t?BYTE
0102 7D01              MOV     R5,#01H
0104 7B01              MOV     R3,#01H
0106 7A00        R     MOV     R2,#HIGH p
0108 7900        R     MOV     R1,#LOW p
010A 7E00              MOV     R6,#00H
010C 7F04              MOV     R7,#04H
010E 120000      E     LCALL   ?C?COPY
0111 120000      R     LCALL   add_end_i_t
                                           ; SOURCE LINE # 703
0114 120000      R     LCALL   L?0119
0117 7800        R     MOV     R0,#LOW p
0119 7C00        R     MOV     R4,#HIGH p
011B 7D01              MOV     R5,#01H
011D 7E00              MOV     R6,#00H
011F 7F04              MOV     R7,#04H
0121 120000      E     LCALL   ?C?COPY
                                           ; SOURCE LINE # 704
0124 7800        R     MOV     R0,#LOW ?add_t_postflow?BYTE
0126 7C00        R     MOV     R4,#HIGH ?add_t_postflow?BYTE
0128 7D01              MOV     R5,#01H
012A 7B01              MOV     R3,#01H
012C 7A00        R     MOV     R2,#HIGH p
012E 7900        R     MOV     R1,#LOW p
0130 7E00              MOV     R6,#00H
0132 7F04              MOV     R7,#04H
0134 120000      E     LCALL   ?C?COPY
0137 120000      R     LCALL   add_t_postflow
                                           ; SOURCE LINE # 707
013A 020000      R     LJMP    ?C0118
013D         ?C0106:
013D 7800        R     MOV     R0,#LOW main_menu_bm
013F 120000      E     LCALL   ?C?LLDIDATA
0142 EF                MOV     A,R7
0143 5404              ANL     A,#04H
0145 FF                MOV     R7,A
0146 E4                CLR     A
0147 FE                MOV     R6,A
C51 COMPILER V9.53.0.0   TEMP                                                              12/01/2023 15:51:08 PAGE 99  

0148 FD                MOV     R5,A
0149 FC                MOV     R4,A
014A EF                MOV     A,R7
014B 7003              JNZ     $ + 5H
014D 020000      R     LJMP    ?C0112
                                           ; SOURCE LINE # 709
0150 7800        R     MOV     R0,#LOW main_menu_bm
0152 120000      E     LCALL   ?C?LLDIDATA
0155 EE                MOV     A,R6
0156 5420              ANL     A,#020H
0158 FE                MOV     R6,A
0159 EE                MOV     A,R6
015A 7800        R     MOV     R0,#LOW LINE_WIDTH
015C 600E              JZ      ?C0109
                                           ; SOURCE LINE # 710
015E 7601              MOV     @R0,#01H
0160 08                INC     R0
0161 762C              MOV     @R0,#02CH
                                           ; SOURCE LINE # 711
0163 7800        R     MOV     R0,#LOW FONT_SIZE
0165 7600              MOV     @R0,#00H
0167 08                INC     R0
0168 7630              MOV     @R0,#030H
                                           ; SOURCE LINE # 712
016A 800C              SJMP    ?C0110
016C         ?C0109:
                                           ; SOURCE LINE # 713
016C 7601              MOV     @R0,#01H
016E 08                INC     R0
016F 7690              MOV     @R0,#090H
                                           ; SOURCE LINE # 714
0171 7800        R     MOV     R0,#LOW FONT_SIZE
0173 7600              MOV     @R0,#00H
0175 08                INC     R0
0176 7640              MOV     @R0,#040H
                                           ; SOURCE LINE # 715
0178         ?C0110:
                                           ; SOURCE LINE # 717
0178 7DC2              MOV     R5,#0C2H
017A 7C01              MOV     R4,#01H
017C 7F28              MOV     R7,#028H
017E 7E00              MOV     R6,#00H
0180 120000      E     LCALL   _make_point
0183 7800        R     MOV     R0,#LOW ?dummy_line_up?BYTE
0185 7C00        R     MOV     R4,#HIGH ?dummy_line_up?BYTE
0187 7D01              MOV     R5,#01H
0189 120000      R     LCALL   L?0125
                                           ; SOURCE LINE # 718
018C 120000      R     LCALL   L?0128
                                           ; SOURCE LINE # 719
018F 120000      R     LCALL   L?0120
                                           ; SOURCE LINE # 720
0192 120000      R     LCALL   L?0129
0195 7800        R     MOV     R0,#LOW p
0197 7C00        R     MOV     R4,#HIGH p
0199 7D01              MOV     R5,#01H
019B 7E00              MOV     R6,#00H
019D 7F04              MOV     R7,#04H
019F 120000      E     LCALL   ?C?COPY
                                           ; SOURCE LINE # 721
01A2 7800        R     MOV     R0,#LOW main_menu_bm
01A4 120000      E     LCALL   ?C?LLDIDATA
C51 COMPILER V9.53.0.0   TEMP                                                              12/01/2023 15:51:08 PAGE 100 

01A7 EE                MOV     A,R6
01A8 5420              ANL     A,#020H
01AA FE                MOV     R6,A
01AB E4                CLR     A
01AC FD                MOV     R5,A
01AD EE                MOV     A,R6
01AE 601A              JZ      ?C0111
                                           ; SOURCE LINE # 722
01B0 7B01              MOV     R3,#01H
01B2 7800        R     MOV     R0,#LOW ?dummy_line_up?BYTE
01B4 7C00        R     MOV     R4,#HIGH ?dummy_line_up?BYTE
01B6 0D                INC     R5
01B7 120000      R     LCALL   L?0124
                                           ; SOURCE LINE # 723
01BA 120000      R     LCALL   L?0130
01BD 7800        R     MOV     R0,#LOW p
01BF 7C00        R     MOV     R4,#HIGH p
01C1 7D01              MOV     R5,#01H
01C3 7E00              MOV     R6,#00H
01C5 7F04              MOV     R7,#04H
01C7 120000      E     LCALL   ?C?COPY
                                           ; SOURCE LINE # 724
01CA         ?C0111:
                                           ; SOURCE LINE # 725
01CA 7800        R     MOV     R0,#LOW ?add_i_kz?BYTE
01CC 7C00        R     MOV     R4,#HIGH ?add_i_kz?BYTE
01CE 7D01              MOV     R5,#01H
01D0 7B01              MOV     R3,#01H
01D2 7A00        R     MOV     R2,#HIGH p
01D4 7900        R     MOV     R1,#LOW p
01D6 7E00              MOV     R6,#00H
01D8 7F04              MOV     R7,#04H
01DA 120000      E     LCALL   ?C?COPY
01DD 120000      R     LCALL   add_i_kz
                                           ; SOURCE LINE # 726
01E0 120000      R     LCALL   L?0120
                                           ; SOURCE LINE # 727
01E3 120000      R     LCALL   L?0120
01E6         ?C0118:
01E6 7800        R     MOV     R0,#LOW p
01E8 7C00        R     MOV     R4,#HIGH p
01EA 7D01              MOV     R5,#01H
01EC 7E00              MOV     R6,#00H
01EE 7F04              MOV     R7,#04H
01F0 120000      E     LCALL   ?C?COPY
                                           ; SOURCE LINE # 728
                                           ; SOURCE LINE # 753
01F3         ?C0112:
01F3 22                RET     
             ; FUNCTION make_scene (END)

C51 COMPILER V9.53.0.0   TEMP                                                              12/01/2023 15:51:08 PAGE 101 

NAME                                    CLASS   MSPACE  TYPE    OFFSET  SIZE
====                                    =====   ======  ====    ======  ====


_image_change_id . . . . . . . . . . .  EXTERN   CODE   PROC     -----  -----
EIID_BASE2_I2X . . . . . . . . . . . .  E_CONST  -----  U_CHAR   -----  1
LINE_HIGHT . . . . . . . . . . . . . .  PUBLIC   CODE   U_CHAR   0016H  1
icon_t . . . . . . . . . . . . . . . .  TYPEDEF  -----  STRUCT   -----  9
  ico. . . . . . . . . . . . . . . . .  MEMBER   -----  U_CHAR   0000H  1
  r. . . . . . . . . . . . . . . . . .  MEMBER   -----  STRUCT   0001H  8
dummy_line_up. . . . . . . . . . . . .  PUBLIC   CODE   PROC     0020H  -----
  p. . . . . . . . . . . . . . . . . .  AUTO     XDATA  STRUCT   0000H  4
  p2 . . . . . . . . . . . . . . . . .  AUTO     XDATA  STRUCT   0004H  4
EIID_AC. . . . . . . . . . . . . . . .  E_CONST  -----  U_CHAR   -----  1
icon_sp_bottom_menu. . . . . . . . . .  PUBLIC   XDATA  ARRAY    0001H  32
EIID_BASE_T4 . . . . . . . . . . . . .  E_CONST  -----  U_CHAR   -----  1
EIID_D_10. . . . . . . . . . . . . . .  E_CONST  -----  U_CHAR   -----  1
cur_menu_size. . . . . . . . . . . . .  PUBLIC   XDATA  U_CHAR   0021H  1
point_t. . . . . . . . . . . . . . . .  TYPEDEF  -----  STRUCT   -----  4
  x. . . . . . . . . . . . . . . . . .  MEMBER   -----  U_INT    0000H  2
  y. . . . . . . . . . . . . . . . . .  MEMBER   -----  U_INT    0002H  2
EIID_H2O_OFF . . . . . . . . . . . . .  E_CONST  -----  U_CHAR   -----  1
EIID_D_20. . . . . . . . . . . . . . .  E_CONST  -----  U_CHAR   -----  1
EIID_2T. . . . . . . . . . . . . . . .  E_CONST  -----  U_CHAR   -----  1
EIID_FREQ_F1 . . . . . . . . . . . . .  E_CONST  -----  U_CHAR   -----  1
EIID_D_40. . . . . . . . . . . . . . .  E_CONST  -----  U_CHAR   -----  1
EIID_4T. . . . . . . . . . . . . . . .  E_CONST  -----  U_CHAR   -----  1
rect_t . . . . . . . . . . . . . . . .  TYPEDEF  -----  STRUCT   -----  8
  x0 . . . . . . . . . . . . . . . . .  MEMBER   -----  U_INT    0000H  2
  y0 . . . . . . . . . . . . . . . . .  MEMBER   -----  U_INT    0002H  2
  x1 . . . . . . . . . . . . . . . . .  MEMBER   -----  U_INT    0004H  2
  y1 . . . . . . . . . . . . . . . . .  MEMBER   -----  U_INT    0006H  2
_image_change_pos. . . . . . . . . . .  EXTERN   CODE   PROC     -----  -----
active_items . . . . . . . . . . . . .  PUBLIC   CODE   ARRAY    001BH  12
EIID_D_32. . . . . . . . . . . . . . .  E_CONST  -----  U_CHAR   -----  1
EIID_PULSE_ON. . . . . . . . . . . . .  E_CONST  -----  U_CHAR   -----  1
_Draw_text_change_color. . . . . . . .  EXTERN   CODE   PROC     -----  -----
EIID_D_24. . . . . . . . . . . . . . .  E_CONST  -----  U_CHAR   -----  1
EIID_D_16. . . . . . . . . . . . . . .  E_CONST  -----  U_CHAR   -----  1
drawing_init . . . . . . . . . . . . .  EXTERN   CODE   PROC     -----  -----
EIID_IMPULSE_T5. . . . . . . . . . . .  E_CONST  -----  U_CHAR   -----  1
_Process_Encoder . . . . . . . . . . .  PUBLIC   CODE   PROC     0000H  -----
  state. . . . . . . . . . . . . . . .  * REG *  DATA   U_CHAR   0005H  1
  shifts . . . . . . . . . . . . . . .  STATIC   CODE   ARRAY    0047H  4
EIID_UP_T3 . . . . . . . . . . . . . .  E_CONST  -----  U_CHAR   -----  1
EIID_TIG_SPOT. . . . . . . . . . . . .  E_CONST  -----  U_CHAR   -----  1
EIID_HF. . . . . . . . . . . . . . . .  E_CONST  -----  U_CHAR   -----  1
_sprintf . . . . . . . . . . . . . . .  EXTERN   CODE   PROC     -----  -----
text_sp. . . . . . . . . . . . . . . .  PUBLIC   XDATA  ARRAY    0022H  84
LINE_WIDTH . . . . . . . . . . . . . .  PUBLIC   IDATA  U_INT    0002H  2
_change_number_pos . . . . . . . . . .  EXTERN   CODE   PROC     -----  -----
TIG_SPOT . . . . . . . . . . . . . . .  E_CONST  -----  U_CHAR   -----  1
dgus_text_display_t. . . . . . . . . .  TYPEDEF  -----  STRUCT   -----  26
  vp . . . . . . . . . . . . . . . . .  MEMBER   -----  U_INT    0000H  2
  start_pos. . . . . . . . . . . . . .  MEMBER   -----  STRUCT   0002H  4
  color. . . . . . . . . . . . . . . .  MEMBER   -----  U_INT    0006H  2
  lh . . . . . . . . . . . . . . . . .  MEMBER   -----  STRUCT   0008H  4
  rl . . . . . . . . . . . . . . . . .  MEMBER   -----  STRUCT   000CH  4
  text_len . . . . . . . . . . . . . .  MEMBER   -----  U_INT    0010H  2
  font0_id . . . . . . . . . . . . . .  MEMBER   -----  U_CHAR   0012H  1
  font1_id . . . . . . . . . . . . . .  MEMBER   -----  U_CHAR   0013H  1
C51 COMPILER V9.53.0.0   TEMP                                                              12/01/2023 15:51:08 PAGE 102 

NAME                                    CLASS   MSPACE  TYPE    OFFSET  SIZE
====                                    =====   ======  ====    ======  ====


  font_x_dots. . . . . . . . . . . . .  MEMBER   -----  U_CHAR   0014H  1
  font_y_dots. . . . . . . . . . . . .  MEMBER   -----  U_CHAR   0015H  1
  encode_mode. . . . . . . . . . . . .  MEMBER   -----  U_CHAR   0016H  1
  hor_dis. . . . . . . . . . . . . . .  MEMBER   -----  U_CHAR   0017H  1
  ver_dis. . . . . . . . . . . . . . .  MEMBER   -----  U_CHAR   0018H  1
  undef. . . . . . . . . . . . . . . .  MEMBER   -----  U_CHAR   0019H  1
dgus_data_variable_display_t . . . . .  TYPEDEF  -----  STRUCT   -----  20
  vp . . . . . . . . . . . . . . . . .  MEMBER   -----  U_INT    0000H  2
  upper_left_point . . . . . . . . . .  MEMBER   -----  STRUCT   0002H  4
  color. . . . . . . . . . . . . . . .  MEMBER   -----  U_INT    0006H  2
  lib_id . . . . . . . . . . . . . . .  MEMBER   -----  U_CHAR   0008H  1
  font_size. . . . . . . . . . . . . .  MEMBER   -----  U_CHAR   0009H  1
  alignment. . . . . . . . . . . . . .  MEMBER   -----  U_CHAR   000AH  1
  integer_digits . . . . . . . . . . .  MEMBER   -----  U_CHAR   000BH  1
  decimal_places . . . . . . . . . . .  MEMBER   -----  U_CHAR   000CH  1
  variable_data_type . . . . . . . . .  MEMBER   -----  U_CHAR   000DH  1
  len_unit . . . . . . . . . . . . . .  MEMBER   -----  U_CHAR   000EH  1
  string_unit. . . . . . . . . . . . .  MEMBER   -----  ARRAY    000FH  5
size_t . . . . . . . . . . . . . . . .  TYPEDEF  -----  U_INT    -----  2
make_scene . . . . . . . . . . . . . .  PUBLIC   CODE   PROC     0000H  -----
  p. . . . . . . . . . . . . . . . . .  AUTO     XDATA  STRUCT   0005H  4
  p. . . . . . . . . . . . . . . . . .  AUTO     XDATA  STRUCT   0005H  4
  x. . . . . . . . . . . . . . . . . .  AUTO     XDATA  U_INT    0000H  2
  y. . . . . . . . . . . . . . . . . .  AUTO     XDATA  U_INT    0002H  2
  i. . . . . . . . . . . . . . . . . .  AUTO     XDATA  U_CHAR   0004H  1
LEVEL_HEIGHT . . . . . . . . . . . . .  PUBLIC   CODE   U_CHAR   0017H  1
_draw_image. . . . . . . . . . . . . .  EXTERN   CODE   PROC     -----  -----
draw_number_centered_on_line . . . . .  PUBLIC   CODE   PROC     0000H  -----
  line_start . . . . . . . . . . . . .  AUTO     XDATA  STRUCT   0000H  4
  n. . . . . . . . . . . . . . . . . .  AUTO     XDATA  U_INT    0004H  2
  decimal_places . . . . . . . . . . .  AUTO     XDATA  U_CHAR   0006H  1
  units. . . . . . . . . . . . . . . .  AUTO     XDATA  PTR      0007H  3
  font_size. . . . . . . . . . . . . .  AUTO     XDATA  U_INT    000AH  2
  color. . . . . . . . . . . . . . . .  AUTO     XDATA  U_INT    000CH  2
  touch_id . . . . . . . . . . . . . .  AUTO     XDATA  U_CHAR   000EH  1
  integer_digits . . . . . . . . . . .  AUTO     XDATA  U_INT    000FH  2
  buf. . . . . . . . . . . . . . . . .  AUTO     XDATA  ARRAY    0011H  20
lim_t. . . . . . . . . . . . . . . . .  TYPEDEF  -----  STRUCT   -----  4
  min. . . . . . . . . . . . . . . . .  MEMBER   -----  INT      0000H  2
  max. . . . . . . . . . . . . . . . .  MEMBER   -----  INT      0002H  2
add_t_down . . . . . . . . . . . . . .  PUBLIC   CODE   PROC     0000H  -----
  p. . . . . . . . . . . . . . . . . .  AUTO     XDATA  STRUCT   0000H  4
  p2 . . . . . . . . . . . . . . . . .  AUTO     XDATA  STRUCT   0004H  4
_add_touch_place . . . . . . . . . . .  PUBLIC   CODE   PROC     002EH  -----
  x0 . . . . . . . . . . . . . . . . .  AUTO     XDATA  U_INT    0000H  2
  y0 . . . . . . . . . . . . . . . . .  AUTO     XDATA  U_INT    0002H  2
  x1 . . . . . . . . . . . . . . . . .  AUTO     DATA   U_INT    0002H  2
  y1 . . . . . . . . . . . . . . . . .  AUTO     XDATA  U_INT    0006H  2
  touch_id . . . . . . . . . . . . . .  AUTO     XDATA  U_CHAR   0008H  1
number_info. . . . . . . . . . . . . .  PUBLIC   XDATA  ARRAY    0076H  294
_strlen. . . . . . . . . . . . . . . .  EXTERN   CODE   PROC     -----  -----
cur_par_id . . . . . . . . . . . . . .  PUBLIC   XDATA  U_INT    019CH  2
EIID_DOWN_T6 . . . . . . . . . . . . .  E_CONST  -----  U_CHAR   -----  1
TOUCH_HEIGHT . . . . . . . . . . . . .  PUBLIC   CODE   U_CHAR   0018H  1
SCREEN_WIDTH . . . . . . . . . . . . .  STATIC   CODE   U_INT    0012H  2
_redraw_number_centered. . . . . . . .  PUBLIC   CODE   PROC     0000H  -----
  id . . . . . . . . . . . . . . . . .  AUTO     XDATA  U_CHAR   0000H  1
C51 COMPILER V9.53.0.0   TEMP                                                              12/01/2023 15:51:08 PAGE 103 

NAME                                    CLASS   MSPACE  TYPE    OFFSET  SIZE
====                                    =====   ======  ====    ======  ====


  n. . . . . . . . . . . . . . . . . .  AUTO     XDATA  U_INT    0001H  2
  places . . . . . . . . . . . . . . .  AUTO     XDATA  U_INT    0003H  2
_par_select. . . . . . . . . . . . . .  PUBLIC   CODE   PROC     0000H  -----
  new_par_id . . . . . . . . . . . . .  AUTO     XDATA  U_CHAR   0000H  1
  old_color. . . . . . . . . . . . . .  STATIC   IDATA  U_INT    0000H  2
EIID_DC_PLUS . . . . . . . . . . . . .  E_CONST  -----  U_CHAR   -----  1
EIID_4T_PLUS . . . . . . . . . . . . .  E_CONST  -----  U_CHAR   -----  1
_Draw_text_change_text . . . . . . . .  EXTERN   CODE   PROC     -----  -----
MSPIFLASH. . . . . . . . . . . . . . .  TYPEDEF  -----  STRUCT   -----  16
  Mode . . . . . . . . . . . . . . . .  MEMBER   -----  U_CHAR   0000H  1
  ID . . . . . . . . . . . . . . . . .  MEMBER   -----  U_INT    0001H  2
  FLAddr . . . . . . . . . . . . . . .  MEMBER   -----  U_LONG   0003H  4
  VPAddr . . . . . . . . . . . . . . .  MEMBER   -----  U_INT    0007H  2
  Len. . . . . . . . . . . . . . . . .  MEMBER   -----  U_INT    0009H  2
  Buf. . . . . . . . . . . . . . . . .  MEMBER   -----  PTR      000BH  3
  Delay. . . . . . . . . . . . . . . .  MEMBER   -----  U_INT    000EH  2
_mSPIFLASH . . . . . . . . . . . . . .  * TAG *  -----  STRUCT   -----  16
  Mode . . . . . . . . . . . . . . . .  MEMBER   -----  U_CHAR   0000H  1
  ID . . . . . . . . . . . . . . . . .  MEMBER   -----  U_INT    0001H  2
  FLAddr . . . . . . . . . . . . . . .  MEMBER   -----  U_LONG   0003H  4
  VPAddr . . . . . . . . . . . . . . .  MEMBER   -----  U_INT    0007H  2
  Len. . . . . . . . . . . . . . . . .  MEMBER   -----  U_INT    0009H  2
  Buf. . . . . . . . . . . . . . . . .  MEMBER   -----  PTR      000BH  3
  Delay. . . . . . . . . . . . . . . .  MEMBER   -----  U_INT    000EH  2
s8 . . . . . . . . . . . . . . . . . .  TYPEDEF  -----  CHAR     -----  1
EIID_RECT. . . . . . . . . . . . . . .  E_CONST  -----  U_CHAR   -----  1
add_i_t_impulse. . . . . . . . . . . .  PUBLIC   CODE   PROC     0020H  -----
  p. . . . . . . . . . . . . . . . . .  AUTO     XDATA  STRUCT   0000H  4
  p2 . . . . . . . . . . . . . . . . .  AUTO     XDATA  STRUCT   0004H  4
EIID_LIFT. . . . . . . . . . . . . . .  E_CONST  -----  U_CHAR   -----  1
u8 . . . . . . . . . . . . . . . . . .  TYPEDEF  -----  U_CHAR   -----  1
_make_point. . . . . . . . . . . . . .  EXTERN   CODE   PROC     -----  -----
MNORFLASH. . . . . . . . . . . . . . .  TYPEDEF  -----  STRUCT   -----  12
  Mode . . . . . . . . . . . . . . . .  MEMBER   -----  U_CHAR   0000H  1
  FLAddr . . . . . . . . . . . . . . .  MEMBER   -----  U_LONG   0001H  4
  VPAddr . . . . . . . . . . . . . . .  MEMBER   -----  U_INT    0005H  2
  Len. . . . . . . . . . . . . . . . .  MEMBER   -----  U_INT    0007H  2
  Buf. . . . . . . . . . . . . . . . .  MEMBER   -----  PTR      0009H  3
_mNORFLASH . . . . . . . . . . . . . .  * TAG *  -----  STRUCT   -----  12
  Mode . . . . . . . . . . . . . . . .  MEMBER   -----  U_CHAR   0000H  1
  FLAddr . . . . . . . . . . . . . . .  MEMBER   -----  U_LONG   0001H  4
  VPAddr . . . . . . . . . . . . . . .  MEMBER   -----  U_INT    0005H  2
  Len. . . . . . . . . . . . . . . . .  MEMBER   -----  U_INT    0007H  2
  Buf. . . . . . . . . . . . . . . . .  MEMBER   -----  PTR      0009H  3
_do_nothing. . . . . . . . . . . . . .  PUBLIC   CODE   PROC     0000H  -----
  item_pos . . . . . . . . . . . . . .  AUTO     XDATA  U_CHAR   0000H  1
  sw . . . . . . . . . . . . . . . . .  STATIC   XDATA  U_CHAR   0000H  1
MEN_WELD_MOD . . . . . . . . . . . . .  E_CONST  -----  U_CHAR   -----  1
make_bottom_menu . . . . . . . . . . .  PUBLIC   CODE   PROC     0000H  -----
  i. . . . . . . . . . . . . . . . . .  AUTO     XDATA  U_CHAR   0000H  1
  id . . . . . . . . . . . . . . . . .  AUTO     XDATA  U_CHAR   0001H  1
  start_x. . . . . . . . . . . . . . .  AUTO     XDATA  U_INT    0002H  2
  start_y. . . . . . . . . . . . . . .  AUTO     XDATA  U_INT    0004H  2
  id_bm. . . . . . . . . . . . . . . .  AUTO     XDATA  U_LONG   0006H  4
EIID_END_I4. . . . . . . . . . . . . .  E_CONST  -----  U_CHAR   -----  1
ENC_L0 . . . . . . . . . . . . . . . .  E_CONST  -----  U_CHAR   -----  1
EIID_TRIG. . . . . . . . . . . . . . .  E_CONST  -----  U_CHAR   -----  1
C51 COMPILER V9.53.0.0   TEMP                                                              12/01/2023 15:51:08 PAGE 104 

NAME                                    CLASS   MSPACE  TYPE    OFFSET  SIZE
====                                    =====   ======  ====    ======  ====


ENC_L1 . . . . . . . . . . . . . . . .  E_CONST  -----  U_CHAR   -----  1
EIID_TRAP. . . . . . . . . . . . . . .  E_CONST  -----  U_CHAR   -----  1
dgus_variables_icon_t. . . . . . . . .  TYPEDEF  -----  STRUCT   -----  20
  vp . . . . . . . . . . . . . . . . .  MEMBER   -----  U_INT    0000H  2
  upper_left_point . . . . . . . . . .  MEMBER   -----  STRUCT   0002H  4
  v_min. . . . . . . . . . . . . . . .  MEMBER   -----  U_INT    0006H  2
  v_max. . . . . . . . . . . . . . . .  MEMBER   -----  U_INT    0008H  2
  icon_min . . . . . . . . . . . . . .  MEMBER   -----  U_INT    000AH  2
  icon_max . . . . . . . . . . . . . .  MEMBER   -----  U_INT    000CH  2
  icon_lib . . . . . . . . . . . . . .  MEMBER   -----  U_CHAR   000EH  1
  mode . . . . . . . . . . . . . . . .  MEMBER   -----  U_CHAR   000FH  1
  layer_mode . . . . . . . . . . . . .  MEMBER   -----  U_CHAR   0010H  1
  icon_gamma . . . . . . . . . . . . .  MEMBER   -----  U_CHAR   0011H  1
  pic_gamma. . . . . . . . . . . . . .  MEMBER   -----  U_CHAR   0012H  1
  filter_set . . . . . . . . . . . . .  MEMBER   -----  U_CHAR   0013H  1
_Draw_text . . . . . . . . . . . . . .  EXTERN   CODE   PROC     -----  -----
EIID_SIZE. . . . . . . . . . . . . . .  E_CONST  -----  U_CHAR   -----  1
ENC_R0 . . . . . . . . . . . . . . . .  E_CONST  -----  U_CHAR   -----  1
add_i_kz . . . . . . . . . . . . . . .  PUBLIC   CODE   PROC     0000H  -----
  p. . . . . . . . . . . . . . . . . .  AUTO     XDATA  STRUCT   0000H  4
  p2 . . . . . . . . . . . . . . . . .  AUTO     XDATA  STRUCT   0004H  4
ENC_R1 . . . . . . . . . . . . . . . .  E_CONST  -----  U_CHAR   -----  1
EIID_BALANCE_D1. . . . . . . . . . . .  E_CONST  -----  U_CHAR   -----  1
_draw_line . . . . . . . . . . . . . .  EXTERN   CODE   PROC     -----  -----
_cur_par_value_change. . . . . . . . .  PUBLIC   CODE   PROC     0000H  -----
  cur_par_id . . . . . . . . . . . . .  AUTO     XDATA  U_INT    0000H  2
  shift. . . . . . . . . . . . . . . .  * REG *  DATA   CHAR     0003H  1
  tmp. . . . . . . . . . . . . . . . .  AUTO     XDATA  INT      0002H  2
MEN_FLOW_MOD . . . . . . . . . . . . .  E_CONST  -----  U_CHAR   -----  1
EIID_END_T7. . . . . . . . . . . . . .  E_CONST  -----  U_CHAR   -----  1
_make_lim. . . . . . . . . . . . . . .  PUBLIC   CODE   PROC     000CH  -----
  lim. . . . . . . . . . . . . . . . .  AUTO     DATA   PTR      0001H  3
  min. . . . . . . . . . . . . . . . .  AUTO     DATA   INT      0004H  2
  max. . . . . . . . . . . . . . . . .  AUTO     XDATA  INT      0005H  2
cur_menu_active. . . . . . . . . . . .  PUBLIC   XDATA  U_LONG   019EH  4
EIID_H2O_ON. . . . . . . . . . . . . .  E_CONST  -----  U_CHAR   -----  1
EIID_PULSE_OFF . . . . . . . . . . . .  E_CONST  -----  U_CHAR   -----  1
TIME_Y_LEVEL . . . . . . . . . . . . .  PUBLIC   IDATA  U_INT    0004H  2
par. . . . . . . . . . . . . . . . . .  PUBLIC   XDATA  ARRAY    01A2H  84
add_t_up . . . . . . . . . . . . . . .  PUBLIC   CODE   PROC     0000H  -----
  p. . . . . . . . . . . . . . . . . .  AUTO     XDATA  STRUCT   0000H  4
  p2 . . . . . . . . . . . . . . . . .  AUTO     XDATA  STRUCT   0004H  4
MEN_D_MOD. . . . . . . . . . . . . . .  E_CONST  -----  U_CHAR   -----  1
ICON_RECT_SZ . . . . . . . . . . . . .  PUBLIC   CODE   U_INT    0019H  2
EIID_POST_FLOW_T8. . . . . . . . . . .  E_CONST  -----  U_CHAR   -----  1
EIID_AC_MIX. . . . . . . . . . . . . .  E_CONST  -----  U_CHAR   -----  1
MMUSIC . . . . . . . . . . . . . . . .  TYPEDEF  -----  STRUCT   -----  35
  IdNmu. . . . . . . . . . . . . . . .  MEMBER   -----  ARRAY    0000H  32
  PlayTail . . . . . . . . . . . . . .  MEMBER   -----  U_CHAR   0020H  1
  PlayHead . . . . . . . . . . . . . .  MEMBER   -----  U_CHAR   0021H  1
  PlayInterrupt. . . . . . . . . . . .  MEMBER   -----  U_CHAR   0022H  1
_mMUSIC. . . . . . . . . . . . . . . .  * TAG *  -----  STRUCT   -----  35
  IdNmu. . . . . . . . . . . . . . . .  MEMBER   -----  ARRAY    0000H  32
  PlayTail . . . . . . . . . . . . . .  MEMBER   -----  U_CHAR   0020H  1
  PlayHead . . . . . . . . . . . . . .  MEMBER   -----  U_CHAR   0021H  1
  PlayInterrupt. . . . . . . . . . . .  MEMBER   -----  U_CHAR   0022H  1
dummy_line_down. . . . . . . . . . . .  PUBLIC   CODE   PROC     0020H  -----
C51 COMPILER V9.53.0.0   TEMP                                                              12/01/2023 15:51:08 PAGE 105 

NAME                                    CLASS   MSPACE  TYPE    OFFSET  SIZE
====                                    =====   ======  ====    ======  ====


  p. . . . . . . . . . . . . . . . . .  AUTO     XDATA  STRUCT   0000H  4
  p2 . . . . . . . . . . . . . . . . .  AUTO     XDATA  STRUCT   0004H  4
FONT_SIZE. . . . . . . . . . . . . . .  PUBLIC   IDATA  U_INT    0006H  2
EIID_MMA . . . . . . . . . . . . . . .  E_CONST  -----  U_CHAR   -----  1
_change_number_value . . . . . . . . .  EXTERN   CODE   PROC     -----  -----
s32. . . . . . . . . . . . . . . . . .  TYPEDEF  -----  LONG     -----  4
add_t_start_i. . . . . . . . . . . . .  PUBLIC   CODE   PROC     0020H  -----
  p. . . . . . . . . . . . . . . . . .  AUTO     XDATA  STRUCT   0000H  4
  p2 . . . . . . . . . . . . . . . . .  AUTO     XDATA  STRUCT   0004H  4
u32. . . . . . . . . . . . . . . . . .  TYPEDEF  -----  U_LONG   -----  4
s16. . . . . . . . . . . . . . . . . .  TYPEDEF  -----  INT      -----  2
MMA. . . . . . . . . . . . . . . . . .  E_CONST  -----  U_CHAR   -----  1
MEN_PLS_WAVE_SHAPE_MOD . . . . . . . .  E_CONST  -----  U_CHAR   -----  1
u16. . . . . . . . . . . . . . . . . .  TYPEDEF  -----  U_INT    -----  2
_Draw_text_get_color . . . . . . . . .  EXTERN   CODE   PROC     -----  -----
_cur_menu_fanc . . . . . . . . . . . .  PUBLIC   XDATA  PTR      01F6H  3
SCREEN_HEIGHT. . . . . . . . . . . . .  STATIC   CODE   U_INT    0014H  2
Draw_clear_screen. . . . . . . . . . .  EXTERN   CODE   PROC     -----  -----
cur_active_items_id. . . . . . . . . .  PUBLIC   IDATA  U_CHAR   0008H  1
add_end_i_t. . . . . . . . . . . . . .  PUBLIC   CODE   PROC     0000H  -----
  p. . . . . . . . . . . . . . . . . .  AUTO     XDATA  STRUCT   0000H  4
  p2 . . . . . . . . . . . . . . . . .  AUTO     XDATA  STRUCT   0004H  4
MEN_IGN_MOD. . . . . . . . . . . . . .  E_CONST  -----  U_CHAR   -----  1
EIID_TIG . . . . . . . . . . . . . . .  E_CONST  -----  U_CHAR   -----  1
add_t_postflow . . . . . . . . . . . .  PUBLIC   CODE   PROC     0000H  -----
  p. . . . . . . . . . . . . . . . . .  AUTO     XDATA  STRUCT   0000H  4
  p2 . . . . . . . . . . . . . . . . .  AUTO     XDATA  STRUCT   0004H  4
add_t_preflow. . . . . . . . . . . . .  PUBLIC   CODE   PROC     0000H  -----
  p. . . . . . . . . . . . . . . . . .  AUTO     XDATA  STRUCT   0000H  4
  p2 . . . . . . . . . . . . . . . . .  AUTO     XDATA  STRUCT   0004H  4
par_step . . . . . . . . . . . . . . .  PUBLIC   XDATA  ARRAY    01F9H  84
cur_menu . . . . . . . . . . . . . . .  PUBLIC   XDATA  ARRAY    024DH  432
TIG. . . . . . . . . . . . . . . . . .  E_CONST  -----  U_CHAR   -----  1
EIID_PRE_FLOW_T1 . . . . . . . . . . .  E_CONST  -----  U_CHAR   -----  1
MEN_BTN_MOD. . . . . . . . . . . . . .  E_CONST  -----  U_CHAR   -----  1
EIID_START_I1. . . . . . . . . . . . .  E_CONST  -----  U_CHAR   -----  1
EIID_SIN . . . . . . . . . . . . . . .  E_CONST  -----  U_CHAR   -----  1
T2CON. . . . . . . . . . . . . . . . .  SFR      DATA   U_CHAR   00C8H  1
par_lim. . . . . . . . . . . . . . . .  PUBLIC   XDATA  ARRAY    03FDH  168
MEN_POL_MOD. . . . . . . . . . . . . .  E_CONST  -----  U_CHAR   -----  1
_bottom_level_controls . . . . . . . .  PUBLIC   CODE   PROC     0000H  -----
  item_pos . . . . . . . . . . . . . .  AUTO     XDATA  U_CHAR   0000H  1
  bm . . . . . . . . . . . . . . . . .  AUTO     XDATA  U_LONG   0001H  4
  i. . . . . . . . . . . . . . . . . .  AUTO     XDATA  U_CHAR   0005H  1
  id . . . . . . . . . . . . . . . . .  AUTO     XDATA  U_CHAR   0006H  1
  start_x. . . . . . . . . . . . . . .  AUTO     XDATA  U_INT    0007H  2
  start_y. . . . . . . . . . . . . . .  AUTO     XDATA  U_INT    0009H  2
main_menu_bm . . . . . . . . . . . . .  PUBLIC   IDATA  U_LONG   0009H  4
MEN_PLS_MOD. . . . . . . . . . . . . .  E_CONST  -----  U_CHAR   -----  1
EIID_DC_MINUS. . . . . . . . . . . . .  E_CONST  -----  U_CHAR   -----  1
init_par_udgu. . . . . . . . . . . . .  PUBLIC   CODE   PROC     0000H  -----
  temp_ptr . . . . . . . . . . . . . .  AUTO     XDATA  PTR      0000H  3
  i. . . . . . . . . . . . . . . . . .  AUTO     XDATA  U_CHAR   0003H  1
add_base_i1_i2_t . . . . . . . . . . .  PUBLIC   CODE   PROC     0020H  -----
  p. . . . . . . . . . . . . . . . . .  AUTO     XDATA  STRUCT   0000H  4
  p2 . . . . . . . . . . . . . . . . .  AUTO     XDATA  STRUCT   0004H  4
  half_height. . . . . . . . . . . . .  AUTO     XDATA  U_INT    0008H  2
C51 COMPILER V9.53.0.0   TEMP                                                              12/01/2023 15:51:08 PAGE 106 

NAME                                    CLASS   MSPACE  TYPE    OFFSET  SIZE
====                                    =====   ======  ====    ======  ====


EIID_START_T2. . . . . . . . . . . . .  E_CONST  -----  U_CHAR   -----  1
EIID_BASE_I2 . . . . . . . . . . . . .  E_CONST  -----  U_CHAR   -----  1
va_list. . . . . . . . . . . . . . . .  TYPEDEF  -----  PTR      -----  3
menu_item_bm . . . . . . . . . . . . .  PUBLIC   CODE   ARRAY    0027H  32
EIDD_KZ_I5 . . . . . . . . . . . . . .  E_CONST  -----  U_CHAR   -----  1
EIID_IMPULSE_I3. . . . . . . . . . . .  E_CONST  -----  U_CHAR   -----  1


MODULE INFORMATION:   STATIC OVERLAYABLE
   CODE SIZE        =   7369    ----
   CONSTANT SIZE    =     75    ----
   XDATA SIZE       =   1189     188
   PDATA SIZE       =   ----    ----
   DATA SIZE        =   ----    ----
   IDATA SIZE       =     13    ----
   BIT SIZE         =   ----    ----
END OF MODULE INFORMATION.


C51 COMPILATION COMPLETE.  1 WARNING(S),  0 ERROR(S)
