C51 COMPILER V9.53.0.0   TEMP                                                              12/15/2023 14:28:41 PAGE 1   


C51 COMPILER V9.53.0.0, COMPILATION OF MODULE TEMP
OBJECT MODULE PLACED IN .\Objects\temp.obj
COMPILER INVOKED BY: D:\DWIN\Keil_v5\C51\BIN\C51.EXE source\temp.c LARGE OPTIMIZE(8,SPEED) BROWSE INCDIR(.\driver;.\sour
                    -ce) DEBUG OBJECTEXTEND CODE SYMBOLS PRINT(.\Listings\temp.lst) OBJECT(.\Objects\temp.obj)

line level    source

   1          #include "temp.h"
   2          #include "sys.h"
   3          #include "string.h"
   4          #include "stdio.h"
   5          #include "drawing.h"
   6          #include "encoder.h"
   7          #include "nor_flash.h"
   8          
   9          code const u8  LINE_HIGHT   = 13;//px
  10          idata      u16 LINE_WIDTH   = 150;//px
  11          idata      u16 FONT_SIZE    = 24;
  12          idata      u8  LEVEL_HEIGHT = 90;//px
  13          code const u8  TOUCH_HEIGHT = 100;//px
  14          idata      u16 TIME_Y_LEVEL = 800 - 150;
  15          code const u16 ICON_RECT_SZ = 128;
  16          
  17          
  18          
  19          code const u32 menu_item_bm[] = { 
  20              ((u32)1 << EIID_TIG)       | ((u32)1 << EIID_MMA),      
  21              ((u32)1 << EIID_2T)        | ((u32)1 << EIID_4T)       | ((u32)1 << EIID_4T_PLUS)  | ((u32)1 << EIID_T
             -IG_SPOT),    
  22              ((u32)1 << EIID_AC)        | ((u32)1 << EIID_AC_MIX)   | ((u32)1 << EIID_DC_MINUS) | ((u32)1 << EIID_D
             -C_PLUS),                                             
  23              ((u32)1 << EIID_HF)        | ((u32)1 << EIID_LIFT),
  24              ((u32)1 << EIID_PULSE_OFF) | ((u32)1 << EIID_PULSE_ON),
  25              ((u32)1 << EIID_SIN)       | ((u32)1 << EIID_TRIG)     | ((u32)1 << EIID_RECT)     | ((u32)1 << EIID_T
             -RAP),                                                
  26              ((u32)1 << EIID_D_10)      | ((u32)1 << EIID_D_16)     | ((u32)1 << EIID_D_20)     | ((u32)1 << EIID_D
             -_24) | ((u32)1 << EIID_D_32) | ((u32)1 << EIID_D_40),
  27              ((u32)1 << EIID_H2O_OFF)   | ((u32)1 << EIID_H2O_ON),   
  28          }; 
  29          
  30          code const u32 active_items[] = {
  31              ((u32)1 << EIID_TIG)       | ((u32)1 << EIID_MMA)      |
  32              ((u32)1 << EIID_2T)        | ((u32)1 << EIID_4T)       | ((u32)1 << EIID_4T_PLUS)  | ((u32)1 << EIID_T
             -IG_SPOT) |
  33              ((u32)1 << EIID_AC)        | ((u32)1 << EIID_AC_MIX)   | ((u32)1 << EIID_DC_MINUS) |
  34              ((u32)1 << EIID_HF)        | ((u32)1 << EIID_LIFT)     |
  35              ((u32)1 << EIID_PULSE_OFF) | ((u32)1 << EIID_PULSE_ON) |
  36              ((u32)1 << EIID_SIN)       | ((u32)1 << EIID_TRIG)     | ((u32)1 << EIID_RECT)     | ((u32)1 << EIID_T
             -RAP) |
  37              ((u32)1 << EIID_D_10)      | ((u32)1 << EIID_D_16)     | ((u32)1 << EIID_D_20)     | ((u32)1 << EIID_D
             -_24) | ((u32)1 << EIID_D_32) | ((u32)1 << EIID_D_40) |
  38              ((u32)1 << EIID_H2O_OFF)   | ((u32)1 << EIID_H2O_ON),    //tig;
  39          
  40              ((u32)1 << EIID_TIG)       | ((u32)1 << EIID_MMA)      |
  41              ((u32)1 << EIID_AC)        | ((u32)1 << EIID_DC_MINUS) | ((u32)1 << EIID_DC_PLUS) |
  42              ((u32)1 << EIID_PULSE_OFF) | ((u32)1 << EIID_PULSE_ON),   //mma
  43          };
  44          
  45          
  46          //—Ç–µ —ç–ª–µ–º–µ–Ω—Ç—ã –∫–æ—Ç–æ—Ä—ã–µ –±—É–¥—É—Ç –æ—Ç–æ–±—Ä–∞–∂–µ–Ω—ã –≤ –≥–æ—Ä–∏–∑–æ–Ω—Ç–∞–ª—å–Ω–æ–º –º–
             -µ–Ω—é –∏ —Ç–æ –∫–∞–∫–∞—è —Å–µ–π—á–∞—Å –Ω–∞—Å—Ç—Ä–æ–π–∫–∞
C51 COMPILER V9.53.0.0   TEMP                                                              12/15/2023 14:28:41 PAGE 2   

  47          data u32 main_menu_bm;
  48               u32 vertical_menu_bm = 0;
  49          //–±–∏—Ç–æ–≤–∞—è –º–∞—Å–∫–∞ –≥–æ—Ä–∏–∑–æ–Ω—Ç–∞–ª—å–Ω–æ–≥–æ –º–µ–Ω—é –Ω–∞ –Ω–∏–∂–Ω–µ–º —ç–∫—Ä–∞–Ω–µ –Ω–µ–æ–
             -±—Ö–æ–¥–∏–º–∞ –ø–µ—Ä–≤–æ–Ω–∞—á–∞–ª—å–Ω–∞—è –∏–Ω–∏—Ü–∏–∞–ª–∏–∑–∞—Ü–∏—è
  50          
  51          icon_t cur_menu[48];
  52          u32 cur_menu_active;
  53          u8 touch_rect_cnt;
  54          
  55          u8 idata cur_active_items_id = TIG;
  56          
  57          
  58          u16 text_sp[EIID_SIZE]; //–º–∞—Å—Å–∏–≤ sp –∏–¥–µ–Ω—Ç–∏—Ñ–∏–∫–∞—Ç–æ—Ä–æ–≤ –ª–∏–Ω–∏–π, –∫–∞—Ä—Ç–∏–Ω–æ–∫, —á–
             -∏—Å–µ–ª
  59          s16 par[EIID_SIZE];
  60          xdata s16 par_tek[36];//–ø–∞—Ä–∞–º–µ—Ç—Ä—ã –¥–ª—è —Å–∏–ª–æ–≤–æ–π —á–∞—Å—Ç–∏
  61          u16 cur_par_id; //–Ω–æ–º–µ—Ä —Ç–µ–∫—É—â–µ–≥–æ –ø–∞—Ä–∞–º–µ—Ç—Ä–∞ –∫ –æ—Ç–æ–±—Ä–∞–∂–µ–Ω–∏—é
  62          u16  cur_prog_id;
  63          u16 prev_par_id;
  64          typedef struct {
  65              s16 min;
  66              s16 max;
  67          }lim_t;
  68          lim_t par_lim[EIID_SIZE];
  69          s16   par_step[EIID_SIZE];
  70          
  71          u16 Amp_text_sp; //–ø–æ–ª–µ –¥–ª—è –≤—ã–≤–æ–¥–∞ —Ç–æ–∫–∞ –≤–æ –≤—Ä–µ–º—è —Å–≤–∞—Ä–∫–∏
  72          u16 Volt_text_sp;//–ø–æ–ª–µ –¥–ª—è –≤—ã–≤–æ–¥–∞ –Ω–∞–ø—Ä–∞—è–∂–µ–Ω–∏—è –≤–æ –≤—Ä–µ–º—è —Å–≤–∞—Ä–∫–∏
  73          u16 Par_big_text_sp;//–ø–æ–ª–µ –¥–ª—è –≤—ã–≤–æ–¥–∞ –∑–Ω–∞—á–µ–Ω–∏—è —Ç–µ–∫—É—â–µ–≥–æ –Ω–∞—Å—Ç—Ä–∞–∏–≤–∞–µ–
             -º–æ–≥–æ –ø–∞—Ä–∞–º–µ—Ç—Ä–∞
  74          u16 N_prog_text_sp;//–ø–æ–ª–µ –¥–ª—è –≤—ã–≤–æ–¥–∞ –Ω–æ–º–µ—Ä–∞ —Ç–µ–∫—É—â–µ–π –ø—Ä–æ–≥—Ä–∞–º–º—ã
  75          data u8 Welding_state;//—Ç–µ–∫—É—â–µ–µ —Å–æ—Å—Ç–æ—è–Ω–∏–µ —Å–∏–ª–æ–≤–æ–π —á–∞—Å—Ç–∏
  76          u16 Filled_rect_under_par_sp; //–ø—Ä—è–º–æ—É–≥–æ–ª—å–Ω–∏–∫ –ø–æ–¥ –ø–∞—Ä–∞–º–µ—Ç—Ä–∞–º–∏
  77          
  78          u16 icon_sp_bottom_menu[16]; //sp –∫–∞—Ä—Ç–∏–Ω–æ–∫ –Ω–∏–∂–Ω–µ–≥–æ –≥–æ—Ä–∏–∑–æ–Ω—Ç–∞–ª—å–Ω–æ–≥–æ –º–µ–Ω—é 
             -// –¥–ª—è –∏—Ö –∏–∑–º–µ–Ω–µ–Ω–∏—è
  79          
  80          void (*cur_menu_fanc)(u8 item_pos);
  81          void cur_par_value_change(u16 cur_par_id, s8 shift);
  82          void display_par(u16 par_id);
  83          void par_select(u8 pair_id);
  84          void bottom_level_controls(u8 item_pos);
  85          
  86          
  87          void make_lim(lim_t *lim, s16 min, s16 max) {
  88   1          lim->min = min;
  89   1          lim->max = max;
  90   1      }
  91          
  92          void add_touch_place(u16 x0, u16 y0, u16 x1, u16 y1, u8 touch_id)
  93          {
  94   1          icon_t *p_menu; 
  95   1          if(touch_rect_cnt > ARR_SIZE(cur_menu)) return;
  96   1          
  97   1          p_menu = &cur_menu[touch_rect_cnt];
  98   1      
  99   1          p_menu->id = touch_id;
 100   1          p_menu->r.x0 = x0;
 101   1          p_menu->r.y0 = y0;
 102   1          p_menu->r.x1 = x1;
 103   1          p_menu->r.y1 = y1; // —Ä–∞–∑–º–µ—Ä –∫–Ω–æ–ø–∫–∏
 104   1          touch_rect_cnt++;        
C51 COMPILER V9.53.0.0   TEMP                                                              12/15/2023 14:28:41 PAGE 3   

 105   1      }
 106          
 107          
 108          void draw_number_wtih_touch_centered(u16 x, u16 y, u16 font_size, u8 touch_id)
 109          {
 110   1          text_sp[touch_id] = Draw_text(x, 
 111   1                                        y - (font_size * 2), 
 112   1                                        x + LINE_WIDTH, 
 113   1                                        y, 
 114   1                                        0,0,
 115   1                                        font_size,
 116   1                                        font_size * 2, 
 117   1                                        TEXT_INTERVAL_1 | TEXT_ALIGNMENT_CENTER | TEXT_ALIGNMENT_VERTICAL_UP | T
             -EXT_ENC_BIG5,
 118   1                                        0x0000);
 119   1          display_par(touch_id);
 120   1          add_touch_place(x, y - (font_size * 2), x + LINE_WIDTH, y, touch_id);
 121   1      }
 122          
 123          
 124          
 125          void dummy_line_up(point_t *p)
 126          {
 127   1          Draw_line(p->x, p->y, p->x, (p->y -= LEVEL_HEIGHT), LINE_HIGHT, GREEN);
 128   1      }
 129          
 130          void dummy_line_down(point_t *p)
 131          {
 132   1          Draw_line(p->x, p->y, p->x, (p->y += LEVEL_HEIGHT), LINE_HIGHT, GREEN);
 133   1      }
 134          
 135          void add_t_preflow(point_t *p) //–≤–æ–∑–≤—Ä–∞—â–∞–µ—Ç –∫–æ–Ω–µ—á–Ω—É—é —Ç–æ—á–∫—É –ø–æ—Å–ª–µ –æ—Ç—Ä–∏—Å–æ–
             -≤–∫–∏ –¥–∞–Ω–Ω–æ–≥–æ —É—á–∞—Å—Ç–∫–∞
 136          {
 137   1          Draw_line(p->x, p->y, p->x + LINE_WIDTH, p->y, LINE_HIGHT, GREEN);
 138   1          draw_number_wtih_touch_centered(p->x, TIME_Y_LEVEL, 36, EIID_PRE_FLOW_T1); //–≤—Ä–µ–º—è –ø—Ä–æ–¥—É–≤–∫
             -–∏
 139   1          Draw_line(p->x, 650 - 80, p->x, 650, 5, 0xDEDB); //–≤–µ—Ä—Ç–∏–∫–∞–ª—å–Ω–∞—è —á–µ—Ä—Ç–∞
 140   1          p->x += LINE_WIDTH;
 141   1      }
 142          
 143          void add_t_start_i(point_t *p) 
 144          {
 145   1          Draw_line(p->x, p->y, p->x + LINE_WIDTH, p->y,  LINE_HIGHT, GREEN);
 146   1          draw_number_wtih_touch_centered(p->x, p->y, FONT_SIZE, EIID_START_I1);//–Ω–∞—á–∞–ª—å–Ω—ã–π —Ç–æ–∫
 147   1          draw_number_wtih_touch_centered(p->x, TIME_Y_LEVEL, 36, EIID_START_T2);//–≤—Ä–µ–º—è –Ω–∞—á–∞–ª—å–Ω–æ–≥
             -–æ —Ç–æ–∫–∞
 148   1          Draw_line(p->x, 650 - 80, p->x, 650, 5, 0xDEDB); //–≤–µ—Ä—Ç–∏–∫–∞–ª—å–Ω–∞—è —á–µ—Ä—Ç–∞
 149   1          p->x += LINE_WIDTH;
 150   1      }
 151          
 152          void add_t_up(point_t *p) 
 153          {
 154   1          Draw_line(p->x, p->y - 1, p->x + LINE_WIDTH, p->y - LEVEL_HEIGHT,  LINE_HIGHT, GREEN);
 155   1          draw_number_wtih_touch_centered(p->x, TIME_Y_LEVEL, 36, EIID_UP_T3); //–≤—Ä–µ–º—è –Ω–∞—Ä–æ—Å—Ç–∞–Ω–∏—è
 156   1          Draw_line(p->x, 650 - 80, p->x, 650, 5, 0xDEDB); //–≤–µ—Ä—Ç–∏–∫–∞–ª—å–Ω–∞—è —á–µ—Ä—Ç–∞
 157   1          p->x += LINE_WIDTH;
 158   1          p->y -= LEVEL_HEIGHT;
 159   1      }
 160          
 161          void add_base_i1_i2_t(point_t *p) 
 162          {
C51 COMPILER V9.53.0.0   TEMP                                                              12/15/2023 14:28:41 PAGE 4   

 163   1          Draw_line(p->x, p->y, p->x + LINE_WIDTH, p->y,  LINE_HIGHT, GREEN);
 164   1          draw_number_wtih_touch_centered(p->x, p->y, FONT_SIZE, EIID_BASE_I2); //—Ç–æ–∫ –±–∞–∑—ã
 165   1          if(main_menu_bm & (u32)1 << EIID_PULSE_ON) {
 166   2              draw_number_wtih_touch_centered(p->x, TIME_Y_LEVEL, 30, EIID_BASE_T4); //–≤—Ä–µ–º—è –±–∞–∑—ã
 167   2          }
 168   1          if(main_menu_bm & (u32)1 << EIID_4T_PLUS) 
 169   1              draw_number_wtih_touch_centered(p->x, p->y + (FONT_SIZE * 2) + (LINE_HIGHT / 2) , FONT_SIZE, EIID_
             -BASE2_I2X); //–≤—Ç–æ—Ä–æ–π —Ç–æ–∫ –±–∞–∑—ã
 170   1          Draw_line(p->x, 650 - 80, p->x, 650, 5, 0xDEDB); //–≤–µ—Ä—Ç–∏–∫–∞–ª—å–Ω–∞—è —á–µ—Ä—Ç–∞
 171   1          p->x += LINE_WIDTH;
 172   1      }
 173          
 174          void add_i_t_impulse(point_t *p) 
 175          {
 176   1          Draw_line(p->x, p->y, p->x + LINE_WIDTH, p->y,  LINE_HIGHT, GREEN);
 177   1          draw_number_wtih_touch_centered(p->x, TIME_Y_LEVEL, 30, EIID_IMPULSE_T5);// –≤—Ä–µ–º—è –∏–º–ø—É–ª—å—Å–
             -∞
 178   1          draw_number_wtih_touch_centered(p->x, p->y, FONT_SIZE, EIID_IMPULSE_I3);  //—Ç–æ–∫ –∏–º–ø—É–ª—å—Å–∞
 179   1          Draw_line(p->x, 650 - 80, p->x, 650, 5, 0xDEDB); //–≤–µ—Ä—Ç–∏–∫–∞–ª—å–Ω–∞—è —á–µ—Ä—Ç–∞
 180   1          p->x += LINE_WIDTH;
 181   1      }
 182          
 183          void add_t_down(point_t *p)
 184          {
 185   1          Draw_line(p->x + 1, p->y, p->x + LINE_WIDTH, p->y + LEVEL_HEIGHT,  LINE_HIGHT, GREEN);
 186   1          draw_number_wtih_touch_centered(p->x, TIME_Y_LEVEL, 36, EIID_DOWN_T6); //–≤—Ä–µ–º—è —Å–ø–∞–¥–∞
 187   1          Draw_line(p->x, 650 - 80, p->x, 650, 5, 0xDEDB); //–≤–µ—Ä—Ç–∏–∫–∞–ª—å–Ω–∞—è —á–µ—Ä—Ç–∞
 188   1          p->x += LINE_WIDTH;
 189   1          p->y += LEVEL_HEIGHT;
 190   1      }
 191          
 192          void add_end_i_t(point_t *p)
 193          {
 194   1          Draw_line(p->x, p->y, p->x + LINE_WIDTH, p->y,  LINE_HIGHT, GREEN);
 195   1          draw_number_wtih_touch_centered(p->x, TIME_Y_LEVEL, 36, EIID_END_T7); //–≤—Ä–µ–º—è –∫–æ–Ω–µ—á–Ω–æ–≥–æ 
             -—Ç–æ–∫–∞
 196   1          draw_number_wtih_touch_centered(p->x, p->y, FONT_SIZE, EIID_END_I4);  //–∫–æ–Ω–µ—á–Ω—ã–π —Ç–æ–∫
 197   1          Draw_line(p->x, 650 - 80, p->x, 650, 5, 0xDEDB); //–≤–µ—Ä—Ç–∏–∫–∞–ª—å–Ω–∞—è —á–µ—Ä—Ç–∞
 198   1          p->x += LINE_WIDTH;
 199   1      }
 200          
 201          void add_t_postflow(point_t *p)
 202          {
 203   1          Draw_line(p->x, p->y, p->x + LINE_WIDTH, p->y,  LINE_HIGHT, GREEN);
 204   1          draw_number_wtih_touch_centered(p->x, TIME_Y_LEVEL, 36, EIID_POST_FLOW_T8);//–≤—Ä–µ–º—è –∫–æ–Ω–µ—á–Ω–æ
             -–π –ø—Ä–æ–¥—É–≤–∫–∏
 205   1          Draw_line(p->x, 650 - 80, p->x, 650, 5, 0xDEDB); //–≤–µ—Ä—Ç–∏–∫–∞–ª—å–Ω–∞—è —á–µ—Ä—Ç–∞
 206   1          p->x += LINE_WIDTH;
 207   1      }
 208          
 209          void add_i_kz(point_t *p)
 210          {
 211   1          Draw_line(p->x, p->y, p->x + LINE_WIDTH, p->y - LEVEL_HEIGHT, LINE_HIGHT, GREEN);
 212   1          draw_number_wtih_touch_centered(p->x, p->y - LEVEL_HEIGHT, FONT_SIZE, EIDD_KZ_I5);//–≤—Ä–µ–º—è –∫–æ–Ω–
             -µ—á–Ω–æ–π –ø—Ä–æ–¥—É–≤–∫–∏
 213   1          Draw_line(p->x, 650 - 80, p->x, 650, 5, 0xDEDB); //–≤–µ—Ä—Ç–∏–∫–∞–ª—å–Ω–∞—è —á–µ—Ä—Ç–∞
 214   1          p->x += LINE_WIDTH;
 215   1          p->y -= LEVEL_HEIGHT;
 216   1      
 217   1      }
 218          
 219          void add_freq_bal(point_t *p)
C51 COMPILER V9.53.0.0   TEMP                                                              12/15/2023 14:28:41 PAGE 5   

 220          {
 221   1          draw_number_wtih_touch_centered(p->x, p->y + LEVEL_HEIGHT, FONT_SIZE, EIID_FREQ_F1);//–≤—Ä–µ–º—è –∫–æ–
             -Ω–µ—á–Ω–æ–π –ø—Ä–æ–¥—É–≤–∫–∏
 222   1          draw_number_wtih_touch_centered(p->x + LINE_WIDTH, p->y + LEVEL_HEIGHT, FONT_SIZE, EIID_BALANCE_D1);//
             -–≤—Ä–µ–º—è –∫–æ–Ω–µ—á–Ω–æ–π –ø—Ä–æ–¥—É–≤–∫–∏       
 223   1      }
 224          
 225          void display_par(u16 par_id) 
 226          {
 227   1          u16 par_color;
 228   1          u8 code *format[] = {
 229   1              "", 
 230   1              "%.1fs", "%0.0fs", "%0.0fms", "%0.0fA", "%.0f", "%.0fHz", "%.1fD",       
 231   1          };
 232   1          u8 code *format_big[] = {
 233   1              "", 
 234   1              "%.1fs\r\n", "%.0fs\r\n", "%.0fms\r\n", "%.0fA\r\n", "%.0f\r\n", "%.0fHz\r\n", "%.1fD\r\n",   
 235   1          };
 236   1          u8 format_id = 0;
 237   1          float par_value = par[par_id];
 238   1      
 239   1          switch (par_id)
 240   1          {
 241   2              case EIID_PRE_FLOW_T1:
 242   2              case EIID_START_T2:     
 243   2              case EIID_UP_T3:           
 244   2              case EIID_DOWN_T6:      
 245   2              case EIID_END_T7: {
 246   3                  u16 tmp = par[par_id];
 247   3                  if(tmp < 100) {
 248   4                      format_id = 1;
 249   4                      par_value /= 10;           
 250   4                  } else {
 251   4                      par_value = 10;
 252   4                      format_id = 2;             
 253   4                  }
 254   3                  par_color = CYAN; 
 255   3              } break;       
 256   2      
 257   2              case EIID_BASE_T4:      
 258   2              case EIID_IMPULSE_T5: {
 259   3                  format_id = 3;
 260   3                  par_color = CYAN; 
 261   3              } break;
 262   2      
 263   2              case EIID_POST_FLOW_T8: {
 264   3                  format_id = 2;
 265   3                  par_color = CYAN; 
 266   3              } break;
 267   2                 
 268   2              case EIID_START_I1:     
 269   2              case EIID_BASE_I2:      
 270   2              case EIID_BASE2_I2X:
 271   2              case EIID_IMPULSE_I3:   
 272   2              case EIID_END_I4:       
 273   2              case EIDD_KZ_I5: {
 274   3                  format_id = 4;
 275   3                  par_color = YELLOW; 
 276   3              } break;       
 277   2      
 278   2              case EIID_FREQ_F1: {
 279   3                  format_id = 6;
C51 COMPILER V9.53.0.0   TEMP                                                              12/15/2023 14:28:41 PAGE 6   

 280   3                  par_color = 0xFC00;
 281   3              } break;  
 282   2              case EIID_BALANCE_D1: {
 283   3                  format_id = 7;
 284   3                  par_color = 0xFC00; 
 285   3                  par_value /= 10; 
 286   3              } break; 
 287   2      
 288   2              default: return;  
 289   2          }
 290   1      
 291   1          if(format_id) {
 292   2              Draw_text_set_text(format[format_id], text_sp[par_id], par_value);
 293   2              if(par_id == cur_par_id)
 294   2                  par_color = PINK;        
 295   2              
 296   2              Draw_text_set_color(text_sp[par_id], par_color);//–∑–∞–º–µ–Ω–∏—Ç—å –≤–µ—Ä–Ω—É—Ç—å –æ—Å–Ω–æ–≤–æ–Ω–æ
             -–π —Ü–≤–µ—Ç
 297   2              //–µ—Å–ª–∏ —Å–≤–∞—Ä–∫–∞ –Ω–µ –æ—Ç–æ–±—Ä–∞–∂–∞—Ç—å –ø–∞—Ä–∞–º–µ—Ç—Ä –±–æ–ª—å—à–∏–º–∏ —Ü–∏—Ñ—Ä–∞–º–∏
 298   2              if(Welding_state == 0) { //Idle state
 299   3                  Draw_text_set_text(format_big[format_id], Par_big_text_sp, par_value);
 300   3              }
 301   2          }
 302   1      }
 303          
 304          void cur_par_value_change(u16 par_id, s8 shift)
 305          {
 306   1          if(shift != 0) {
 307   2              s16 *val = &par[par_id];
 308   2              s16 val_max = par_lim[par_id].max;
 309   2              s16 val_min = par_lim[par_id].min;
 310   2              
 311   2              *val += ((s16)par_step[par_id] * shift);
 312   2              if(*val >= val_max)       
 313   2                  *val = val_max;
 314   2              else if(*val <= val_min) 
 315   2                  *val = val_min;
 316   2               
 317   2          } 
 318   1         
 319   1          switch (par_id)
 320   1          {
 321   2              case EIID_PROG_ID: {
 322   3                  cur_prog_id += shift;
 323   3                  if((s16)cur_prog_id <= 0) cur_prog_id = 0;
 324   3      
 325   3                  Norflash_read(0 + sizeof(par) * cur_prog_id, (u8*) par, sizeof(par) / 2);
 326   3                  if(par[0] == (s16)0xA5A5) {//–ø—Ä–∏–∑–Ω–∞–∫ —Ç–æ–≥–æ —á—Ç–æ —è—á–µ–∫–∞ –∏–Ω–∏—Ü–∏–∞–ª–∏–∑–∏—Ä–
             -æ–≤–∞–Ω–Ω–∞
 327   4                      main_menu_bm = *((u32*)&par[1]);
 328   4                  } else {
 329   4                          main_menu_bm = (((u32)1 << EIID_TIG)              |
 330   4                               ((u32)1 << EIID_4T)        |
 331   4                               ((u32)1 << EIID_AC)        |
 332   4                               ((u32)1 << EIID_HF)        |
 333   4                               ((u32)1 << EIID_PULSE_OFF) |
 334   4                               ((u32)1 << EIID_SIN)       |
 335   4                               ((u32)1 << EIID_D_32)      |
 336   4                               ((u32)1 << EIID_H2O_ON)      
 337   4                          );
 338   4                  }
 339   3              
C51 COMPILER V9.53.0.0   TEMP                                                              12/15/2023 14:28:41 PAGE 7   

 340   3                  {
 341   4                      u8 i;
 342   4                      for(i = EIID_PRE_FLOW_T1; i <= EIID_BASE2_I2X; i++) {
 343   5                          s16 *val = &par[i];
 344   5                          if(*val >= par_lim[i].max) {
 345   6                              *val = par_lim[i].max;
 346   6                          } else if(*val <= par_lim[i].min) {
 347   6                              *val = par_lim[i].min;     
 348   6                          } 
 349   5                      }
 350   4                  }
 351   3                        
 352   3      
 353   3                  make_scene();
 354   3                  Draw_text_set_color(N_prog_text_sp, PINK);
 355   3                  cur_par_id = EIID_PROG_ID;
 356   3              }break;
 357   2      
 358   2              case EIID_PRE_FLOW_T1  :
 359   2              case EIID_START_T2     :
 360   2              case EIID_UP_T3        :
 361   2              case EIID_DOWN_T6      :
 362   2              case EIID_END_T7       :  
 363   2              case EIID_POST_FLOW_T8 : 
 364   2              case EIID_START_I1     :     
 365   2              case EIID_BASE_I2      :
 366   2              case EIID_BASE2_I2X    :  
 367   2              case EIID_IMPULSE_I3   : 
 368   2              case EIID_END_I4       :
 369   2              case EIDD_KZ_I5        :
 370   2              case EIID_FREQ_F1      :
 371   2              case EIID_BALANCE_D1   :
 372   2              case EIID_BASE_T4      : 
 373   2              case EIID_IMPULSE_T5   : {
 374   3                  u16 tmp = par[par_id];
 375   3                  switch (par_id)
 376   3                  {
 377   4                      case EIID_PRE_FLOW_T1  : par_tek[EPID_PRE_FLOW_T1]  = tmp; break;    
 378   4                      case EIID_START_T2     : par_tek[EPID_START_T2]     = tmp; break;    
 379   4                      case EIID_UP_T3        : par_tek[EPID_UP_T3]        = tmp; break;    
 380   4                      case EIID_DOWN_T6      : par_tek[EPID_DOWN_T6]      = tmp; break;    
 381   4                      case EIID_END_T7       : par_tek[EPID_END_T7]       = tmp; break;
 382   4                      case EIID_POST_FLOW_T8 : par_tek[EPID_POST_FLOW_T8] = tmp; break;
 383   4                      case EIID_START_I1     : par_tek[EPID_START_I1]     = tmp; break;    
 384   4                      case EIID_BASE_I2      : par_tek[EPID_BASE_I2]      = tmp; break;
 385   4                      case EIID_BASE2_I2X    : par_tek[EPID_BASE2_I2X]    = tmp; break; 
 386   4                      case EIID_IMPULSE_I3   : par_tek[EPID_IMPULSE_I3]   = tmp; break;
 387   4                      case EIID_END_I4       : par_tek[EPID_END_I4]       = tmp; break;
 388   4                      case EIDD_KZ_I5        : par_tek[EPID_KZ_I5]        = tmp; break;
 389   4                      case EIID_FREQ_F1      : par_tek[EPID_FREQ_F1]      = tmp; break;
 390   4                      case EIID_BALANCE_D1   : par_tek[EPID_BALANCE_D1]   = tmp; break;
 391   4                      case EIID_BASE_T4      : par_tek[EPID_BASE_T4]      = tmp; break;
 392   4                      case EIID_IMPULSE_T5   : par_tek[EPID_IMPULSE_T5]   = tmp; break;    
 393   4                  }  
 394   3                  display_par(par_id);
 395   3              } break;
 396   2      
 397   2              case EIID_PULSE_OFF:
 398   2              case EIID_PULSE_ON :
 399   2              case EIID_AC       :
 400   2              case EIID_AC_MIX   :
 401   2              case EIID_DC_MINUS :
C51 COMPILER V9.53.0.0   TEMP                                                              12/15/2023 14:28:41 PAGE 8   

 402   2              case EIID_DC_PLUS  : 
 403   2              case EIID_TIG      :       
 404   2              case EIID_MMA      : 
 405   2              case EIID_TIG_SPOT : {
 406   3                  struct mod_submod{
 407   3                      u16 d0    : 4; //–ø—É—Å—Ç–æ, –Ω–µ –∏—Å–ø–æ–ª—å–∑—É–µ—Ç—Å—è.   
 408   3                      u16 pulse : 4; //0-–ø—É–ª—å—Å 1-–Ω–µ –ø—É–ª—å—Å
 409   3                      u16 pol   : 4; //0-DC  1-AC  2-MIX
 410   3                      u16 mod   : 4; //0-TIG 1-MMA 2-TIG Spot
 411   3                  } tmp;
 412   3                  *(u16*)&tmp = par_tek[EPID_MODES_SUBMODES]; 
 413   3                  switch (par_id)
 414   3                  {
 415   4                      case EIID_PULSE_ON : tmp.pulse = 0; break;
 416   4                      case EIID_PULSE_OFF: tmp.pulse = 1; break; 
 417   4      
 418   4                      case EIID_DC_MINUS : tmp.pol   = 0; par_tek[EPID_POLARITY] = 1; par_tek[EPID_SERVICE_PAR] 
             -&= ~0x0002; break;
 419   4                      case EIID_DC_PLUS  : tmp.pol   = 0; par_tek[EPID_POLARITY] = 2; par_tek[EPID_SERVICE_PAR] 
             -|=  0x0002; break;
 420   4                      case EIID_AC       : tmp.pol   = 1; break;
 421   4                      case EIID_AC_MIX   : tmp.pol   = 2; break;
 422   4      
 423   4                      case EIID_TIG      : tmp.mod   = 0; break;
 424   4                      case EIID_MMA      : tmp.mod   = 1; break;
 425   4                      case EIID_TIG_SPOT : tmp.mod   = 2; break;
 426   4                  }
 427   3                  par_tek[EPID_MODES_SUBMODES] = *(u16*)&tmp;
 428   3              } break;
 429   2          
 430   2              case EIID_2T     : par_tek[EPID_2T_4T] = 1; par_tek[EPID_IS_PLUS_4T] = 1; par_tek[EPID_SERVICE_PAR
             -] &= ~0x0004; break;
 431   2              case EIID_4T     : par_tek[EPID_2T_4T] = 2; par_tek[EPID_IS_PLUS_4T] = 1; par_tek[EPID_SERVICE_PAR
             -] |=  0x0004; par_tek[EPID_SERVICE_PAR] &= ~0x0008; break;
 432   2              case EIID_4T_PLUS: par_tek[EPID_2T_4T] = 2; par_tek[EPID_IS_PLUS_4T] = 2; par_tek[EPID_SERVICE_PAR
             -] |=  0x0008; break;
 433   2            
 434   2      
 435   2              case EIID_LIFT: par_tek[EPID_IGNITION_TYPE]  = 1; par_tek[EPID_SERVICE_PAR] &= ~0x0001; break;
 436   2              case EIID_HF  : par_tek[EPID_IGNITION_TYPE]  = 2; par_tek[EPID_SERVICE_PAR] |=  0x0001; break;
 437   2              
 438   2              case EIID_H2O_OFF: par_tek[EPID_FLOW_SENSOR] = 1; par_tek[EPID_SERVICE_PAR] &= ~0x0010; break; 
 439   2              case EIID_H2O_ON : par_tek[EPID_FLOW_SENSOR] = 2; par_tek[EPID_SERVICE_PAR] |=  0x0010; break;
 440   2      
 441   2              case EIID_D_10: par_tek[EPID_ELECTRODE_D]    = 1; break;    
 442   2              case EIID_D_16: par_tek[EPID_ELECTRODE_D]    = 2; break;
 443   2              case EIID_D_20: par_tek[EPID_ELECTRODE_D]    = 3; break;    
 444   2              case EIID_D_24: par_tek[EPID_ELECTRODE_D]    = 4; break;
 445   2              case EIID_D_32: par_tek[EPID_ELECTRODE_D]    = 5; break;
 446   2              case EIID_D_40: par_tek[EPID_ELECTRODE_D]    = 6; break;
 447   2         
 448   2              case EIID_SIN : par_tek[EPID_WAVE_FORM]      = 1; break;
 449   2              case EIID_RECT: par_tek[EPID_WAVE_FORM]      = 2; break;  
 450   2              case EIID_TRIG: par_tek[EPID_WAVE_FORM]      = 3; break;
 451   2              case EIID_TRAP: par_tek[EPID_WAVE_FORM]      = 4; break;
 452   2              default : return;
 453   2          }
 454   1      }
 455          
 456          
 457          
 458          
C51 COMPILER V9.53.0.0   TEMP                                                              12/15/2023 14:28:41 PAGE 9   

 459          void Encoder_process_code(u8 state) 
 460          {
 461   1          code const s8 shifts[] = {-1, -5, +1, +5};
 462   1          cur_par_value_change(cur_par_id, shifts[state]);     
 463   1      }
 464          
 465          
 466          
 467          
 468          void par_select(u8 par_id) 
 469          {
 470   1          u8 old_par_id;
 471   1      
 472   1        
 473   1      
 474   1          {//–ø–µ—Ä–µ—Ä–∏—Å–æ–≤–∞—Ç—å –ø—Ä—è–º–æ—É–≥–æ–ª—å–Ω–∏–∫ –ø–æ–¥ –ø–∞—Ä–∞–º–µ—Ç—Ä–∞–º–∏
 475   2              rect_t r;
 476   2              Draw_text_get_pos(text_sp[par_id], &r);
 477   2              Draw_filled_rect_redraw(Filled_rect_under_par_sp, r.x0, 220, r.x1, SCREEN_HEIGHT - ICON_RECT_SZ, 0
             -x528A);
 478   2          }
 479   1          display_par(par_id); 
 480   1          Draw_text_set_color(text_sp[par_id], PINK);//–∑–∞–º–µ–Ω–∏—Ç—å –Ω–∞ —Ü–≤–µ—Ç "–≤—ã–±—Ä–∞–Ω–Ω–æ–≥–æ —ç–ª
             -–µ–º–µ–Ω—Ç–∞"
 481   1          if(cur_par_id == par_id) return;
 482   1          display_par(cur_par_id);
 483   1          old_par_id = cur_par_id;
 484   1          cur_par_id = par_id;
 485   1          display_par(old_par_id);
 486   1          display_par(cur_par_id);
 487   1      }
 488          
 489          
 490          
 491          
 492          
 493          
 494          
 495          void init_par_udgu(void)
 496          {
 497   1          make_lim(&par_lim[EIID_PRE_FLOW_T1],  1,   100  ); //–¢1  –≤—Ä–µ–º—è –ø—Ä–µ–¥–≤. –ø—Ä–æ–¥—É–≤–∫–∏, —Å 
 498   1          make_lim(&par_lim[EIID_START_I1],     5,   350  );
 499   1          make_lim(&par_lim[EIID_START_T2],     1,   100  );
 500   1          make_lim(&par_lim[EIID_UP_T3],        1,   100  );
 501   1          make_lim(&par_lim[EIID_BASE_I2],      5,   350  );
 502   1          make_lim(&par_lim[EIID_BASE_T4],      1,   10000);
 503   1          make_lim(&par_lim[EIID_IMPULSE_I3],   5,   350  );
 504   1          make_lim(&par_lim[EIID_IMPULSE_T5],   1,   10000);
 505   1          make_lim(&par_lim[EIID_FREQ_F1],      20,  200  );
 506   1          make_lim(&par_lim[EIID_BALANCE_D1],   30,  80   );
 507   1          make_lim(&par_lim[EIID_DOWN_T6],      1,   100  );
 508   1          make_lim(&par_lim[EIID_END_I4],       5,   350  );
 509   1          make_lim(&par_lim[EIID_END_T7],       1,   100  );
 510   1          make_lim(&par_lim[EIID_POST_FLOW_T8], 1,   60   );
 511   1          make_lim(&par_lim[EIDD_KZ_I5],        0,   100  );
 512   1          make_lim(&par_lim[EIID_BASE2_I2X],    5,   350  );
 513   1      
 514   1          par_step[EIID_PRE_FLOW_T1]  =  1  ; //ms //100ms
 515   1          par_step[EIID_START_I1]     =  1  ; //A  
 516   1          par_step[EIID_START_T2]     =  1  ; //ms //100ms  
 517   1          par_step[EIID_UP_T3]        =  1  ; //ms //100ms     
 518   1          par_step[EIID_BASE_I2]      =  1  ; //A    
C51 COMPILER V9.53.0.0   TEMP                                                              12/15/2023 14:28:41 PAGE 10  

 519   1          par_step[EIID_BASE_T4]      =  1  ; //ms   
 520   1          par_step[EIID_IMPULSE_I3]   =  1  ; //A
 521   1          par_step[EIID_IMPULSE_T5]   =  1  ; //ms 
 522   1          par_step[EIID_FREQ_F1]      =  1  ;   
 523   1          par_step[EIID_BALANCE_D1]   =  1  ;
 524   1          par_step[EIID_DOWN_T6]      =  1  ; //ms //100ms   
 525   1          par_step[EIID_END_I4]       =  1  ; //A     
 526   1          par_step[EIID_END_T7]       =  1  ; //ms //100ms    
 527   1          par_step[EIID_POST_FLOW_T8] =  1  ; //
 528   1          par_step[EIDD_KZ_I5]        =  1  ; //%     
 529   1          par_step[EIID_BASE2_I2X]    =  1  ; //A 
 530   1      
 531   1      
 532   1          {
 533   2              u8 i;
 534   2              s16 *p_tmp;
 535   2      
 536   2              p_tmp = par; 
 537   2              for (i = 0; i < ARR_SIZE(par); i++)
 538   2                  *p_tmp++ = 0;
 539   2              
 540   2              p_tmp = par_tek;
 541   2              for (i = 0; i < ARR_SIZE(par_tek); i++)
 542   2                  *p_tmp++ = 0;        
 543   2          }
 544   1       
 545   1          
 546   1          // main_menu_bm = (((u32)1 << EIID_TIG)              |
 547   1          //                      ((u32)1 << EIID_4T)        |
 548   1          //                      ((u32)1 << EIID_AC)        |
 549   1          //                      ((u32)1 << EIID_HF)        |
 550   1          //                      ((u32)1 << EIID_PULSE_OFF) |
 551   1          //                      ((u32)1 << EIID_SIN)       |
 552   1          //                      ((u32)1 << EIID_D_32)      |
 553   1          //                      ((u32)1 << EIID_H2O_ON)      
 554   1          //                 );
 555   1      
 556   1      
 557   1          Norflash_read(0, (u8*) par, sizeof(par) / 2);
 558   1          cur_par_id = 0;    
 559   1          if(par[0] == (s16)0xA5A5) {//–ø—Ä–∏–∑–Ω–∞–∫ —Ç–æ–≥–æ —á—Ç–æ —è—á–µ–∫–∞ –∏–Ω–∏—Ü–∏–∞–ª–∏–∑–∏—Ä–æ–≤–∞–Ω–
             -Ω–∞
 560   2              main_menu_bm = *((u32*)&par[1]);
 561   2          } else {
 562   2              main_menu_bm = (((u32)1 << EIID_TIG)              |
 563   2                      ((u32)1 << EIID_4T)        |
 564   2                      ((u32)1 << EIID_AC)        |
 565   2                      ((u32)1 << EIID_HF)        |
 566   2                      ((u32)1 << EIID_PULSE_OFF) |
 567   2                      ((u32)1 << EIID_SIN)       |
 568   2                      ((u32)1 << EIID_D_32)      |
 569   2                      ((u32)1 << EIID_H2O_ON)      
 570   2              );
 571   2          }
 572   1      
 573   1      
 574   1          cur_par_value_change(EIID_TIG,        0);
 575   1          cur_par_value_change(EIID_4T,         0);
 576   1          cur_par_value_change(EIID_AC,         0);
 577   1          cur_par_value_change(EIID_HF,         0);
 578   1          cur_par_value_change(EIID_PULSE_OFF,  0);
 579   1          cur_par_value_change(EIID_D_32,       0);
C51 COMPILER V9.53.0.0   TEMP                                                              12/15/2023 14:28:41 PAGE 11  

 580   1          cur_par_value_change(EIID_SIN,        0);
 581   1          cur_par_value_change(EIID_H2O_ON,     0);
 582   1      
 583   1          
 584   1          par[EIID_PRE_FLOW_T1]        = par_tek[EPID_PRE_FLOW_T1]    = 1;   // t gaz
 585   1          par[EIID_START_I1]           = par_tek[EPID_START_I1]       = 50;   // I begin
 586   1          par[EIID_START_T2]           = par_tek[EPID_START_T2]       = 1;   // t begin
 587   1          par[EIID_UP_T3]              = par_tek[EPID_UP_T3]          = 1;   // increase
 588   1          par[EIID_BASE_I2]            = par_tek[EPID_BASE_I2]        = 101;  // I –±–∞–∑—ã
 589   1          par[EIID_BASE_T4]            = par_tek[EPID_BASE_T4]        = 2;    // t –±–∞–∑—ã
 590   1          par[EIID_IMPULSE_I3]         = par_tek[EPID_IMPULSE_I3]     = 150;  // I –∏–º–ø
 591   1          par[EIID_IMPULSE_T5]         = par_tek[EPID_IMPULSE_T5]     = 3;    // t –∏–º–ø
 592   1          par[EIID_FREQ_F1]            = par_tek[EPID_FREQ_F1]        = 50;  // F
 593   1          par[EIID_BALANCE_D1]         = par_tek[EPID_BALANCE_D1]     = 60;   // balans
 594   1          par[EIID_DOWN_T6]            = par_tek[EPID_DOWN_T6]        = 1;   // Decrease
 595   1          par[EIID_END_I4]             = par_tek[EPID_END_I4]         = 60;   // I end
 596   1          par[EIID_END_T7]             = par_tek[EPID_END_T7]         = 1;    // t end
 597   1          par[EIID_POST_FLOW_T8]       = par_tek[EPID_POST_FLOW_T8]   = 1;    // t gaz
 598   1          par[EIDD_KZ_I5]              = par_tek[EPID_KZ_I5]          = 55;   // I kz
 599   1                                         par_tek[EPID_BSN]            = 1;    // BSN 1-off 2-on
 600   1          par_tek[EPID_MODES_SUBMODES] = 0x0110;
 601   1      }
 602          
 603          
 604          
 605          void bottom_level_controls(u8 item_pos)
 606          { //–≤—ã–∑–æ–≤–µ—Ç—Å—è –ø–æ—Å–ª–µ –≤—ã–±–æ—Ä–∞ —ç–ª–µ–º–µ–Ω—Ç–∞ –≤ –≥–æ—Ä–∏–∑–æ–Ω—Ç–∞–ª—å–Ω–æ–º –º–µ–Ω—é
 607   1          if(item_pos == touch_rect_cnt) return;
 608   1          switch (cur_menu[item_pos].id) {
 609   2              case EIID_TIG: case EIID_MMA:  case EIID_AC:        case EIID_AC_MIX:   case EIID_DC_MINUS: case E
             -IID_DC_PLUS: case EIID_2T:   case EIID_4T:   case EIID_4T_PLUS: case EIID_TIG_SPOT:
 610   2              case EIID_HF:  case EIID_LIFT: case EIID_PULSE_OFF: case EIID_PULSE_ON: case EIID_D_10:     case E
             -IID_D_16:    case EIID_D_20: case EIID_D_24: case EIID_D_32:    case EIID_D_40:
 611   2              case EIID_SIN: case EIID_TRIG: case EIID_RECT:      case EIID_TRAP:     case EIID_H2O_ON:   case E
             -IID_H2O_OFF: {
 612   3                  //–∏–∑–º–µ–Ω–µ–Ω–∏–µ –ø–∞—Ä–∞–º–µ—Ç—Ä–∞ –¥–ª—è –∏–Ω–¥–∏–∫–∞—Ü–∏–∏, –≥–æ—Ä–∏–∑–æ–Ω—Ç–∞–ª—å–Ω–µ–
             -æ –º–µ–Ω—é
 613   3                  u8 i;
 614   3                  u8 id;
 615   3                  id = cur_menu[item_pos].id;
 616   3                  
 617   3                  if(id == EIID_TIG)
 618   3                      cur_active_items_id = TIG;
 619   3                  else if(id == EIID_MMA) {
 620   4                      cur_active_items_id = MMA;
 621   4                      main_menu_bm &= ~(menu_item_bm[MEN_POL_MOD]);
 622   4                      main_menu_bm |= (u32)1 << EIID_DC_MINUS;
 623   4                      cur_par_value_change(EIID_DC_MINUS, 0); //–ø—Ä–∏–Ω—É–¥–∏—Ç–µ–ª—å–Ω—ã–π –ø–µ—Ä–µ—Ö–æ–¥ –≤ —
             -Ä–µ–∂–∏–º dc –≤ mma .. –ü–æ–∫–∞ –±—É–¥–µ—Ç —Ç–∞–∫, –ø–æ—Ç–æ–º —É–±—Ä–∞—Ç—å
 624   4                  }
 625   3      
 626   3                  if(main_menu_bm & ((u32)1 << id)) {//–µ—Å–ª–∏ –≤—ã–±–æ—Ä –±—ã–ª —Å–¥–µ–ª–∞–Ω –∏–∑ –≥–æ—Ä–∏–∑–æ
             -–Ω—Ç–∞–ª—å–Ω–æ–≥–æ –º–µ–Ω—é , —Å–¥–µ–ª–∞—Ç—å –±–∏—Ç–æ–≤–æ–µ –ø–æ–ª–µ –¥–ª—è –≤–µ—Ä—Ç–∏–∫–∞–ª—å–Ω–æ–≥–æ –º–µ–Ω—é
 627   4                      for(i = 0; i < ARR_SIZE(menu_item_bm); i++) {
 628   5                          if((u32)menu_item_bm[i] & (u32)((u32)1 << id)) { //–ø–æ–∏—Å–∫ –º–µ–Ω—é –∫ –∫–æ—Ç–æ—Ä–º
             -—É –æ—Ç–Ω–æ—Å–∏—Ç—Å—è –¥–∞–Ω–Ω—ã–π —ç–ª–µ–º–µ–Ω—Ç
 629   6                              vertical_menu_bm = active_items[cur_active_items_id] & menu_item_bm[i];//—É–±—Ä–∞—
             -Ç—å –∏–∑ –æ—Ç–æ–±—Ä–∞–∂–µ–Ω–∏—è —ç–µ–ª–µ–º–µ–Ω—Ç—ã –∫–æ—Ç–æ—Ä—ã–µ –Ω–µ –¥–æ—Å—Ç—É–ø–Ω—ã –≤ –¥–∞–Ω–Ω–æ–º —Ä–µ–∂–∏–º–µ 
 630   6                              break;
 631   6                          }
 632   5                      }
 633   4                  } else { //–≤—ã–±–æ—Ä –±—ã–ª –∏–∑ –≤–µ—Ä—Ç–∏–∫–∞–ª—å–Ω–æ–≥–æ –º–µ–Ω—é
C51 COMPILER V9.53.0.0   TEMP                                                              12/15/2023 14:28:41 PAGE 12  

 634   4                      for(i = 0; i < ARR_SIZE(menu_item_bm); i++) {
 635   5                          if( menu_item_bm[i] & (u32)1 << id) {
 636   6                              main_menu_bm &= (u32)~menu_item_bm[i]; //–æ—á–∏—Å—Ç—å –æ–±–ª–∞—Å—Ç—å —Å–≤—è–∑–∞–Ω–
             -Ω—É—é —Å —ç—Ç–∏–º –ø–æ–¥–º–µ–Ω—é –≤ –≥–∞–≤–Ω–æ–º –º–µ–Ω—é
 637   6                              main_menu_bm |= ((u32)1 << id); //–≤—Å—Ç–∞–≤–∏—Ç—å —Ç–µ–∫—É—â–∏–π –≤—ã–±—Ä–∞–Ω–Ω—ã
             -–π —ç–ª–µ–º–µ–Ω—Ç –≤ –≥–ª–∞–≤–Ω–æ–µ –º–µ–Ω—é
 638   6                              break;
 639   6                          }
 640   5                      }
 641   4                  }
 642   3                  cur_par_value_change(cur_menu[item_pos].id, 0); //–∏–∑–º–µ–Ω–µ–Ω–∏–µ –ø–∞—Ä–∞–º–µ—Ç—Ä–∞ –¥–ª—è
             - —Å–∏–ª–æ–≤–æ–π —á–∞—Å—Ç–∏
 643   3                  make_scene();
 644   3              } break;
 645   2      
 646   2              case EIID_PRE_FLOW_T1:  case EIID_START_I1:   case EIID_START_T2: case  EIID_UP_T3:     case EIID_
             -BASE_I2: case EIID_BASE_T4:
 647   2              case EIID_IMPULSE_I3:   case EIID_IMPULSE_T5: case EIID_FREQ_F1:  case EIID_BALANCE_D1: case EIID_
             -DOWN_T6: case EIID_END_I4: case EIID_END_T7:       
 648   2              case EIID_POST_FLOW_T8: case EIDD_KZ_I5:      case EIID_BASE2_I2X: {
 649   3                  par_select(cur_menu[item_pos].id);
 650   3              } break;
 651   2      
 652   2              case EIID_PROG_ID: {
 653   3                  if(cur_par_id == EIID_PROG_ID){//–µ—Å–ª–∏ –Ω–∞—Å—Ç–æ–π–∫–∞ –Ω–æ–º–µ—Ä–∞ –ø—Ä–æ–≥—Ä–∞–º–º—ã —Ç–
             -æ —Å–æ—Ö—Ä–∞–Ω–∏—Ç—å —Ç–µ–∫—É—â—É—é –ø—Ä–≥—Ä–∞–º–º—É
 654   4                      par[0] = 0xA5A5;//–ø—Ä–∏–∑–Ω–∞–∫ —Ç–æ–≥–æ —á—Ç–æ —è—á–µ–∫–∞ –∏–Ω–∏—Ü–∏–∞–ª–∏–∑–∏—Ä–æ–≤–∞–Ω
             -–Ω–∞
 655   4                      *((u32 *)&par[1]) = main_menu_bm;
 656   4                      Norflash_write(0 + sizeof(par) * cur_prog_id, (u8*) par, sizeof(par) / 2);
 657   4                      make_scene();
 658   4                  } else {
 659   4                      Draw_text_set_color(N_prog_text_sp, PINK);
 660   4                      cur_par_id = EIID_PROG_ID;
 661   4                  }
 662   3              } break; //–≤—ã–±–æ—Ä –ø—Ä–æ–≥—Ä–∞–º–º—ã 
 663   2      
 664   2              default: return;
 665   2          }    
 666   1      }
 667          
 668          
 669          
 670          void open_additional_settings(void) 
 671          {
 672   1          touch_rect_cnt = 0; //—É–±—Ä–∞—Ç—å –≤—Å–µ –æ–±–ª–∞—Å—Ç–∏ –∫–∞—Å–∞–Ω–∏—è
 673   1          Draw_start();
 674   1          Draw_filled_rect(0,   0, SCREEN_WIDTH - 1, SCREEN_HEIGHT - 1, GRAY);//–ø—Ä—è–º–æ—É–≥–æ–ª—å–Ω–∏–∫ –ø–æ–
             -¥ –∑–∞–¥–Ω–∏–π —Ñ–æ–Ω
 675   1          //Draw_filled_rect(0,   0, 1279, 128, GRAY);//–ø—Ä—è–º–æ—É–≥–æ–ª—å–Ω–∏–∫ –ø–æ–¥ –∑–∞–¥–Ω–∏–π —Ñ–æ–Ω
 676   1          //Draw_filled_rect(0, 128, 1279, 256, BLACK);//–ø—Ä—è–º–æ—É–≥–æ–ª—å–Ω–∏–∫ –ø–æ–¥ –∑–∞–¥–Ω–∏–π —Ñ–æ–Ω
 677   1          //Draw_filled_rect(0, 256, 1279, 384, GRAY);//–ø—Ä—è–º–æ—É–≥–æ–ª—å–Ω–∏–∫ –ø–æ–¥ –∑–∞–¥–Ω–∏–π —Ñ–æ–Ω
 678   1          {
 679   2          u8 i;
 680   2          for(i = 0; i < 6; i++) {
 681   3              Draw_text_set_text("sdfdsf",Draw_text(
 682   3              0, 
 683   3              128 * i,
 684   3              1279, (128 * i) + 128,
 685   3              0,0, 
 686   3              27,54, 
 687   3              TEXT_INTERVAL_1 | TEXT_ALIGNMENT_CENTER | TEXT_ALIGNMENT_VERTICAL_CENTER | TEXT_ENC_GBK, //for big
C51 COMPILER V9.53.0.0   TEMP                                                              12/15/2023 14:28:41 PAGE 13  

             - unicode font use ascii encode and icl is font id
 688   3              WHITE
 689   3          ));
 690   3          }
 691   2          }
 692   1          Draw_end();
 693   1          
 694   1      }
 695          
 696          void make_scene(void)
 697          {
 698   1          // open_additional_settings();    
 699   1          // return;
 700   1          touch_rect_cnt = 0; //—É–±—Ä–∞—Ç—å –≤—Å–µ –æ–±–ª–∞—Å—Ç–∏ –∫–∞—Å–∞–Ω–∏—è
 701   1          Draw_start();
 702   1      
 703   1          Draw_filled_rect(0, 0, 1279, 799, GRAY);//–ø—Ä—è–º–æ—É–≥–æ–ª—å–Ω–∏–∫ –ø–æ–¥ –∑–∞–¥–Ω–∏–π —Ñ–æ–Ω 
 704   1          Draw_filled_rect(0, SCREEN_HEIGHT - ICON_RECT_SZ, SCREEN_WIDTH - 1, SCREEN_HEIGHT - 1, 0x4010); //—á–µ
             -—Ä–Ω—ã–π –ø—Ä—è–º–æ—É–≥–æ–ª—å–Ω–∏–∫ –ø–æ–¥ –∏–∫–æ–Ω–∫–∞–º–∏ 
 705   1          
 706   1          Draw_image(SCREEN_WIDTH - 1 - 128, SCREEN_HEIGHT - 1 - 128, 40, 0); //36 icon icl;
 707   1      
 708   1          Filled_rect_under_par_sp = Draw_filled_rect(0, 0, 0, 0, 0x528A); // —Ä–∞–º–∫–∞ –ø–æ–¥ –ø–∞—Ä–∞–º–µ—Ç—Ä
             -–∞–º–∏ —Å–æ–∑–¥–∞–Ω–∏–µ –æ–±–ª–∞—Å—Ç–∏ –ø–æ–¥ –Ω–µ–µ –∑–∞–≥–æ—Ç–æ–≤–∫–∞   
 709   1          
 710   1          Draw_filled_rect(0, 210, 1279, 210 + 10, BLACK);//–ø–æ–ª–æ—Å–∫–∞ –ø–æ–¥ –Ω–∞–ø—Ä—è–∂–µ–Ω–∏–µ–º –∏ —Ç–æ
             -–∫–æ–º
 711   1          
 712   1          Draw_filled_rect(1279 - 128, 0, 1279, 128 , DARK_GREEN);//–∫–Ω–æ–ø–∫–∞ –¥–ª—è —Å–æ—Ö—Ä–∞–Ω–µ–Ω–∏—è —Ç–
             -µ–∫—É—â–µ–π –ø—Ä–æ–≥—Ä–∞–º–º—ã –≤ —Ç–µ–∫—É—â–∏–π –Ω–æ–º–µ—Ä —è—á–µ–∫–∏ –ø–∞–º—è—Ç–∏
 713   1          add_touch_place(1279 - 128, 0, 1279, 128, EIID_PROG_ID);
 714   1      
 715   1      
 716   1          add_touch_place(1279, 671, 1023 + ICON_RECT_SZ, 671 + ICON_RECT_SZ, EIID_PROG_ID);
 717   1      
 718   1          Draw_text_set_text("%dp",N_prog_text_sp = Draw_text(
 719   1              1023, 
 720   1              671,
 721   1              1023 + ICON_RECT_SZ, 
 722   1              671 + ICON_RECT_SZ,
 723   1              0,0, 
 724   1              32,64, 
 725   1              TEXT_INTERVAL_1 | TEXT_ALIGNMENT_CENTER | TEXT_ALIGNMENT_VERTICAL_CENTER | TEXT_ENC_GBK, //for big
             - unicode font use ascii encode and icl is font id
 726   1              WHITE
 727   1          ), cur_prog_id);//—Ç–µ–∫—É—â–∏–π –Ω–æ–º–µ—Ä –ø—Ä–æ–≥—Ä–∞–º–º—ã
 728   1      
 729   1          add_touch_place(1023, 671, 1023 + ICON_RECT_SZ, 671 + ICON_RECT_SZ, EIID_PROG_ID);
 730   1      
 731   1          {
 732   2              u16 start_x;
 733   2              u16 start_y;
 734   2              u32 bm;
 735   2              u8 i;
 736   2              u8 id; 
 737   2      
 738   2              if(main_menu_bm & (u32)1 << EIID_TIG) {
 739   3                  bm = main_menu_bm & active_items[TIG];
 740   3              } else {
 741   3                  bm = main_menu_bm & active_items[MMA];
 742   3              } 
 743   2              
C51 COMPILER V9.53.0.0   TEMP                                                              12/15/2023 14:28:41 PAGE 14  

 744   2      
 745   2              if(main_menu_bm & ((u32)1 << EIID_DC_MINUS) || main_menu_bm & ((u32)1 << EIID_DC_PLUS)) { //–µ—Å–ª
             -–∏ dc+ –∏–ª–∏ dc- —É–±—Ä–∞—Ç—å –≤—ã–±–æ—Ä —Ñ–æ—Ä–º—ã –≤–æ–ª–Ω—ã
 746   3                  bm &= ~(menu_item_bm[MEN_PLS_WAVE_SHAPE_MOD]);
 747   3              }
 748   2      
 749   2              if(main_menu_bm & ((u32)1 << EIID_TIG_SPOT)) { //–≤ —Ä–µ–∂–∏–º–µ tig spot –Ω–µ—Ç –≤—ã–±–æ—Ä–∞ puls
             -e
 750   3                  bm &= ~(menu_item_bm[MEN_PLS_MOD]);  
 751   3              }
 752   2      
 753   2              start_x = 0;
 754   2              start_y = SCREEN_HEIGHT - ICON_RECT_SZ;
 755   2              i = 0;
 756   2              id = 0;
 757   2              while (bm != 0) {//—Å–æ–∑–¥–∞–Ω–∏–µ , –æ—Ç—Ä–∏—Å–æ–≤–∫–∞ –≥–æ—Ä–∏–∑–æ–Ω—Ç–∞–ª—å–Ω–æ–≥–æ –º–µ–Ω—é
 758   3                  if((u32)bm & (u32)1) { 
 759   4                      if(vertical_menu_bm & ((u32)1 << id)) { //–µ—Å–ª–∏ –ø—Ä–∏ –æ—Ç—Ä–∏—Å–æ–≤–∫–µ –≥–æ—Ä–∏–∑–æ–
             -Ω—Ç–∞–ª—å–Ω–æ–≥–æ –º–µ–Ω—é –≤ –≤ –≤–µ—Ä—Ç–∏–∫–∞–ª—å–Ω–æ–º –º–µ–Ω—é –µ—Å—Ç—å –ø–æ–¥–±–Ω—ã–π —ç–ª–µ–º–µ–Ω—Ç –æ—Ç—Ä–∏—Å–æ–≤
             -–∞—Ç—å –Ω–∞–¥ —ç—Ç–∏–º —ç–ª–µ–º–µ–Ω—Ç–æ–º –≤–µ—Ä—Ç–∏–∫–∞–ª—å–Ω–æ –º–µ–Ω—é
 760   5                          u8 v_id = 0;
 761   5                          u16 v_start_x = ICON_RECT_SZ * i;
 762   5                          u16 v_start_y = SCREEN_HEIGHT - (ICON_RECT_SZ * 2);
 763   5                          vertical_menu_bm &= ~((u32)1 << id);//—É–±—Ä–∞—Ç—å –∏–∑ –≤–µ—Ä—Ç–∏–∫–∞–ª—å–Ω–æ–≥–æ –º–
             -µ–Ω—é —Ç–µ–∫—É—â–∏–π —ç–ª–µ–º–µ–Ω –≥–æ—Ä–∏–∑–æ–Ω—Ç–∞–ª—å–Ω–æ–≥–æ –º–µ–Ω—é
 764   5                          while (vertical_menu_bm != 0) {//—Å–æ–∑–¥–∞–Ω–∏–µ , –æ—Ç—Ä–∏—Å–æ–≤–∫–∞ –≤–µ—Ä—Ç–∏–∫–∞–
             -ª—å–Ω–æ–≥–æ –º–µ–Ω—é
 765   6                              if((u32)vertical_menu_bm & (u32)1) {
 766   7                                  add_touch_place(v_start_x, v_start_y, v_start_x + ICON_RECT_SZ, v_start_y + IC
             -ON_RECT_SZ, v_id);
 767   7                                  Draw_image(v_start_x, v_start_y, 36, v_id); //36 icon icl;
 768   7                                  v_start_y -= ICON_RECT_SZ; 
 769   7                              }
 770   6                              vertical_menu_bm >>= 1; //–ø–æ—Å–ª–µ –æ—Ç—Ä–∏—Å–æ–≤–∫–∏ –≤–µ—Ä—Ç–∏–∫–∞–ª—å–Ω–æ–µ –
             -º–µ–Ω—é –±—É–¥–µ—Ç –ø—É—Å—Ç—ã–º –∏ –µ–≥–æ –Ω–µ –Ω–∞–¥–æ –ø—Ä–∏–Ω—É–¥–∏—Ç–µ–ª—å–Ω–æ –æ–±–Ω—É–ª—è—Ç—å
 771   6                              v_id++;      
 772   6                          }
 773   5                      }
 774   4                      
 775   4                      add_touch_place(start_x, start_y, start_x + ICON_RECT_SZ, start_y + ICON_RECT_SZ, id);
 776   4                      Draw_image(start_x, start_y, 36, id); //36 icon icl
 777   4                      start_x += ICON_RECT_SZ;
 778   4                      i++;
 779   4                  }
 780   3                  bm >>= 1;
 781   3                  id++;
 782   3              }
 783   2              cur_menu_fanc = bottom_level_controls;//—Ñ—É–Ω–∫—Ü–∏—è –∫–æ—Ç–æ—Ä–∞—è –≤—ã–∑—ã–≤–∞–µ—Ç—Å—è –ø—Ä–∏ 
             -–∫–∞—Å–∞–Ω–∏–∏ –ø–æ –æ–±–ª–∞—Å—Ç–∏ touch
 784   2          }
 785   1      
 786   1          //–æ—Ç—Ä–∏—Å–æ–≤–∫–∞ —Ü–∏–∫–ª–æ–≥—Ä–∞–º–º—ã
 787   1          {
 788   2              point_t p;
 789   2              point_t start_p;
 790   2              if(main_menu_bm & (u32)1 << EIID_TIG) {
 791   3                  FONT_SIZE  = 35; 
 792   3                  if(main_menu_bm & (u32)1 << EIID_TIG_SPOT) {
 793   4                      LINE_WIDTH = 200;
 794   4                  } else {
 795   4                      if(main_menu_bm & (u32)1 << EIID_PULSE_ON)
 796   4                          LINE_WIDTH = 150;
C51 COMPILER V9.53.0.0   TEMP                                                              12/15/2023 14:28:41 PAGE 15  

 797   4                      else
 798   4                          LINE_WIDTH = 171;
 799   4                  }
 800   3                  start_p = p = make_point(40, 550);
 801   3                  add_t_preflow(&p);
 802   3                  dummy_line_up(&p);
 803   3                  add_t_start_i(&p);
 804   3                  add_freq_bal(&p);
 805   3                  add_t_up(&p);
 806   3                  add_base_i1_i2_t(&p);
 807   3              if(main_menu_bm & (u32)1 << EIID_TIG_SPOT) {
 808   4                  LEVEL_HEIGHT <<= 1; // * 2
 809   4                  add_t_down(&p);
 810   4                  LEVEL_HEIGHT >>= 1; // div 2
 811   4                  add_t_postflow(&p);
 812   4              } else {
 813   4                  if(main_menu_bm & (u32)1 << EIID_PULSE_ON) {
 814   5                      dummy_line_down(&p);
 815   5                      add_i_t_impulse(&p);
 816   5                      dummy_line_up(&p);
 817   5                  } 
 818   4                  add_t_down(&p);
 819   4                  add_end_i_t(&p);
 820   4                  dummy_line_down(&p);
 821   4                  add_t_postflow(&p);
 822   4              }
 823   3              } else if(main_menu_bm & (u32)1 << EIID_MMA) {//mma
 824   3                  if(main_menu_bm & (u32)1 << EIID_PULSE_ON) {
 825   4                      LINE_WIDTH = 300;
 826   4                      FONT_SIZE = 38;//48
 827   4                  } else {
 828   4                      LINE_WIDTH = 400;
 829   4                      FONT_SIZE = 38;//64
 830   4                  }
 831   3                  start_p = p = make_point(40, 500);
 832   3                  add_freq_bal(&p);
 833   3                  dummy_line_up(&p);
 834   3                  add_t_start_i(&p);
 835   3                  dummy_line_down(&p);
 836   3                  add_base_i1_i2_t(&p);
 837   3                  if(main_menu_bm & (u32)1 << EIID_PULSE_ON) {
 838   4                      dummy_line_up(&p);
 839   4                      add_i_t_impulse(&p);
 840   4                  }
 841   3                  add_i_kz(&p);
 842   3                  dummy_line_down(&p);
 843   3              }
 844   2              Draw_line(p.x, 650 - 80, p.x, 650, 5, 0xDEDB); //–≤–µ—Ä—Ç–∏–∫–∞–ª—å–Ω–∞—è —á–µ—Ä—Ç–∞ –≤ –∫–æ–Ω—Ü–µ
 845   2              Draw_line(40, 650 - 80, 1240, 650 - 80, 5, 0xDEDB);//2 –≥–æ—Ä–∏–∑–æ–Ω—Ç–∞–ª—å–Ω—ã–µ –ª–∏–Ω–∏–∏
 846   2              Draw_line(40, 650, 1240, 650, 5, 0xDEDB);
 847   2          }
 848   1      
 849   1          if(Welding_state == 0) { //—Ä–µ–∂–∏–º –Ω–∞—Å—Ç—Ä–æ–π–∫–∞–∏ –ø–∞—Ä–∞–º–µ—Ç—Ä–æ–≤
 850   2              Par_big_text_sp = Draw_text(
 851   2              0, 
 852   2              0,
 853   2              SCREEN_WIDTH - 1,
 854   2              255,  
 855   2              0,38, 
 856   2              175,255, 
 857   2              TEXT_INTERVAL_1 | TEXT_ALIGNMENT_CENTER | TEXT_ALIGNMENT_VERTICAL_UP | TEXT_ENC_ASCII, //for big u
             -nicode font use ascii encode and icl is font id
C51 COMPILER V9.53.0.0   TEMP                                                              12/15/2023 14:28:41 PAGE 16  

 858   2              PINK);
 859   2      
 860   2              prev_par_id = 0;
 861   2              cur_par_id  = EIID_BASE_I2;
 862   2              par_select(EIID_BASE_I2);
 863   2              prev_par_id = EIID_BASE_I2;
 864   2              
 865   2          } else if (Welding_state == 8) {
 866   2              Amp_text_sp = Draw_text(
 867   2              0, 
 868   2              0,
 869   2              SCREEN_WIDTH - 300,
 870   2              255,  
 871   2              0,38, 
 872   2              175,255, 
 873   2              TEXT_INTERVAL_1 | TEXT_ALIGNMENT_RIGHT | TEXT_ALIGNMENT_VERTICAL_UP | TEXT_ENC_ASCII, //for big un
             -icode font use ascii encode and icl is font id
 874   2              RED); 
 875   2      
 876   2              Volt_text_sp = Draw_text(
 877   2              930, 
 878   2              74,
 879   2              SCREEN_WIDTH - 1,
 880   2              128 + 74, 
 881   2              0,0, 
 882   2              64,128, 
 883   2              TEXT_INTERVAL_1 | TEXT_ALIGNMENT_LEFT | TEXT_ALIGNMENT_VERTICAL_UP | TEXT_ENC_GBK, //for big unico
             -de font use ascii encode and icl is font id
 884   2              DARK_GREEN);
 885   2          }
 886   1      
 887   1        
 888   1          //par_select(EIID_BASE_I2); //–ø–æ —É–º–æ–ª—á–∞–Ω–∏—é –≤—ã–±—Ä–∞–Ω —Ç–æ–∫ –±–∞–∑—ã –¥–ª—è –æ—Ç–æ–±—Ä–∞
             -–∂–µ–Ω–∏—è –∏ –Ω–∞—Å—Ç—Ä–æ–π–∫–∏ –ø–æ—Å–ª–µ –æ—Ç—Ä–∏—Å–æ–≤–∫–∏ —Ü–∏–∫–ª–æ–≥—Ä–∞–º–º—ã
 889   1      
 890   1          Draw_end(); //–∑–∞—á–∏—Å—Ç–∫–∞ –Ω–µ –∏—Å–ø–æ–ª—å–∑—É–µ–º—ã—Ö —ç–ª–µ–º–µ–Ω—Ç–æ–≤
 891   1      } 
 892          
 893          
 894          
 895          
 896          
 897          
C51 COMPILER V9.53.0.0   TEMP                                                              12/15/2023 14:28:41 PAGE 17  

ASSEMBLY LISTING OF GENERATED OBJECT CODE


             ; FUNCTION L?0281 (BEGIN)
0000         L?0282:
0000 900000      R     MOV     DPTR,#?_make_lim?BYTE+05H
0003 7401              MOV     A,#01H
0005 F0                MOVX    @DPTR,A
0006 A3                INC     DPTR
0007 745E              MOV     A,#05EH
0009 F0                MOVX    @DPTR,A
000A 7D05              MOV     R5,#05H
             ; FUNCTION _make_lim (BEGIN)
                                           ; SOURCE LINE # 87
;---- Variable 'lim' assigned to Register 'R1/R2/R3' ----
;---- Variable 'min' assigned to Register 'R4/R5' ----
                                           ; SOURCE LINE # 88
000C AF05              MOV     R7,AR5
000E EC                MOV     A,R4
000F 8FF0              MOV     B,R7
0011 120000      E     LCALL   ?C?ISTPTR
                                           ; SOURCE LINE # 89
0014 900000      R     MOV     DPTR,#max
0017 E0                MOVX    A,@DPTR
0018 FF                MOV     R7,A
0019 A3                INC     DPTR
001A E0                MOVX    A,@DPTR
001B 900002            MOV     DPTR,#02H
001E CF                XCH     A,R7
001F 8FF0              MOV     B,R7
0021 020000      E     LJMP    ?C?ISTOPTR
             ; FUNCTION _make_lim (END)

             ; FUNCTION L?0290 (BEGIN)
0000 7D9F              MOV     R5,#09FH
0002 7C02              MOV     R4,#02H
0004 7FFF              MOV     R7,#0FFH
             ; FUNCTION _add_touch_place (BEGIN)
                                           ; SOURCE LINE # 92
0006 900000      R     MOV     DPTR,#x0
0009 EE                MOV     A,R6
000A F0                MOVX    @DPTR,A
000B A3                INC     DPTR
000C EF                MOV     A,R7
000D F0                MOVX    @DPTR,A
000E A3                INC     DPTR
000F EC                MOV     A,R4
0010 F0                MOVX    @DPTR,A
0011 A3                INC     DPTR
0012 ED                MOV     A,R5
0013 F0                MOVX    @DPTR,A
0014 A3                INC     DPTR
0015 EA                MOV     A,R2
0016 F0                MOVX    @DPTR,A
0017 A3                INC     DPTR
0018 EB                MOV     A,R3
0019 F0                MOVX    @DPTR,A
                                           ; SOURCE LINE # 93
                                           ; SOURCE LINE # 95
001A 900000      R     MOV     DPTR,#touch_rect_cnt
001D E0                MOVX    A,@DPTR
001E FF                MOV     R7,A
C51 COMPILER V9.53.0.0   TEMP                                                              12/15/2023 14:28:41 PAGE 18  

001F D3                SETB    C
0020 9430              SUBB    A,#030H
0022 505C              JNC     ?C0003
0024         ?C0002:
                                           ; SOURCE LINE # 97
0024 EF                MOV     A,R7
0025 75F009            MOV     B,#09H
0028 A4                MUL     AB
0029 2400        R     ADD     A,#LOW cur_menu
002B F9                MOV     R1,A
002C 7400        R     MOV     A,#HIGH cur_menu
002E 35F0              ADDC    A,B
0030 FA                MOV     R2,A
0031 7B01              MOV     R3,#01H
;---- Variable 'p_menu' assigned to Register 'R1/R2/R3' ----
                                           ; SOURCE LINE # 99
0033 900000      R     MOV     DPTR,#touch_id
0036 E0                MOVX    A,@DPTR
0037 120000      E     LCALL   ?C?CSTPTR
                                           ; SOURCE LINE # 100
003A 900000      R     MOV     DPTR,#x0
003D E0                MOVX    A,@DPTR
003E FF                MOV     R7,A
003F A3                INC     DPTR
0040 E0                MOVX    A,@DPTR
0041 900001            MOV     DPTR,#01H
0044 CF                XCH     A,R7
0045 8FF0              MOV     B,R7
0047 120000      E     LCALL   ?C?ISTOPTR
                                           ; SOURCE LINE # 101
004A 900000      R     MOV     DPTR,#y0
004D E0                MOVX    A,@DPTR
004E FF                MOV     R7,A
004F A3                INC     DPTR
0050 E0                MOVX    A,@DPTR
0051 900003            MOV     DPTR,#03H
0054 CF                XCH     A,R7
0055 8FF0              MOV     B,R7
0057 120000      E     LCALL   ?C?ISTOPTR
                                           ; SOURCE LINE # 102
005A 900000      R     MOV     DPTR,#x1
005D E0                MOVX    A,@DPTR
005E FF                MOV     R7,A
005F A3                INC     DPTR
0060 E0                MOVX    A,@DPTR
0061 900005            MOV     DPTR,#05H
0064 CF                XCH     A,R7
0065 8FF0              MOV     B,R7
0067 120000      E     LCALL   ?C?ISTOPTR
                                           ; SOURCE LINE # 103
006A 900000      R     MOV     DPTR,#y1
006D E0                MOVX    A,@DPTR
006E FF                MOV     R7,A
006F A3                INC     DPTR
0070 E0                MOVX    A,@DPTR
0071 900007            MOV     DPTR,#07H
0074 CF                XCH     A,R7
0075 8FF0              MOV     B,R7
0077 120000      E     LCALL   ?C?ISTOPTR
                                           ; SOURCE LINE # 104
007A 900000      R     MOV     DPTR,#touch_rect_cnt
007D E0                MOVX    A,@DPTR
C51 COMPILER V9.53.0.0   TEMP                                                              12/15/2023 14:28:41 PAGE 19  

007E 04                INC     A
007F F0                MOVX    @DPTR,A
                                           ; SOURCE LINE # 105
0080         ?C0003:
0080 22                RET     
             ; FUNCTION _add_touch_place (END)

             ; FUNCTION L?0283 (BEGIN)
0000 900000      R     MOV     DPTR,#?_draw_number_wtih_touch_centered?BYTE+06H
0003         L?0284:
0003 F0                MOVX    @DPTR,A
0004 7B24              MOV     R3,#024H
0006 7A00              MOV     R2,#00H
             ; FUNCTION _draw_number_wtih_touch_centered (BEGIN)
                                           ; SOURCE LINE # 108
0008 900000      R     MOV     DPTR,#x
000B EE                MOV     A,R6
000C F0                MOVX    @DPTR,A
000D A3                INC     DPTR
000E EF                MOV     A,R7
000F F0                MOVX    @DPTR,A
0010 A3                INC     DPTR
0011 EC                MOV     A,R4
0012 F0                MOVX    @DPTR,A
0013 A3                INC     DPTR
0014 ED                MOV     A,R5
0015 F0                MOVX    @DPTR,A
0016 A3                INC     DPTR
0017 EA                MOV     A,R2
0018 F0                MOVX    @DPTR,A
0019 A3                INC     DPTR
001A EB                MOV     A,R3
001B F0                MOVX    @DPTR,A
                                           ; SOURCE LINE # 109
                                           ; SOURCE LINE # 110
001C 900000      R     MOV     DPTR,#x
001F E0                MOVX    A,@DPTR
0020 FA                MOV     R2,A
0021 A3                INC     DPTR
0022 E0                MOVX    A,@DPTR
0023 FB                MOV     R3,A
0024 FF                MOV     R7,A
0025 AE02              MOV     R6,AR2
0027 C006              PUSH    AR6
0029 C007              PUSH    AR7
002B 900000      R     MOV     DPTR,#font_size+01H
002E E0                MOVX    A,@DPTR
002F 25E0              ADD     A,ACC
0031 FF                MOV     R7,A
0032 900000      R     MOV     DPTR,#font_size
0035 E0                MOVX    A,@DPTR
0036 33                RLC     A
0037 FE                MOV     R6,A
0038 C3                CLR     C
0039 900000      R     MOV     DPTR,#y+01H
003C E0                MOVX    A,@DPTR
003D 9F                SUBB    A,R7
003E FD                MOV     R5,A
003F 900000      R     MOV     DPTR,#y
0042 E0                MOVX    A,@DPTR
0043 9E                SUBB    A,R6
0044 FC                MOV     R4,A
C51 COMPILER V9.53.0.0   TEMP                                                              12/15/2023 14:28:41 PAGE 20  

0045 EB                MOV     A,R3
0046 7800        R     MOV     R0,#LOW LINE_WIDTH+01H
0048 26                ADD     A,@R0
0049 FB                MOV     R3,A
004A EA                MOV     A,R2
004B 18                DEC     R0
004C 36                ADDC    A,@R0
004D FA                MOV     R2,A
004E E0                MOVX    A,@DPTR
004F FF                MOV     R7,A
0050 A3                INC     DPTR
0051 E0                MOVX    A,@DPTR
0052 900000      E     MOV     DPTR,#?_Draw_text?BYTE+06H
0055 CF                XCH     A,R7
0056 F0                MOVX    @DPTR,A
0057 A3                INC     DPTR
0058 EF                MOV     A,R7
0059 F0                MOVX    @DPTR,A
005A E4                CLR     A
005B A3                INC     DPTR
005C F0                MOVX    @DPTR,A
005D A3                INC     DPTR
005E F0                MOVX    @DPTR,A
005F 900000      R     MOV     DPTR,#font_size
0062 A3                INC     DPTR
0063 E0                MOVX    A,@DPTR
0064 900000      E     MOV     DPTR,#?_Draw_text?BYTE+0AH
0067 F0                MOVX    @DPTR,A
0068 25E0              ADD     A,ACC
006A A3                INC     DPTR
006B F0                MOVX    @DPTR,A
006C A3                INC     DPTR
006D E4                CLR     A
006E F0                MOVX    @DPTR,A
006F A3                INC     DPTR
0070 7443              MOV     A,#043H
0072 F0                MOVX    @DPTR,A
0073 E4                CLR     A
0074 A3                INC     DPTR
0075 F0                MOVX    @DPTR,A
0076 A3                INC     DPTR
0077 F0                MOVX    @DPTR,A
0078 D007              POP     AR7
007A D006              POP     AR6
007C 120000      E     LCALL   _Draw_text
007F 900000      R     MOV     DPTR,#touch_id
0082 E0                MOVX    A,@DPTR
0083 FD                MOV     R5,A
0084 25E0              ADD     A,ACC
0086 2400        R     ADD     A,#LOW text_sp
0088 F582              MOV     DPL,A
008A E4                CLR     A
008B 3400        R     ADDC    A,#HIGH text_sp
008D F583              MOV     DPH,A
008F EE                MOV     A,R6
0090 F0                MOVX    @DPTR,A
0091 A3                INC     DPTR
0092 EF                MOV     A,R7
0093 F0                MOVX    @DPTR,A
                                           ; SOURCE LINE # 119
0094 ED                MOV     A,R5
0095 FF                MOV     R7,A
C51 COMPILER V9.53.0.0   TEMP                                                              12/15/2023 14:28:41 PAGE 21  

0096 7E00              MOV     R6,#00H
0098 120000      R     LCALL   _display_par
                                           ; SOURCE LINE # 120
009B 900000      R     MOV     DPTR,#x
009E E0                MOVX    A,@DPTR
009F FA                MOV     R2,A
00A0 A3                INC     DPTR
00A1 E0                MOVX    A,@DPTR
00A2 FB                MOV     R3,A
00A3 FF                MOV     R7,A
00A4 AE02              MOV     R6,AR2
00A6 C006              PUSH    AR6
00A8 C007              PUSH    AR7
00AA 900000      R     MOV     DPTR,#font_size+01H
00AD E0                MOVX    A,@DPTR
00AE 25E0              ADD     A,ACC
00B0 FF                MOV     R7,A
00B1 900000      R     MOV     DPTR,#font_size
00B4 E0                MOVX    A,@DPTR
00B5 33                RLC     A
00B6 FE                MOV     R6,A
00B7 C3                CLR     C
00B8 900000      R     MOV     DPTR,#y+01H
00BB E0                MOVX    A,@DPTR
00BC 9F                SUBB    A,R7
00BD FD                MOV     R5,A
00BE 900000      R     MOV     DPTR,#y
00C1 E0                MOVX    A,@DPTR
00C2 9E                SUBB    A,R6
00C3 FC                MOV     R4,A
00C4 EB                MOV     A,R3
00C5 7800        R     MOV     R0,#LOW LINE_WIDTH+01H
00C7 26                ADD     A,@R0
00C8 FB                MOV     R3,A
00C9 EA                MOV     A,R2
00CA 18                DEC     R0
00CB 36                ADDC    A,@R0
00CC FA                MOV     R2,A
00CD E0                MOVX    A,@DPTR
00CE FF                MOV     R7,A
00CF A3                INC     DPTR
00D0 E0                MOVX    A,@DPTR
00D1 900000      R     MOV     DPTR,#?_add_touch_place?BYTE+06H
00D4 CF                XCH     A,R7
00D5 F0                MOVX    @DPTR,A
00D6 A3                INC     DPTR
00D7 EF                MOV     A,R7
00D8 F0                MOVX    @DPTR,A
00D9 900000      R     MOV     DPTR,#touch_id
00DC E0                MOVX    A,@DPTR
00DD 900000      R     MOV     DPTR,#?_add_touch_place?BYTE+08H
00E0 F0                MOVX    @DPTR,A
00E1 D007              POP     AR7
00E3 D006              POP     AR6
00E5 020000      R     LJMP    _add_touch_place
             ; FUNCTION _draw_number_wtih_touch_centered (END)

             ; FUNCTION L?0286 (BEGIN)
0000         L?0287:
0000 7B01              MOV     R3,#01H
0002 7A00        R     MOV     R2,#HIGH p
0004 7900        R     MOV     R1,#LOW p
C51 COMPILER V9.53.0.0   TEMP                                                              12/15/2023 14:28:41 PAGE 22  

             ; FUNCTION _dummy_line_up (BEGIN)
                                           ; SOURCE LINE # 125
0006 900000      R     MOV     DPTR,#p
0009 EB                MOV     A,R3
000A F0                MOVX    @DPTR,A
000B A3                INC     DPTR
000C EA                MOV     A,R2
000D F0                MOVX    @DPTR,A
000E A3                INC     DPTR
000F E9                MOV     A,R1
0010 F0                MOVX    @DPTR,A
                                           ; SOURCE LINE # 126
                                           ; SOURCE LINE # 127
0011 900000      R     MOV     DPTR,#p
0014 E0                MOVX    A,@DPTR
0015 FB                MOV     R3,A
0016 A3                INC     DPTR
0017 E0                MOVX    A,@DPTR
0018 FA                MOV     R2,A
0019 A3                INC     DPTR
001A E0                MOVX    A,@DPTR
001B F9                MOV     R1,A
001C 120000      E     LCALL   ?C?ILDPTR
001F FF                MOV     R7,A
0020 AEF0              MOV     R6,B
0022 C006              PUSH    AR6
0024 C007              PUSH    AR7
0026 900002            MOV     DPTR,#02H
0029 120000      E     LCALL   ?C?ILDOPTR
002C FD                MOV     R5,A
002D ACF0              MOV     R4,B
002F C004              PUSH    AR4
0031 C005              PUSH    AR5
0033 120000      E     LCALL   ?C?ILDPTR
0036 FB                MOV     R3,A
0037 AAF0              MOV     R2,B
0039 C002              PUSH    AR2
003B C003              PUSH    AR3
003D 900000      R     MOV     DPTR,#p
0040 E0                MOVX    A,@DPTR
0041 FB                MOV     R3,A
0042 A3                INC     DPTR
0043 E0                MOVX    A,@DPTR
0044 FA                MOV     R2,A
0045 A3                INC     DPTR
0046 E0                MOVX    A,@DPTR
0047 2402              ADD     A,#02H
0049 F9                MOV     R1,A
004A E4                CLR     A
004B 3A                ADDC    A,R2
004C FA                MOV     R2,A
004D 120000      E     LCALL   ?C?ILDPTR
0050 FF                MOV     R7,A
0051 7800        R     MOV     R0,#LOW LEVEL_HEIGHT
0053 E6                MOV     A,@R0
0054 FD                MOV     R5,A
0055 C3                CLR     C
0056 EF                MOV     A,R7
0057 9D                SUBB    A,R5
0058 FF                MOV     R7,A
0059 E5F0              MOV     A,B
005B 9400              SUBB    A,#00H
C51 COMPILER V9.53.0.0   TEMP                                                              12/15/2023 14:28:41 PAGE 23  

005D FE                MOV     R6,A
005E 8FF0              MOV     B,R7
0060 120000      E     LCALL   ?C?ISTPTR
0063 900000      E     MOV     DPTR,#?_Draw_line?BYTE+06H
0066 EE                MOV     A,R6
0067 F0                MOVX    @DPTR,A
0068 A3                INC     DPTR
0069 EF                MOV     A,R7
006A F0                MOVX    @DPTR,A
006B 900000      R     MOV     DPTR,#LINE_HIGHT
006E E4                CLR     A
006F 93                MOVC    A,@A+DPTR
0070 900000      E     MOV     DPTR,#?_Draw_line?BYTE+08H
0073 F0                MOVX    @DPTR,A
0074 A3                INC     DPTR
0075 7407              MOV     A,#07H
0077 F0                MOVX    @DPTR,A
0078 A3                INC     DPTR
0079 74E0              MOV     A,#0E0H
007B F0                MOVX    @DPTR,A
007C D003              POP     AR3
007E D002              POP     AR2
0080 D005              POP     AR5
0082 D004              POP     AR4
0084 D007              POP     AR7
0086 D006              POP     AR6
0088 020000      E     LJMP    _Draw_line
             ; FUNCTION _dummy_line_up (END)

             ; FUNCTION L?0288 (BEGIN)
0000         L?0289:
0000 7B01              MOV     R3,#01H
0002 7A00        R     MOV     R2,#HIGH p
0004 7900        R     MOV     R1,#LOW p
             ; FUNCTION _dummy_line_down (BEGIN)
                                           ; SOURCE LINE # 130
0006 900000      R     MOV     DPTR,#p
0009 EB                MOV     A,R3
000A F0                MOVX    @DPTR,A
000B A3                INC     DPTR
000C EA                MOV     A,R2
000D F0                MOVX    @DPTR,A
000E A3                INC     DPTR
000F E9                MOV     A,R1
0010 F0                MOVX    @DPTR,A
                                           ; SOURCE LINE # 131
                                           ; SOURCE LINE # 132
0011 900000      R     MOV     DPTR,#p
0014 E0                MOVX    A,@DPTR
0015 FB                MOV     R3,A
0016 A3                INC     DPTR
0017 E0                MOVX    A,@DPTR
0018 FA                MOV     R2,A
0019 A3                INC     DPTR
001A E0                MOVX    A,@DPTR
001B F9                MOV     R1,A
001C 120000      E     LCALL   ?C?ILDPTR
001F FF                MOV     R7,A
0020 AEF0              MOV     R6,B
0022 C006              PUSH    AR6
0024 C007              PUSH    AR7
0026 900002            MOV     DPTR,#02H
C51 COMPILER V9.53.0.0   TEMP                                                              12/15/2023 14:28:41 PAGE 24  

0029 120000      E     LCALL   ?C?ILDOPTR
002C FD                MOV     R5,A
002D ACF0              MOV     R4,B
002F 120000      E     LCALL   ?C?ILDPTR
0032 FB                MOV     R3,A
0033 AAF0              MOV     R2,B
0035 C002              PUSH    AR2
0037 C003              PUSH    AR3
0039 7800        R     MOV     R0,#LOW LEVEL_HEIGHT
003B E6                MOV     A,@R0
003C FF                MOV     R7,A
003D 7E00              MOV     R6,#00H
003F 900000      R     MOV     DPTR,#p
0042 E0                MOVX    A,@DPTR
0043 FB                MOV     R3,A
0044 A3                INC     DPTR
0045 E0                MOVX    A,@DPTR
0046 FA                MOV     R2,A
0047 900002            MOV     DPTR,#02H
004A EE                MOV     A,R6
004B 8FF0              MOV     B,R7
004D 120000      E     LCALL   ?C?IILDOPTR
0050 AFF0              MOV     R7,B
0052 900000      E     MOV     DPTR,#?_Draw_line?BYTE+06H
0055 F0                MOVX    @DPTR,A
0056 A3                INC     DPTR
0057 EF                MOV     A,R7
0058 F0                MOVX    @DPTR,A
0059 900000      R     MOV     DPTR,#LINE_HIGHT
005C E4                CLR     A
005D 93                MOVC    A,@A+DPTR
005E 900000      E     MOV     DPTR,#?_Draw_line?BYTE+08H
0061 F0                MOVX    @DPTR,A
0062 A3                INC     DPTR
0063 7407              MOV     A,#07H
0065 F0                MOVX    @DPTR,A
0066 A3                INC     DPTR
0067 74E0              MOV     A,#0E0H
0069 F0                MOVX    @DPTR,A
006A D003              POP     AR3
006C D002              POP     AR2
006E D007              POP     AR7
0070 D006              POP     AR6
0072 020000      E     LJMP    _Draw_line
             ; FUNCTION _dummy_line_down (END)

             ; FUNCTION _add_t_preflow (BEGIN)
                                           ; SOURCE LINE # 135
0000 900000      R     MOV     DPTR,#p
0003 EB                MOV     A,R3
0004 F0                MOVX    @DPTR,A
0005 A3                INC     DPTR
0006 EA                MOV     A,R2
0007 F0                MOVX    @DPTR,A
0008 A3                INC     DPTR
0009 E9                MOV     A,R1
000A F0                MOVX    @DPTR,A
                                           ; SOURCE LINE # 136
                                           ; SOURCE LINE # 137
000B 900000      R     MOV     DPTR,#p
000E E0                MOVX    A,@DPTR
000F FB                MOV     R3,A
C51 COMPILER V9.53.0.0   TEMP                                                              12/15/2023 14:28:41 PAGE 25  

0010 A3                INC     DPTR
0011 E0                MOVX    A,@DPTR
0012 FA                MOV     R2,A
0013 A3                INC     DPTR
0014 E0                MOVX    A,@DPTR
0015 F9                MOV     R1,A
0016 120000      E     LCALL   ?C?ILDPTR
0019 FF                MOV     R7,A
001A AEF0              MOV     R6,B
001C 900002            MOV     DPTR,#02H
001F 120000      E     LCALL   ?C?ILDOPTR
0022 FD                MOV     R5,A
0023 ACF0              MOV     R4,B
0025 120000      E     LCALL   ?C?ILDPTR
0028 7800        R     MOV     R0,#LOW LINE_WIDTH+01H
002A 26                ADD     A,@R0
002B FB                MOV     R3,A
002C E5F0              MOV     A,B
002E 18                DEC     R0
002F 36                ADDC    A,@R0
0030 FA                MOV     R2,A
0031 C002              PUSH    AR2
0033 C003              PUSH    AR3
0035 900000      R     MOV     DPTR,#p
0038 E0                MOVX    A,@DPTR
0039 FB                MOV     R3,A
003A A3                INC     DPTR
003B E0                MOVX    A,@DPTR
003C FA                MOV     R2,A
003D 900002            MOV     DPTR,#02H
0040 120000      E     LCALL   ?C?ILDOPTR
0043 FB                MOV     R3,A
0044 900000      E     MOV     DPTR,#?_Draw_line?BYTE+06H
0047 E5F0              MOV     A,B
0049 F0                MOVX    @DPTR,A
004A A3                INC     DPTR
004B EB                MOV     A,R3
004C F0                MOVX    @DPTR,A
004D 900000      R     MOV     DPTR,#LINE_HIGHT
0050 E4                CLR     A
0051 93                MOVC    A,@A+DPTR
0052 900000      E     MOV     DPTR,#?_Draw_line?BYTE+08H
0055 F0                MOVX    @DPTR,A
0056 A3                INC     DPTR
0057 7407              MOV     A,#07H
0059 F0                MOVX    @DPTR,A
005A A3                INC     DPTR
005B 74E0              MOV     A,#0E0H
005D F0                MOVX    @DPTR,A
005E D003              POP     AR3
0060 D002              POP     AR2
0062 120000      E     LCALL   _Draw_line
                                           ; SOURCE LINE # 138
0065 900000      R     MOV     DPTR,#p
0068 E0                MOVX    A,@DPTR
0069 FB                MOV     R3,A
006A A3                INC     DPTR
006B E0                MOVX    A,@DPTR
006C FA                MOV     R2,A
006D A3                INC     DPTR
006E E0                MOVX    A,@DPTR
006F F9                MOV     R1,A
C51 COMPILER V9.53.0.0   TEMP                                                              12/15/2023 14:28:41 PAGE 26  

0070 120000      E     LCALL   ?C?ILDPTR
0073 FF                MOV     R7,A
0074 AEF0              MOV     R6,B
0076 7800        R     MOV     R0,#LOW TIME_Y_LEVEL
0078 E6                MOV     A,@R0
0079 FC                MOV     R4,A
007A 08                INC     R0
007B E6                MOV     A,@R0
007C FD                MOV     R5,A
007D 741A              MOV     A,#01AH
007F 120000      R     LCALL   L?0283
                                           ; SOURCE LINE # 139
0082 900000      R     MOV     DPTR,#p
0085 E0                MOVX    A,@DPTR
0086 FB                MOV     R3,A
0087 A3                INC     DPTR
0088 E0                MOVX    A,@DPTR
0089 FA                MOV     R2,A
008A A3                INC     DPTR
008B E0                MOVX    A,@DPTR
008C F9                MOV     R1,A
008D 120000      E     LCALL   ?C?ILDPTR
0090 FB                MOV     R3,A
0091 AAF0              MOV     R2,B
0093 FF                MOV     R7,A
0094 AE02              MOV     R6,AR2
0096 900000      E     MOV     DPTR,#?_Draw_line?BYTE+06H
0099 7402              MOV     A,#02H
009B F0                MOVX    @DPTR,A
009C A3                INC     DPTR
009D 748A              MOV     A,#08AH
009F F0                MOVX    @DPTR,A
00A0 A3                INC     DPTR
00A1 7405              MOV     A,#05H
00A3 F0                MOVX    @DPTR,A
00A4 A3                INC     DPTR
00A5 74DE              MOV     A,#0DEH
00A7 F0                MOVX    @DPTR,A
00A8 A3                INC     DPTR
00A9 74DB              MOV     A,#0DBH
00AB F0                MOVX    @DPTR,A
00AC 7D3A              MOV     R5,#03AH
00AE 7C02              MOV     R4,#02H
00B0 120000      E     LCALL   _Draw_line
                                           ; SOURCE LINE # 140
00B3 7800        R     MOV     R0,#LOW LINE_WIDTH
00B5 E6                MOV     A,@R0
00B6 FE                MOV     R6,A
00B7 08                INC     R0
00B8 E6                MOV     A,@R0
00B9 FF                MOV     R7,A
00BA 900000      R     MOV     DPTR,#p
00BD E0                MOVX    A,@DPTR
00BE FB                MOV     R3,A
00BF A3                INC     DPTR
00C0 E0                MOVX    A,@DPTR
00C1 FA                MOV     R2,A
00C2 A3                INC     DPTR
00C3 E0                MOVX    A,@DPTR
00C4 F9                MOV     R1,A
00C5 EE                MOV     A,R6
00C6 8FF0              MOV     B,R7
C51 COMPILER V9.53.0.0   TEMP                                                              12/15/2023 14:28:41 PAGE 27  

00C8 020000      E     LJMP    ?C?IILDPTR
             ; FUNCTION _add_t_preflow (END)

             ; FUNCTION L?0291 (BEGIN)
0000 7B01              MOV     R3,#01H
0002 7A00        R     MOV     R2,#HIGH p
0004 7900        R     MOV     R1,#LOW p
             ; FUNCTION _add_t_start_i (BEGIN)
                                           ; SOURCE LINE # 143
0006 900000      R     MOV     DPTR,#p
0009 EB                MOV     A,R3
000A F0                MOVX    @DPTR,A
000B A3                INC     DPTR
000C EA                MOV     A,R2
000D F0                MOVX    @DPTR,A
000E A3                INC     DPTR
000F E9                MOV     A,R1
0010 F0                MOVX    @DPTR,A
                                           ; SOURCE LINE # 144
                                           ; SOURCE LINE # 145
0011 900000      R     MOV     DPTR,#p
0014 E0                MOVX    A,@DPTR
0015 FB                MOV     R3,A
0016 A3                INC     DPTR
0017 E0                MOVX    A,@DPTR
0018 FA                MOV     R2,A
0019 A3                INC     DPTR
001A E0                MOVX    A,@DPTR
001B F9                MOV     R1,A
001C 120000      E     LCALL   ?C?ILDPTR
001F FF                MOV     R7,A
0020 AEF0              MOV     R6,B
0022 900002            MOV     DPTR,#02H
0025 120000      E     LCALL   ?C?ILDOPTR
0028 FD                MOV     R5,A
0029 ACF0              MOV     R4,B
002B 120000      E     LCALL   ?C?ILDPTR
002E 7800        R     MOV     R0,#LOW LINE_WIDTH+01H
0030 26                ADD     A,@R0
0031 FB                MOV     R3,A
0032 E5F0              MOV     A,B
0034 18                DEC     R0
0035 36                ADDC    A,@R0
0036 FA                MOV     R2,A
0037 C002              PUSH    AR2
0039 C003              PUSH    AR3
003B 900000      R     MOV     DPTR,#p
003E E0                MOVX    A,@DPTR
003F FB                MOV     R3,A
0040 A3                INC     DPTR
0041 E0                MOVX    A,@DPTR
0042 FA                MOV     R2,A
0043 900002            MOV     DPTR,#02H
0046 120000      E     LCALL   ?C?ILDOPTR
0049 FB                MOV     R3,A
004A 900000      E     MOV     DPTR,#?_Draw_line?BYTE+06H
004D E5F0              MOV     A,B
004F F0                MOVX    @DPTR,A
0050 A3                INC     DPTR
0051 EB                MOV     A,R3
0052 F0                MOVX    @DPTR,A
0053 900000      R     MOV     DPTR,#LINE_HIGHT
C51 COMPILER V9.53.0.0   TEMP                                                              12/15/2023 14:28:41 PAGE 28  

0056 E4                CLR     A
0057 93                MOVC    A,@A+DPTR
0058 900000      E     MOV     DPTR,#?_Draw_line?BYTE+08H
005B F0                MOVX    @DPTR,A
005C A3                INC     DPTR
005D 7407              MOV     A,#07H
005F F0                MOVX    @DPTR,A
0060 A3                INC     DPTR
0061 74E0              MOV     A,#0E0H
0063 F0                MOVX    @DPTR,A
0064 D003              POP     AR3
0066 D002              POP     AR2
0068 120000      E     LCALL   _Draw_line
                                           ; SOURCE LINE # 146
006B 900000      R     MOV     DPTR,#p
006E E0                MOVX    A,@DPTR
006F FB                MOV     R3,A
0070 A3                INC     DPTR
0071 E0                MOVX    A,@DPTR
0072 FA                MOV     R2,A
0073 A3                INC     DPTR
0074 E0                MOVX    A,@DPTR
0075 F9                MOV     R1,A
0076 120000      E     LCALL   ?C?ILDPTR
0079 FF                MOV     R7,A
007A AEF0              MOV     R6,B
007C 900002            MOV     DPTR,#02H
007F 120000      E     LCALL   ?C?ILDOPTR
0082 FD                MOV     R5,A
0083 ACF0              MOV     R4,B
0085 7800        R     MOV     R0,#LOW FONT_SIZE
0087 E6                MOV     A,@R0
0088 FA                MOV     R2,A
0089 08                INC     R0
008A E6                MOV     A,@R0
008B FB                MOV     R3,A
008C 900000      R     MOV     DPTR,#?_draw_number_wtih_touch_centered?BYTE+06H
008F 741B              MOV     A,#01BH
0091 F0                MOVX    @DPTR,A
0092 120000      R     LCALL   _draw_number_wtih_touch_centered
                                           ; SOURCE LINE # 147
0095 900000      R     MOV     DPTR,#p
0098 E0                MOVX    A,@DPTR
0099 FB                MOV     R3,A
009A A3                INC     DPTR
009B E0                MOVX    A,@DPTR
009C FA                MOV     R2,A
009D A3                INC     DPTR
009E E0                MOVX    A,@DPTR
009F F9                MOV     R1,A
00A0 120000      E     LCALL   ?C?ILDPTR
00A3 FF                MOV     R7,A
00A4 AEF0              MOV     R6,B
00A6 7800        R     MOV     R0,#LOW TIME_Y_LEVEL
00A8 E6                MOV     A,@R0
00A9 FC                MOV     R4,A
00AA 08                INC     R0
00AB E6                MOV     A,@R0
00AC FD                MOV     R5,A
00AD 741C              MOV     A,#01CH
00AF 120000      R     LCALL   L?0283
                                           ; SOURCE LINE # 148
C51 COMPILER V9.53.0.0   TEMP                                                              12/15/2023 14:28:41 PAGE 29  

00B2 900000      R     MOV     DPTR,#p
00B5 E0                MOVX    A,@DPTR
00B6 FB                MOV     R3,A
00B7 A3                INC     DPTR
00B8 E0                MOVX    A,@DPTR
00B9 FA                MOV     R2,A
00BA A3                INC     DPTR
00BB E0                MOVX    A,@DPTR
00BC F9                MOV     R1,A
00BD 120000      E     LCALL   ?C?ILDPTR
00C0 FB                MOV     R3,A
00C1 AAF0              MOV     R2,B
00C3 FF                MOV     R7,A
00C4 AE02              MOV     R6,AR2
00C6 900000      E     MOV     DPTR,#?_Draw_line?BYTE+06H
00C9 7402              MOV     A,#02H
00CB F0                MOVX    @DPTR,A
00CC A3                INC     DPTR
00CD 748A              MOV     A,#08AH
00CF F0                MOVX    @DPTR,A
00D0 A3                INC     DPTR
00D1 7405              MOV     A,#05H
00D3 F0                MOVX    @DPTR,A
00D4 A3                INC     DPTR
00D5 74DE              MOV     A,#0DEH
00D7 F0                MOVX    @DPTR,A
00D8 A3                INC     DPTR
00D9 74DB              MOV     A,#0DBH
00DB F0                MOVX    @DPTR,A
00DC 7D3A              MOV     R5,#03AH
00DE 7C02              MOV     R4,#02H
00E0 120000      E     LCALL   _Draw_line
                                           ; SOURCE LINE # 149
00E3 7800        R     MOV     R0,#LOW LINE_WIDTH
00E5 E6                MOV     A,@R0
00E6 FE                MOV     R6,A
00E7 08                INC     R0
00E8 E6                MOV     A,@R0
00E9 FF                MOV     R7,A
00EA 900000      R     MOV     DPTR,#p
00ED E0                MOVX    A,@DPTR
00EE FB                MOV     R3,A
00EF A3                INC     DPTR
00F0 E0                MOVX    A,@DPTR
00F1 FA                MOV     R2,A
00F2 A3                INC     DPTR
00F3 E0                MOVX    A,@DPTR
00F4 F9                MOV     R1,A
00F5 EE                MOV     A,R6
00F6 8FF0              MOV     B,R7
00F8 020000      E     LJMP    ?C?IILDPTR
             ; FUNCTION _add_t_start_i (END)

             ; FUNCTION _add_t_up (BEGIN)
                                           ; SOURCE LINE # 152
0000 900000      R     MOV     DPTR,#p
0003 EB                MOV     A,R3
0004 F0                MOVX    @DPTR,A
0005 A3                INC     DPTR
0006 EA                MOV     A,R2
0007 F0                MOVX    @DPTR,A
0008 A3                INC     DPTR
C51 COMPILER V9.53.0.0   TEMP                                                              12/15/2023 14:28:41 PAGE 30  

0009 E9                MOV     A,R1
000A F0                MOVX    @DPTR,A
                                           ; SOURCE LINE # 153
                                           ; SOURCE LINE # 154
000B 900000      R     MOV     DPTR,#p
000E E0                MOVX    A,@DPTR
000F FB                MOV     R3,A
0010 A3                INC     DPTR
0011 E0                MOVX    A,@DPTR
0012 FA                MOV     R2,A
0013 A3                INC     DPTR
0014 E0                MOVX    A,@DPTR
0015 F9                MOV     R1,A
0016 120000      E     LCALL   ?C?ILDPTR
0019 FF                MOV     R7,A
001A AEF0              MOV     R6,B
001C C006              PUSH    AR6
001E C007              PUSH    AR7
0020 900002            MOV     DPTR,#02H
0023 120000      E     LCALL   ?C?ILDOPTR
0026 24FF              ADD     A,#0FFH
0028 FD                MOV     R5,A
0029 E5F0              MOV     A,B
002B 34FF              ADDC    A,#0FFH
002D FC                MOV     R4,A
002E 120000      E     LCALL   ?C?ILDPTR
0031 7800        R     MOV     R0,#LOW LINE_WIDTH+01H
0033 26                ADD     A,@R0
0034 FB                MOV     R3,A
0035 E5F0              MOV     A,B
0037 18                DEC     R0
0038 36                ADDC    A,@R0
0039 FA                MOV     R2,A
003A C002              PUSH    AR2
003C C003              PUSH    AR3
003E 900000      R     MOV     DPTR,#p
0041 E0                MOVX    A,@DPTR
0042 FB                MOV     R3,A
0043 A3                INC     DPTR
0044 E0                MOVX    A,@DPTR
0045 FA                MOV     R2,A
0046 900002            MOV     DPTR,#02H
0049 120000      E     LCALL   ?C?ILDOPTR
004C FB                MOV     R3,A
004D 7800        R     MOV     R0,#LOW LEVEL_HEIGHT
004F E6                MOV     A,@R0
0050 F582              MOV     DPL,A
0052 C3                CLR     C
0053 EB                MOV     A,R3
0054 9582              SUBB    A,DPL
0056 FE                MOV     R6,A
0057 E5F0              MOV     A,B
0059 9400              SUBB    A,#00H
005B 900000      E     MOV     DPTR,#?_Draw_line?BYTE+06H
005E F0                MOVX    @DPTR,A
005F A3                INC     DPTR
0060 CE                XCH     A,R6
0061 F0                MOVX    @DPTR,A
0062 900000      R     MOV     DPTR,#LINE_HIGHT
0065 E4                CLR     A
0066 93                MOVC    A,@A+DPTR
0067 900000      E     MOV     DPTR,#?_Draw_line?BYTE+08H
C51 COMPILER V9.53.0.0   TEMP                                                              12/15/2023 14:28:41 PAGE 31  

006A F0                MOVX    @DPTR,A
006B A3                INC     DPTR
006C 7407              MOV     A,#07H
006E F0                MOVX    @DPTR,A
006F A3                INC     DPTR
0070 74E0              MOV     A,#0E0H
0072 F0                MOVX    @DPTR,A
0073 D003              POP     AR3
0075 D002              POP     AR2
0077 D007              POP     AR7
0079 D006              POP     AR6
007B 120000      E     LCALL   _Draw_line
                                           ; SOURCE LINE # 155
007E 900000      R     MOV     DPTR,#p
0081 E0                MOVX    A,@DPTR
0082 FB                MOV     R3,A
0083 A3                INC     DPTR
0084 E0                MOVX    A,@DPTR
0085 FA                MOV     R2,A
0086 A3                INC     DPTR
0087 E0                MOVX    A,@DPTR
0088 F9                MOV     R1,A
0089 120000      E     LCALL   ?C?ILDPTR
008C FF                MOV     R7,A
008D AEF0              MOV     R6,B
008F 7800        R     MOV     R0,#LOW TIME_Y_LEVEL
0091 E6                MOV     A,@R0
0092 FC                MOV     R4,A
0093 08                INC     R0
0094 E6                MOV     A,@R0
0095 FD                MOV     R5,A
0096 900000      R     MOV     DPTR,#?_draw_number_wtih_touch_centered?BYTE+06H
0099 741D              MOV     A,#01DH
009B 120000      R     LCALL   L?0284
                                           ; SOURCE LINE # 156
009E 900000      R     MOV     DPTR,#p
00A1 E0                MOVX    A,@DPTR
00A2 FB                MOV     R3,A
00A3 A3                INC     DPTR
00A4 E0                MOVX    A,@DPTR
00A5 FA                MOV     R2,A
00A6 A3                INC     DPTR
00A7 E0                MOVX    A,@DPTR
00A8 F9                MOV     R1,A
00A9 120000      E     LCALL   ?C?ILDPTR
00AC FB                MOV     R3,A
00AD AAF0              MOV     R2,B
00AF FF                MOV     R7,A
00B0 AE02              MOV     R6,AR2
00B2 900000      E     MOV     DPTR,#?_Draw_line?BYTE+06H
00B5 7402              MOV     A,#02H
00B7 F0                MOVX    @DPTR,A
00B8 A3                INC     DPTR
00B9 748A              MOV     A,#08AH
00BB F0                MOVX    @DPTR,A
00BC A3                INC     DPTR
00BD 7405              MOV     A,#05H
00BF F0                MOVX    @DPTR,A
00C0 A3                INC     DPTR
00C1 74DE              MOV     A,#0DEH
00C3 F0                MOVX    @DPTR,A
00C4 A3                INC     DPTR
C51 COMPILER V9.53.0.0   TEMP                                                              12/15/2023 14:28:41 PAGE 32  

00C5 74DB              MOV     A,#0DBH
00C7 F0                MOVX    @DPTR,A
00C8 7D3A              MOV     R5,#03AH
00CA 7C02              MOV     R4,#02H
00CC 120000      E     LCALL   _Draw_line
                                           ; SOURCE LINE # 157
00CF 7800        R     MOV     R0,#LOW LINE_WIDTH
00D1 E6                MOV     A,@R0
00D2 FE                MOV     R6,A
00D3 08                INC     R0
00D4 E6                MOV     A,@R0
00D5 FF                MOV     R7,A
00D6 900000      R     MOV     DPTR,#p
00D9 E0                MOVX    A,@DPTR
00DA FB                MOV     R3,A
00DB A3                INC     DPTR
00DC E0                MOVX    A,@DPTR
00DD FA                MOV     R2,A
00DE A3                INC     DPTR
00DF E0                MOVX    A,@DPTR
00E0 F9                MOV     R1,A
00E1 EE                MOV     A,R6
00E2 8FF0              MOV     B,R7
00E4 120000      E     LCALL   ?C?IILDPTR
                                           ; SOURCE LINE # 158
00E7 900000      R     MOV     DPTR,#p
00EA E0                MOVX    A,@DPTR
00EB FB                MOV     R3,A
00EC A3                INC     DPTR
00ED E0                MOVX    A,@DPTR
00EE FA                MOV     R2,A
00EF A3                INC     DPTR
00F0 E0                MOVX    A,@DPTR
00F1 2402              ADD     A,#02H
00F3 F9                MOV     R1,A
00F4 E4                CLR     A
00F5 3A                ADDC    A,R2
00F6 FA                MOV     R2,A
00F7 120000      E     LCALL   ?C?ILDPTR
00FA FF                MOV     R7,A
00FB 7800        R     MOV     R0,#LOW LEVEL_HEIGHT
00FD E6                MOV     A,@R0
00FE FD                MOV     R5,A
00FF C3                CLR     C
0100 EF                MOV     A,R7
0101 9D                SUBB    A,R5
0102 FF                MOV     R7,A
0103 E5F0              MOV     A,B
0105 9400              SUBB    A,#00H
0107 8FF0              MOV     B,R7
0109 020000      E     LJMP    ?C?ISTPTR
             ; FUNCTION _add_t_up (END)

             ; FUNCTION L?0293 (BEGIN)
0000 7B01              MOV     R3,#01H
0002 7A00        R     MOV     R2,#HIGH p
0004 7900        R     MOV     R1,#LOW p
             ; FUNCTION _add_base_i1_i2_t (BEGIN)
                                           ; SOURCE LINE # 161
0006 900000      R     MOV     DPTR,#p
0009 EB                MOV     A,R3
000A F0                MOVX    @DPTR,A
C51 COMPILER V9.53.0.0   TEMP                                                              12/15/2023 14:28:41 PAGE 33  

000B A3                INC     DPTR
000C EA                MOV     A,R2
000D F0                MOVX    @DPTR,A
000E A3                INC     DPTR
000F E9                MOV     A,R1
0010 F0                MOVX    @DPTR,A
                                           ; SOURCE LINE # 162
                                           ; SOURCE LINE # 163
0011 900000      R     MOV     DPTR,#p
0014 E0                MOVX    A,@DPTR
0015 FB                MOV     R3,A
0016 A3                INC     DPTR
0017 E0                MOVX    A,@DPTR
0018 FA                MOV     R2,A
0019 A3                INC     DPTR
001A E0                MOVX    A,@DPTR
001B F9                MOV     R1,A
001C 120000      E     LCALL   ?C?ILDPTR
001F FF                MOV     R7,A
0020 AEF0              MOV     R6,B
0022 900002            MOV     DPTR,#02H
0025 120000      E     LCALL   ?C?ILDOPTR
0028 FD                MOV     R5,A
0029 ACF0              MOV     R4,B
002B 120000      E     LCALL   ?C?ILDPTR
002E 7800        R     MOV     R0,#LOW LINE_WIDTH+01H
0030 26                ADD     A,@R0
0031 FB                MOV     R3,A
0032 E5F0              MOV     A,B
0034 18                DEC     R0
0035 36                ADDC    A,@R0
0036 FA                MOV     R2,A
0037 C002              PUSH    AR2
0039 C003              PUSH    AR3
003B 900000      R     MOV     DPTR,#p
003E E0                MOVX    A,@DPTR
003F FB                MOV     R3,A
0040 A3                INC     DPTR
0041 E0                MOVX    A,@DPTR
0042 FA                MOV     R2,A
0043 900002            MOV     DPTR,#02H
0046 120000      E     LCALL   ?C?ILDOPTR
0049 FB                MOV     R3,A
004A 900000      E     MOV     DPTR,#?_Draw_line?BYTE+06H
004D E5F0              MOV     A,B
004F F0                MOVX    @DPTR,A
0050 A3                INC     DPTR
0051 EB                MOV     A,R3
0052 F0                MOVX    @DPTR,A
0053 900000      R     MOV     DPTR,#LINE_HIGHT
0056 E4                CLR     A
0057 93                MOVC    A,@A+DPTR
0058 900000      E     MOV     DPTR,#?_Draw_line?BYTE+08H
005B F0                MOVX    @DPTR,A
005C A3                INC     DPTR
005D 7407              MOV     A,#07H
005F F0                MOVX    @DPTR,A
0060 A3                INC     DPTR
0061 74E0              MOV     A,#0E0H
0063 F0                MOVX    @DPTR,A
0064 D003              POP     AR3
0066 D002              POP     AR2
C51 COMPILER V9.53.0.0   TEMP                                                              12/15/2023 14:28:41 PAGE 34  

0068 120000      E     LCALL   _Draw_line
                                           ; SOURCE LINE # 164
006B 900000      R     MOV     DPTR,#p
006E E0                MOVX    A,@DPTR
006F FB                MOV     R3,A
0070 A3                INC     DPTR
0071 E0                MOVX    A,@DPTR
0072 FA                MOV     R2,A
0073 A3                INC     DPTR
0074 E0                MOVX    A,@DPTR
0075 F9                MOV     R1,A
0076 120000      E     LCALL   ?C?ILDPTR
0079 FF                MOV     R7,A
007A AEF0              MOV     R6,B
007C 900002            MOV     DPTR,#02H
007F 120000      E     LCALL   ?C?ILDOPTR
0082 FD                MOV     R5,A
0083 ACF0              MOV     R4,B
0085 7800        R     MOV     R0,#LOW FONT_SIZE
0087 E6                MOV     A,@R0
0088 FA                MOV     R2,A
0089 08                INC     R0
008A E6                MOV     A,@R0
008B FB                MOV     R3,A
008C 900000      R     MOV     DPTR,#?_draw_number_wtih_touch_centered?BYTE+06H
008F 741E              MOV     A,#01EH
0091 F0                MOVX    @DPTR,A
0092 120000      R     LCALL   _draw_number_wtih_touch_centered
                                           ; SOURCE LINE # 165
0095 E500        R     MOV     A,main_menu_bm+02H
0097 5420              ANL     A,#020H
0099 FE                MOV     R6,A
009A EE                MOV     A,R6
009B 6025              JZ      ?C0010
                                           ; SOURCE LINE # 166
009D 900000      R     MOV     DPTR,#p
00A0 E0                MOVX    A,@DPTR
00A1 FB                MOV     R3,A
00A2 A3                INC     DPTR
00A3 E0                MOVX    A,@DPTR
00A4 FA                MOV     R2,A
00A5 A3                INC     DPTR
00A6 E0                MOVX    A,@DPTR
00A7 F9                MOV     R1,A
00A8 120000      E     LCALL   ?C?ILDPTR
00AB FF                MOV     R7,A
00AC AEF0              MOV     R6,B
00AE 7800        R     MOV     R0,#LOW TIME_Y_LEVEL
00B0 E6                MOV     A,@R0
00B1 FC                MOV     R4,A
00B2 08                INC     R0
00B3 E6                MOV     A,@R0
00B4 FD                MOV     R5,A
00B5 900000      R     MOV     DPTR,#?_draw_number_wtih_touch_centered?BYTE+06H
00B8 741F              MOV     A,#01FH
00BA F0                MOVX    @DPTR,A
00BB 7B1E              MOV     R3,#01EH
00BD 7A00              MOV     R2,#00H
00BF 120000      R     LCALL   _draw_number_wtih_touch_centered
                                           ; SOURCE LINE # 167
00C2         ?C0010:
                                           ; SOURCE LINE # 168
C51 COMPILER V9.53.0.0   TEMP                                                              12/15/2023 14:28:41 PAGE 35  

00C2 E500        R     MOV     A,main_menu_bm+02H
00C4 5401              ANL     A,#01H
00C6 FE                MOV     R6,A
00C7 E4                CLR     A
00C8 FC                MOV     R4,A
00C9 EE                MOV     A,R6
00CA 6049              JZ      ?C0011
                                           ; SOURCE LINE # 169
00CC 900000      R     MOV     DPTR,#p
00CF E0                MOVX    A,@DPTR
00D0 FB                MOV     R3,A
00D1 A3                INC     DPTR
00D2 E0                MOVX    A,@DPTR
00D3 FA                MOV     R2,A
00D4 A3                INC     DPTR
00D5 E0                MOVX    A,@DPTR
00D6 F9                MOV     R1,A
00D7 120000      E     LCALL   ?C?ILDPTR
00DA FF                MOV     R7,A
00DB AEF0              MOV     R6,B
00DD C006              PUSH    AR6
00DF C007              PUSH    AR7
00E1 900002            MOV     DPTR,#02H
00E4 120000      E     LCALL   ?C?ILDOPTR
00E7 FD                MOV     R5,A
00E8 7800        R     MOV     R0,#LOW FONT_SIZE
00EA E6                MOV     A,@R0
00EB FA                MOV     R2,A
00EC 08                INC     R0
00ED E6                MOV     A,@R0
00EE FB                MOV     R3,A
00EF 25E0              ADD     A,ACC
00F1 FF                MOV     R7,A
00F2 EA                MOV     A,R2
00F3 33                RLC     A
00F4 FE                MOV     R6,A
00F5 EF                MOV     A,R7
00F6 2D                ADD     A,R5
00F7 FF                MOV     R7,A
00F8 EE                MOV     A,R6
00F9 35F0              ADDC    A,B
00FB FE                MOV     R6,A
00FC 900000      R     MOV     DPTR,#LINE_HIGHT
00FF E4                CLR     A
0100 93                MOVC    A,@A+DPTR
0101 C3                CLR     C
0102 13                RRC     A
0103 2F                ADD     A,R7
0104 FD                MOV     R5,A
0105 EC                MOV     A,R4
0106 3E                ADDC    A,R6
0107 FC                MOV     R4,A
0108 900000      R     MOV     DPTR,#?_draw_number_wtih_touch_centered?BYTE+06H
010B 7429              MOV     A,#029H
010D F0                MOVX    @DPTR,A
010E D007              POP     AR7
0110 D006              POP     AR6
0112 120000      R     LCALL   _draw_number_wtih_touch_centered
0115         ?C0011:
                                           ; SOURCE LINE # 170
0115 900000      R     MOV     DPTR,#p
0118 E0                MOVX    A,@DPTR
C51 COMPILER V9.53.0.0   TEMP                                                              12/15/2023 14:28:41 PAGE 36  

0119 FB                MOV     R3,A
011A A3                INC     DPTR
011B E0                MOVX    A,@DPTR
011C FA                MOV     R2,A
011D A3                INC     DPTR
011E E0                MOVX    A,@DPTR
011F F9                MOV     R1,A
0120 120000      E     LCALL   ?C?ILDPTR
0123 FB                MOV     R3,A
0124 AAF0              MOV     R2,B
0126 FF                MOV     R7,A
0127 AE02              MOV     R6,AR2
0129 900000      E     MOV     DPTR,#?_Draw_line?BYTE+06H
012C 7402              MOV     A,#02H
012E F0                MOVX    @DPTR,A
012F A3                INC     DPTR
0130 748A              MOV     A,#08AH
0132 F0                MOVX    @DPTR,A
0133 A3                INC     DPTR
0134 7405              MOV     A,#05H
0136 F0                MOVX    @DPTR,A
0137 A3                INC     DPTR
0138 74DE              MOV     A,#0DEH
013A F0                MOVX    @DPTR,A
013B A3                INC     DPTR
013C 74DB              MOV     A,#0DBH
013E F0                MOVX    @DPTR,A
013F 7D3A              MOV     R5,#03AH
0141 7C02              MOV     R4,#02H
0143 120000      E     LCALL   _Draw_line
                                           ; SOURCE LINE # 171
0146 7800        R     MOV     R0,#LOW LINE_WIDTH
0148 E6                MOV     A,@R0
0149 FE                MOV     R6,A
014A 08                INC     R0
014B E6                MOV     A,@R0
014C FF                MOV     R7,A
014D 900000      R     MOV     DPTR,#p
0150 E0                MOVX    A,@DPTR
0151 FB                MOV     R3,A
0152 A3                INC     DPTR
0153 E0                MOVX    A,@DPTR
0154 FA                MOV     R2,A
0155 A3                INC     DPTR
0156 E0                MOVX    A,@DPTR
0157 F9                MOV     R1,A
0158 EE                MOV     A,R6
0159 8FF0              MOV     B,R7
015B 020000      E     LJMP    ?C?IILDPTR
             ; FUNCTION _add_base_i1_i2_t (END)

             ; FUNCTION L?0295 (BEGIN)
0000 7B01              MOV     R3,#01H
0002 7A00        R     MOV     R2,#HIGH p
0004 7900        R     MOV     R1,#LOW p
             ; FUNCTION _add_i_t_impulse (BEGIN)
                                           ; SOURCE LINE # 174
0006 900000      R     MOV     DPTR,#p
0009 EB                MOV     A,R3
000A F0                MOVX    @DPTR,A
000B A3                INC     DPTR
000C EA                MOV     A,R2
C51 COMPILER V9.53.0.0   TEMP                                                              12/15/2023 14:28:41 PAGE 37  

000D F0                MOVX    @DPTR,A
000E A3                INC     DPTR
000F E9                MOV     A,R1
0010 F0                MOVX    @DPTR,A
                                           ; SOURCE LINE # 175
                                           ; SOURCE LINE # 176
0011 900000      R     MOV     DPTR,#p
0014 E0                MOVX    A,@DPTR
0015 FB                MOV     R3,A
0016 A3                INC     DPTR
0017 E0                MOVX    A,@DPTR
0018 FA                MOV     R2,A
0019 A3                INC     DPTR
001A E0                MOVX    A,@DPTR
001B F9                MOV     R1,A
001C 120000      E     LCALL   ?C?ILDPTR
001F FF                MOV     R7,A
0020 AEF0              MOV     R6,B
0022 900002            MOV     DPTR,#02H
0025 120000      E     LCALL   ?C?ILDOPTR
0028 FD                MOV     R5,A
0029 ACF0              MOV     R4,B
002B 120000      E     LCALL   ?C?ILDPTR
002E 7800        R     MOV     R0,#LOW LINE_WIDTH+01H
0030 26                ADD     A,@R0
0031 FB                MOV     R3,A
0032 E5F0              MOV     A,B
0034 18                DEC     R0
0035 36                ADDC    A,@R0
0036 FA                MOV     R2,A
0037 C002              PUSH    AR2
0039 C003              PUSH    AR3
003B 900000      R     MOV     DPTR,#p
003E E0                MOVX    A,@DPTR
003F FB                MOV     R3,A
0040 A3                INC     DPTR
0041 E0                MOVX    A,@DPTR
0042 FA                MOV     R2,A
0043 900002            MOV     DPTR,#02H
0046 120000      E     LCALL   ?C?ILDOPTR
0049 FB                MOV     R3,A
004A 900000      E     MOV     DPTR,#?_Draw_line?BYTE+06H
004D E5F0              MOV     A,B
004F F0                MOVX    @DPTR,A
0050 A3                INC     DPTR
0051 EB                MOV     A,R3
0052 F0                MOVX    @DPTR,A
0053 900000      R     MOV     DPTR,#LINE_HIGHT
0056 E4                CLR     A
0057 93                MOVC    A,@A+DPTR
0058 900000      E     MOV     DPTR,#?_Draw_line?BYTE+08H
005B F0                MOVX    @DPTR,A
005C A3                INC     DPTR
005D 7407              MOV     A,#07H
005F F0                MOVX    @DPTR,A
0060 A3                INC     DPTR
0061 74E0              MOV     A,#0E0H
0063 F0                MOVX    @DPTR,A
0064 D003              POP     AR3
0066 D002              POP     AR2
0068 120000      E     LCALL   _Draw_line
                                           ; SOURCE LINE # 177
C51 COMPILER V9.53.0.0   TEMP                                                              12/15/2023 14:28:41 PAGE 38  

006B 900000      R     MOV     DPTR,#p
006E E0                MOVX    A,@DPTR
006F FB                MOV     R3,A
0070 A3                INC     DPTR
0071 E0                MOVX    A,@DPTR
0072 FA                MOV     R2,A
0073 A3                INC     DPTR
0074 E0                MOVX    A,@DPTR
0075 F9                MOV     R1,A
0076 120000      E     LCALL   ?C?ILDPTR
0079 FF                MOV     R7,A
007A AEF0              MOV     R6,B
007C 7800        R     MOV     R0,#LOW TIME_Y_LEVEL
007E E6                MOV     A,@R0
007F FC                MOV     R4,A
0080 08                INC     R0
0081 E6                MOV     A,@R0
0082 FD                MOV     R5,A
0083 900000      R     MOV     DPTR,#?_draw_number_wtih_touch_centered?BYTE+06H
0086 7421              MOV     A,#021H
0088 F0                MOVX    @DPTR,A
0089 7B1E              MOV     R3,#01EH
008B 7A00              MOV     R2,#00H
008D 120000      R     LCALL   _draw_number_wtih_touch_centered
                                           ; SOURCE LINE # 178
0090 900000      R     MOV     DPTR,#p
0093 E0                MOVX    A,@DPTR
0094 FB                MOV     R3,A
0095 A3                INC     DPTR
0096 E0                MOVX    A,@DPTR
0097 FA                MOV     R2,A
0098 A3                INC     DPTR
0099 E0                MOVX    A,@DPTR
009A F9                MOV     R1,A
009B 120000      E     LCALL   ?C?ILDPTR
009E FF                MOV     R7,A
009F AEF0              MOV     R6,B
00A1 900002            MOV     DPTR,#02H
00A4 120000      E     LCALL   ?C?ILDOPTR
00A7 FD                MOV     R5,A
00A8 ACF0              MOV     R4,B
00AA 7800        R     MOV     R0,#LOW FONT_SIZE
00AC E6                MOV     A,@R0
00AD FA                MOV     R2,A
00AE 08                INC     R0
00AF E6                MOV     A,@R0
00B0 FB                MOV     R3,A
00B1 900000      R     MOV     DPTR,#?_draw_number_wtih_touch_centered?BYTE+06H
00B4 7420              MOV     A,#020H
00B6 F0                MOVX    @DPTR,A
00B7 120000      R     LCALL   _draw_number_wtih_touch_centered
                                           ; SOURCE LINE # 179
00BA 900000      R     MOV     DPTR,#p
00BD E0                MOVX    A,@DPTR
00BE FB                MOV     R3,A
00BF A3                INC     DPTR
00C0 E0                MOVX    A,@DPTR
00C1 FA                MOV     R2,A
00C2 A3                INC     DPTR
00C3 E0                MOVX    A,@DPTR
00C4 F9                MOV     R1,A
00C5 120000      E     LCALL   ?C?ILDPTR
C51 COMPILER V9.53.0.0   TEMP                                                              12/15/2023 14:28:41 PAGE 39  

00C8 FB                MOV     R3,A
00C9 AAF0              MOV     R2,B
00CB FF                MOV     R7,A
00CC AE02              MOV     R6,AR2
00CE 900000      E     MOV     DPTR,#?_Draw_line?BYTE+06H
00D1 7402              MOV     A,#02H
00D3 F0                MOVX    @DPTR,A
00D4 A3                INC     DPTR
00D5 748A              MOV     A,#08AH
00D7 F0                MOVX    @DPTR,A
00D8 A3                INC     DPTR
00D9 7405              MOV     A,#05H
00DB F0                MOVX    @DPTR,A
00DC A3                INC     DPTR
00DD 74DE              MOV     A,#0DEH
00DF F0                MOVX    @DPTR,A
00E0 A3                INC     DPTR
00E1 74DB              MOV     A,#0DBH
00E3 F0                MOVX    @DPTR,A
00E4 7D3A              MOV     R5,#03AH
00E6 7C02              MOV     R4,#02H
00E8 120000      E     LCALL   _Draw_line
                                           ; SOURCE LINE # 180
00EB 7800        R     MOV     R0,#LOW LINE_WIDTH
00ED E6                MOV     A,@R0
00EE FE                MOV     R6,A
00EF 08                INC     R0
00F0 E6                MOV     A,@R0
00F1 FF                MOV     R7,A
00F2 900000      R     MOV     DPTR,#p
00F5 E0                MOVX    A,@DPTR
00F6 FB                MOV     R3,A
00F7 A3                INC     DPTR
00F8 E0                MOVX    A,@DPTR
00F9 FA                MOV     R2,A
00FA A3                INC     DPTR
00FB E0                MOVX    A,@DPTR
00FC F9                MOV     R1,A
00FD EE                MOV     A,R6
00FE 8FF0              MOV     B,R7
0100 020000      E     LJMP    ?C?IILDPTR
             ; FUNCTION _add_i_t_impulse (END)

             ; FUNCTION L?0294 (BEGIN)
0000 7B01              MOV     R3,#01H
0002 7A00        R     MOV     R2,#HIGH p
0004 7900        R     MOV     R1,#LOW p
             ; FUNCTION _add_t_down (BEGIN)
                                           ; SOURCE LINE # 183
0006 900000      R     MOV     DPTR,#p
0009 EB                MOV     A,R3
000A F0                MOVX    @DPTR,A
000B A3                INC     DPTR
000C EA                MOV     A,R2
000D F0                MOVX    @DPTR,A
000E A3                INC     DPTR
000F E9                MOV     A,R1
0010 F0                MOVX    @DPTR,A
                                           ; SOURCE LINE # 184
                                           ; SOURCE LINE # 185
0011 900000      R     MOV     DPTR,#p
0014 E0                MOVX    A,@DPTR
C51 COMPILER V9.53.0.0   TEMP                                                              12/15/2023 14:28:41 PAGE 40  

0015 FB                MOV     R3,A
0016 A3                INC     DPTR
0017 E0                MOVX    A,@DPTR
0018 FA                MOV     R2,A
0019 A3                INC     DPTR
001A E0                MOVX    A,@DPTR
001B F9                MOV     R1,A
001C 120000      E     LCALL   ?C?ILDPTR
001F 2401              ADD     A,#01H
0021 FF                MOV     R7,A
0022 E4                CLR     A
0023 35F0              ADDC    A,B
0025 FE                MOV     R6,A
0026 C006              PUSH    AR6
0028 C007              PUSH    AR7
002A 900002            MOV     DPTR,#02H
002D 120000      E     LCALL   ?C?ILDOPTR
0030 FD                MOV     R5,A
0031 ACF0              MOV     R4,B
0033 120000      E     LCALL   ?C?ILDPTR
0036 7800        R     MOV     R0,#LOW LINE_WIDTH+01H
0038 26                ADD     A,@R0
0039 FB                MOV     R3,A
003A E5F0              MOV     A,B
003C 18                DEC     R0
003D 36                ADDC    A,@R0
003E FA                MOV     R2,A
003F C002              PUSH    AR2
0041 C003              PUSH    AR3
0043 900000      R     MOV     DPTR,#p
0046 E0                MOVX    A,@DPTR
0047 FB                MOV     R3,A
0048 A3                INC     DPTR
0049 E0                MOVX    A,@DPTR
004A FA                MOV     R2,A
004B 900002            MOV     DPTR,#02H
004E 120000      E     LCALL   ?C?ILDOPTR
0051 FB                MOV     R3,A
0052 7800        R     MOV     R0,#LOW LEVEL_HEIGHT
0054 E6                MOV     A,@R0
0055 2B                ADD     A,R3
0056 FE                MOV     R6,A
0057 E4                CLR     A
0058 35F0              ADDC    A,B
005A 900000      E     MOV     DPTR,#?_Draw_line?BYTE+06H
005D F0                MOVX    @DPTR,A
005E A3                INC     DPTR
005F CE                XCH     A,R6
0060 F0                MOVX    @DPTR,A
0061 900000      R     MOV     DPTR,#LINE_HIGHT
0064 E4                CLR     A
0065 93                MOVC    A,@A+DPTR
0066 900000      E     MOV     DPTR,#?_Draw_line?BYTE+08H
0069 F0                MOVX    @DPTR,A
006A A3                INC     DPTR
006B 7407              MOV     A,#07H
006D F0                MOVX    @DPTR,A
006E A3                INC     DPTR
006F 74E0              MOV     A,#0E0H
0071 F0                MOVX    @DPTR,A
0072 D003              POP     AR3
0074 D002              POP     AR2
C51 COMPILER V9.53.0.0   TEMP                                                              12/15/2023 14:28:41 PAGE 41  

0076 D007              POP     AR7
0078 D006              POP     AR6
007A 120000      E     LCALL   _Draw_line
                                           ; SOURCE LINE # 186
007D 900000      R     MOV     DPTR,#p
0080 E0                MOVX    A,@DPTR
0081 FB                MOV     R3,A
0082 A3                INC     DPTR
0083 E0                MOVX    A,@DPTR
0084 FA                MOV     R2,A
0085 A3                INC     DPTR
0086 E0                MOVX    A,@DPTR
0087 F9                MOV     R1,A
0088 120000      E     LCALL   ?C?ILDPTR
008B FF                MOV     R7,A
008C AEF0              MOV     R6,B
008E 7800        R     MOV     R0,#LOW TIME_Y_LEVEL
0090 E6                MOV     A,@R0
0091 FC                MOV     R4,A
0092 08                INC     R0
0093 E6                MOV     A,@R0
0094 FD                MOV     R5,A
0095 900000      R     MOV     DPTR,#?_draw_number_wtih_touch_centered?BYTE+06H
0098 7424              MOV     A,#024H
009A F0                MOVX    @DPTR,A
009B FB                MOV     R3,A
009C 7A00              MOV     R2,#00H
009E 120000      R     LCALL   _draw_number_wtih_touch_centered
                                           ; SOURCE LINE # 187
00A1 900000      R     MOV     DPTR,#p
00A4 E0                MOVX    A,@DPTR
00A5 FB                MOV     R3,A
00A6 A3                INC     DPTR
00A7 E0                MOVX    A,@DPTR
00A8 FA                MOV     R2,A
00A9 A3                INC     DPTR
00AA E0                MOVX    A,@DPTR
00AB F9                MOV     R1,A
00AC 120000      E     LCALL   ?C?ILDPTR
00AF FB                MOV     R3,A
00B0 AAF0              MOV     R2,B
00B2 FF                MOV     R7,A
00B3 AE02              MOV     R6,AR2
00B5 900000      E     MOV     DPTR,#?_Draw_line?BYTE+06H
00B8 7402              MOV     A,#02H
00BA F0                MOVX    @DPTR,A
00BB A3                INC     DPTR
00BC 748A              MOV     A,#08AH
00BE F0                MOVX    @DPTR,A
00BF A3                INC     DPTR
00C0 7405              MOV     A,#05H
00C2 F0                MOVX    @DPTR,A
00C3 A3                INC     DPTR
00C4 74DE              MOV     A,#0DEH
00C6 F0                MOVX    @DPTR,A
00C7 A3                INC     DPTR
00C8 74DB              MOV     A,#0DBH
00CA F0                MOVX    @DPTR,A
00CB 7D3A              MOV     R5,#03AH
00CD 7C02              MOV     R4,#02H
00CF 120000      E     LCALL   _Draw_line
                                           ; SOURCE LINE # 188
C51 COMPILER V9.53.0.0   TEMP                                                              12/15/2023 14:28:41 PAGE 42  

00D2 7800        R     MOV     R0,#LOW LINE_WIDTH
00D4 E6                MOV     A,@R0
00D5 FE                MOV     R6,A
00D6 08                INC     R0
00D7 E6                MOV     A,@R0
00D8 FF                MOV     R7,A
00D9 900000      R     MOV     DPTR,#p
00DC E0                MOVX    A,@DPTR
00DD FB                MOV     R3,A
00DE A3                INC     DPTR
00DF E0                MOVX    A,@DPTR
00E0 FA                MOV     R2,A
00E1 A3                INC     DPTR
00E2 E0                MOVX    A,@DPTR
00E3 F9                MOV     R1,A
00E4 EE                MOV     A,R6
00E5 8FF0              MOV     B,R7
00E7 120000      E     LCALL   ?C?IILDPTR
                                           ; SOURCE LINE # 189
00EA 7800        R     MOV     R0,#LOW LEVEL_HEIGHT
00EC E6                MOV     A,@R0
00ED FF                MOV     R7,A
00EE 900000      R     MOV     DPTR,#p
00F1 E0                MOVX    A,@DPTR
00F2 FB                MOV     R3,A
00F3 A3                INC     DPTR
00F4 E0                MOVX    A,@DPTR
00F5 FA                MOV     R2,A
00F6 A3                INC     DPTR
00F7 E0                MOVX    A,@DPTR
00F8 F9                MOV     R1,A
00F9 900002            MOV     DPTR,#02H
00FC E4                CLR     A
00FD 8FF0              MOV     B,R7
00FF 020000      E     LJMP    ?C?IILDOPTR
             ; FUNCTION _add_t_down (END)

             ; FUNCTION _add_end_i_t (BEGIN)
                                           ; SOURCE LINE # 192
0000 900000      R     MOV     DPTR,#p
0003 EB                MOV     A,R3
0004 F0                MOVX    @DPTR,A
0005 A3                INC     DPTR
0006 EA                MOV     A,R2
0007 F0                MOVX    @DPTR,A
0008 A3                INC     DPTR
0009 E9                MOV     A,R1
000A F0                MOVX    @DPTR,A
                                           ; SOURCE LINE # 193
                                           ; SOURCE LINE # 194
000B 900000      R     MOV     DPTR,#p
000E E0                MOVX    A,@DPTR
000F FB                MOV     R3,A
0010 A3                INC     DPTR
0011 E0                MOVX    A,@DPTR
0012 FA                MOV     R2,A
0013 A3                INC     DPTR
0014 E0                MOVX    A,@DPTR
0015 F9                MOV     R1,A
0016 120000      E     LCALL   ?C?ILDPTR
0019 FF                MOV     R7,A
001A AEF0              MOV     R6,B
C51 COMPILER V9.53.0.0   TEMP                                                              12/15/2023 14:28:41 PAGE 43  

001C 900002            MOV     DPTR,#02H
001F 120000      E     LCALL   ?C?ILDOPTR
0022 FD                MOV     R5,A
0023 ACF0              MOV     R4,B
0025 120000      E     LCALL   ?C?ILDPTR
0028 7800        R     MOV     R0,#LOW LINE_WIDTH+01H
002A 26                ADD     A,@R0
002B FB                MOV     R3,A
002C E5F0              MOV     A,B
002E 18                DEC     R0
002F 36                ADDC    A,@R0
0030 FA                MOV     R2,A
0031 C002              PUSH    AR2
0033 C003              PUSH    AR3
0035 900000      R     MOV     DPTR,#p
0038 E0                MOVX    A,@DPTR
0039 FB                MOV     R3,A
003A A3                INC     DPTR
003B E0                MOVX    A,@DPTR
003C FA                MOV     R2,A
003D 900002            MOV     DPTR,#02H
0040 120000      E     LCALL   ?C?ILDOPTR
0043 FB                MOV     R3,A
0044 900000      E     MOV     DPTR,#?_Draw_line?BYTE+06H
0047 E5F0              MOV     A,B
0049 F0                MOVX    @DPTR,A
004A A3                INC     DPTR
004B EB                MOV     A,R3
004C F0                MOVX    @DPTR,A
004D 900000      R     MOV     DPTR,#LINE_HIGHT
0050 E4                CLR     A
0051 93                MOVC    A,@A+DPTR
0052 900000      E     MOV     DPTR,#?_Draw_line?BYTE+08H
0055 F0                MOVX    @DPTR,A
0056 A3                INC     DPTR
0057 7407              MOV     A,#07H
0059 F0                MOVX    @DPTR,A
005A A3                INC     DPTR
005B 74E0              MOV     A,#0E0H
005D F0                MOVX    @DPTR,A
005E D003              POP     AR3
0060 D002              POP     AR2
0062 120000      E     LCALL   _Draw_line
                                           ; SOURCE LINE # 195
0065 900000      R     MOV     DPTR,#p
0068 E0                MOVX    A,@DPTR
0069 FB                MOV     R3,A
006A A3                INC     DPTR
006B E0                MOVX    A,@DPTR
006C FA                MOV     R2,A
006D A3                INC     DPTR
006E E0                MOVX    A,@DPTR
006F F9                MOV     R1,A
0070 120000      E     LCALL   ?C?ILDPTR
0073 FF                MOV     R7,A
0074 AEF0              MOV     R6,B
0076 7800        R     MOV     R0,#LOW TIME_Y_LEVEL
0078 E6                MOV     A,@R0
0079 FC                MOV     R4,A
007A 08                INC     R0
007B E6                MOV     A,@R0
007C FD                MOV     R5,A
C51 COMPILER V9.53.0.0   TEMP                                                              12/15/2023 14:28:41 PAGE 44  

007D 900000      R     MOV     DPTR,#?_draw_number_wtih_touch_centered?BYTE+06H
0080 7426              MOV     A,#026H
0082 120000      R     LCALL   L?0284
                                           ; SOURCE LINE # 196
0085 900000      R     MOV     DPTR,#p
0088 E0                MOVX    A,@DPTR
0089 FB                MOV     R3,A
008A A3                INC     DPTR
008B E0                MOVX    A,@DPTR
008C FA                MOV     R2,A
008D A3                INC     DPTR
008E E0                MOVX    A,@DPTR
008F F9                MOV     R1,A
0090 120000      E     LCALL   ?C?ILDPTR
0093 FF                MOV     R7,A
0094 AEF0              MOV     R6,B
0096 900002            MOV     DPTR,#02H
0099 120000      E     LCALL   ?C?ILDOPTR
009C FD                MOV     R5,A
009D ACF0              MOV     R4,B
009F 7800        R     MOV     R0,#LOW FONT_SIZE
00A1 E6                MOV     A,@R0
00A2 FA                MOV     R2,A
00A3 08                INC     R0
00A4 E6                MOV     A,@R0
00A5 FB                MOV     R3,A
00A6 900000      R     MOV     DPTR,#?_draw_number_wtih_touch_centered?BYTE+06H
00A9 7425              MOV     A,#025H
00AB F0                MOVX    @DPTR,A
00AC 120000      R     LCALL   _draw_number_wtih_touch_centered
                                           ; SOURCE LINE # 197
00AF 900000      R     MOV     DPTR,#p
00B2 E0                MOVX    A,@DPTR
00B3 FB                MOV     R3,A
00B4 A3                INC     DPTR
00B5 E0                MOVX    A,@DPTR
00B6 FA                MOV     R2,A
00B7 A3                INC     DPTR
00B8 E0                MOVX    A,@DPTR
00B9 F9                MOV     R1,A
00BA 120000      E     LCALL   ?C?ILDPTR
00BD FB                MOV     R3,A
00BE AAF0              MOV     R2,B
00C0 FF                MOV     R7,A
00C1 AE02              MOV     R6,AR2
00C3 900000      E     MOV     DPTR,#?_Draw_line?BYTE+06H
00C6 7402              MOV     A,#02H
00C8 F0                MOVX    @DPTR,A
00C9 A3                INC     DPTR
00CA 748A              MOV     A,#08AH
00CC F0                MOVX    @DPTR,A
00CD A3                INC     DPTR
00CE 7405              MOV     A,#05H
00D0 F0                MOVX    @DPTR,A
00D1 A3                INC     DPTR
00D2 74DE              MOV     A,#0DEH
00D4 F0                MOVX    @DPTR,A
00D5 A3                INC     DPTR
00D6 74DB              MOV     A,#0DBH
00D8 F0                MOVX    @DPTR,A
00D9 7D3A              MOV     R5,#03AH
00DB 7C02              MOV     R4,#02H
C51 COMPILER V9.53.0.0   TEMP                                                              12/15/2023 14:28:41 PAGE 45  

00DD 120000      E     LCALL   _Draw_line
                                           ; SOURCE LINE # 198
00E0 7800        R     MOV     R0,#LOW LINE_WIDTH
00E2 E6                MOV     A,@R0
00E3 FE                MOV     R6,A
00E4 08                INC     R0
00E5 E6                MOV     A,@R0
00E6 FF                MOV     R7,A
00E7 900000      R     MOV     DPTR,#p
00EA E0                MOVX    A,@DPTR
00EB FB                MOV     R3,A
00EC A3                INC     DPTR
00ED E0                MOVX    A,@DPTR
00EE FA                MOV     R2,A
00EF A3                INC     DPTR
00F0 E0                MOVX    A,@DPTR
00F1 F9                MOV     R1,A
00F2 EE                MOV     A,R6
00F3 8FF0              MOV     B,R7
00F5 020000      E     LJMP    ?C?IILDPTR
             ; FUNCTION _add_end_i_t (END)

             ; FUNCTION _add_t_postflow (BEGIN)
                                           ; SOURCE LINE # 201
0000 900000      R     MOV     DPTR,#p
0003 EB                MOV     A,R3
0004 F0                MOVX    @DPTR,A
0005 A3                INC     DPTR
0006 EA                MOV     A,R2
0007 F0                MOVX    @DPTR,A
0008 A3                INC     DPTR
0009 E9                MOV     A,R1
000A F0                MOVX    @DPTR,A
                                           ; SOURCE LINE # 202
                                           ; SOURCE LINE # 203
000B 900000      R     MOV     DPTR,#p
000E E0                MOVX    A,@DPTR
000F FB                MOV     R3,A
0010 A3                INC     DPTR
0011 E0                MOVX    A,@DPTR
0012 FA                MOV     R2,A
0013 A3                INC     DPTR
0014 E0                MOVX    A,@DPTR
0015 F9                MOV     R1,A
0016 120000      E     LCALL   ?C?ILDPTR
0019 FF                MOV     R7,A
001A AEF0              MOV     R6,B
001C 900002            MOV     DPTR,#02H
001F 120000      E     LCALL   ?C?ILDOPTR
0022 FD                MOV     R5,A
0023 ACF0              MOV     R4,B
0025 120000      E     LCALL   ?C?ILDPTR
0028 7800        R     MOV     R0,#LOW LINE_WIDTH+01H
002A 26                ADD     A,@R0
002B FB                MOV     R3,A
002C E5F0              MOV     A,B
002E 18                DEC     R0
002F 36                ADDC    A,@R0
0030 FA                MOV     R2,A
0031 C002              PUSH    AR2
0033 C003              PUSH    AR3
0035 900000      R     MOV     DPTR,#p
C51 COMPILER V9.53.0.0   TEMP                                                              12/15/2023 14:28:41 PAGE 46  

0038 E0                MOVX    A,@DPTR
0039 FB                MOV     R3,A
003A A3                INC     DPTR
003B E0                MOVX    A,@DPTR
003C FA                MOV     R2,A
003D 900002            MOV     DPTR,#02H
0040 120000      E     LCALL   ?C?ILDOPTR
0043 FB                MOV     R3,A
0044 900000      E     MOV     DPTR,#?_Draw_line?BYTE+06H
0047 E5F0              MOV     A,B
0049 F0                MOVX    @DPTR,A
004A A3                INC     DPTR
004B EB                MOV     A,R3
004C F0                MOVX    @DPTR,A
004D 900000      R     MOV     DPTR,#LINE_HIGHT
0050 E4                CLR     A
0051 93                MOVC    A,@A+DPTR
0052 900000      E     MOV     DPTR,#?_Draw_line?BYTE+08H
0055 F0                MOVX    @DPTR,A
0056 A3                INC     DPTR
0057 7407              MOV     A,#07H
0059 F0                MOVX    @DPTR,A
005A A3                INC     DPTR
005B 74E0              MOV     A,#0E0H
005D F0                MOVX    @DPTR,A
005E D003              POP     AR3
0060 D002              POP     AR2
0062 120000      E     LCALL   _Draw_line
                                           ; SOURCE LINE # 204
0065 900000      R     MOV     DPTR,#p
0068 E0                MOVX    A,@DPTR
0069 FB                MOV     R3,A
006A A3                INC     DPTR
006B E0                MOVX    A,@DPTR
006C FA                MOV     R2,A
006D A3                INC     DPTR
006E E0                MOVX    A,@DPTR
006F F9                MOV     R1,A
0070 120000      E     LCALL   ?C?ILDPTR
0073 FF                MOV     R7,A
0074 AEF0              MOV     R6,B
0076 7800        R     MOV     R0,#LOW TIME_Y_LEVEL
0078 E6                MOV     A,@R0
0079 FC                MOV     R4,A
007A 08                INC     R0
007B E6                MOV     A,@R0
007C FD                MOV     R5,A
007D 900000      R     MOV     DPTR,#?_draw_number_wtih_touch_centered?BYTE+06H
0080 7427              MOV     A,#027H
0082 120000      R     LCALL   L?0284
                                           ; SOURCE LINE # 205
0085 900000      R     MOV     DPTR,#p
0088 E0                MOVX    A,@DPTR
0089 FB                MOV     R3,A
008A A3                INC     DPTR
008B E0                MOVX    A,@DPTR
008C FA                MOV     R2,A
008D A3                INC     DPTR
008E E0                MOVX    A,@DPTR
008F F9                MOV     R1,A
0090 120000      E     LCALL   ?C?ILDPTR
0093 FB                MOV     R3,A
C51 COMPILER V9.53.0.0   TEMP                                                              12/15/2023 14:28:41 PAGE 47  

0094 AAF0              MOV     R2,B
0096 FF                MOV     R7,A
0097 AE02              MOV     R6,AR2
0099 900000      E     MOV     DPTR,#?_Draw_line?BYTE+06H
009C 7402              MOV     A,#02H
009E F0                MOVX    @DPTR,A
009F A3                INC     DPTR
00A0 748A              MOV     A,#08AH
00A2 F0                MOVX    @DPTR,A
00A3 A3                INC     DPTR
00A4 7405              MOV     A,#05H
00A6 F0                MOVX    @DPTR,A
00A7 A3                INC     DPTR
00A8 74DE              MOV     A,#0DEH
00AA F0                MOVX    @DPTR,A
00AB A3                INC     DPTR
00AC 74DB              MOV     A,#0DBH
00AE F0                MOVX    @DPTR,A
00AF 7D3A              MOV     R5,#03AH
00B1 7C02              MOV     R4,#02H
00B3 120000      E     LCALL   _Draw_line
                                           ; SOURCE LINE # 206
00B6 7800        R     MOV     R0,#LOW LINE_WIDTH
00B8 E6                MOV     A,@R0
00B9 FE                MOV     R6,A
00BA 08                INC     R0
00BB E6                MOV     A,@R0
00BC FF                MOV     R7,A
00BD 900000      R     MOV     DPTR,#p
00C0 E0                MOVX    A,@DPTR
00C1 FB                MOV     R3,A
00C2 A3                INC     DPTR
00C3 E0                MOVX    A,@DPTR
00C4 FA                MOV     R2,A
00C5 A3                INC     DPTR
00C6 E0                MOVX    A,@DPTR
00C7 F9                MOV     R1,A
00C8 EE                MOV     A,R6
00C9 8FF0              MOV     B,R7
00CB 020000      E     LJMP    ?C?IILDPTR
             ; FUNCTION _add_t_postflow (END)

             ; FUNCTION _add_i_kz (BEGIN)
                                           ; SOURCE LINE # 209
0000 900000      R     MOV     DPTR,#p
0003 EB                MOV     A,R3
0004 F0                MOVX    @DPTR,A
0005 A3                INC     DPTR
0006 EA                MOV     A,R2
0007 F0                MOVX    @DPTR,A
0008 A3                INC     DPTR
0009 E9                MOV     A,R1
000A F0                MOVX    @DPTR,A
                                           ; SOURCE LINE # 210
                                           ; SOURCE LINE # 211
000B 900000      R     MOV     DPTR,#p
000E E0                MOVX    A,@DPTR
000F FB                MOV     R3,A
0010 A3                INC     DPTR
0011 E0                MOVX    A,@DPTR
0012 FA                MOV     R2,A
0013 A3                INC     DPTR
C51 COMPILER V9.53.0.0   TEMP                                                              12/15/2023 14:28:41 PAGE 48  

0014 E0                MOVX    A,@DPTR
0015 F9                MOV     R1,A
0016 120000      E     LCALL   ?C?ILDPTR
0019 FF                MOV     R7,A
001A AEF0              MOV     R6,B
001C C006              PUSH    AR6
001E C007              PUSH    AR7
0020 900002            MOV     DPTR,#02H
0023 120000      E     LCALL   ?C?ILDOPTR
0026 FD                MOV     R5,A
0027 ACF0              MOV     R4,B
0029 120000      E     LCALL   ?C?ILDPTR
002C 7800        R     MOV     R0,#LOW LINE_WIDTH+01H
002E 26                ADD     A,@R0
002F FB                MOV     R3,A
0030 E5F0              MOV     A,B
0032 18                DEC     R0
0033 36                ADDC    A,@R0
0034 FA                MOV     R2,A
0035 C002              PUSH    AR2
0037 C003              PUSH    AR3
0039 900000      R     MOV     DPTR,#p
003C E0                MOVX    A,@DPTR
003D FB                MOV     R3,A
003E A3                INC     DPTR
003F E0                MOVX    A,@DPTR
0040 FA                MOV     R2,A
0041 900002            MOV     DPTR,#02H
0044 120000      E     LCALL   ?C?ILDOPTR
0047 FB                MOV     R3,A
0048 7800        R     MOV     R0,#LOW LEVEL_HEIGHT
004A E6                MOV     A,@R0
004B F582              MOV     DPL,A
004D C3                CLR     C
004E EB                MOV     A,R3
004F 9582              SUBB    A,DPL
0051 FE                MOV     R6,A
0052 E5F0              MOV     A,B
0054 9400              SUBB    A,#00H
0056 900000      E     MOV     DPTR,#?_Draw_line?BYTE+06H
0059 F0                MOVX    @DPTR,A
005A A3                INC     DPTR
005B CE                XCH     A,R6
005C F0                MOVX    @DPTR,A
005D 900000      R     MOV     DPTR,#LINE_HIGHT
0060 E4                CLR     A
0061 93                MOVC    A,@A+DPTR
0062 900000      E     MOV     DPTR,#?_Draw_line?BYTE+08H
0065 F0                MOVX    @DPTR,A
0066 A3                INC     DPTR
0067 7407              MOV     A,#07H
0069 F0                MOVX    @DPTR,A
006A A3                INC     DPTR
006B 74E0              MOV     A,#0E0H
006D F0                MOVX    @DPTR,A
006E D003              POP     AR3
0070 D002              POP     AR2
0072 D007              POP     AR7
0074 D006              POP     AR6
0076 120000      E     LCALL   _Draw_line
                                           ; SOURCE LINE # 212
0079 900000      R     MOV     DPTR,#p
C51 COMPILER V9.53.0.0   TEMP                                                              12/15/2023 14:28:41 PAGE 49  

007C E0                MOVX    A,@DPTR
007D FB                MOV     R3,A
007E A3                INC     DPTR
007F E0                MOVX    A,@DPTR
0080 FA                MOV     R2,A
0081 A3                INC     DPTR
0082 E0                MOVX    A,@DPTR
0083 F9                MOV     R1,A
0084 120000      E     LCALL   ?C?ILDPTR
0087 FF                MOV     R7,A
0088 AEF0              MOV     R6,B
008A 900002            MOV     DPTR,#02H
008D 120000      E     LCALL   ?C?ILDOPTR
0090 FD                MOV     R5,A
0091 7800        R     MOV     R0,#LOW LEVEL_HEIGHT
0093 E6                MOV     A,@R0
0094 FB                MOV     R3,A
0095 C3                CLR     C
0096 ED                MOV     A,R5
0097 9B                SUBB    A,R3
0098 FD                MOV     R5,A
0099 E5F0              MOV     A,B
009B 9400              SUBB    A,#00H
009D FC                MOV     R4,A
009E 7800        R     MOV     R0,#LOW FONT_SIZE
00A0 E6                MOV     A,@R0
00A1 FA                MOV     R2,A
00A2 08                INC     R0
00A3 E6                MOV     A,@R0
00A4 FB                MOV     R3,A
00A5 900000      R     MOV     DPTR,#?_draw_number_wtih_touch_centered?BYTE+06H
00A8 7428              MOV     A,#028H
00AA F0                MOVX    @DPTR,A
00AB 120000      R     LCALL   _draw_number_wtih_touch_centered
                                           ; SOURCE LINE # 213
00AE 900000      R     MOV     DPTR,#p
00B1 E0                MOVX    A,@DPTR
00B2 FB                MOV     R3,A
00B3 A3                INC     DPTR
00B4 E0                MOVX    A,@DPTR
00B5 FA                MOV     R2,A
00B6 A3                INC     DPTR
00B7 E0                MOVX    A,@DPTR
00B8 F9                MOV     R1,A
00B9 120000      E     LCALL   ?C?ILDPTR
00BC FB                MOV     R3,A
00BD AAF0              MOV     R2,B
00BF FF                MOV     R7,A
00C0 AE02              MOV     R6,AR2
00C2 900000      E     MOV     DPTR,#?_Draw_line?BYTE+06H
00C5 7402              MOV     A,#02H
00C7 F0                MOVX    @DPTR,A
00C8 A3                INC     DPTR
00C9 748A              MOV     A,#08AH
00CB F0                MOVX    @DPTR,A
00CC A3                INC     DPTR
00CD 7405              MOV     A,#05H
00CF F0                MOVX    @DPTR,A
00D0 A3                INC     DPTR
00D1 74DE              MOV     A,#0DEH
00D3 F0                MOVX    @DPTR,A
00D4 A3                INC     DPTR
C51 COMPILER V9.53.0.0   TEMP                                                              12/15/2023 14:28:41 PAGE 50  

00D5 74DB              MOV     A,#0DBH
00D7 F0                MOVX    @DPTR,A
00D8 7D3A              MOV     R5,#03AH
00DA 7C02              MOV     R4,#02H
00DC 120000      E     LCALL   _Draw_line
                                           ; SOURCE LINE # 214
00DF 7800        R     MOV     R0,#LOW LINE_WIDTH
00E1 E6                MOV     A,@R0
00E2 FE                MOV     R6,A
00E3 08                INC     R0
00E4 E6                MOV     A,@R0
00E5 FF                MOV     R7,A
00E6 900000      R     MOV     DPTR,#p
00E9 E0                MOVX    A,@DPTR
00EA FB                MOV     R3,A
00EB A3                INC     DPTR
00EC E0                MOVX    A,@DPTR
00ED FA                MOV     R2,A
00EE A3                INC     DPTR
00EF E0                MOVX    A,@DPTR
00F0 F9                MOV     R1,A
00F1 EE                MOV     A,R6
00F2 8FF0              MOV     B,R7
00F4 120000      E     LCALL   ?C?IILDPTR
                                           ; SOURCE LINE # 215
00F7 900000      R     MOV     DPTR,#p
00FA E0                MOVX    A,@DPTR
00FB FB                MOV     R3,A
00FC A3                INC     DPTR
00FD E0                MOVX    A,@DPTR
00FE FA                MOV     R2,A
00FF A3                INC     DPTR
0100 E0                MOVX    A,@DPTR
0101 2402              ADD     A,#02H
0103 F9                MOV     R1,A
0104 E4                CLR     A
0105 3A                ADDC    A,R2
0106 FA                MOV     R2,A
0107 120000      E     LCALL   ?C?ILDPTR
010A FF                MOV     R7,A
010B 7800        R     MOV     R0,#LOW LEVEL_HEIGHT
010D E6                MOV     A,@R0
010E FD                MOV     R5,A
010F C3                CLR     C
0110 EF                MOV     A,R7
0111 9D                SUBB    A,R5
0112 FF                MOV     R7,A
0113 E5F0              MOV     A,B
0115 9400              SUBB    A,#00H
0117 8FF0              MOV     B,R7
0119 020000      E     LJMP    ?C?ISTPTR
             ; FUNCTION _add_i_kz (END)

             ; FUNCTION L?0292 (BEGIN)
0000 7B01              MOV     R3,#01H
0002 7A00        R     MOV     R2,#HIGH p
0004 7900        R     MOV     R1,#LOW p
             ; FUNCTION _add_freq_bal (BEGIN)
                                           ; SOURCE LINE # 219
0006 900000      R     MOV     DPTR,#p
0009 EB                MOV     A,R3
000A F0                MOVX    @DPTR,A
C51 COMPILER V9.53.0.0   TEMP                                                              12/15/2023 14:28:41 PAGE 51  

000B A3                INC     DPTR
000C EA                MOV     A,R2
000D F0                MOVX    @DPTR,A
000E A3                INC     DPTR
000F E9                MOV     A,R1
0010 F0                MOVX    @DPTR,A
                                           ; SOURCE LINE # 220
                                           ; SOURCE LINE # 221
0011 900000      R     MOV     DPTR,#p
0014 E0                MOVX    A,@DPTR
0015 FB                MOV     R3,A
0016 A3                INC     DPTR
0017 E0                MOVX    A,@DPTR
0018 FA                MOV     R2,A
0019 A3                INC     DPTR
001A E0                MOVX    A,@DPTR
001B F9                MOV     R1,A
001C 120000      E     LCALL   ?C?ILDPTR
001F FF                MOV     R7,A
0020 AEF0              MOV     R6,B
0022 900002            MOV     DPTR,#02H
0025 120000      E     LCALL   ?C?ILDOPTR
0028 FD                MOV     R5,A
0029 7800        R     MOV     R0,#LOW LEVEL_HEIGHT
002B E6                MOV     A,@R0
002C 2D                ADD     A,R5
002D FD                MOV     R5,A
002E E4                CLR     A
002F 35F0              ADDC    A,B
0031 FC                MOV     R4,A
0032 7800        R     MOV     R0,#LOW FONT_SIZE
0034 E6                MOV     A,@R0
0035 FA                MOV     R2,A
0036 08                INC     R0
0037 E6                MOV     A,@R0
0038 FB                MOV     R3,A
0039 900000      R     MOV     DPTR,#?_draw_number_wtih_touch_centered?BYTE+06H
003C 7422              MOV     A,#022H
003E F0                MOVX    @DPTR,A
003F 120000      R     LCALL   _draw_number_wtih_touch_centered
                                           ; SOURCE LINE # 222
0042 900000      R     MOV     DPTR,#p
0045 E0                MOVX    A,@DPTR
0046 FB                MOV     R3,A
0047 A3                INC     DPTR
0048 E0                MOVX    A,@DPTR
0049 FA                MOV     R2,A
004A A3                INC     DPTR
004B E0                MOVX    A,@DPTR
004C F9                MOV     R1,A
004D 120000      E     LCALL   ?C?ILDPTR
0050 7800        R     MOV     R0,#LOW LINE_WIDTH+01H
0052 26                ADD     A,@R0
0053 FF                MOV     R7,A
0054 E5F0              MOV     A,B
0056 18                DEC     R0
0057 36                ADDC    A,@R0
0058 FE                MOV     R6,A
0059 900002            MOV     DPTR,#02H
005C 120000      E     LCALL   ?C?ILDOPTR
005F FD                MOV     R5,A
0060 7800        R     MOV     R0,#LOW LEVEL_HEIGHT
C51 COMPILER V9.53.0.0   TEMP                                                              12/15/2023 14:28:41 PAGE 52  

0062 E6                MOV     A,@R0
0063 2D                ADD     A,R5
0064 FD                MOV     R5,A
0065 E4                CLR     A
0066 35F0              ADDC    A,B
0068 FC                MOV     R4,A
0069 7800        R     MOV     R0,#LOW FONT_SIZE
006B E6                MOV     A,@R0
006C FA                MOV     R2,A
006D 08                INC     R0
006E E6                MOV     A,@R0
006F FB                MOV     R3,A
0070 900000      R     MOV     DPTR,#?_draw_number_wtih_touch_centered?BYTE+06H
0073 7423              MOV     A,#023H
0075 F0                MOVX    @DPTR,A
0076 020000      R     LJMP    _draw_number_wtih_touch_centered
             ; FUNCTION _add_freq_bal (END)

             ; FUNCTION _display_par (BEGIN)
                                           ; SOURCE LINE # 225
0000 900000      R     MOV     DPTR,#par_id
0003 EE                MOV     A,R6
0004 F0                MOVX    @DPTR,A
0005 A3                INC     DPTR
0006 EF                MOV     A,R7
0007 F0                MOVX    @DPTR,A
                                           ; SOURCE LINE # 226
                                           ; SOURCE LINE # 228
0008 7800        R     MOV     R0,#LOW format
000A 7C00        R     MOV     R4,#HIGH format
000C 7D01              MOV     R5,#01H
000E 7BFF              MOV     R3,#0FFH
0010 7A00        R     MOV     R2,#HIGH _?ix1000
0012 7900        R     MOV     R1,#LOW _?ix1000
0014 7E00              MOV     R6,#00H
0016 7F10              MOV     R7,#010H
0018 120000      E     LCALL   ?C?COPY
                                           ; SOURCE LINE # 232
001B 7800        R     MOV     R0,#LOW format_big
001D 7C00        R     MOV     R4,#HIGH format_big
001F 7D01              MOV     R5,#01H
0021 7BFF              MOV     R3,#0FFH
0023 7A00        R     MOV     R2,#HIGH _?ix1001
0025 7900        R     MOV     R1,#LOW _?ix1001
0027 7E00              MOV     R6,#00H
0029 7F10              MOV     R7,#010H
002B 120000      E     LCALL   ?C?COPY
                                           ; SOURCE LINE # 236
002E E4                CLR     A
002F 900000      R     MOV     DPTR,#format_id
0032 F0                MOVX    @DPTR,A
                                           ; SOURCE LINE # 237
0033 900000      R     MOV     DPTR,#par_id+01H
0036 E0                MOVX    A,@DPTR
0037 25E0              ADD     A,ACC
0039 FF                MOV     R7,A
003A 900000      R     MOV     DPTR,#par_id
003D E0                MOVX    A,@DPTR
003E 33                RLC     A
003F FE                MOV     R6,A
0040 7400        R     MOV     A,#LOW par
0042 2F                ADD     A,R7
C51 COMPILER V9.53.0.0   TEMP                                                              12/15/2023 14:28:41 PAGE 53  

0043 F582              MOV     DPL,A
0045 7400        R     MOV     A,#HIGH par
0047 3E                ADDC    A,R6
0048 F583              MOV     DPH,A
004A E0                MOVX    A,@DPTR
004B FC                MOV     R4,A
004C A3                INC     DPTR
004D E0                MOVX    A,@DPTR
004E FD                MOV     R5,A
004F EC                MOV     A,R4
0050 120000      E     LCALL   ?C?FCASTI
0053 900000      R     MOV     DPTR,#par_value
0056 120000      E     LCALL   ?C?LSTXDATA
                                           ; SOURCE LINE # 239
0059 900000      R     MOV     DPTR,#par_id
005C E0                MOVX    A,@DPTR
005D FE                MOV     R6,A
005E A3                INC     DPTR
005F E0                MOVX    A,@DPTR
0060 FF                MOV     R7,A
0061 EE                MOV     A,R6
0062 6003              JZ      $ + 5H
0064 020000      R     LJMP    ?C0039
0067 EF                MOV     A,R7
0068 24E6              ADD     A,#0E6H
006A B41000            CJNE    A,#010H,?C0236
006D         ?C0236:
006D 4003              JC      $ + 5H
006F 020000      R     LJMP    ?C0039
0072 900000      R     MOV     DPTR,#?C0237
0075 75F003            MOV     B,#03H
0078 A4                MUL     AB
0079 C583              XCH     A,DPH
007B 25F0              ADD     A,B
007D C583              XCH     A,DPH
007F 73                JMP     @A+DPTR
0080         ?C0237:
0080 020000      R     LJMP    ?C0024
0083 020000      R     LJMP    ?C0035
0086 020000      R     LJMP    ?C0024
0089 020000      R     LJMP    ?C0024
008C 020000      R     LJMP    ?C0035
008F 020000      R     LJMP    ?C0028
0092 020000      R     LJMP    ?C0035
0095 020000      R     LJMP    ?C0028
0098 020000      R     LJMP    ?C0036
009B 020000      R     LJMP    ?C0037
009E 020000      R     LJMP    ?C0024
00A1 020000      R     LJMP    ?C0035
00A4 020000      R     LJMP    ?C0024
00A7 020000      R     LJMP    ?C0029
00AA 020000      R     LJMP    ?C0035
00AD 020000      R     LJMP    ?C0035
                                           ; SOURCE LINE # 240
                                           ; SOURCE LINE # 241
                                           ; SOURCE LINE # 242
                                           ; SOURCE LINE # 243
                                           ; SOURCE LINE # 244
                                           ; SOURCE LINE # 245
00B0         ?C0024:
                                           ; SOURCE LINE # 246
00B0 EF                MOV     A,R7
C51 COMPILER V9.53.0.0   TEMP                                                              12/15/2023 14:28:41 PAGE 54  

00B1 25E0              ADD     A,ACC
00B3 FF                MOV     R7,A
00B4 EE                MOV     A,R6
00B5 33                RLC     A
00B6 FE                MOV     R6,A
00B7 7400        R     MOV     A,#LOW par
00B9 2F                ADD     A,R7
00BA F582              MOV     DPL,A
00BC 7400        R     MOV     A,#HIGH par
00BE 3E                ADDC    A,R6
00BF F583              MOV     DPH,A
00C1 E0                MOVX    A,@DPTR
00C2 FE                MOV     R6,A
00C3 A3                INC     DPTR
00C4 E0                MOVX    A,@DPTR
00C5 FF                MOV     R7,A
00C6 900000      R     MOV     DPTR,#tmp
00C9 EE                MOV     A,R6
00CA F0                MOVX    @DPTR,A
00CB A3                INC     DPTR
00CC EF                MOV     A,R7
00CD F0                MOVX    @DPTR,A
                                           ; SOURCE LINE # 247
00CE C3                CLR     C
00CF 9464              SUBB    A,#064H
00D1 EE                MOV     A,R6
00D2 9400              SUBB    A,#00H
00D4 5024              JNC     ?C0025
                                           ; SOURCE LINE # 248
00D6 900000      R     MOV     DPTR,#format_id
00D9 7401              MOV     A,#01H
00DB F0                MOVX    @DPTR,A
                                           ; SOURCE LINE # 249
00DC A3                INC     DPTR
00DD E0                MOVX    A,@DPTR
00DE FC                MOV     R4,A
00DF A3                INC     DPTR
00E0 E0                MOVX    A,@DPTR
00E1 FD                MOV     R5,A
00E2 A3                INC     DPTR
00E3 E0                MOVX    A,@DPTR
00E4 FE                MOV     R6,A
00E5 A3                INC     DPTR
00E6 E0                MOVX    A,@DPTR
00E7 FF                MOV     R7,A
00E8 E4                CLR     A
00E9 FB                MOV     R3,A
00EA FA                MOV     R2,A
00EB 7920              MOV     R1,#020H
00ED 7841              MOV     R0,#041H
00EF 120000      E     LCALL   ?C?FPDIV
00F2 900000      R     MOV     DPTR,#par_value
00F5 120000      E     LCALL   ?C?LSTXDATA
                                           ; SOURCE LINE # 250
00F8 8020              SJMP    ?C0251
00FA         ?C0025:
                                           ; SOURCE LINE # 251
00FA 900000      R     MOV     DPTR,#par_value
00FD 120000      E     LCALL   ?C?LSTKXDATA
0100 41                DB      041H
0101 20                DB      020H
0102 00                DB      00H
C51 COMPILER V9.53.0.0   TEMP                                                              12/15/2023 14:28:41 PAGE 55  

0103 00                DB      00H
                                           ; SOURCE LINE # 252
0104 900000      R     MOV     DPTR,#format_id
0107 7402              MOV     A,#02H
0109 F0                MOVX    @DPTR,A
                                           ; SOURCE LINE # 253
010A         ?C0026:
                                           ; SOURCE LINE # 254
                                           ; SOURCE LINE # 255
010A 800E              SJMP    ?C0251
                                           ; SOURCE LINE # 257
                                           ; SOURCE LINE # 258
010C         ?C0028:
                                           ; SOURCE LINE # 259
010C 900000      R     MOV     DPTR,#format_id
010F 7403              MOV     A,#03H
0111 F0                MOVX    @DPTR,A
                                           ; SOURCE LINE # 260
0112         ?C0250:
                                           ; SOURCE LINE # 261
0112 8006              SJMP    ?C0251
                                           ; SOURCE LINE # 263
0114         ?C0029:
                                           ; SOURCE LINE # 264
0114 900000      R     MOV     DPTR,#format_id
0117 7402              MOV     A,#02H
0119 F0                MOVX    @DPTR,A
                                           ; SOURCE LINE # 265
011A         ?C0251:
011A 900000      R     MOV     DPTR,#par_color
011D 7407              MOV     A,#07H
011F F0                MOVX    @DPTR,A
0120 A3                INC     DPTR
0121 74FF              MOV     A,#0FFH
0123 F0                MOVX    @DPTR,A
                                           ; SOURCE LINE # 266
0124 8050              SJMP    ?C0019
                                           ; SOURCE LINE # 268
                                           ; SOURCE LINE # 269
                                           ; SOURCE LINE # 270
                                           ; SOURCE LINE # 271
                                           ; SOURCE LINE # 272
                                           ; SOURCE LINE # 273
0126         ?C0035:
                                           ; SOURCE LINE # 274
0126 900000      R     MOV     DPTR,#format_id
0129 7404              MOV     A,#04H
012B F0                MOVX    @DPTR,A
                                           ; SOURCE LINE # 275
012C 900000      R     MOV     DPTR,#par_color
012F 74FF              MOV     A,#0FFH
0131 F0                MOVX    @DPTR,A
0132 A3                INC     DPTR
0133 74E0              MOV     A,#0E0H
0135 F0                MOVX    @DPTR,A
                                           ; SOURCE LINE # 276
0136 803E              SJMP    ?C0019
                                           ; SOURCE LINE # 278
0138         ?C0036:
                                           ; SOURCE LINE # 279
0138 900000      R     MOV     DPTR,#format_id
013B 7406              MOV     A,#06H
C51 COMPILER V9.53.0.0   TEMP                                                              12/15/2023 14:28:41 PAGE 56  

013D F0                MOVX    @DPTR,A
                                           ; SOURCE LINE # 280
013E 900000      R     MOV     DPTR,#par_color
0141 74FC              MOV     A,#0FCH
0143 F0                MOVX    @DPTR,A
0144 A3                INC     DPTR
0145 E4                CLR     A
0146 F0                MOVX    @DPTR,A
                                           ; SOURCE LINE # 281
0147 802D              SJMP    ?C0019
                                           ; SOURCE LINE # 282
0149         ?C0037:
                                           ; SOURCE LINE # 283
0149 900000      R     MOV     DPTR,#format_id
014C 7407              MOV     A,#07H
014E F0                MOVX    @DPTR,A
                                           ; SOURCE LINE # 284
014F 900000      R     MOV     DPTR,#par_color
0152 74FC              MOV     A,#0FCH
0154 F0                MOVX    @DPTR,A
0155 A3                INC     DPTR
0156 E4                CLR     A
0157 F0                MOVX    @DPTR,A
                                           ; SOURCE LINE # 285
0158 900000      R     MOV     DPTR,#par_value
015B E0                MOVX    A,@DPTR
015C FC                MOV     R4,A
015D A3                INC     DPTR
015E E0                MOVX    A,@DPTR
015F FD                MOV     R5,A
0160 A3                INC     DPTR
0161 E0                MOVX    A,@DPTR
0162 FE                MOV     R6,A
0163 A3                INC     DPTR
0164 E0                MOVX    A,@DPTR
0165 FF                MOV     R7,A
0166 E4                CLR     A
0167 FB                MOV     R3,A
0168 FA                MOV     R2,A
0169 7920              MOV     R1,#020H
016B 7841              MOV     R0,#041H
016D 120000      E     LCALL   ?C?FPDIV
0170 900000      R     MOV     DPTR,#par_value
0173 120000      E     LCALL   ?C?LSTXDATA
                                           ; SOURCE LINE # 286
                                           ; SOURCE LINE # 288
                                           ; SOURCE LINE # 289
0176         ?C0019:
                                           ; SOURCE LINE # 291
0176 900000      R     MOV     DPTR,#format_id
0179 E0                MOVX    A,@DPTR
017A 7003              JNZ     $ + 5H
017C 020000      R     LJMP    ?C0039
                                           ; SOURCE LINE # 292
017F 25E0              ADD     A,ACC
0181 2400        R     ADD     A,#LOW format
0183 F582              MOV     DPL,A
0185 E4                CLR     A
0186 3400        R     ADDC    A,#HIGH format
0188 F583              MOV     DPH,A
018A E0                MOVX    A,@DPTR
018B FE                MOV     R6,A
C51 COMPILER V9.53.0.0   TEMP                                                              12/15/2023 14:28:41 PAGE 57  

018C A3                INC     DPTR
018D E0                MOVX    A,@DPTR
018E AA06              MOV     R2,AR6
0190 F9                MOV     R1,A
0191 7BFF              MOV     R3,#0FFH
0193 900000      R     MOV     DPTR,#par_id+01H
0196 E0                MOVX    A,@DPTR
0197 25E0              ADD     A,ACC
0199 FF                MOV     R7,A
019A 900000      R     MOV     DPTR,#par_id
019D E0                MOVX    A,@DPTR
019E 33                RLC     A
019F FE                MOV     R6,A
01A0 7400        R     MOV     A,#LOW text_sp
01A2 2F                ADD     A,R7
01A3 F582              MOV     DPL,A
01A5 7400        R     MOV     A,#HIGH text_sp
01A7 3E                ADDC    A,R6
01A8 F583              MOV     DPH,A
01AA E0                MOVX    A,@DPTR
01AB FC                MOV     R4,A
01AC A3                INC     DPTR
01AD E0                MOVX    A,@DPTR
01AE FD                MOV     R5,A
01AF C004              PUSH    AR4
01B1 C005              PUSH    AR5
01B3 900000      R     MOV     DPTR,#par_value
01B6 E0                MOVX    A,@DPTR
01B7 FC                MOV     R4,A
01B8 A3                INC     DPTR
01B9 E0                MOVX    A,@DPTR
01BA FD                MOV     R5,A
01BB A3                INC     DPTR
01BC E0                MOVX    A,@DPTR
01BD FE                MOV     R6,A
01BE A3                INC     DPTR
01BF E0                MOVX    A,@DPTR
01C0 FF                MOV     R7,A
01C1 900000      E     MOV     DPTR,#?_Draw_text_set_text?BYTE+05H
01C4 120000      E     LCALL   ?C?LSTXDATA
01C7 D005              POP     AR5
01C9 D004              POP     AR4
01CB 120000      E     LCALL   _Draw_text_set_text
                                           ; SOURCE LINE # 293
01CE 900000      R     MOV     DPTR,#cur_par_id
01D1 E0                MOVX    A,@DPTR
01D2 FE                MOV     R6,A
01D3 A3                INC     DPTR
01D4 E0                MOVX    A,@DPTR
01D5 FF                MOV     R7,A
01D6 900000      R     MOV     DPTR,#par_id
01D9 E0                MOVX    A,@DPTR
01DA FC                MOV     R4,A
01DB A3                INC     DPTR
01DC E0                MOVX    A,@DPTR
01DD FD                MOV     R5,A
01DE B5070C            CJNE    A,AR7,?C0041
01E1 EC                MOV     A,R4
01E2 B50608            CJNE    A,AR6,?C0041
                                           ; SOURCE LINE # 294
01E5 A3                INC     DPTR
01E6 74F8              MOV     A,#0F8H
C51 COMPILER V9.53.0.0   TEMP                                                              12/15/2023 14:28:41 PAGE 58  

01E8 F0                MOVX    @DPTR,A
01E9 A3                INC     DPTR
01EA 741F              MOV     A,#01FH
01EC F0                MOVX    @DPTR,A
01ED         ?C0041:
                                           ; SOURCE LINE # 296
01ED ED                MOV     A,R5
01EE 25E0              ADD     A,ACC
01F0 FF                MOV     R7,A
01F1 EC                MOV     A,R4
01F2 33                RLC     A
01F3 FE                MOV     R6,A
01F4 7400        R     MOV     A,#LOW text_sp
01F6 2F                ADD     A,R7
01F7 F582              MOV     DPL,A
01F9 7400        R     MOV     A,#HIGH text_sp
01FB 3E                ADDC    A,R6
01FC F583              MOV     DPH,A
01FE E0                MOVX    A,@DPTR
01FF FE                MOV     R6,A
0200 A3                INC     DPTR
0201 E0                MOVX    A,@DPTR
0202 FF                MOV     R7,A
0203 900000      R     MOV     DPTR,#par_color
0206 E0                MOVX    A,@DPTR
0207 FC                MOV     R4,A
0208 A3                INC     DPTR
0209 E0                MOVX    A,@DPTR
020A FD                MOV     R5,A
020B 120000      E     LCALL   _Draw_text_set_color
                                           ; SOURCE LINE # 298
020E E500        R     MOV     A,Welding_state
0210 7037              JNZ     ?C0039
                                           ; SOURCE LINE # 299
0212 900000      R     MOV     DPTR,#format_id
0215 E0                MOVX    A,@DPTR
0216 25E0              ADD     A,ACC
0218 2400        R     ADD     A,#LOW format_big
021A F582              MOV     DPL,A
021C E4                CLR     A
021D 3400        R     ADDC    A,#HIGH format_big
021F F583              MOV     DPH,A
0221 E0                MOVX    A,@DPTR
0222 FE                MOV     R6,A
0223 A3                INC     DPTR
0224 E0                MOVX    A,@DPTR
0225 AA06              MOV     R2,AR6
0227 F9                MOV     R1,A
0228 7BFF              MOV     R3,#0FFH
022A 900000      R     MOV     DPTR,#par_value
022D E0                MOVX    A,@DPTR
022E FC                MOV     R4,A
022F A3                INC     DPTR
0230 E0                MOVX    A,@DPTR
0231 FD                MOV     R5,A
0232 A3                INC     DPTR
0233 E0                MOVX    A,@DPTR
0234 FE                MOV     R6,A
0235 A3                INC     DPTR
0236 E0                MOVX    A,@DPTR
0237 FF                MOV     R7,A
0238 900000      E     MOV     DPTR,#?_Draw_text_set_text?BYTE+05H
C51 COMPILER V9.53.0.0   TEMP                                                              12/15/2023 14:28:41 PAGE 59  

023B 120000      E     LCALL   ?C?LSTXDATA
023E 900000      R     MOV     DPTR,#Par_big_text_sp
0241 E0                MOVX    A,@DPTR
0242 FC                MOV     R4,A
0243 A3                INC     DPTR
0244 E0                MOVX    A,@DPTR
0245 FD                MOV     R5,A
0246 120000      E     LCALL   _Draw_text_set_text
                                           ; SOURCE LINE # 300
                                           ; SOURCE LINE # 301
                                           ; SOURCE LINE # 302
0249         ?C0039:
0249 22                RET     
             ; FUNCTION _display_par (END)

             ; FUNCTION L?0285 (BEGIN)
0000 E4                CLR     A
0001 FD                MOV     R5,A
0002 FE                MOV     R6,A
             ; FUNCTION _cur_par_value_change (BEGIN)
                                           ; SOURCE LINE # 304
0003 900000      R     MOV     DPTR,#par_id
0006 EE                MOV     A,R6
0007 F0                MOVX    @DPTR,A
0008 A3                INC     DPTR
0009 EF                MOV     A,R7
000A F0                MOVX    @DPTR,A
000B A3                INC     DPTR
000C ED                MOV     A,R5
000D F0                MOVX    @DPTR,A
                                           ; SOURCE LINE # 305
                                           ; SOURCE LINE # 306
000E 7003              JNZ     $ + 5H
0010 020000      R     LJMP    ?C0043
                                           ; SOURCE LINE # 307
0013 900000      R     MOV     DPTR,#par_id+01H
0016 E0                MOVX    A,@DPTR
0017 25E0              ADD     A,ACC
0019 FD                MOV     R5,A
001A 900000      R     MOV     DPTR,#par_id
001D E0                MOVX    A,@DPTR
001E 33                RLC     A
001F FC                MOV     R4,A
0020 7400        R     MOV     A,#LOW par
0022 2D                ADD     A,R5
0023 F9                MOV     R1,A
0024 7400        R     MOV     A,#HIGH par
0026 3C                ADDC    A,R4
0027 FA                MOV     R2,A
0028 900000      R     MOV     DPTR,#val
002B 7401              MOV     A,#01H
002D F0                MOVX    @DPTR,A
002E A3                INC     DPTR
002F EA                MOV     A,R2
0030 F0                MOVX    @DPTR,A
0031 A3                INC     DPTR
0032 E9                MOV     A,R1
0033 F0                MOVX    @DPTR,A
                                           ; SOURCE LINE # 308
0034 900000      R     MOV     DPTR,#par_id
0037 E0                MOVX    A,@DPTR
0038 FE                MOV     R6,A
C51 COMPILER V9.53.0.0   TEMP                                                              12/15/2023 14:28:41 PAGE 60  

0039 A3                INC     DPTR
003A E0                MOVX    A,@DPTR
003B 7802              MOV     R0,#02H
003D         ?C0239:
003D C3                CLR     C
003E 33                RLC     A
003F CE                XCH     A,R6
0040 33                RLC     A
0041 CE                XCH     A,R6
0042 D8F9              DJNZ    R0,?C0239
0044 FF                MOV     R7,A
0045 2400        R     ADD     A,#LOW par_lim+02H
0047 F582              MOV     DPL,A
0049 7400        R     MOV     A,#HIGH par_lim+02H
004B 3E                ADDC    A,R6
004C F583              MOV     DPH,A
004E E0                MOVX    A,@DPTR
004F FB                MOV     R3,A
0050 A3                INC     DPTR
0051 E0                MOVX    A,@DPTR
0052 900000      R     MOV     DPTR,#val_max
0055 CB                XCH     A,R3
0056 F0                MOVX    @DPTR,A
0057 A3                INC     DPTR
0058 EB                MOV     A,R3
0059 F0                MOVX    @DPTR,A
                                           ; SOURCE LINE # 309
005A 7400        R     MOV     A,#LOW par_lim
005C 2F                ADD     A,R7
005D F582              MOV     DPL,A
005F 7400        R     MOV     A,#HIGH par_lim
0061 3E                ADDC    A,R6
0062 F583              MOV     DPH,A
0064 E0                MOVX    A,@DPTR
0065 FF                MOV     R7,A
0066 A3                INC     DPTR
0067 E0                MOVX    A,@DPTR
0068 900000      R     MOV     DPTR,#val_min
006B CF                XCH     A,R7
006C F0                MOVX    @DPTR,A
006D A3                INC     DPTR
006E EF                MOV     A,R7
006F F0                MOVX    @DPTR,A
                                           ; SOURCE LINE # 311
0070 7400        R     MOV     A,#LOW par_step
0072 2D                ADD     A,R5
0073 F582              MOV     DPL,A
0075 7400        R     MOV     A,#HIGH par_step
0077 3C                ADDC    A,R4
0078 F583              MOV     DPH,A
007A E0                MOVX    A,@DPTR
007B FC                MOV     R4,A
007C A3                INC     DPTR
007D E0                MOVX    A,@DPTR
007E FD                MOV     R5,A
007F 900000      R     MOV     DPTR,#shift
0082 E0                MOVX    A,@DPTR
0083 FF                MOV     R7,A
0084 33                RLC     A
0085 95E0              SUBB    A,ACC
0087 FE                MOV     R6,A
0088 120000      E     LCALL   ?C?IMUL
C51 COMPILER V9.53.0.0   TEMP                                                              12/15/2023 14:28:41 PAGE 61  

008B A3                INC     DPTR
008C E0                MOVX    A,@DPTR
008D FB                MOV     R3,A
008E A3                INC     DPTR
008F E0                MOVX    A,@DPTR
0090 FA                MOV     R2,A
0091 A3                INC     DPTR
0092 E0                MOVX    A,@DPTR
0093 F9                MOV     R1,A
0094 EE                MOV     A,R6
0095 8FF0              MOV     B,R7
0097 120000      E     LCALL   ?C?IILDPTR
                                           ; SOURCE LINE # 312
009A 900000      R     MOV     DPTR,#val
009D E0                MOVX    A,@DPTR
009E FB                MOV     R3,A
009F A3                INC     DPTR
00A0 E0                MOVX    A,@DPTR
00A1 FA                MOV     R2,A
00A2 A3                INC     DPTR
00A3 E0                MOVX    A,@DPTR
00A4 F9                MOV     R1,A
00A5 120000      E     LCALL   ?C?ILDPTR
00A8 FF                MOV     R7,A
00A9 AEF0              MOV     R6,B
00AB 900000      R     MOV     DPTR,#val_max
00AE E0                MOVX    A,@DPTR
00AF FC                MOV     R4,A
00B0 A3                INC     DPTR
00B1 E0                MOVX    A,@DPTR
00B2 FD                MOV     R5,A
00B3 D3                SETB    C
00B4 9F                SUBB    A,R7
00B5 EE                MOV     A,R6
00B6 6480              XRL     A,#080H
00B8 F8                MOV     R0,A
00B9 EC                MOV     A,R4
00BA 6480              XRL     A,#080H
00BC 98                SUBB    A,R0
00BD 5002              JNC     ?C0044
                                           ; SOURCE LINE # 313
00BF 8014              SJMP    ?C0252
00C1         ?C0044:
                                           ; SOURCE LINE # 314
00C1 900000      R     MOV     DPTR,#val_min
00C4 E0                MOVX    A,@DPTR
00C5 FC                MOV     R4,A
00C6 A3                INC     DPTR
00C7 E0                MOVX    A,@DPTR
00C8 FD                MOV     R5,A
00C9 C3                CLR     C
00CA 9F                SUBB    A,R7
00CB EE                MOV     A,R6
00CC 6480              XRL     A,#080H
00CE F8                MOV     R0,A
00CF EC                MOV     A,R4
00D0 6480              XRL     A,#080H
00D2 98                SUBB    A,R0
00D3 4006              JC      ?C0043
                                           ; SOURCE LINE # 315
00D5         ?C0252:
00D5 EC                MOV     A,R4
C51 COMPILER V9.53.0.0   TEMP                                                              12/15/2023 14:28:41 PAGE 62  

00D6 8DF0              MOV     B,R5
00D8 120000      E     LCALL   ?C?ISTPTR
                                           ; SOURCE LINE # 317
00DB         ?C0043:
                                           ; SOURCE LINE # 319
00DB 900000      R     MOV     DPTR,#par_id
00DE E0                MOVX    A,@DPTR
00DF FE                MOV     R6,A
00E0 A3                INC     DPTR
00E1 E0                MOVX    A,@DPTR
00E2 FF                MOV     R7,A
00E3 EE                MOV     A,R6
00E4 6003              JZ      $ + 5H
00E6 020000      R     LJMP    ?C0128
00E9 EF                MOV     A,R7
00EA B42B00            CJNE    A,#02BH,?C0240
00ED         ?C0240:
00ED 4003              JC      $ + 5H
00EF 020000      R     LJMP    ?C0128
00F2 900000      R     MOV     DPTR,#?C0241
00F5 F8                MOV     R0,A
00F6 28                ADD     A,R0
00F7 28                ADD     A,R0
00F8 73                JMP     @A+DPTR
00F9         ?C0241:
00F9 020000      R     LJMP    ?C0099
00FC 020000      R     LJMP    ?C0099
00FF 020000      R     LJMP    ?C0099
0102 020000      R     LJMP    ?C0099
0105 020000      R     LJMP    ?C0099
0108 020000      R     LJMP    ?C0099
010B 020000      R     LJMP    ?C0110
010E 020000      R     LJMP    ?C0111
0111 020000      R     LJMP    ?C0112
0114 020000      R     LJMP    ?C0099
0117 020000      R     LJMP    ?C0114
011A 020000      R     LJMP    ?C0113
011D 020000      R     LJMP    ?C0099
0120 020000      R     LJMP    ?C0099
0123 020000      R     LJMP    ?C0117
0126 020000      R     LJMP    ?C0118
0129 020000      R     LJMP    ?C0119
012C 020000      R     LJMP    ?C0120
012F 020000      R     LJMP    ?C0121
0132 020000      R     LJMP    ?C0122
0135 020000      R     LJMP    ?C0123
0138 020000      R     LJMP    ?C0125
013B 020000      R     LJMP    ?C0124
013E 020000      R     LJMP    ?C0126
0141 020000      R     LJMP    ?C0116
0144 020000      R     LJMP    ?C0115
0147 020000      R     LJMP    ?C0073
014A 020000      R     LJMP    ?C0073
014D 020000      R     LJMP    ?C0073
0150 020000      R     LJMP    ?C0073
0153 020000      R     LJMP    ?C0073
0156 020000      R     LJMP    ?C0073
0159 020000      R     LJMP    ?C0073
015C 020000      R     LJMP    ?C0073
015F 020000      R     LJMP    ?C0073
0162 020000      R     LJMP    ?C0073
0165 020000      R     LJMP    ?C0073
C51 COMPILER V9.53.0.0   TEMP                                                              12/15/2023 14:28:41 PAGE 63  

0168 020000      R     LJMP    ?C0073
016B 020000      R     LJMP    ?C0073
016E 020000      R     LJMP    ?C0073
0171 020000      R     LJMP    ?C0073
0174 020000      R     LJMP    ?C0073
0177 020000      R     LJMP    ?C0048
                                           ; SOURCE LINE # 320
                                           ; SOURCE LINE # 321
017A         ?C0048:
                                           ; SOURCE LINE # 322
017A 900000      R     MOV     DPTR,#shift
017D E0                MOVX    A,@DPTR
017E FF                MOV     R7,A
017F 33                RLC     A
0180 95E0              SUBB    A,ACC
0182 FE                MOV     R6,A
0183 900000      R     MOV     DPTR,#cur_prog_id+01H
0186 E0                MOVX    A,@DPTR
0187 2F                ADD     A,R7
0188 F0                MOVX    @DPTR,A
0189 900000      R     MOV     DPTR,#cur_prog_id
018C E0                MOVX    A,@DPTR
018D 3E                ADDC    A,R6
018E F0                MOVX    @DPTR,A
                                           ; SOURCE LINE # 323
018F E0                MOVX    A,@DPTR
0190 FE                MOV     R6,A
0191 A3                INC     DPTR
0192 E0                MOVX    A,@DPTR
0193 D3                SETB    C
0194 9400              SUBB    A,#00H
0196 EE                MOV     A,R6
0197 6480              XRL     A,#080H
0199 9480              SUBB    A,#080H
019B 5007              JNC     ?C0049
019D E4                CLR     A
019E 900000      R     MOV     DPTR,#cur_prog_id
01A1 F0                MOVX    @DPTR,A
01A2 A3                INC     DPTR
01A3 F0                MOVX    @DPTR,A
01A4         ?C0049:
                                           ; SOURCE LINE # 325
01A4 900000      R     MOV     DPTR,#cur_prog_id
01A7 E0                MOVX    A,@DPTR
01A8 FE                MOV     R6,A
01A9 A3                INC     DPTR
01AA E0                MOVX    A,@DPTR
01AB FF                MOV     R7,A
01AC 7C00              MOV     R4,#00H
01AE 7D56              MOV     R5,#056H
01B0 120000      E     LCALL   ?C?IMUL
01B3 E4                CLR     A
01B4 FD                MOV     R5,A
01B5 7B01              MOV     R3,#01H
01B7 7A00        R     MOV     R2,#HIGH par
01B9 7900        R     MOV     R1,#LOW par
01BB 900000      E     MOV     DPTR,#?_Norflash_read?BYTE+07H
01BE F0                MOVX    @DPTR,A
01BF A3                INC     DPTR
01C0 742B              MOV     A,#02BH
01C2 F0                MOVX    @DPTR,A
01C3 120000      E     LCALL   _Norflash_read
C51 COMPILER V9.53.0.0   TEMP                                                              12/15/2023 14:28:41 PAGE 64  

                                           ; SOURCE LINE # 326
01C6 900000      R     MOV     DPTR,#par
01C9 E0                MOVX    A,@DPTR
01CA B4A51A            CJNE    A,#0A5H,?C0050
01CD A3                INC     DPTR
01CE E0                MOVX    A,@DPTR
01CF B4A515            CJNE    A,#0A5H,?C0050
                                           ; SOURCE LINE # 327
01D2 A3                INC     DPTR
01D3 E0                MOVX    A,@DPTR
01D4 FC                MOV     R4,A
01D5 A3                INC     DPTR
01D6 E0                MOVX    A,@DPTR
01D7 FD                MOV     R5,A
01D8 A3                INC     DPTR
01D9 E0                MOVX    A,@DPTR
01DA FE                MOV     R6,A
01DB A3                INC     DPTR
01DC E0                MOVX    A,@DPTR
01DD F500        R     MOV     main_menu_bm+03H,A
01DF 8E00        R     MOV     main_menu_bm+02H,R6
01E1 8D00        R     MOV     main_menu_bm+01H,R5
01E3 8C00        R     MOV     main_menu_bm,R4
                                           ; SOURCE LINE # 328
01E5 800C              SJMP    ?C0051
01E7         ?C0050:
                                           ; SOURCE LINE # 336
01E7 750085      R     MOV     main_menu_bm+03H,#085H
01EA 750014      R     MOV     main_menu_bm+02H,#014H
01ED 750014      R     MOV     main_menu_bm+01H,#014H
01F0 750001      R     MOV     main_menu_bm,#01H
                                           ; SOURCE LINE # 338
01F3         ?C0051:
                                           ; SOURCE LINE # 340
                                           ; SOURCE LINE # 342
01F3 900000      R     MOV     DPTR,#i
01F6 741A              MOV     A,#01AH
01F8 F0                MOVX    @DPTR,A
01F9         ?C0052:
01F9 900000      R     MOV     DPTR,#i
01FC E0                MOVX    A,@DPTR
01FD FF                MOV     R7,A
01FE D3                SETB    C
01FF 9429              SUBB    A,#029H
0201 4003              JC      $ + 5H
0203 020000      R     LJMP    ?C0053
                                           ; SOURCE LINE # 343
0206 EF                MOV     A,R7
0207 75F002            MOV     B,#02H
020A A4                MUL     AB
020B 2400        R     ADD     A,#LOW par
020D F9                MOV     R1,A
020E 7400        R     MOV     A,#HIGH par
0210 35F0              ADDC    A,B
0212 FA                MOV     R2,A
0213 7B01              MOV     R3,#01H
0215 A3                INC     DPTR
0216 EB                MOV     A,R3
0217 F0                MOVX    @DPTR,A
0218 A3                INC     DPTR
0219 EA                MOV     A,R2
021A F0                MOVX    @DPTR,A
C51 COMPILER V9.53.0.0   TEMP                                                              12/15/2023 14:28:41 PAGE 65  

021B A3                INC     DPTR
021C E9                MOV     A,R1
021D F0                MOVX    @DPTR,A
                                           ; SOURCE LINE # 344
021E 120000      E     LCALL   ?C?ILDPTR
0221 FF                MOV     R7,A
0222 900000      R     MOV     DPTR,#i
0225 E0                MOVX    A,@DPTR
0226 25E0              ADD     A,ACC
0228 25E0              ADD     A,ACC
022A 2400        R     ADD     A,#LOW par_lim+02H
022C F582              MOV     DPL,A
022E E4                CLR     A
022F 3400        R     ADDC    A,#HIGH par_lim+02H
0231 F583              MOV     DPH,A
0233 E0                MOVX    A,@DPTR
0234 FC                MOV     R4,A
0235 A3                INC     DPTR
0236 E0                MOVX    A,@DPTR
0237 FD                MOV     R5,A
0238 D3                SETB    C
0239 9F                SUBB    A,R7
023A E5F0              MOV     A,B
023C 6480              XRL     A,#080H
023E F8                MOV     R0,A
023F EC                MOV     A,R4
0240 6480              XRL     A,#080H
0242 98                SUBB    A,R0
0243 500D              JNC     ?C0055
                                           ; SOURCE LINE # 345
0245 900000      R     MOV     DPTR,#val
0248 E0                MOVX    A,@DPTR
0249 FB                MOV     R3,A
024A A3                INC     DPTR
024B E0                MOVX    A,@DPTR
024C FA                MOV     R2,A
024D A3                INC     DPTR
024E E0                MOVX    A,@DPTR
024F F9                MOV     R1,A
                                           ; SOURCE LINE # 346
0250 8032              SJMP    ?C0253
0252         ?C0055:
0252 900000      R     MOV     DPTR,#val
0255 E0                MOVX    A,@DPTR
0256 FB                MOV     R3,A
0257 A3                INC     DPTR
0258 E0                MOVX    A,@DPTR
0259 FA                MOV     R2,A
025A A3                INC     DPTR
025B E0                MOVX    A,@DPTR
025C F9                MOV     R1,A
025D 120000      E     LCALL   ?C?ILDPTR
0260 FF                MOV     R7,A
0261 900000      R     MOV     DPTR,#i
0264 E0                MOVX    A,@DPTR
0265 25E0              ADD     A,ACC
0267 25E0              ADD     A,ACC
0269 2400        R     ADD     A,#LOW par_lim
026B F582              MOV     DPL,A
026D E4                CLR     A
026E 3400        R     ADDC    A,#HIGH par_lim
0270 F583              MOV     DPH,A
C51 COMPILER V9.53.0.0   TEMP                                                              12/15/2023 14:28:41 PAGE 66  

0272 E0                MOVX    A,@DPTR
0273 FC                MOV     R4,A
0274 A3                INC     DPTR
0275 E0                MOVX    A,@DPTR
0276 FD                MOV     R5,A
0277 C3                CLR     C
0278 9F                SUBB    A,R7
0279 E5F0              MOV     A,B
027B 6480              XRL     A,#080H
027D F8                MOV     R0,A
027E EC                MOV     A,R4
027F 6480              XRL     A,#080H
0281 98                SUBB    A,R0
0282 4006              JC      ?C0054
                                           ; SOURCE LINE # 347
0284         ?C0253:
0284 EC                MOV     A,R4
0285 8DF0              MOV     B,R5
0287 120000      E     LCALL   ?C?ISTPTR
                                           ; SOURCE LINE # 348
                                           ; SOURCE LINE # 349
028A         ?C0054:
028A 900000      R     MOV     DPTR,#i
028D E0                MOVX    A,@DPTR
028E 04                INC     A
028F F0                MOVX    @DPTR,A
0290 020000      R     LJMP    ?C0052
0293         ?C0053:
                                           ; SOURCE LINE # 350
                                           ; SOURCE LINE # 353
0293 120000      R     LCALL   make_scene
                                           ; SOURCE LINE # 354
0296 900000      R     MOV     DPTR,#N_prog_text_sp
0299 E0                MOVX    A,@DPTR
029A FE                MOV     R6,A
029B A3                INC     DPTR
029C E0                MOVX    A,@DPTR
029D FF                MOV     R7,A
029E 7D1F              MOV     R5,#01FH
02A0 7CF8              MOV     R4,#0F8H
02A2 120000      E     LCALL   _Draw_text_set_color
                                           ; SOURCE LINE # 355
02A5 900000      R     MOV     DPTR,#cur_par_id
02A8 E4                CLR     A
02A9 F0                MOVX    @DPTR,A
02AA A3                INC     DPTR
02AB 742A              MOV     A,#02AH
02AD F0                MOVX    @DPTR,A
                                           ; SOURCE LINE # 356
02AE 22                RET     
                                           ; SOURCE LINE # 358
                                           ; SOURCE LINE # 359
                                           ; SOURCE LINE # 360
                                           ; SOURCE LINE # 361
                                           ; SOURCE LINE # 362
                                           ; SOURCE LINE # 363
                                           ; SOURCE LINE # 364
                                           ; SOURCE LINE # 365
                                           ; SOURCE LINE # 366
                                           ; SOURCE LINE # 367
                                           ; SOURCE LINE # 368
                                           ; SOURCE LINE # 369
C51 COMPILER V9.53.0.0   TEMP                                                              12/15/2023 14:28:41 PAGE 67  

                                           ; SOURCE LINE # 370
                                           ; SOURCE LINE # 371
                                           ; SOURCE LINE # 372
                                           ; SOURCE LINE # 373
02AF         ?C0073:
                                           ; SOURCE LINE # 374
02AF 900000      R     MOV     DPTR,#par_id
02B2 E0                MOVX    A,@DPTR
02B3 FC                MOV     R4,A
02B4 A3                INC     DPTR
02B5 E0                MOVX    A,@DPTR
02B6 FD                MOV     R5,A
02B7 25E0              ADD     A,ACC
02B9 FF                MOV     R7,A
02BA EC                MOV     A,R4
02BB 33                RLC     A
02BC FE                MOV     R6,A
02BD 7400        R     MOV     A,#LOW par
02BF 2F                ADD     A,R7
02C0 F582              MOV     DPL,A
02C2 7400        R     MOV     A,#HIGH par
02C4 3E                ADDC    A,R6
02C5 F583              MOV     DPH,A
02C7 E0                MOVX    A,@DPTR
02C8 FF                MOV     R7,A
02C9 A3                INC     DPTR
02CA E0                MOVX    A,@DPTR
02CB 900000      R     MOV     DPTR,#tmp
02CE CF                XCH     A,R7
02CF F0                MOVX    @DPTR,A
02D0 A3                INC     DPTR
02D1 EF                MOV     A,R7
02D2 F0                MOVX    @DPTR,A
                                           ; SOURCE LINE # 375
02D3 EC                MOV     A,R4
02D4 6003              JZ      $ + 5H
02D6 020000      R     LJMP    ?C0074
02D9 ED                MOV     A,R5
02DA 24E6              ADD     A,#0E6H
02DC B41000            CJNE    A,#010H,?C0243
02DF         ?C0243:
02DF 4003              JC      $ + 5H
02E1 020000      R     LJMP    ?C0074
02E4 900000      R     MOV     DPTR,#?C0244
02E7 75F003            MOV     B,#03H
02EA A4                MUL     AB
02EB C583              XCH     A,DPH
02ED 25F0              ADD     A,B
02EF C583              XCH     A,DPH
02F1 73                JMP     @A+DPTR
02F2         ?C0244:
02F2 020000      R     LJMP    ?C0075
02F5 020000      R     LJMP    ?C0081
02F8 020000      R     LJMP    ?C0076
02FB 020000      R     LJMP    ?C0077
02FE 020000      R     LJMP    ?C0082
0301 020000      R     LJMP    ?C0089
0304 020000      R     LJMP    ?C0084
0307 020000      R     LJMP    ?C0090
030A 020000      R     LJMP    ?C0087
030D 020000      R     LJMP    ?C0088
0310 020000      R     LJMP    ?C0078
C51 COMPILER V9.53.0.0   TEMP                                                              12/15/2023 14:28:41 PAGE 68  

0313 020000      R     LJMP    ?C0085
0316 020000      R     LJMP    ?C0079
0319 020000      R     LJMP    ?C0080
031C 020000      R     LJMP    ?C0086
031F 020000      R     LJMP    ?C0083
                                           ; SOURCE LINE # 376
                                           ; SOURCE LINE # 377
0322         ?C0075:
0322 900000      R     MOV     DPTR,#tmp
0325 E0                MOVX    A,@DPTR
0326 FF                MOV     R7,A
0327 A3                INC     DPTR
0328 E0                MOVX    A,@DPTR
0329 900000      R     MOV     DPTR,#par_tek+02H
032C 020000      R     LJMP    ?C0268
                                           ; SOURCE LINE # 378
032F         ?C0076:
032F 900000      R     MOV     DPTR,#tmp
0332 E0                MOVX    A,@DPTR
0333 FF                MOV     R7,A
0334 A3                INC     DPTR
0335 E0                MOVX    A,@DPTR
0336 900000      R     MOV     DPTR,#par_tek+06H
0339         ?C0254:
0339 020000      R     LJMP    ?C0268
                                           ; SOURCE LINE # 379
033C         ?C0077:
033C 900000      R     MOV     DPTR,#tmp
033F E0                MOVX    A,@DPTR
0340 FF                MOV     R7,A
0341 A3                INC     DPTR
0342 E0                MOVX    A,@DPTR
0343 900000      R     MOV     DPTR,#par_tek+08H
0346         ?C0255:
0346 020000      R     LJMP    ?C0268
                                           ; SOURCE LINE # 380
0349         ?C0078:
0349 900000      R     MOV     DPTR,#tmp
034C E0                MOVX    A,@DPTR
034D FF                MOV     R7,A
034E A3                INC     DPTR
034F E0                MOVX    A,@DPTR
0350 900000      R     MOV     DPTR,#par_tek+016H
0353         ?C0256:
0353 020000      R     LJMP    ?C0268
                                           ; SOURCE LINE # 381
0356         ?C0079:
0356 900000      R     MOV     DPTR,#tmp
0359 E0                MOVX    A,@DPTR
035A FF                MOV     R7,A
035B A3                INC     DPTR
035C E0                MOVX    A,@DPTR
035D 900000      R     MOV     DPTR,#par_tek+01AH
0360         ?C0257:
0360 020000      R     LJMP    ?C0268
                                           ; SOURCE LINE # 382
0363         ?C0080:
0363 900000      R     MOV     DPTR,#tmp
0366 E0                MOVX    A,@DPTR
0367 FF                MOV     R7,A
0368 A3                INC     DPTR
0369 E0                MOVX    A,@DPTR
C51 COMPILER V9.53.0.0   TEMP                                                              12/15/2023 14:28:41 PAGE 69  

036A 900000      R     MOV     DPTR,#par_tek+01CH
036D         ?C0258:
036D 8076              SJMP    ?C0268
                                           ; SOURCE LINE # 383
036F         ?C0081:
036F 900000      R     MOV     DPTR,#tmp
0372 E0                MOVX    A,@DPTR
0373 FF                MOV     R7,A
0374 A3                INC     DPTR
0375 E0                MOVX    A,@DPTR
0376 900000      R     MOV     DPTR,#par_tek+04H
0379         ?C0259:
0379 806A              SJMP    ?C0268
                                           ; SOURCE LINE # 384
037B         ?C0082:
037B 900000      R     MOV     DPTR,#tmp
037E E0                MOVX    A,@DPTR
037F FF                MOV     R7,A
0380 A3                INC     DPTR
0381 E0                MOVX    A,@DPTR
0382 900000      R     MOV     DPTR,#par_tek+0AH
0385         ?C0260:
0385 805E              SJMP    ?C0268
                                           ; SOURCE LINE # 385
0387         ?C0083:
0387 900000      R     MOV     DPTR,#tmp
038A E0                MOVX    A,@DPTR
038B FF                MOV     R7,A
038C A3                INC     DPTR
038D E0                MOVX    A,@DPTR
038E 900000      R     MOV     DPTR,#par_tek+044H
0391         ?C0261:
0391 8052              SJMP    ?C0268
                                           ; SOURCE LINE # 386
0393         ?C0084:
0393 900000      R     MOV     DPTR,#tmp
0396 E0                MOVX    A,@DPTR
0397 FF                MOV     R7,A
0398 A3                INC     DPTR
0399 E0                MOVX    A,@DPTR
039A 900000      R     MOV     DPTR,#par_tek+0EH
039D         ?C0262:
039D 8046              SJMP    ?C0268
                                           ; SOURCE LINE # 387
039F         ?C0085:
039F 900000      R     MOV     DPTR,#tmp
03A2 E0                MOVX    A,@DPTR
03A3 FF                MOV     R7,A
03A4 A3                INC     DPTR
03A5 E0                MOVX    A,@DPTR
03A6 900000      R     MOV     DPTR,#par_tek+018H
03A9         ?C0263:
03A9 803A              SJMP    ?C0268
                                           ; SOURCE LINE # 388
03AB         ?C0086:
03AB 900000      R     MOV     DPTR,#tmp
03AE E0                MOVX    A,@DPTR
03AF FF                MOV     R7,A
03B0 A3                INC     DPTR
03B1 E0                MOVX    A,@DPTR
03B2 900000      R     MOV     DPTR,#par_tek+01EH
03B5         ?C0264:
C51 COMPILER V9.53.0.0   TEMP                                                              12/15/2023 14:28:41 PAGE 70  

03B5 802E              SJMP    ?C0268
                                           ; SOURCE LINE # 389
03B7         ?C0087:
03B7 900000      R     MOV     DPTR,#tmp
03BA E0                MOVX    A,@DPTR
03BB FF                MOV     R7,A
03BC A3                INC     DPTR
03BD E0                MOVX    A,@DPTR
03BE 900000      R     MOV     DPTR,#par_tek+012H
03C1         ?C0265:
03C1 8022              SJMP    ?C0268
                                           ; SOURCE LINE # 390
03C3         ?C0088:
03C3 900000      R     MOV     DPTR,#tmp
03C6 E0                MOVX    A,@DPTR
03C7 FF                MOV     R7,A
03C8 A3                INC     DPTR
03C9 E0                MOVX    A,@DPTR
03CA 900000      R     MOV     DPTR,#par_tek+014H
03CD         ?C0266:
03CD 8016              SJMP    ?C0268
                                           ; SOURCE LINE # 391
03CF         ?C0089:
03CF 900000      R     MOV     DPTR,#tmp
03D2 E0                MOVX    A,@DPTR
03D3 FF                MOV     R7,A
03D4 A3                INC     DPTR
03D5 E0                MOVX    A,@DPTR
03D6 900000      R     MOV     DPTR,#par_tek+0CH
03D9         ?C0267:
03D9 800A              SJMP    ?C0268
                                           ; SOURCE LINE # 392
03DB         ?C0090:
03DB 900000      R     MOV     DPTR,#tmp
03DE E0                MOVX    A,@DPTR
03DF FF                MOV     R7,A
03E0 A3                INC     DPTR
03E1 E0                MOVX    A,@DPTR
03E2 900000      R     MOV     DPTR,#par_tek+010H
03E5         ?C0268:
03E5 CF                XCH     A,R7
03E6 F0                MOVX    @DPTR,A
03E7 A3                INC     DPTR
03E8 EF                MOV     A,R7
03E9 F0                MOVX    @DPTR,A
                                           ; SOURCE LINE # 393
03EA         ?C0074:
                                           ; SOURCE LINE # 394
03EA 900000      R     MOV     DPTR,#par_id
03ED E0                MOVX    A,@DPTR
03EE FE                MOV     R6,A
03EF A3                INC     DPTR
03F0 E0                MOVX    A,@DPTR
03F1 FF                MOV     R7,A
03F2 020000      R     LJMP    _display_par
                                           ; SOURCE LINE # 395
                                           ; SOURCE LINE # 397
                                           ; SOURCE LINE # 398
                                           ; SOURCE LINE # 399
                                           ; SOURCE LINE # 400
                                           ; SOURCE LINE # 401
                                           ; SOURCE LINE # 402
C51 COMPILER V9.53.0.0   TEMP                                                              12/15/2023 14:28:41 PAGE 71  

                                           ; SOURCE LINE # 403
                                           ; SOURCE LINE # 404
                                           ; SOURCE LINE # 405
03F5         ?C0099:
                                           ; SOURCE LINE # 412
03F5 900000      R     MOV     DPTR,#par_tek
03F8 E0                MOVX    A,@DPTR
03F9 FF                MOV     R7,A
03FA A3                INC     DPTR
03FB E0                MOVX    A,@DPTR
03FC 900000      R     MOV     DPTR,#tmp
03FF CF                XCH     A,R7
0400 F0                MOVX    @DPTR,A
0401 A3                INC     DPTR
0402 EF                MOV     A,R7
0403 F0                MOVX    @DPTR,A
                                           ; SOURCE LINE # 413
0404 900000      R     MOV     DPTR,#par_id
0407 E0                MOVX    A,@DPTR
0408 FE                MOV     R6,A
0409 A3                INC     DPTR
040A E0                MOVX    A,@DPTR
040B FF                MOV     R7,A
040C EE                MOV     A,R6
040D 6003              JZ      $ + 5H
040F 020000      R     LJMP    ?C0100
0412 EF                MOV     A,R7
0413 B40E00            CJNE    A,#0EH,?C0245
0416         ?C0245:
0416 4003              JC      $ + 5H
0418 020000      R     LJMP    ?C0100
041B 900000      R     MOV     DPTR,#?C0246
041E F8                MOV     R0,A
041F 28                ADD     A,R0
0420 28                ADD     A,R0
0421 73                JMP     @A+DPTR
0422         ?C0246:
0422 020000      R     LJMP    ?C0107
0425 020000      R     LJMP    ?C0108
0428 020000      R     LJMP    ?C0105
042B 020000      R     LJMP    ?C0106
042E 020000      R     LJMP    ?C0103
0431 020000      R     LJMP    ?C0104
0434 020000      R     LJMP    ?C0100
0437 020000      R     LJMP    ?C0100
043A 020000      R     LJMP    ?C0100
043D 020000      R     LJMP    ?C0109
0440 020000      R     LJMP    ?C0100
0443 020000      R     LJMP    ?C0100
0446 020000      R     LJMP    ?C0102
0449 020000      R     LJMP    ?C0101
                                           ; SOURCE LINE # 414
                                           ; SOURCE LINE # 415
044C         ?C0101:
044C 900000      R     MOV     DPTR,#tmp
044F E0                MOVX    A,@DPTR
0450 F0                MOVX    @DPTR,A
0451 A3                INC     DPTR
0452 E0                MOVX    A,@DPTR
0453 540F              ANL     A,#0FH
0455 F0                MOVX    @DPTR,A
0456 020000      R     LJMP    ?C0100
C51 COMPILER V9.53.0.0   TEMP                                                              12/15/2023 14:28:41 PAGE 72  

                                           ; SOURCE LINE # 416
0459         ?C0102:
0459 900000      R     MOV     DPTR,#tmp
045C E0                MOVX    A,@DPTR
045D FE                MOV     R6,A
045E A3                INC     DPTR
045F E0                MOVX    A,@DPTR
0460 540F              ANL     A,#0FH
0462 4410              ORL     A,#010H
0464 FF                MOV     R7,A
0465 900000      R     MOV     DPTR,#tmp
0468 EE                MOV     A,R6
0469 020000      R     LJMP    ?C0272
                                           ; SOURCE LINE # 418
046C         ?C0103:
046C 900000      R     MOV     DPTR,#tmp
046F E0                MOVX    A,@DPTR
0470 54F0              ANL     A,#0F0H
0472 F0                MOVX    @DPTR,A
0473 A3                INC     DPTR
0474 E0                MOVX    A,@DPTR
0475 F0                MOVX    @DPTR,A
0476 900000      R     MOV     DPTR,#par_tek+028H
0479 E4                CLR     A
047A F0                MOVX    @DPTR,A
047B A3                INC     DPTR
047C 04                INC     A
047D F0                MOVX    @DPTR,A
047E 900000      R     MOV     DPTR,#par_tek+02FH
0481 E0                MOVX    A,@DPTR
0482 54FD              ANL     A,#0FDH
0484 F0                MOVX    @DPTR,A
0485 8072              SJMP    ?C0100
                                           ; SOURCE LINE # 419
0487         ?C0104:
0487 900000      R     MOV     DPTR,#tmp
048A E0                MOVX    A,@DPTR
048B 54F0              ANL     A,#0F0H
048D F0                MOVX    @DPTR,A
048E A3                INC     DPTR
048F E0                MOVX    A,@DPTR
0490 F0                MOVX    @DPTR,A
0491 900000      R     MOV     DPTR,#par_tek+028H
0494 E4                CLR     A
0495 F0                MOVX    @DPTR,A
0496 A3                INC     DPTR
0497 7402              MOV     A,#02H
0499 F0                MOVX    @DPTR,A
049A 900000      R     MOV     DPTR,#par_tek+02FH
049D E0                MOVX    A,@DPTR
049E 4402              ORL     A,#02H
04A0 F0                MOVX    @DPTR,A
04A1 8056              SJMP    ?C0100
                                           ; SOURCE LINE # 420
04A3         ?C0105:
04A3 900000      R     MOV     DPTR,#tmp
04A6 E0                MOVX    A,@DPTR
04A7 54F0              ANL     A,#0F0H
04A9 FE                MOV     R6,A
04AA A3                INC     DPTR
04AB E0                MOVX    A,@DPTR
04AC FF                MOV     R7,A
C51 COMPILER V9.53.0.0   TEMP                                                              12/15/2023 14:28:41 PAGE 73  

04AD EE                MOV     A,R6
04AE 4401              ORL     A,#01H
04B0 900000      R     MOV     DPTR,#tmp
04B3         ?C0269:
04B3 8040              SJMP    ?C0272
                                           ; SOURCE LINE # 421
04B5         ?C0106:
04B5 900000      R     MOV     DPTR,#tmp
04B8 E0                MOVX    A,@DPTR
04B9 54F0              ANL     A,#0F0H
04BB FE                MOV     R6,A
04BC A3                INC     DPTR
04BD E0                MOVX    A,@DPTR
04BE FF                MOV     R7,A
04BF EE                MOV     A,R6
04C0 4402              ORL     A,#02H
04C2 900000      R     MOV     DPTR,#tmp
04C5         ?C0270:
04C5 802E              SJMP    ?C0272
                                           ; SOURCE LINE # 423
04C7         ?C0107:
04C7 900000      R     MOV     DPTR,#tmp
04CA E0                MOVX    A,@DPTR
04CB 540F              ANL     A,#0FH
04CD F0                MOVX    @DPTR,A
04CE A3                INC     DPTR
04CF E0                MOVX    A,@DPTR
04D0 F0                MOVX    @DPTR,A
04D1 8026              SJMP    ?C0100
                                           ; SOURCE LINE # 424
04D3         ?C0108:
04D3 900000      R     MOV     DPTR,#tmp
04D6 E0                MOVX    A,@DPTR
04D7 540F              ANL     A,#0FH
04D9 FE                MOV     R6,A
04DA A3                INC     DPTR
04DB E0                MOVX    A,@DPTR
04DC FF                MOV     R7,A
04DD EE                MOV     A,R6
04DE 4410              ORL     A,#010H
04E0 900000      R     MOV     DPTR,#tmp
04E3         ?C0271:
04E3 8010              SJMP    ?C0272
                                           ; SOURCE LINE # 425
04E5         ?C0109:
04E5 900000      R     MOV     DPTR,#tmp
04E8 E0                MOVX    A,@DPTR
04E9 540F              ANL     A,#0FH
04EB FE                MOV     R6,A
04EC A3                INC     DPTR
04ED E0                MOVX    A,@DPTR
04EE FF                MOV     R7,A
04EF EE                MOV     A,R6
04F0 4420              ORL     A,#020H
04F2 900000      R     MOV     DPTR,#tmp
04F5         ?C0272:
04F5 F0                MOVX    @DPTR,A
04F6 A3                INC     DPTR
04F7 EF                MOV     A,R7
04F8 F0                MOVX    @DPTR,A
                                           ; SOURCE LINE # 426
04F9         ?C0100:
C51 COMPILER V9.53.0.0   TEMP                                                              12/15/2023 14:28:41 PAGE 74  

                                           ; SOURCE LINE # 427
04F9 900000      R     MOV     DPTR,#tmp
04FC E0                MOVX    A,@DPTR
04FD FF                MOV     R7,A
04FE A3                INC     DPTR
04FF E0                MOVX    A,@DPTR
0500 900000      R     MOV     DPTR,#par_tek
0503 CF                XCH     A,R7
0504 F0                MOVX    @DPTR,A
0505 A3                INC     DPTR
0506 EF                MOV     A,R7
0507 F0                MOVX    @DPTR,A
                                           ; SOURCE LINE # 428
0508 22                RET     
                                           ; SOURCE LINE # 430
0509         ?C0110:
0509 900000      R     MOV     DPTR,#par_tek+022H
050C E4                CLR     A
050D F0                MOVX    @DPTR,A
050E A3                INC     DPTR
050F 04                INC     A
0510 F0                MOVX    @DPTR,A
0511 900000      R     MOV     DPTR,#par_tek+046H
0514 E4                CLR     A
0515 F0                MOVX    @DPTR,A
0516 A3                INC     DPTR
0517 04                INC     A
0518 F0                MOVX    @DPTR,A
0519 900000      R     MOV     DPTR,#par_tek+02FH
051C E0                MOVX    A,@DPTR
051D 54FB              ANL     A,#0FBH
051F F0                MOVX    @DPTR,A
0520 22                RET     
                                           ; SOURCE LINE # 431
0521         ?C0111:
0521 900000      R     MOV     DPTR,#par_tek+022H
0524 E4                CLR     A
0525 F0                MOVX    @DPTR,A
0526 A3                INC     DPTR
0527 7402              MOV     A,#02H
0529 F0                MOVX    @DPTR,A
052A 900000      R     MOV     DPTR,#par_tek+046H
052D E4                CLR     A
052E F0                MOVX    @DPTR,A
052F A3                INC     DPTR
0530 04                INC     A
0531 F0                MOVX    @DPTR,A
0532 900000      R     MOV     DPTR,#par_tek+02FH
0535 E0                MOVX    A,@DPTR
0536 4404              ORL     A,#04H
0538 F0                MOVX    @DPTR,A
0539 54F7              ANL     A,#0F7H
053B F0                MOVX    @DPTR,A
053C 22                RET     
                                           ; SOURCE LINE # 432
053D         ?C0112:
053D 900000      R     MOV     DPTR,#par_tek+022H
0540 E4                CLR     A
0541 F0                MOVX    @DPTR,A
0542 A3                INC     DPTR
0543 7402              MOV     A,#02H
0545 F0                MOVX    @DPTR,A
C51 COMPILER V9.53.0.0   TEMP                                                              12/15/2023 14:28:41 PAGE 75  

0546 900000      R     MOV     DPTR,#par_tek+046H
0549 E4                CLR     A
054A F0                MOVX    @DPTR,A
054B A3                INC     DPTR
054C 7402              MOV     A,#02H
054E F0                MOVX    @DPTR,A
054F 900000      R     MOV     DPTR,#par_tek+02FH
0552 E0                MOVX    A,@DPTR
0553 4408              ORL     A,#08H
0555 F0                MOVX    @DPTR,A
0556 22                RET     
                                           ; SOURCE LINE # 435
0557         ?C0113:
0557 900000      R     MOV     DPTR,#par_tek+024H
055A E4                CLR     A
055B F0                MOVX    @DPTR,A
055C A3                INC     DPTR
055D 04                INC     A
055E F0                MOVX    @DPTR,A
055F 900000      R     MOV     DPTR,#par_tek+02FH
0562 E0                MOVX    A,@DPTR
0563 54FE              ANL     A,#0FEH
0565 F0                MOVX    @DPTR,A
0566 22                RET     
                                           ; SOURCE LINE # 436
0567         ?C0114:
0567 900000      R     MOV     DPTR,#par_tek+024H
056A E4                CLR     A
056B F0                MOVX    @DPTR,A
056C A3                INC     DPTR
056D 7402              MOV     A,#02H
056F F0                MOVX    @DPTR,A
0570 900000      R     MOV     DPTR,#par_tek+02FH
0573 E0                MOVX    A,@DPTR
0574 4401              ORL     A,#01H
0576 F0                MOVX    @DPTR,A
0577 22                RET     
                                           ; SOURCE LINE # 438
0578         ?C0115:
0578 900000      R     MOV     DPTR,#par_tek+026H
057B E4                CLR     A
057C F0                MOVX    @DPTR,A
057D A3                INC     DPTR
057E 04                INC     A
057F F0                MOVX    @DPTR,A
0580 900000      R     MOV     DPTR,#par_tek+02FH
0583 E0                MOVX    A,@DPTR
0584 54EF              ANL     A,#0EFH
0586 F0                MOVX    @DPTR,A
0587 22                RET     
                                           ; SOURCE LINE # 439
0588         ?C0116:
0588 900000      R     MOV     DPTR,#par_tek+026H
058B E4                CLR     A
058C F0                MOVX    @DPTR,A
058D A3                INC     DPTR
058E 7402              MOV     A,#02H
0590 F0                MOVX    @DPTR,A
0591 900000      R     MOV     DPTR,#par_tek+02FH
0594 E0                MOVX    A,@DPTR
0595 4410              ORL     A,#010H
0597 F0                MOVX    @DPTR,A
C51 COMPILER V9.53.0.0   TEMP                                                              12/15/2023 14:28:41 PAGE 76  

0598 22                RET     
                                           ; SOURCE LINE # 441
0599         ?C0117:
0599 900000      R     MOV     DPTR,#par_tek+02AH
059C 8026              SJMP    ?C0273
                                           ; SOURCE LINE # 442
059E         ?C0118:
059E 900000      R     MOV     DPTR,#par_tek+02AH
05A1 802A              SJMP    ?C0274
                                           ; SOURCE LINE # 443
05A3         ?C0119:
05A3 900000      R     MOV     DPTR,#par_tek+02AH
05A6 802F              SJMP    ?C0275
                                           ; SOURCE LINE # 444
05A8         ?C0120:
05A8 900000      R     MOV     DPTR,#par_tek+02AH
05AB 8034              SJMP    ?C0276
                                           ; SOURCE LINE # 445
05AD         ?C0121:
05AD 900000      R     MOV     DPTR,#par_tek+02AH
05B0 E4                CLR     A
05B1 F0                MOVX    @DPTR,A
05B2 A3                INC     DPTR
05B3 7405              MOV     A,#05H
05B5 F0                MOVX    @DPTR,A
05B6 22                RET     
                                           ; SOURCE LINE # 446
05B7         ?C0122:
05B7 900000      R     MOV     DPTR,#par_tek+02AH
05BA E4                CLR     A
05BB F0                MOVX    @DPTR,A
05BC A3                INC     DPTR
05BD 7406              MOV     A,#06H
05BF F0                MOVX    @DPTR,A
05C0 22                RET     
                                           ; SOURCE LINE # 448
05C1         ?C0123:
05C1 900000      R     MOV     DPTR,#par_tek+02CH
05C4         ?C0273:
05C4 E4                CLR     A
05C5 F0                MOVX    @DPTR,A
05C6 A3                INC     DPTR
05C7 04                INC     A
05C8 F0                MOVX    @DPTR,A
05C9 22                RET     
                                           ; SOURCE LINE # 449
05CA         ?C0124:
05CA 900000      R     MOV     DPTR,#par_tek+02CH
05CD         ?C0274:
05CD E4                CLR     A
05CE F0                MOVX    @DPTR,A
05CF A3                INC     DPTR
05D0 7402              MOV     A,#02H
05D2 F0                MOVX    @DPTR,A
05D3 22                RET     
                                           ; SOURCE LINE # 450
05D4         ?C0125:
05D4 900000      R     MOV     DPTR,#par_tek+02CH
05D7         ?C0275:
05D7 E4                CLR     A
05D8 F0                MOVX    @DPTR,A
05D9 A3                INC     DPTR
C51 COMPILER V9.53.0.0   TEMP                                                              12/15/2023 14:28:41 PAGE 77  

05DA 7403              MOV     A,#03H
05DC F0                MOVX    @DPTR,A
05DD 22                RET     
                                           ; SOURCE LINE # 451
05DE         ?C0126:
05DE 900000      R     MOV     DPTR,#par_tek+02CH
05E1         ?C0276:
05E1 E4                CLR     A
05E2 F0                MOVX    @DPTR,A
05E3 A3                INC     DPTR
05E4 7404              MOV     A,#04H
05E6 F0                MOVX    @DPTR,A
                                           ; SOURCE LINE # 452
                                           ; SOURCE LINE # 453
                                           ; SOURCE LINE # 454
05E7         ?C0128:
05E7 22                RET     
             ; FUNCTION _cur_par_value_change (END)

             ; FUNCTION _Encoder_process_code (BEGIN)
                                           ; SOURCE LINE # 459
;---- Variable 'state' assigned to Register 'R5' ----
0000 AD07              MOV     R5,AR7
                                           ; SOURCE LINE # 460
                                           ; SOURCE LINE # 462
0002 900000      R     MOV     DPTR,#cur_par_id
0005 E0                MOVX    A,@DPTR
0006 FE                MOV     R6,A
0007 A3                INC     DPTR
0008 E0                MOVX    A,@DPTR
0009 FF                MOV     R7,A
000A ED                MOV     A,R5
000B 900000      R     MOV     DPTR,#shifts
000E 93                MOVC    A,@A+DPTR
000F FD                MOV     R5,A
0010 020000      R     LJMP    _cur_par_value_change
             ; FUNCTION _Encoder_process_code (END)

             ; FUNCTION _par_select (BEGIN)
                                           ; SOURCE LINE # 468
0000 900000      R     MOV     DPTR,#par_id
0003 EF                MOV     A,R7
0004 F0                MOVX    @DPTR,A
                                           ; SOURCE LINE # 469
                                           ; SOURCE LINE # 470
                                           ; SOURCE LINE # 476
0005 25E0              ADD     A,ACC
0007 2400        R     ADD     A,#LOW text_sp
0009 F582              MOV     DPL,A
000B E4                CLR     A
000C 3400        R     ADDC    A,#HIGH text_sp
000E F583              MOV     DPH,A
0010 E0                MOVX    A,@DPTR
0011 FE                MOV     R6,A
0012 A3                INC     DPTR
0013 E0                MOVX    A,@DPTR
0014 FF                MOV     R7,A
0015 7B01              MOV     R3,#01H
0017 7A00        R     MOV     R2,#HIGH r
0019 7900        R     MOV     R1,#LOW r
001B 120000      E     LCALL   _Draw_text_get_pos
                                           ; SOURCE LINE # 477
C51 COMPILER V9.53.0.0   TEMP                                                              12/15/2023 14:28:41 PAGE 78  

001E 900000      R     MOV     DPTR,#r
0021 E0                MOVX    A,@DPTR
0022 FC                MOV     R4,A
0023 A3                INC     DPTR
0024 E0                MOVX    A,@DPTR
0025 FD                MOV     R5,A
0026 900000      R     MOV     DPTR,#r+04H
0029 E0                MOVX    A,@DPTR
002A FB                MOV     R3,A
002B A3                INC     DPTR
002C E0                MOVX    A,@DPTR
002D 900000      E     MOV     DPTR,#?_Draw_filled_rect_redraw?BYTE+06H
0030 CB                XCH     A,R3
0031 F0                MOVX    @DPTR,A
0032 A3                INC     DPTR
0033 EB                MOV     A,R3
0034 F0                MOVX    @DPTR,A
0035 900000      R     MOV     DPTR,#ICON_RECT_SZ
0038 E4                CLR     A
0039 93                MOVC    A,@A+DPTR
003A FA                MOV     R2,A
003B 7401              MOV     A,#01H
003D 93                MOVC    A,@A+DPTR
003E FB                MOV     R3,A
003F 900000      R     MOV     DPTR,#SCREEN_HEIGHT
0042 E4                CLR     A
0043 93                MOVC    A,@A+DPTR
0044 F8                MOV     R0,A
0045 7401              MOV     A,#01H
0047 93                MOVC    A,@A+DPTR
0048 C3                CLR     C
0049 9B                SUBB    A,R3
004A FE                MOV     R6,A
004B E8                MOV     A,R0
004C 9A                SUBB    A,R2
004D 900000      E     MOV     DPTR,#?_Draw_filled_rect_redraw?BYTE+08H
0050 F0                MOVX    @DPTR,A
0051 A3                INC     DPTR
0052 CE                XCH     A,R6
0053 F0                MOVX    @DPTR,A
0054 A3                INC     DPTR
0055 7452              MOV     A,#052H
0057 F0                MOVX    @DPTR,A
0058 A3                INC     DPTR
0059 748A              MOV     A,#08AH
005B F0                MOVX    @DPTR,A
005C 900000      R     MOV     DPTR,#Filled_rect_under_par_sp
005F E0                MOVX    A,@DPTR
0060 FE                MOV     R6,A
0061 A3                INC     DPTR
0062 E0                MOVX    A,@DPTR
0063 FF                MOV     R7,A
0064 7BDC              MOV     R3,#0DCH
0066 7A00              MOV     R2,#00H
0068 120000      E     LCALL   _Draw_filled_rect_redraw
                                           ; SOURCE LINE # 478
                                           ; SOURCE LINE # 479
006B 900000      R     MOV     DPTR,#par_id
006E E0                MOVX    A,@DPTR
006F FF                MOV     R7,A
0070 7E00              MOV     R6,#00H
0072 120000      R     LCALL   _display_par
C51 COMPILER V9.53.0.0   TEMP                                                              12/15/2023 14:28:41 PAGE 79  

                                           ; SOURCE LINE # 480
0075 900000      R     MOV     DPTR,#par_id
0078 E0                MOVX    A,@DPTR
0079 25E0              ADD     A,ACC
007B 2400        R     ADD     A,#LOW text_sp
007D F582              MOV     DPL,A
007F E4                CLR     A
0080 3400        R     ADDC    A,#HIGH text_sp
0082 F583              MOV     DPH,A
0084 E0                MOVX    A,@DPTR
0085 FE                MOV     R6,A
0086 A3                INC     DPTR
0087 E0                MOVX    A,@DPTR
0088 FF                MOV     R7,A
0089 7D1F              MOV     R5,#01FH
008B 7CF8              MOV     R4,#0F8H
008D 120000      E     LCALL   _Draw_text_set_color
                                           ; SOURCE LINE # 481
0090 900000      R     MOV     DPTR,#par_id
0093 E0                MOVX    A,@DPTR
0094 FD                MOV     R5,A
0095 900000      R     MOV     DPTR,#cur_par_id
0098 E0                MOVX    A,@DPTR
0099 FE                MOV     R6,A
009A A3                INC     DPTR
009B E0                MOVX    A,@DPTR
009C FF                MOV     R7,A
009D 6D                XRL     A,R5
009E 7001              JNZ     ?C0247
00A0 EE                MOV     A,R6
00A1         ?C0247:
00A1 6026              JZ      ?C0131
00A3         ?C0130:
                                           ; SOURCE LINE # 482
00A3 120000      R     LCALL   _display_par
                                           ; SOURCE LINE # 483
00A6 900000      R     MOV     DPTR,#cur_par_id
00A9 A3                INC     DPTR
00AA E0                MOVX    A,@DPTR
00AB FF                MOV     R7,A
;---- Variable 'old_par_id' assigned to Register 'R7' ----
                                           ; SOURCE LINE # 484
00AC 900000      R     MOV     DPTR,#par_id
00AF E0                MOVX    A,@DPTR
00B0 FD                MOV     R5,A
00B1 900000      R     MOV     DPTR,#cur_par_id
00B4 E4                CLR     A
00B5 F0                MOVX    @DPTR,A
00B6 A3                INC     DPTR
00B7 ED                MOV     A,R5
00B8 F0                MOVX    @DPTR,A
                                           ; SOURCE LINE # 485
00B9 7E00              MOV     R6,#00H
00BB 120000      R     LCALL   _display_par
                                           ; SOURCE LINE # 486
00BE 900000      R     MOV     DPTR,#cur_par_id
00C1 E0                MOVX    A,@DPTR
00C2 FE                MOV     R6,A
00C3 A3                INC     DPTR
00C4 E0                MOVX    A,@DPTR
00C5 FF                MOV     R7,A
00C6 120000      R     LCALL   _display_par
C51 COMPILER V9.53.0.0   TEMP                                                              12/15/2023 14:28:41 PAGE 80  

                                           ; SOURCE LINE # 487
00C9         ?C0131:
00C9 22                RET     
             ; FUNCTION _par_select (END)

             ; FUNCTION init_par_udgu (BEGIN)
                                           ; SOURCE LINE # 495
                                           ; SOURCE LINE # 496
                                           ; SOURCE LINE # 497
0000 7B01              MOV     R3,#01H
0002 7A00        R     MOV     R2,#HIGH par_lim+068H
0004 7900        R     MOV     R1,#LOW par_lim+068H
0006 900000      R     MOV     DPTR,#?_make_lim?BYTE+05H
0009 E4                CLR     A
000A F0                MOVX    @DPTR,A
000B A3                INC     DPTR
000C 7464              MOV     A,#064H
000E F0                MOVX    @DPTR,A
000F 7D01              MOV     R5,#01H
0011 7C00              MOV     R4,#00H
0013 120000      R     LCALL   _make_lim
                                           ; SOURCE LINE # 498
0016 7A00        R     MOV     R2,#HIGH par_lim+06CH
0018 7900        R     MOV     R1,#LOW par_lim+06CH
001A 120000      R     LCALL   L?0281
                                           ; SOURCE LINE # 499
001D 7A00        R     MOV     R2,#HIGH par_lim+070H
001F 7900        R     MOV     R1,#LOW par_lim+070H
0021 900000      R     MOV     DPTR,#?_make_lim?BYTE+05H
0024 E4                CLR     A
0025 F0                MOVX    @DPTR,A
0026 A3                INC     DPTR
0027 7464              MOV     A,#064H
0029 F0                MOVX    @DPTR,A
002A 7D01              MOV     R5,#01H
002C 120000      R     LCALL   _make_lim
                                           ; SOURCE LINE # 500
002F 7A00        R     MOV     R2,#HIGH par_lim+074H
0031 7900        R     MOV     R1,#LOW par_lim+074H
0033 900000      R     MOV     DPTR,#?_make_lim?BYTE+05H
0036 E4                CLR     A
0037 F0                MOVX    @DPTR,A
0038 A3                INC     DPTR
0039 7464              MOV     A,#064H
003B F0                MOVX    @DPTR,A
003C 120000      R     LCALL   _make_lim
                                           ; SOURCE LINE # 501
003F 7A00        R     MOV     R2,#HIGH par_lim+078H
0041 7900        R     MOV     R1,#LOW par_lim+078H
0043 120000      R     LCALL   L?0281
                                           ; SOURCE LINE # 502
0046 7A00        R     MOV     R2,#HIGH par_lim+07CH
0048 7900        R     MOV     R1,#LOW par_lim+07CH
004A 900000      R     MOV     DPTR,#?_make_lim?BYTE+05H
004D 7427              MOV     A,#027H
004F F0                MOVX    @DPTR,A
0050 A3                INC     DPTR
0051 7410              MOV     A,#010H
0053 F0                MOVX    @DPTR,A
0054 7D01              MOV     R5,#01H
0056 120000      R     LCALL   _make_lim
                                           ; SOURCE LINE # 503
C51 COMPILER V9.53.0.0   TEMP                                                              12/15/2023 14:28:41 PAGE 81  

0059 7A00        R     MOV     R2,#HIGH par_lim+080H
005B 7900        R     MOV     R1,#LOW par_lim+080H
005D 120000      R     LCALL   L?0282
                                           ; SOURCE LINE # 504
0060 7A00        R     MOV     R2,#HIGH par_lim+084H
0062 7900        R     MOV     R1,#LOW par_lim+084H
0064 900000      R     MOV     DPTR,#?_make_lim?BYTE+05H
0067 7427              MOV     A,#027H
0069 F0                MOVX    @DPTR,A
006A A3                INC     DPTR
006B 7410              MOV     A,#010H
006D F0                MOVX    @DPTR,A
006E 7D01              MOV     R5,#01H
0070 120000      R     LCALL   _make_lim
                                           ; SOURCE LINE # 505
0073 7A00        R     MOV     R2,#HIGH par_lim+088H
0075 7900        R     MOV     R1,#LOW par_lim+088H
0077 900000      R     MOV     DPTR,#?_make_lim?BYTE+05H
007A E4                CLR     A
007B F0                MOVX    @DPTR,A
007C A3                INC     DPTR
007D 74C8              MOV     A,#0C8H
007F F0                MOVX    @DPTR,A
0080 7D14              MOV     R5,#014H
0082 120000      R     LCALL   _make_lim
                                           ; SOURCE LINE # 506
0085 7A00        R     MOV     R2,#HIGH par_lim+08CH
0087 7900        R     MOV     R1,#LOW par_lim+08CH
0089 900000      R     MOV     DPTR,#?_make_lim?BYTE+05H
008C E4                CLR     A
008D F0                MOVX    @DPTR,A
008E A3                INC     DPTR
008F 7450              MOV     A,#050H
0091 F0                MOVX    @DPTR,A
0092 7D1E              MOV     R5,#01EH
0094 120000      R     LCALL   _make_lim
                                           ; SOURCE LINE # 507
0097 7A00        R     MOV     R2,#HIGH par_lim+090H
0099 7900        R     MOV     R1,#LOW par_lim+090H
009B 900000      R     MOV     DPTR,#?_make_lim?BYTE+05H
009E E4                CLR     A
009F F0                MOVX    @DPTR,A
00A0 A3                INC     DPTR
00A1 7464              MOV     A,#064H
00A3 F0                MOVX    @DPTR,A
00A4 7D01              MOV     R5,#01H
00A6 120000      R     LCALL   _make_lim
                                           ; SOURCE LINE # 508
00A9 7A00        R     MOV     R2,#HIGH par_lim+094H
00AB 7900        R     MOV     R1,#LOW par_lim+094H
00AD 120000      R     LCALL   L?0282
                                           ; SOURCE LINE # 509
00B0 7A00        R     MOV     R2,#HIGH par_lim+098H
00B2 7900        R     MOV     R1,#LOW par_lim+098H
00B4 900000      R     MOV     DPTR,#?_make_lim?BYTE+05H
00B7 E4                CLR     A
00B8 F0                MOVX    @DPTR,A
00B9 A3                INC     DPTR
00BA 7464              MOV     A,#064H
00BC F0                MOVX    @DPTR,A
00BD 7D01              MOV     R5,#01H
00BF 120000      R     LCALL   _make_lim
C51 COMPILER V9.53.0.0   TEMP                                                              12/15/2023 14:28:41 PAGE 82  

                                           ; SOURCE LINE # 510
00C2 7A00        R     MOV     R2,#HIGH par_lim+09CH
00C4 7900        R     MOV     R1,#LOW par_lim+09CH
00C6 900000      R     MOV     DPTR,#?_make_lim?BYTE+05H
00C9 E4                CLR     A
00CA F0                MOVX    @DPTR,A
00CB A3                INC     DPTR
00CC 743C              MOV     A,#03CH
00CE F0                MOVX    @DPTR,A
00CF 120000      R     LCALL   _make_lim
                                           ; SOURCE LINE # 511
00D2 7A00        R     MOV     R2,#HIGH par_lim+0A0H
00D4 7900        R     MOV     R1,#LOW par_lim+0A0H
00D6 900000      R     MOV     DPTR,#?_make_lim?BYTE+05H
00D9 E4                CLR     A
00DA F0                MOVX    @DPTR,A
00DB A3                INC     DPTR
00DC 7464              MOV     A,#064H
00DE F0                MOVX    @DPTR,A
00DF 1D                DEC     R5
00E0 120000      R     LCALL   _make_lim
                                           ; SOURCE LINE # 512
00E3 7A00        R     MOV     R2,#HIGH par_lim+0A4H
00E5 7900        R     MOV     R1,#LOW par_lim+0A4H
00E7 120000      R     LCALL   L?0282
                                           ; SOURCE LINE # 514
00EA 900000      R     MOV     DPTR,#par_step+034H
00ED E4                CLR     A
00EE F0                MOVX    @DPTR,A
00EF A3                INC     DPTR
00F0 04                INC     A
00F1 F0                MOVX    @DPTR,A
                                           ; SOURCE LINE # 515
00F2 A3                INC     DPTR
00F3 E4                CLR     A
00F4 F0                MOVX    @DPTR,A
00F5 A3                INC     DPTR
00F6 04                INC     A
00F7 F0                MOVX    @DPTR,A
                                           ; SOURCE LINE # 516
00F8 A3                INC     DPTR
00F9 E4                CLR     A
00FA F0                MOVX    @DPTR,A
00FB A3                INC     DPTR
00FC 04                INC     A
00FD F0                MOVX    @DPTR,A
                                           ; SOURCE LINE # 517
00FE A3                INC     DPTR
00FF E4                CLR     A
0100 F0                MOVX    @DPTR,A
0101 A3                INC     DPTR
0102 04                INC     A
0103 F0                MOVX    @DPTR,A
                                           ; SOURCE LINE # 518
0104 A3                INC     DPTR
0105 E4                CLR     A
0106 F0                MOVX    @DPTR,A
0107 A3                INC     DPTR
0108 04                INC     A
0109 F0                MOVX    @DPTR,A
                                           ; SOURCE LINE # 519
010A A3                INC     DPTR
C51 COMPILER V9.53.0.0   TEMP                                                              12/15/2023 14:28:41 PAGE 83  

010B E4                CLR     A
010C F0                MOVX    @DPTR,A
010D A3                INC     DPTR
010E 04                INC     A
010F F0                MOVX    @DPTR,A
                                           ; SOURCE LINE # 520
0110 A3                INC     DPTR
0111 E4                CLR     A
0112 F0                MOVX    @DPTR,A
0113 A3                INC     DPTR
0114 04                INC     A
0115 F0                MOVX    @DPTR,A
                                           ; SOURCE LINE # 521
0116 A3                INC     DPTR
0117 E4                CLR     A
0118 F0                MOVX    @DPTR,A
0119 A3                INC     DPTR
011A 04                INC     A
011B F0                MOVX    @DPTR,A
                                           ; SOURCE LINE # 522
011C A3                INC     DPTR
011D E4                CLR     A
011E F0                MOVX    @DPTR,A
011F A3                INC     DPTR
0120 04                INC     A
0121 F0                MOVX    @DPTR,A
                                           ; SOURCE LINE # 523
0122 A3                INC     DPTR
0123 E4                CLR     A
0124 F0                MOVX    @DPTR,A
0125 A3                INC     DPTR
0126 04                INC     A
0127 F0                MOVX    @DPTR,A
                                           ; SOURCE LINE # 524
0128 A3                INC     DPTR
0129 E4                CLR     A
012A F0                MOVX    @DPTR,A
012B A3                INC     DPTR
012C 04                INC     A
012D F0                MOVX    @DPTR,A
                                           ; SOURCE LINE # 525
012E A3                INC     DPTR
012F E4                CLR     A
0130 F0                MOVX    @DPTR,A
0131 A3                INC     DPTR
0132 04                INC     A
0133 F0                MOVX    @DPTR,A
                                           ; SOURCE LINE # 526
0134 A3                INC     DPTR
0135 E4                CLR     A
0136 F0                MOVX    @DPTR,A
0137 A3                INC     DPTR
0138 04                INC     A
0139 F0                MOVX    @DPTR,A
                                           ; SOURCE LINE # 527
013A A3                INC     DPTR
013B E4                CLR     A
013C F0                MOVX    @DPTR,A
013D A3                INC     DPTR
013E 04                INC     A
013F F0                MOVX    @DPTR,A
                                           ; SOURCE LINE # 528
C51 COMPILER V9.53.0.0   TEMP                                                              12/15/2023 14:28:41 PAGE 84  

0140 A3                INC     DPTR
0141 E4                CLR     A
0142 F0                MOVX    @DPTR,A
0143 A3                INC     DPTR
0144 04                INC     A
0145 F0                MOVX    @DPTR,A
                                           ; SOURCE LINE # 529
0146 A3                INC     DPTR
0147 E4                CLR     A
0148 F0                MOVX    @DPTR,A
0149 A3                INC     DPTR
014A 04                INC     A
014B F0                MOVX    @DPTR,A
                                           ; SOURCE LINE # 532
                                           ; SOURCE LINE # 536
014C 900000      R     MOV     DPTR,#p_tmp
014F F0                MOVX    @DPTR,A
0150 A3                INC     DPTR
0151 7400        R     MOV     A,#HIGH par
0153 F0                MOVX    @DPTR,A
0154 A3                INC     DPTR
0155 7400        R     MOV     A,#LOW par
0157 F0                MOVX    @DPTR,A
                                           ; SOURCE LINE # 537
0158 E4                CLR     A
0159 900000      R     MOV     DPTR,#i
015C F0                MOVX    @DPTR,A
015D         ?C0132:
                                           ; SOURCE LINE # 538
015D 900000      R     MOV     DPTR,#p_tmp
0160 E0                MOVX    A,@DPTR
0161 FB                MOV     R3,A
0162 A3                INC     DPTR
0163 E4                CLR     A
0164 75F002            MOV     B,#02H
0167 120000      E     LCALL   ?C?ILDIX
016A A9F0              MOV     R1,B
016C FA                MOV     R2,A
016D E4                CLR     A
016E F5F0              MOV     B,A
0170 120000      E     LCALL   ?C?ISTPTR
0173 900000      R     MOV     DPTR,#i
0176 E0                MOVX    A,@DPTR
0177 04                INC     A
0178 F0                MOVX    @DPTR,A
0179 E0                MOVX    A,@DPTR
017A B42BE0            CJNE    A,#02BH,?C0132
017D         ?C0133:
                                           ; SOURCE LINE # 540
017D 900000      R     MOV     DPTR,#p_tmp
0180 7401              MOV     A,#01H
0182 F0                MOVX    @DPTR,A
0183 A3                INC     DPTR
0184 7400        R     MOV     A,#HIGH par_tek
0186 F0                MOVX    @DPTR,A
0187 A3                INC     DPTR
0188 7400        R     MOV     A,#LOW par_tek
018A F0                MOVX    @DPTR,A
                                           ; SOURCE LINE # 541
018B E4                CLR     A
018C 900000      R     MOV     DPTR,#i
018F F0                MOVX    @DPTR,A
C51 COMPILER V9.53.0.0   TEMP                                                              12/15/2023 14:28:41 PAGE 85  

0190         ?C0135:
                                           ; SOURCE LINE # 542
0190 900000      R     MOV     DPTR,#p_tmp
0193 E0                MOVX    A,@DPTR
0194 FB                MOV     R3,A
0195 A3                INC     DPTR
0196 E4                CLR     A
0197 75F002            MOV     B,#02H
019A 120000      E     LCALL   ?C?ILDIX
019D A9F0              MOV     R1,B
019F FA                MOV     R2,A
01A0 E4                CLR     A
01A1 F5F0              MOV     B,A
01A3 120000      E     LCALL   ?C?ISTPTR
01A6 900000      R     MOV     DPTR,#i
01A9 E0                MOVX    A,@DPTR
01AA 04                INC     A
01AB F0                MOVX    @DPTR,A
01AC E0                MOVX    A,@DPTR
01AD B424E0            CJNE    A,#024H,?C0135
01B0         ?C0136:
                                           ; SOURCE LINE # 543
                                           ; SOURCE LINE # 557
01B0 7B01              MOV     R3,#01H
01B2 7A00        R     MOV     R2,#HIGH par
01B4 7900        R     MOV     R1,#LOW par
01B6 900000      E     MOV     DPTR,#?_Norflash_read?BYTE+07H
01B9 E4                CLR     A
01BA F0                MOVX    @DPTR,A
01BB A3                INC     DPTR
01BC 742B              MOV     A,#02BH
01BE F0                MOVX    @DPTR,A
01BF 7F00              MOV     R7,#00H
01C1 7E00              MOV     R6,#00H
01C3 7D00              MOV     R5,#00H
01C5 7C00              MOV     R4,#00H
01C7 120000      E     LCALL   _Norflash_read
                                           ; SOURCE LINE # 558
01CA E4                CLR     A
01CB 900000      R     MOV     DPTR,#cur_par_id
01CE F0                MOVX    @DPTR,A
01CF A3                INC     DPTR
01D0 F0                MOVX    @DPTR,A
                                           ; SOURCE LINE # 559
01D1 900000      R     MOV     DPTR,#par
01D4 E0                MOVX    A,@DPTR
01D5 B4A51A            CJNE    A,#0A5H,?C0138
01D8 A3                INC     DPTR
01D9 E0                MOVX    A,@DPTR
01DA B4A515            CJNE    A,#0A5H,?C0138
                                           ; SOURCE LINE # 560
01DD A3                INC     DPTR
01DE E0                MOVX    A,@DPTR
01DF FC                MOV     R4,A
01E0 A3                INC     DPTR
01E1 E0                MOVX    A,@DPTR
01E2 FD                MOV     R5,A
01E3 A3                INC     DPTR
01E4 E0                MOVX    A,@DPTR
01E5 FE                MOV     R6,A
01E6 A3                INC     DPTR
01E7 E0                MOVX    A,@DPTR
C51 COMPILER V9.53.0.0   TEMP                                                              12/15/2023 14:28:41 PAGE 86  

01E8 F500        R     MOV     main_menu_bm+03H,A
01EA 8E00        R     MOV     main_menu_bm+02H,R6
01EC 8D00        R     MOV     main_menu_bm+01H,R5
01EE 8C00        R     MOV     main_menu_bm,R4
                                           ; SOURCE LINE # 561
01F0 800C              SJMP    ?C0139
01F2         ?C0138:
                                           ; SOURCE LINE # 569
01F2 750085      R     MOV     main_menu_bm+03H,#085H
01F5 750014      R     MOV     main_menu_bm+02H,#014H
01F8 750014      R     MOV     main_menu_bm+01H,#014H
01FB 750001      R     MOV     main_menu_bm,#01H
                                           ; SOURCE LINE # 571
01FE         ?C0139:
                                           ; SOURCE LINE # 574
01FE E4                CLR     A
01FF FD                MOV     R5,A
0200 FF                MOV     R7,A
0201 FE                MOV     R6,A
0202 120000      R     LCALL   _cur_par_value_change
                                           ; SOURCE LINE # 575
0205 7F07              MOV     R7,#07H
0207 120000      R     LCALL   L?0285
                                           ; SOURCE LINE # 576
020A 7F02              MOV     R7,#02H
020C 120000      R     LCALL   L?0285
                                           ; SOURCE LINE # 577
020F E4                CLR     A
0210 FD                MOV     R5,A
0211 7F0A              MOV     R7,#0AH
0213 FE                MOV     R6,A
0214 120000      R     LCALL   _cur_par_value_change
                                           ; SOURCE LINE # 578
0217 E4                CLR     A
0218 FD                MOV     R5,A
0219 7F0C              MOV     R7,#0CH
021B FE                MOV     R6,A
021C 120000      R     LCALL   _cur_par_value_change
                                           ; SOURCE LINE # 579
021F E4                CLR     A
0220 FD                MOV     R5,A
0221 7F12              MOV     R7,#012H
0223 FE                MOV     R6,A
0224 120000      R     LCALL   _cur_par_value_change
                                           ; SOURCE LINE # 580
0227 E4                CLR     A
0228 FD                MOV     R5,A
0229 7F14              MOV     R7,#014H
022B FE                MOV     R6,A
022C 120000      R     LCALL   _cur_par_value_change
                                           ; SOURCE LINE # 581
022F E4                CLR     A
0230 FD                MOV     R5,A
0231 7F18              MOV     R7,#018H
0233 FE                MOV     R6,A
0234 120000      R     LCALL   _cur_par_value_change
                                           ; SOURCE LINE # 584
0237 900000      R     MOV     DPTR,#par_tek+02H
023A E4                CLR     A
023B F0                MOVX    @DPTR,A
023C A3                INC     DPTR
023D 04                INC     A
C51 COMPILER V9.53.0.0   TEMP                                                              12/15/2023 14:28:41 PAGE 87  

023E F0                MOVX    @DPTR,A
023F 900000      R     MOV     DPTR,#par+034H
0242 E4                CLR     A
0243 F0                MOVX    @DPTR,A
0244 A3                INC     DPTR
0245 04                INC     A
0246 F0                MOVX    @DPTR,A
                                           ; SOURCE LINE # 585
0247 900000      R     MOV     DPTR,#par_tek+04H
024A E4                CLR     A
024B F0                MOVX    @DPTR,A
024C A3                INC     DPTR
024D 7432              MOV     A,#032H
024F F0                MOVX    @DPTR,A
0250 900000      R     MOV     DPTR,#par+036H
0253 E4                CLR     A
0254 F0                MOVX    @DPTR,A
0255 A3                INC     DPTR
0256 7432              MOV     A,#032H
0258 F0                MOVX    @DPTR,A
                                           ; SOURCE LINE # 586
0259 900000      R     MOV     DPTR,#par_tek+06H
025C E4                CLR     A
025D F0                MOVX    @DPTR,A
025E A3                INC     DPTR
025F 04                INC     A
0260 F0                MOVX    @DPTR,A
0261 900000      R     MOV     DPTR,#par+038H
0264 E4                CLR     A
0265 F0                MOVX    @DPTR,A
0266 A3                INC     DPTR
0267 04                INC     A
0268 F0                MOVX    @DPTR,A
                                           ; SOURCE LINE # 587
0269 900000      R     MOV     DPTR,#par_tek+08H
026C E4                CLR     A
026D F0                MOVX    @DPTR,A
026E A3                INC     DPTR
026F 04                INC     A
0270 F0                MOVX    @DPTR,A
0271 900000      R     MOV     DPTR,#par+03AH
0274 E4                CLR     A
0275 F0                MOVX    @DPTR,A
0276 A3                INC     DPTR
0277 04                INC     A
0278 F0                MOVX    @DPTR,A
                                           ; SOURCE LINE # 588
0279 900000      R     MOV     DPTR,#par_tek+0AH
027C E4                CLR     A
027D F0                MOVX    @DPTR,A
027E A3                INC     DPTR
027F 7465              MOV     A,#065H
0281 F0                MOVX    @DPTR,A
0282 900000      R     MOV     DPTR,#par+03CH
0285 E4                CLR     A
0286 F0                MOVX    @DPTR,A
0287 A3                INC     DPTR
0288 7465              MOV     A,#065H
028A F0                MOVX    @DPTR,A
                                           ; SOURCE LINE # 589
028B 900000      R     MOV     DPTR,#par_tek+0CH
028E E4                CLR     A
C51 COMPILER V9.53.0.0   TEMP                                                              12/15/2023 14:28:41 PAGE 88  

028F F0                MOVX    @DPTR,A
0290 A3                INC     DPTR
0291 7402              MOV     A,#02H
0293 F0                MOVX    @DPTR,A
0294 900000      R     MOV     DPTR,#par+03EH
0297 E4                CLR     A
0298 F0                MOVX    @DPTR,A
0299 A3                INC     DPTR
029A 7402              MOV     A,#02H
029C F0                MOVX    @DPTR,A
                                           ; SOURCE LINE # 590
029D 900000      R     MOV     DPTR,#par_tek+0EH
02A0 E4                CLR     A
02A1 F0                MOVX    @DPTR,A
02A2 A3                INC     DPTR
02A3 7496              MOV     A,#096H
02A5 F0                MOVX    @DPTR,A
02A6 900000      R     MOV     DPTR,#par+040H
02A9 E4                CLR     A
02AA F0                MOVX    @DPTR,A
02AB A3                INC     DPTR
02AC 7496              MOV     A,#096H
02AE F0                MOVX    @DPTR,A
                                           ; SOURCE LINE # 591
02AF 900000      R     MOV     DPTR,#par_tek+010H
02B2 E4                CLR     A
02B3 F0                MOVX    @DPTR,A
02B4 A3                INC     DPTR
02B5 7403              MOV     A,#03H
02B7 F0                MOVX    @DPTR,A
02B8 900000      R     MOV     DPTR,#par+042H
02BB E4                CLR     A
02BC F0                MOVX    @DPTR,A
02BD A3                INC     DPTR
02BE 7403              MOV     A,#03H
02C0 F0                MOVX    @DPTR,A
                                           ; SOURCE LINE # 592
02C1 900000      R     MOV     DPTR,#par_tek+012H
02C4 E4                CLR     A
02C5 F0                MOVX    @DPTR,A
02C6 A3                INC     DPTR
02C7 7432              MOV     A,#032H
02C9 F0                MOVX    @DPTR,A
02CA 900000      R     MOV     DPTR,#par+044H
02CD E4                CLR     A
02CE F0                MOVX    @DPTR,A
02CF A3                INC     DPTR
02D0 7432              MOV     A,#032H
02D2 F0                MOVX    @DPTR,A
                                           ; SOURCE LINE # 593
02D3 900000      R     MOV     DPTR,#par_tek+014H
02D6 E4                CLR     A
02D7 F0                MOVX    @DPTR,A
02D8 A3                INC     DPTR
02D9 743C              MOV     A,#03CH
02DB F0                MOVX    @DPTR,A
02DC 900000      R     MOV     DPTR,#par+046H
02DF E4                CLR     A
02E0 F0                MOVX    @DPTR,A
02E1 A3                INC     DPTR
02E2 743C              MOV     A,#03CH
02E4 F0                MOVX    @DPTR,A
C51 COMPILER V9.53.0.0   TEMP                                                              12/15/2023 14:28:41 PAGE 89  

                                           ; SOURCE LINE # 594
02E5 900000      R     MOV     DPTR,#par_tek+016H
02E8 E4                CLR     A
02E9 F0                MOVX    @DPTR,A
02EA A3                INC     DPTR
02EB 04                INC     A
02EC F0                MOVX    @DPTR,A
02ED 900000      R     MOV     DPTR,#par+048H
02F0 E4                CLR     A
02F1 F0                MOVX    @DPTR,A
02F2 A3                INC     DPTR
02F3 04                INC     A
02F4 F0                MOVX    @DPTR,A
                                           ; SOURCE LINE # 595
02F5 900000      R     MOV     DPTR,#par_tek+018H
02F8 E4                CLR     A
02F9 F0                MOVX    @DPTR,A
02FA A3                INC     DPTR
02FB 743C              MOV     A,#03CH
02FD F0                MOVX    @DPTR,A
02FE 900000      R     MOV     DPTR,#par+04AH
0301 E4                CLR     A
0302 F0                MOVX    @DPTR,A
0303 A3                INC     DPTR
0304 743C              MOV     A,#03CH
0306 F0                MOVX    @DPTR,A
                                           ; SOURCE LINE # 596
0307 900000      R     MOV     DPTR,#par_tek+01AH
030A E4                CLR     A
030B F0                MOVX    @DPTR,A
030C A3                INC     DPTR
030D 04                INC     A
030E F0                MOVX    @DPTR,A
030F 900000      R     MOV     DPTR,#par+04CH
0312 E4                CLR     A
0313 F0                MOVX    @DPTR,A
0314 A3                INC     DPTR
0315 04                INC     A
0316 F0                MOVX    @DPTR,A
                                           ; SOURCE LINE # 597
0317 900000      R     MOV     DPTR,#par_tek+01CH
031A E4                CLR     A
031B F0                MOVX    @DPTR,A
031C A3                INC     DPTR
031D 04                INC     A
031E F0                MOVX    @DPTR,A
031F 900000      R     MOV     DPTR,#par+04EH
0322 E4                CLR     A
0323 F0                MOVX    @DPTR,A
0324 A3                INC     DPTR
0325 04                INC     A
0326 F0                MOVX    @DPTR,A
                                           ; SOURCE LINE # 598
0327 900000      R     MOV     DPTR,#par_tek+01EH
032A E4                CLR     A
032B F0                MOVX    @DPTR,A
032C A3                INC     DPTR
032D 7437              MOV     A,#037H
032F F0                MOVX    @DPTR,A
0330 900000      R     MOV     DPTR,#par+050H
0333 E4                CLR     A
0334 F0                MOVX    @DPTR,A
C51 COMPILER V9.53.0.0   TEMP                                                              12/15/2023 14:28:41 PAGE 90  

0335 A3                INC     DPTR
0336 7437              MOV     A,#037H
0338 F0                MOVX    @DPTR,A
                                           ; SOURCE LINE # 599
0339 900000      R     MOV     DPTR,#par_tek+020H
033C E4                CLR     A
033D F0                MOVX    @DPTR,A
033E A3                INC     DPTR
033F 04                INC     A
0340 F0                MOVX    @DPTR,A
                                           ; SOURCE LINE # 600
0341 900000      R     MOV     DPTR,#par_tek
0344 F0                MOVX    @DPTR,A
0345 A3                INC     DPTR
0346 7410              MOV     A,#010H
0348 F0                MOVX    @DPTR,A
                                           ; SOURCE LINE # 601
0349 22                RET     
             ; FUNCTION init_par_udgu (END)

             ; FUNCTION _bottom_level_controls (BEGIN)
                                           ; SOURCE LINE # 605
0000 900000      R     MOV     DPTR,#item_pos
0003 EF                MOV     A,R7
0004 F0                MOVX    @DPTR,A
                                           ; SOURCE LINE # 606
                                           ; SOURCE LINE # 607
0005 900000      R     MOV     DPTR,#touch_rect_cnt
0008 E0                MOVX    A,@DPTR
0009 6F                XRL     A,R7
000A 7003              JNZ     $ + 5H
000C 020000      R     LJMP    ?C0142
000F         ?C0141:
                                           ; SOURCE LINE # 608
000F 900000      R     MOV     DPTR,#item_pos
0012 E0                MOVX    A,@DPTR
0013 75F009            MOV     B,#09H
0016 A4                MUL     AB
0017 2400        R     ADD     A,#LOW cur_menu
0019 F582              MOV     DPL,A
001B E5F0              MOV     A,B
001D 3400        R     ADDC    A,#HIGH cur_menu
001F F583              MOV     DPH,A
0021 E0                MOVX    A,@DPTR
0022 FF                MOV     R7,A
0023 24E6              ADD     A,#0E6H
0025 500F              JNC     ?C0169
0027 24F0              ADD     A,#0F0H
0029 4003              JC      $ + 5H
002B 020000      R     LJMP    ?C0198
002E 7003              JNZ     $ + 5H
0030 020000      R     LJMP    ?C0199
0033 020000      R     LJMP    ?C0142
                                           ; SOURCE LINE # 609
                                           ; SOURCE LINE # 610
                                           ; SOURCE LINE # 611
0036         ?C0169:
                                           ; SOURCE LINE # 615
0036 900000      R     MOV     DPTR,#id
0039 EF                MOV     A,R7
003A F0                MOVX    @DPTR,A
                                           ; SOURCE LINE # 617
C51 COMPILER V9.53.0.0   TEMP                                                              12/15/2023 14:28:41 PAGE 91  

003B 7005              JNZ     ?C0170
                                           ; SOURCE LINE # 618
003D 7800        R     MOV     R0,#LOW cur_active_items_id
003F F6                MOV     @R0,A
0040 8042              SJMP    ?C0171
0042         ?C0170:
                                           ; SOURCE LINE # 619
0042 900000      R     MOV     DPTR,#id
0045 E0                MOVX    A,@DPTR
0046 B4013B            CJNE    A,#01H,?C0171
                                           ; SOURCE LINE # 620
0049 7800        R     MOV     R0,#LOW cur_active_items_id
004B 7601              MOV     @R0,#01H
                                           ; SOURCE LINE # 621
004D 900000      R     MOV     DPTR,#menu_item_bm+08H
0050 120000      E     LCALL   ?C?LLDCODE
0053 120000      E     LCALL   ?C?LNOT
0056 E500        R     MOV     A,main_menu_bm+03H
0058 5F                ANL     A,R7
0059 F500        R     MOV     main_menu_bm+03H,A
005B E500        R     MOV     A,main_menu_bm+02H
005D 5E                ANL     A,R6
005E F500        R     MOV     main_menu_bm+02H,A
0060 E500        R     MOV     A,main_menu_bm+01H
0062 5D                ANL     A,R5
0063 F500        R     MOV     main_menu_bm+01H,A
0065 E500        R     MOV     A,main_menu_bm
0067 5C                ANL     A,R4
0068 F500        R     MOV     main_menu_bm,A
                                           ; SOURCE LINE # 622
006A E500        R     MOV     A,main_menu_bm+03H
006C 4410              ORL     A,#010H
006E F500        R     MOV     main_menu_bm+03H,A
0070 E500        R     MOV     A,main_menu_bm+02H
0072 F500        R     MOV     main_menu_bm+02H,A
0074 E500        R     MOV     A,main_menu_bm+01H
0076 F500        R     MOV     main_menu_bm+01H,A
0078 E500        R     MOV     A,main_menu_bm
007A F500        R     MOV     main_menu_bm,A
                                           ; SOURCE LINE # 623
007C E4                CLR     A
007D FD                MOV     R5,A
007E 7F04              MOV     R7,#04H
0080 FE                MOV     R6,A
0081 120000      R     LCALL   _cur_par_value_change
                                           ; SOURCE LINE # 624
0084         ?C0171:
                                           ; SOURCE LINE # 626
0084 E4                CLR     A
0085 7F01              MOV     R7,#01H
0087 FE                MOV     R6,A
0088 FD                MOV     R5,A
0089 FC                MOV     R4,A
008A 900000      R     MOV     DPTR,#id
008D E0                MOVX    A,@DPTR
008E F9                MOV     R1,A
008F F8                MOV     R0,A
0090 120000      E     LCALL   ?C?LSHL
0093 EF                MOV     A,R7
0094 5500        R     ANL     A,main_menu_bm+03H
0096 FF                MOV     R7,A
0097 EE                MOV     A,R6
C51 COMPILER V9.53.0.0   TEMP                                                              12/15/2023 14:28:41 PAGE 92  

0098 5500        R     ANL     A,main_menu_bm+02H
009A FE                MOV     R6,A
009B ED                MOV     A,R5
009C 5500        R     ANL     A,main_menu_bm+01H
009E FD                MOV     R5,A
009F EC                MOV     A,R4
00A0 5500        R     ANL     A,main_menu_bm
00A2 FC                MOV     R4,A
00A3 4D                ORL     A,R5
00A4 4E                ORL     A,R6
00A5 4F                ORL     A,R7
00A6 7003              JNZ     $ + 5H
00A8 020000      R     LJMP    ?C0173
                                           ; SOURCE LINE # 627
00AB E4                CLR     A
00AC 900000      R     MOV     DPTR,#i
00AF F0                MOVX    @DPTR,A
00B0         ?C0174:
00B0 900000      R     MOV     DPTR,#i
00B3 E0                MOVX    A,@DPTR
00B4 FB                MOV     R3,A
00B5 C3                CLR     C
00B6 9408              SUBB    A,#08H
00B8 4003              JC      $ + 5H
00BA 020000      R     LJMP    ?C0178
                                           ; SOURCE LINE # 628
00BD E4                CLR     A
00BE 7F01              MOV     R7,#01H
00C0 FE                MOV     R6,A
00C1 FD                MOV     R5,A
00C2 FC                MOV     R4,A
00C3 A3                INC     DPTR
00C4 E0                MOVX    A,@DPTR
00C5 F9                MOV     R1,A
00C6 F8                MOV     R0,A
00C7 120000      E     LCALL   ?C?LSHL
00CA EB                MOV     A,R3
00CB 25E0              ADD     A,ACC
00CD 25E0              ADD     A,ACC
00CF 2400        R     ADD     A,#LOW menu_item_bm
00D1 F582              MOV     DPL,A
00D3 E4                CLR     A
00D4 3400        R     ADDC    A,#HIGH menu_item_bm
00D6 F583              MOV     DPH,A
00D8 120000      E     LCALL   ?C?LLDCODE0
00DB EB                MOV     A,R3
00DC 5F                ANL     A,R7
00DD FF                MOV     R7,A
00DE EA                MOV     A,R2
00DF 5E                ANL     A,R6
00E0 FE                MOV     R6,A
00E1 E9                MOV     A,R1
00E2 5D                ANL     A,R5
00E3 FD                MOV     R5,A
00E4 E8                MOV     A,R0
00E5 5C                ANL     A,R4
00E6 FC                MOV     R4,A
00E7 4D                ORL     A,R5
00E8 4E                ORL     A,R6
00E9 4F                ORL     A,R7
00EA 603C              JZ      ?C0176
                                           ; SOURCE LINE # 629
C51 COMPILER V9.53.0.0   TEMP                                                              12/15/2023 14:28:41 PAGE 93  

00EC 900000      R     MOV     DPTR,#i
00EF E0                MOVX    A,@DPTR
00F0 25E0              ADD     A,ACC
00F2 25E0              ADD     A,ACC
00F4 2400        R     ADD     A,#LOW menu_item_bm
00F6 F582              MOV     DPL,A
00F8 E4                CLR     A
00F9 3400        R     ADDC    A,#HIGH menu_item_bm
00FB F583              MOV     DPH,A
00FD 120000      E     LCALL   ?C?LLDCODE
0100 7800        R     MOV     R0,#LOW cur_active_items_id
0102 E6                MOV     A,@R0
0103 25E0              ADD     A,ACC
0105 25E0              ADD     A,ACC
0107 2400        R     ADD     A,#LOW active_items
0109 F582              MOV     DPL,A
010B E4                CLR     A
010C 3400        R     ADDC    A,#HIGH active_items
010E F583              MOV     DPH,A
0110 120000      E     LCALL   ?C?LLDCODE0
0113 EB                MOV     A,R3
0114 5F                ANL     A,R7
0115 FF                MOV     R7,A
0116 EA                MOV     A,R2
0117 5E                ANL     A,R6
0118 FE                MOV     R6,A
0119 E9                MOV     A,R1
011A 5D                ANL     A,R5
011B FD                MOV     R5,A
011C E8                MOV     A,R0
011D 5C                ANL     A,R4
011E FC                MOV     R4,A
011F 900000      R     MOV     DPTR,#vertical_menu_bm
0122 120000      E     LCALL   ?C?LSTXDATA
                                           ; SOURCE LINE # 630
0125 020000      R     LJMP    ?C0178
                                           ; SOURCE LINE # 631
                                           ; SOURCE LINE # 632
0128         ?C0176:
0128 900000      R     MOV     DPTR,#i
012B E0                MOVX    A,@DPTR
012C 04                INC     A
012D F0                MOVX    @DPTR,A
012E 8080              SJMP    ?C0174
                                           ; SOURCE LINE # 633
0130         ?C0173:
                                           ; SOURCE LINE # 634
0130 E4                CLR     A
0131 900000      R     MOV     DPTR,#i
0134 F0                MOVX    @DPTR,A
0135         ?C0179:
0135 900000      R     MOV     DPTR,#i
0138 E0                MOVX    A,@DPTR
0139 FB                MOV     R3,A
013A C3                CLR     C
013B 9408              SUBB    A,#08H
013D 4003              JC      $ + 5H
013F 020000      R     LJMP    ?C0178
                                           ; SOURCE LINE # 635
0142 E4                CLR     A
0143 7F01              MOV     R7,#01H
0145 FE                MOV     R6,A
C51 COMPILER V9.53.0.0   TEMP                                                              12/15/2023 14:28:41 PAGE 94  

0146 FD                MOV     R5,A
0147 FC                MOV     R4,A
0148 A3                INC     DPTR
0149 E0                MOVX    A,@DPTR
014A F9                MOV     R1,A
014B F8                MOV     R0,A
014C 120000      E     LCALL   ?C?LSHL
014F EB                MOV     A,R3
0150 25E0              ADD     A,ACC
0152 25E0              ADD     A,ACC
0154 2400        R     ADD     A,#LOW menu_item_bm
0156 F582              MOV     DPL,A
0158 E4                CLR     A
0159 3400        R     ADDC    A,#HIGH menu_item_bm
015B F583              MOV     DPH,A
015D 120000      E     LCALL   ?C?LLDCODE0
0160 EB                MOV     A,R3
0161 5F                ANL     A,R7
0162 FF                MOV     R7,A
0163 EA                MOV     A,R2
0164 5E                ANL     A,R6
0165 FE                MOV     R6,A
0166 E9                MOV     A,R1
0167 5D                ANL     A,R5
0168 FD                MOV     R5,A
0169 E8                MOV     A,R0
016A 5C                ANL     A,R4
016B FC                MOV     R4,A
016C 4D                ORL     A,R5
016D 4E                ORL     A,R6
016E 4F                ORL     A,R7
016F 6050              JZ      ?C0181
                                           ; SOURCE LINE # 636
0171 900000      R     MOV     DPTR,#i
0174 E0                MOVX    A,@DPTR
0175 25E0              ADD     A,ACC
0177 25E0              ADD     A,ACC
0179 2400        R     ADD     A,#LOW menu_item_bm
017B F582              MOV     DPL,A
017D E4                CLR     A
017E 3400        R     ADDC    A,#HIGH menu_item_bm
0180 F583              MOV     DPH,A
0182 120000      E     LCALL   ?C?LLDCODE
0185 120000      E     LCALL   ?C?LNOT
0188 E500        R     MOV     A,main_menu_bm+03H
018A 5F                ANL     A,R7
018B F500        R     MOV     main_menu_bm+03H,A
018D E500        R     MOV     A,main_menu_bm+02H
018F 5E                ANL     A,R6
0190 F500        R     MOV     main_menu_bm+02H,A
0192 E500        R     MOV     A,main_menu_bm+01H
0194 5D                ANL     A,R5
0195 F500        R     MOV     main_menu_bm+01H,A
0197 E500        R     MOV     A,main_menu_bm
0199 5C                ANL     A,R4
019A F500        R     MOV     main_menu_bm,A
                                           ; SOURCE LINE # 637
019C E4                CLR     A
019D 7F01              MOV     R7,#01H
019F FE                MOV     R6,A
01A0 FD                MOV     R5,A
01A1 FC                MOV     R4,A
C51 COMPILER V9.53.0.0   TEMP                                                              12/15/2023 14:28:41 PAGE 95  

01A2 900000      R     MOV     DPTR,#id
01A5 E0                MOVX    A,@DPTR
01A6 F9                MOV     R1,A
01A7 F8                MOV     R0,A
01A8 120000      E     LCALL   ?C?LSHL
01AB E500        R     MOV     A,main_menu_bm+03H
01AD 4F                ORL     A,R7
01AE F500        R     MOV     main_menu_bm+03H,A
01B0 E500        R     MOV     A,main_menu_bm+02H
01B2 4E                ORL     A,R6
01B3 F500        R     MOV     main_menu_bm+02H,A
01B5 E500        R     MOV     A,main_menu_bm+01H
01B7 4D                ORL     A,R5
01B8 F500        R     MOV     main_menu_bm+01H,A
01BA E500        R     MOV     A,main_menu_bm
01BC 4C                ORL     A,R4
01BD F500        R     MOV     main_menu_bm,A
                                           ; SOURCE LINE # 638
01BF 8009              SJMP    ?C0178
                                           ; SOURCE LINE # 639
                                           ; SOURCE LINE # 640
01C1         ?C0181:
01C1 900000      R     MOV     DPTR,#i
01C4 E0                MOVX    A,@DPTR
01C5 04                INC     A
01C6 F0                MOVX    @DPTR,A
01C7 020000      R     LJMP    ?C0179
                                           ; SOURCE LINE # 641
01CA         ?C0178:
                                           ; SOURCE LINE # 642
01CA 900000      R     MOV     DPTR,#item_pos
01CD E0                MOVX    A,@DPTR
01CE 75F009            MOV     B,#09H
01D1 A4                MUL     AB
01D2 2400        R     ADD     A,#LOW cur_menu
01D4 F582              MOV     DPL,A
01D6 E5F0              MOV     A,B
01D8 3400        R     ADDC    A,#HIGH cur_menu
01DA F583              MOV     DPH,A
01DC E0                MOVX    A,@DPTR
01DD FF                MOV     R7,A
01DE 7E00              MOV     R6,#00H
01E0 E4                CLR     A
01E1 FD                MOV     R5,A
01E2 120000      R     LCALL   _cur_par_value_change
                                           ; SOURCE LINE # 643
                                           ; SOURCE LINE # 644
01E5 8059              SJMP    ?C0277
                                           ; SOURCE LINE # 646
                                           ; SOURCE LINE # 647
                                           ; SOURCE LINE # 648
01E7         ?C0198:
                                           ; SOURCE LINE # 649
01E7 900000      R     MOV     DPTR,#item_pos
01EA E0                MOVX    A,@DPTR
01EB 75F009            MOV     B,#09H
01EE A4                MUL     AB
01EF 2400        R     ADD     A,#LOW cur_menu
01F1 F582              MOV     DPL,A
01F3 E5F0              MOV     A,B
01F5 3400        R     ADDC    A,#HIGH cur_menu
01F7 F583              MOV     DPH,A
C51 COMPILER V9.53.0.0   TEMP                                                              12/15/2023 14:28:41 PAGE 96  

01F9 E0                MOVX    A,@DPTR
01FA FF                MOV     R7,A
01FB 020000      R     LJMP    _par_select
                                           ; SOURCE LINE # 650
                                           ; SOURCE LINE # 652
01FE         ?C0199:
                                           ; SOURCE LINE # 653
01FE 900000      R     MOV     DPTR,#cur_par_id
0201 E0                MOVX    A,@DPTR
0202 7004              JNZ     ?C0249
0204 A3                INC     DPTR
0205 E0                MOVX    A,@DPTR
0206 642A              XRL     A,#02AH
0208         ?C0249:
0208 7039              JNZ     ?C0200
                                           ; SOURCE LINE # 654
020A 74A5              MOV     A,#0A5H
020C 900000      R     MOV     DPTR,#par
020F F0                MOVX    @DPTR,A
0210 A3                INC     DPTR
0211 F0                MOVX    @DPTR,A
                                           ; SOURCE LINE # 655
0212 AF00        R     MOV     R7,main_menu_bm+03H
0214 AE00        R     MOV     R6,main_menu_bm+02H
0216 AD00        R     MOV     R5,main_menu_bm+01H
0218 AC00        R     MOV     R4,main_menu_bm
021A A3                INC     DPTR
021B 120000      E     LCALL   ?C?LSTXDATA
                                           ; SOURCE LINE # 656
021E 900000      R     MOV     DPTR,#cur_prog_id
0221 E0                MOVX    A,@DPTR
0222 FE                MOV     R6,A
0223 A3                INC     DPTR
0224 E0                MOVX    A,@DPTR
0225 FF                MOV     R7,A
0226 7C00              MOV     R4,#00H
0228 7D56              MOV     R5,#056H
022A 120000      E     LCALL   ?C?IMUL
022D E4                CLR     A
022E FD                MOV     R5,A
022F 7B01              MOV     R3,#01H
0231 7A00        R     MOV     R2,#HIGH par
0233 7900        R     MOV     R1,#LOW par
0235 900000      E     MOV     DPTR,#?_Norflash_write?BYTE+07H
0238 F0                MOVX    @DPTR,A
0239 A3                INC     DPTR
023A 742B              MOV     A,#02BH
023C F0                MOVX    @DPTR,A
023D 120000      E     LCALL   _Norflash_write
                                           ; SOURCE LINE # 657
0240         ?C0277:
0240 020000      R     LJMP    make_scene
                                           ; SOURCE LINE # 658
0243         ?C0200:
                                           ; SOURCE LINE # 659
0243 900000      R     MOV     DPTR,#N_prog_text_sp
0246 E0                MOVX    A,@DPTR
0247 FE                MOV     R6,A
0248 A3                INC     DPTR
0249 E0                MOVX    A,@DPTR
024A FF                MOV     R7,A
024B 7D1F              MOV     R5,#01FH
C51 COMPILER V9.53.0.0   TEMP                                                              12/15/2023 14:28:41 PAGE 97  

024D 7CF8              MOV     R4,#0F8H
024F 120000      E     LCALL   _Draw_text_set_color
                                           ; SOURCE LINE # 660
0252 900000      R     MOV     DPTR,#cur_par_id
0255 E4                CLR     A
0256 F0                MOVX    @DPTR,A
0257 A3                INC     DPTR
0258 742A              MOV     A,#02AH
025A F0                MOVX    @DPTR,A
                                           ; SOURCE LINE # 661
                                           ; SOURCE LINE # 662
                                           ; SOURCE LINE # 664
                                           ; SOURCE LINE # 665
                                           ; SOURCE LINE # 666
025B         ?C0142:
025B 22                RET     
             ; FUNCTION _bottom_level_controls (END)

             ; FUNCTION open_additional_settings (BEGIN)
                                           ; SOURCE LINE # 670
                                           ; SOURCE LINE # 671
                                           ; SOURCE LINE # 672
0000 E4                CLR     A
0001 900000      R     MOV     DPTR,#touch_rect_cnt
0004 F0                MOVX    @DPTR,A
                                           ; SOURCE LINE # 673
0005 120000      E     LCALL   Draw_start
                                           ; SOURCE LINE # 674
0008 900000      R     MOV     DPTR,#SCREEN_WIDTH
000B 7401              MOV     A,#01H
000D 93                MOVC    A,@A+DPTR
000E 24FF              ADD     A,#0FFH
0010 FB                MOV     R3,A
0011 E4                CLR     A
0012 93                MOVC    A,@A+DPTR
0013 34FF              ADDC    A,#0FFH
0015 FA                MOV     R2,A
0016 900000      R     MOV     DPTR,#SCREEN_HEIGHT
0019 7401              MOV     A,#01H
001B 93                MOVC    A,@A+DPTR
001C 24FF              ADD     A,#0FFH
001E FE                MOV     R6,A
001F E4                CLR     A
0020 93                MOVC    A,@A+DPTR
0021 34FF              ADDC    A,#0FFH
0023 900000      E     MOV     DPTR,#?_Draw_filled_rect?BYTE+06H
0026 F0                MOVX    @DPTR,A
0027 A3                INC     DPTR
0028 CE                XCH     A,R6
0029 F0                MOVX    @DPTR,A
002A A3                INC     DPTR
002B 746B              MOV     A,#06BH
002D F0                MOVX    @DPTR,A
002E A3                INC     DPTR
002F 744D              MOV     A,#04DH
0031 F0                MOVX    @DPTR,A
0032 E4                CLR     A
0033 FD                MOV     R5,A
0034 FC                MOV     R4,A
0035 FF                MOV     R7,A
0036 FE                MOV     R6,A
0037 120000      E     LCALL   _Draw_filled_rect
C51 COMPILER V9.53.0.0   TEMP                                                              12/15/2023 14:28:41 PAGE 98  

                                           ; SOURCE LINE # 678
                                           ; SOURCE LINE # 680
003A E4                CLR     A
003B 900000      R     MOV     DPTR,#i
003E F0                MOVX    @DPTR,A
003F         ?C0203:
003F 900000      R     MOV     DPTR,#i
0042 E0                MOVX    A,@DPTR
0043 FF                MOV     R7,A
0044 C3                CLR     C
0045 9406              SUBB    A,#06H
0047 504C              JNC     ?C0204
                                           ; SOURCE LINE # 681
0049 EF                MOV     A,R7
004A 75F080            MOV     B,#080H
004D A4                MUL     AB
004E FD                MOV     R5,A
004F ACF0              MOV     R4,B
0051 2480              ADD     A,#080H
0053 FE                MOV     R6,A
0054 E4                CLR     A
0055 3C                ADDC    A,R4
0056 900000      E     MOV     DPTR,#?_Draw_text?BYTE+06H
0059 F0                MOVX    @DPTR,A
005A A3                INC     DPTR
005B CE                XCH     A,R6
005C F0                MOVX    @DPTR,A
005D E4                CLR     A
005E A3                INC     DPTR
005F F0                MOVX    @DPTR,A
0060 A3                INC     DPTR
0061 F0                MOVX    @DPTR,A
0062 A3                INC     DPTR
0063 741B              MOV     A,#01BH
0065 F0                MOVX    @DPTR,A
0066 A3                INC     DPTR
0067 7436              MOV     A,#036H
0069 F0                MOVX    @DPTR,A
006A A3                INC     DPTR
006B E4                CLR     A
006C F0                MOVX    @DPTR,A
006D A3                INC     DPTR
006E 7452              MOV     A,#052H
0070 F0                MOVX    @DPTR,A
0071 74FF              MOV     A,#0FFH
0073 A3                INC     DPTR
0074 F0                MOVX    @DPTR,A
0075 A3                INC     DPTR
0076 F0                MOVX    @DPTR,A
0077 FB                MOV     R3,A
0078 7A04              MOV     R2,#04H
007A E4                CLR     A
007B FF                MOV     R7,A
007C FE                MOV     R6,A
007D 120000      E     LCALL   _Draw_text
0080 AC06              MOV     R4,AR6
0082 AD07              MOV     R5,AR7
0084 7BFF              MOV     R3,#0FFH
0086 7A00        R     MOV     R2,#HIGH ?SC_104
0088 7900        R     MOV     R1,#LOW ?SC_104
008A 120000      E     LCALL   _Draw_text_set_text
                                           ; SOURCE LINE # 690
C51 COMPILER V9.53.0.0   TEMP                                                              12/15/2023 14:28:41 PAGE 99  

008D 900000      R     MOV     DPTR,#i
0090 E0                MOVX    A,@DPTR
0091 04                INC     A
0092 F0                MOVX    @DPTR,A
0093 80AA              SJMP    ?C0203
0095         ?C0204:
                                           ; SOURCE LINE # 691
                                           ; SOURCE LINE # 692
0095 020000      E     LJMP    Draw_end
             ; FUNCTION open_additional_settings (END)

             ; FUNCTION make_scene (BEGIN)
                                           ; SOURCE LINE # 696
                                           ; SOURCE LINE # 697
                                           ; SOURCE LINE # 700
0000 E4                CLR     A
0001 900000      R     MOV     DPTR,#touch_rect_cnt
0004 F0                MOVX    @DPTR,A
                                           ; SOURCE LINE # 701
0005 120000      E     LCALL   Draw_start
                                           ; SOURCE LINE # 703
0008 900000      E     MOV     DPTR,#?_Draw_filled_rect?BYTE+06H
000B 7403              MOV     A,#03H
000D F0                MOVX    @DPTR,A
000E A3                INC     DPTR
000F 741F              MOV     A,#01FH
0011 F0                MOVX    @DPTR,A
0012 A3                INC     DPTR
0013 746B              MOV     A,#06BH
0015 F0                MOVX    @DPTR,A
0016 A3                INC     DPTR
0017 744D              MOV     A,#04DH
0019 F0                MOVX    @DPTR,A
001A 7BFF              MOV     R3,#0FFH
001C 7A04              MOV     R2,#04H
001E E4                CLR     A
001F FD                MOV     R5,A
0020 FC                MOV     R4,A
0021 FF                MOV     R7,A
0022 FE                MOV     R6,A
0023 120000      E     LCALL   _Draw_filled_rect
                                           ; SOURCE LINE # 704
0026 900000      R     MOV     DPTR,#ICON_RECT_SZ
0029 E4                CLR     A
002A 93                MOVC    A,@A+DPTR
002B FE                MOV     R6,A
002C 7401              MOV     A,#01H
002E 93                MOVC    A,@A+DPTR
002F FF                MOV     R7,A
0030 C3                CLR     C
0031 900000      R     MOV     DPTR,#SCREEN_HEIGHT
0034 7401              MOV     A,#01H
0036 93                MOVC    A,@A+DPTR
0037 9F                SUBB    A,R7
0038 FD                MOV     R5,A
0039 E4                CLR     A
003A 93                MOVC    A,@A+DPTR
003B 9E                SUBB    A,R6
003C FC                MOV     R4,A
003D 900000      R     MOV     DPTR,#SCREEN_WIDTH
0040 7401              MOV     A,#01H
0042 93                MOVC    A,@A+DPTR
C51 COMPILER V9.53.0.0   TEMP                                                              12/15/2023 14:28:41 PAGE 100 

0043 24FF              ADD     A,#0FFH
0045 FB                MOV     R3,A
0046 E4                CLR     A
0047 93                MOVC    A,@A+DPTR
0048 34FF              ADDC    A,#0FFH
004A FA                MOV     R2,A
004B 900000      R     MOV     DPTR,#SCREEN_HEIGHT
004E 7401              MOV     A,#01H
0050 93                MOVC    A,@A+DPTR
0051 24FF              ADD     A,#0FFH
0053 FE                MOV     R6,A
0054 E4                CLR     A
0055 93                MOVC    A,@A+DPTR
0056 34FF              ADDC    A,#0FFH
0058 900000      E     MOV     DPTR,#?_Draw_filled_rect?BYTE+06H
005B F0                MOVX    @DPTR,A
005C A3                INC     DPTR
005D CE                XCH     A,R6
005E F0                MOVX    @DPTR,A
005F A3                INC     DPTR
0060 7440              MOV     A,#040H
0062 F0                MOVX    @DPTR,A
0063 A3                INC     DPTR
0064 7410              MOV     A,#010H
0066 F0                MOVX    @DPTR,A
0067 E4                CLR     A
0068 FF                MOV     R7,A
0069 FE                MOV     R6,A
006A 120000      E     LCALL   _Draw_filled_rect
                                           ; SOURCE LINE # 706
006D 900000      R     MOV     DPTR,#SCREEN_WIDTH
0070 7401              MOV     A,#01H
0072 93                MOVC    A,@A+DPTR
0073 247F              ADD     A,#07FH
0075 FF                MOV     R7,A
0076 E4                CLR     A
0077 93                MOVC    A,@A+DPTR
0078 34FF              ADDC    A,#0FFH
007A FE                MOV     R6,A
007B 900000      R     MOV     DPTR,#SCREEN_HEIGHT
007E 7401              MOV     A,#01H
0080 93                MOVC    A,@A+DPTR
0081 247F              ADD     A,#07FH
0083 FD                MOV     R5,A
0084 E4                CLR     A
0085 93                MOVC    A,@A+DPTR
0086 34FF              ADDC    A,#0FFH
0088 FC                MOV     R4,A
0089 E4                CLR     A
008A 900000      E     MOV     DPTR,#?_Draw_image?BYTE+05H
008D F0                MOVX    @DPTR,A
008E A3                INC     DPTR
008F F0                MOVX    @DPTR,A
0090 7B28              MOV     R3,#028H
0092 120000      E     LCALL   _Draw_image
                                           ; SOURCE LINE # 708
0095 E4                CLR     A
0096 900000      E     MOV     DPTR,#?_Draw_filled_rect?BYTE+06H
0099 F0                MOVX    @DPTR,A
009A A3                INC     DPTR
009B F0                MOVX    @DPTR,A
009C A3                INC     DPTR
C51 COMPILER V9.53.0.0   TEMP                                                              12/15/2023 14:28:41 PAGE 101 

009D 7452              MOV     A,#052H
009F F0                MOVX    @DPTR,A
00A0 A3                INC     DPTR
00A1 748A              MOV     A,#08AH
00A3 F0                MOVX    @DPTR,A
00A4 E4                CLR     A
00A5 FB                MOV     R3,A
00A6 FA                MOV     R2,A
00A7 FD                MOV     R5,A
00A8 FC                MOV     R4,A
00A9 FF                MOV     R7,A
00AA FE                MOV     R6,A
00AB 120000      E     LCALL   _Draw_filled_rect
00AE 900000      R     MOV     DPTR,#Filled_rect_under_par_sp
00B1 EE                MOV     A,R6
00B2 F0                MOVX    @DPTR,A
00B3 A3                INC     DPTR
00B4 EF                MOV     A,R7
00B5 F0                MOVX    @DPTR,A
                                           ; SOURCE LINE # 710
00B6 900000      E     MOV     DPTR,#?_Draw_filled_rect?BYTE+06H
00B9 E4                CLR     A
00BA F0                MOVX    @DPTR,A
00BB A3                INC     DPTR
00BC 74DC              MOV     A,#0DCH
00BE F0                MOVX    @DPTR,A
00BF E4                CLR     A
00C0 A3                INC     DPTR
00C1 F0                MOVX    @DPTR,A
00C2 A3                INC     DPTR
00C3 F0                MOVX    @DPTR,A
00C4 7BFF              MOV     R3,#0FFH
00C6 7A04              MOV     R2,#04H
00C8 7DD2              MOV     R5,#0D2H
00CA FC                MOV     R4,A
00CB FF                MOV     R7,A
00CC FE                MOV     R6,A
00CD 120000      E     LCALL   _Draw_filled_rect
                                           ; SOURCE LINE # 712
00D0 900000      E     MOV     DPTR,#?_Draw_filled_rect?BYTE+06H
00D3 E4                CLR     A
00D4 F0                MOVX    @DPTR,A
00D5 A3                INC     DPTR
00D6 7480              MOV     A,#080H
00D8 F0                MOVX    @DPTR,A
00D9 A3                INC     DPTR
00DA 744D              MOV     A,#04DH
00DC F0                MOVX    @DPTR,A
00DD A3                INC     DPTR
00DE 74E5              MOV     A,#0E5H
00E0 F0                MOVX    @DPTR,A
00E1 7BFF              MOV     R3,#0FFH
00E3 7A04              MOV     R2,#04H
00E5 E4                CLR     A
00E6 FD                MOV     R5,A
00E7 FC                MOV     R4,A
00E8 7F7F              MOV     R7,#07FH
00EA 7E04              MOV     R6,#04H
00EC 120000      E     LCALL   _Draw_filled_rect
                                           ; SOURCE LINE # 713
00EF 900000      R     MOV     DPTR,#?_add_touch_place?BYTE+06H
00F2 E4                CLR     A
C51 COMPILER V9.53.0.0   TEMP                                                              12/15/2023 14:28:41 PAGE 102 

00F3 F0                MOVX    @DPTR,A
00F4 A3                INC     DPTR
00F5 7480              MOV     A,#080H
00F7 F0                MOVX    @DPTR,A
00F8 A3                INC     DPTR
00F9 742A              MOV     A,#02AH
00FB F0                MOVX    @DPTR,A
00FC 7BFF              MOV     R3,#0FFH
00FE 7A04              MOV     R2,#04H
0100 E4                CLR     A
0101 FD                MOV     R5,A
0102 FC                MOV     R4,A
0103 7F7F              MOV     R7,#07FH
0105 7E04              MOV     R6,#04H
0107 120000      R     LCALL   _add_touch_place
                                           ; SOURCE LINE # 716
010A 900000      R     MOV     DPTR,#ICON_RECT_SZ
010D E4                CLR     A
010E 93                MOVC    A,@A+DPTR
010F FE                MOV     R6,A
0110 7401              MOV     A,#01H
0112 93                MOVC    A,@A+DPTR
0113 FF                MOV     R7,A
0114 24FF              ADD     A,#0FFH
0116 FB                MOV     R3,A
0117 EE                MOV     A,R6
0118 3403              ADDC    A,#03H
011A FA                MOV     R2,A
011B EF                MOV     A,R7
011C 249F              ADD     A,#09FH
011E FF                MOV     R7,A
011F EE                MOV     A,R6
0120 3402              ADDC    A,#02H
0122 900000      R     MOV     DPTR,#?_add_touch_place?BYTE+06H
0125 F0                MOVX    @DPTR,A
0126 A3                INC     DPTR
0127 EF                MOV     A,R7
0128 F0                MOVX    @DPTR,A
0129 A3                INC     DPTR
012A 742A              MOV     A,#02AH
012C F0                MOVX    @DPTR,A
012D 7E04              MOV     R6,#04H
012F 120000      R     LCALL   L?0290
                                           ; SOURCE LINE # 718
0132 900000      R     MOV     DPTR,#ICON_RECT_SZ
0135 E4                CLR     A
0136 93                MOVC    A,@A+DPTR
0137 FE                MOV     R6,A
0138 7401              MOV     A,#01H
013A 93                MOVC    A,@A+DPTR
013B FF                MOV     R7,A
013C 24FF              ADD     A,#0FFH
013E FB                MOV     R3,A
013F EE                MOV     A,R6
0140 3403              ADDC    A,#03H
0142 FA                MOV     R2,A
0143 EF                MOV     A,R7
0144 249F              ADD     A,#09FH
0146 FF                MOV     R7,A
0147 EE                MOV     A,R6
0148 3402              ADDC    A,#02H
014A 900000      E     MOV     DPTR,#?_Draw_text?BYTE+06H
C51 COMPILER V9.53.0.0   TEMP                                                              12/15/2023 14:28:41 PAGE 103 

014D F0                MOVX    @DPTR,A
014E A3                INC     DPTR
014F EF                MOV     A,R7
0150 F0                MOVX    @DPTR,A
0151 E4                CLR     A
0152 A3                INC     DPTR
0153 F0                MOVX    @DPTR,A
0154 A3                INC     DPTR
0155 F0                MOVX    @DPTR,A
0156 A3                INC     DPTR
0157 7420              MOV     A,#020H
0159 F0                MOVX    @DPTR,A
015A A3                INC     DPTR
015B 7440              MOV     A,#040H
015D F0                MOVX    @DPTR,A
015E A3                INC     DPTR
015F E4                CLR     A
0160 F0                MOVX    @DPTR,A
0161 A3                INC     DPTR
0162 7452              MOV     A,#052H
0164 F0                MOVX    @DPTR,A
0165 74FF              MOV     A,#0FFH
0167 A3                INC     DPTR
0168 F0                MOVX    @DPTR,A
0169 A3                INC     DPTR
016A F0                MOVX    @DPTR,A
016B FF                MOV     R7,A
016C 7E03              MOV     R6,#03H
016E 120000      E     LCALL   _Draw_text
0171 900000      R     MOV     DPTR,#N_prog_text_sp
0174 EE                MOV     A,R6
0175 F0                MOVX    @DPTR,A
0176 FC                MOV     R4,A
0177 A3                INC     DPTR
0178 EF                MOV     A,R7
0179 F0                MOVX    @DPTR,A
017A FD                MOV     R5,A
017B 7BFF              MOV     R3,#0FFH
017D 7A00        R     MOV     R2,#HIGH ?SC_111
017F 7900        R     MOV     R1,#LOW ?SC_111
0181 900000      R     MOV     DPTR,#cur_prog_id
0184 E0                MOVX    A,@DPTR
0185 FF                MOV     R7,A
0186 A3                INC     DPTR
0187 E0                MOVX    A,@DPTR
0188 900000      E     MOV     DPTR,#?_Draw_text_set_text?BYTE+05H
018B CF                XCH     A,R7
018C F0                MOVX    @DPTR,A
018D A3                INC     DPTR
018E EF                MOV     A,R7
018F F0                MOVX    @DPTR,A
0190 120000      E     LCALL   _Draw_text_set_text
                                           ; SOURCE LINE # 729
0193 900000      R     MOV     DPTR,#ICON_RECT_SZ
0196 E4                CLR     A
0197 93                MOVC    A,@A+DPTR
0198 FE                MOV     R6,A
0199 7401              MOV     A,#01H
019B 93                MOVC    A,@A+DPTR
019C FF                MOV     R7,A
019D 24FF              ADD     A,#0FFH
019F FB                MOV     R3,A
C51 COMPILER V9.53.0.0   TEMP                                                              12/15/2023 14:28:41 PAGE 104 

01A0 EE                MOV     A,R6
01A1 3403              ADDC    A,#03H
01A3 FA                MOV     R2,A
01A4 EF                MOV     A,R7
01A5 249F              ADD     A,#09FH
01A7 FF                MOV     R7,A
01A8 EE                MOV     A,R6
01A9 3402              ADDC    A,#02H
01AB 900000      R     MOV     DPTR,#?_add_touch_place?BYTE+06H
01AE F0                MOVX    @DPTR,A
01AF A3                INC     DPTR
01B0 EF                MOV     A,R7
01B1 F0                MOVX    @DPTR,A
01B2 A3                INC     DPTR
01B3 742A              MOV     A,#02AH
01B5 F0                MOVX    @DPTR,A
01B6 7E03              MOV     R6,#03H
01B8 120000      R     LCALL   L?0290
                                           ; SOURCE LINE # 731
                                           ; SOURCE LINE # 738
01BB E500        R     MOV     A,main_menu_bm+03H
01BD 5401              ANL     A,#01H
01BF FF                MOV     R7,A
01C0 E4                CLR     A
01C1 FE                MOV     R6,A
01C2 FD                MOV     R5,A
01C3 FC                MOV     R4,A
01C4 EF                MOV     A,R7
01C5 6005              JZ      ?C0207
                                           ; SOURCE LINE # 739
01C7 900000      R     MOV     DPTR,#active_items
                                           ; SOURCE LINE # 740
01CA 8003              SJMP    ?C0278
01CC         ?C0207:
                                           ; SOURCE LINE # 741
01CC 900000      R     MOV     DPTR,#active_items+04H
01CF         ?C0278:
01CF 120000      E     LCALL   ?C?LLDCODE
01D2 EF                MOV     A,R7
01D3 5500        R     ANL     A,main_menu_bm+03H
01D5 FF                MOV     R7,A
01D6 EE                MOV     A,R6
01D7 5500        R     ANL     A,main_menu_bm+02H
01D9 FE                MOV     R6,A
01DA ED                MOV     A,R5
01DB 5500        R     ANL     A,main_menu_bm+01H
01DD FD                MOV     R5,A
01DE EC                MOV     A,R4
01DF 5500        R     ANL     A,main_menu_bm
01E1 FC                MOV     R4,A
01E2 900000      R     MOV     DPTR,#bm
01E5 120000      E     LCALL   ?C?LSTXDATA
                                           ; SOURCE LINE # 742
01E8         ?C0208:
                                           ; SOURCE LINE # 745
01E8 E500        R     MOV     A,main_menu_bm+03H
01EA 5410              ANL     A,#010H
01EC FF                MOV     R7,A
01ED E4                CLR     A
01EE FE                MOV     R6,A
01EF FD                MOV     R5,A
01F0 FC                MOV     R4,A
C51 COMPILER V9.53.0.0   TEMP                                                              12/15/2023 14:28:41 PAGE 105 

01F1 EF                MOV     A,R7
01F2 7008              JNZ     ?C0210
01F4 E500        R     MOV     A,main_menu_bm+03H
01F6 5420              ANL     A,#020H
01F8 FF                MOV     R7,A
01F9 EF                MOV     A,R7
01FA 6029              JZ      ?C0209
01FC         ?C0210:
                                           ; SOURCE LINE # 746
01FC 900000      R     MOV     DPTR,#bm
01FF E0                MOVX    A,@DPTR
0200 F8                MOV     R0,A
0201 A3                INC     DPTR
0202 E0                MOVX    A,@DPTR
0203 F9                MOV     R1,A
0204 A3                INC     DPTR
0205 E0                MOVX    A,@DPTR
0206 FA                MOV     R2,A
0207 A3                INC     DPTR
0208 E0                MOVX    A,@DPTR
0209 FB                MOV     R3,A
020A 900000      R     MOV     DPTR,#menu_item_bm+014H
020D 120000      E     LCALL   ?C?LLDCODE
0210 120000      E     LCALL   ?C?LNOT
0213 EB                MOV     A,R3
0214 5F                ANL     A,R7
0215 FF                MOV     R7,A
0216 EA                MOV     A,R2
0217 5E                ANL     A,R6
0218 FE                MOV     R6,A
0219 E9                MOV     A,R1
021A 5D                ANL     A,R5
021B FD                MOV     R5,A
021C E8                MOV     A,R0
021D 5C                ANL     A,R4
021E FC                MOV     R4,A
021F 900000      R     MOV     DPTR,#bm
0222 120000      E     LCALL   ?C?LSTXDATA
                                           ; SOURCE LINE # 747
0225         ?C0209:
                                           ; SOURCE LINE # 749
0225 E4                CLR     A
0226 FF                MOV     R7,A
0227 E500        R     MOV     A,main_menu_bm+02H
0229 5402              ANL     A,#02H
022B FE                MOV     R6,A
022C E4                CLR     A
022D FD                MOV     R5,A
022E FC                MOV     R4,A
022F EE                MOV     A,R6
0230 6029              JZ      ?C0211
                                           ; SOURCE LINE # 750
0232 900000      R     MOV     DPTR,#bm
0235 E0                MOVX    A,@DPTR
0236 F8                MOV     R0,A
0237 A3                INC     DPTR
0238 E0                MOVX    A,@DPTR
0239 F9                MOV     R1,A
023A A3                INC     DPTR
023B E0                MOVX    A,@DPTR
023C FA                MOV     R2,A
023D A3                INC     DPTR
C51 COMPILER V9.53.0.0   TEMP                                                              12/15/2023 14:28:41 PAGE 106 

023E E0                MOVX    A,@DPTR
023F FB                MOV     R3,A
0240 900000      R     MOV     DPTR,#menu_item_bm+010H
0243 120000      E     LCALL   ?C?LLDCODE
0246 120000      E     LCALL   ?C?LNOT
0249 EB                MOV     A,R3
024A 5F                ANL     A,R7
024B FF                MOV     R7,A
024C EA                MOV     A,R2
024D 5E                ANL     A,R6
024E FE                MOV     R6,A
024F E9                MOV     A,R1
0250 5D                ANL     A,R5
0251 FD                MOV     R5,A
0252 E8                MOV     A,R0
0253 5C                ANL     A,R4
0254 FC                MOV     R4,A
0255 900000      R     MOV     DPTR,#bm
0258 120000      E     LCALL   ?C?LSTXDATA
                                           ; SOURCE LINE # 751
025B         ?C0211:
                                           ; SOURCE LINE # 753
025B E4                CLR     A
025C 900000      R     MOV     DPTR,#start_x
025F F0                MOVX    @DPTR,A
0260 A3                INC     DPTR
0261 F0                MOVX    @DPTR,A
                                           ; SOURCE LINE # 754
0262 900000      R     MOV     DPTR,#ICON_RECT_SZ
0265 93                MOVC    A,@A+DPTR
0266 FE                MOV     R6,A
0267 7401              MOV     A,#01H
0269 93                MOVC    A,@A+DPTR
026A FF                MOV     R7,A
026B C3                CLR     C
026C 900000      R     MOV     DPTR,#SCREEN_HEIGHT
026F 7401              MOV     A,#01H
0271 93                MOVC    A,@A+DPTR
0272 9F                SUBB    A,R7
0273 FF                MOV     R7,A
0274 E4                CLR     A
0275 93                MOVC    A,@A+DPTR
0276 9E                SUBB    A,R6
0277 900000      R     MOV     DPTR,#start_y
027A F0                MOVX    @DPTR,A
027B A3                INC     DPTR
027C EF                MOV     A,R7
027D F0                MOVX    @DPTR,A
                                           ; SOURCE LINE # 755
027E E4                CLR     A
027F 900000      R     MOV     DPTR,#i
0282 F0                MOVX    @DPTR,A
                                           ; SOURCE LINE # 756
0283 A3                INC     DPTR
0284 F0                MOVX    @DPTR,A
0285         ?C0212:
                                           ; SOURCE LINE # 757
0285 E4                CLR     A
0286 FF                MOV     R7,A
0287 FE                MOV     R6,A
0288 FD                MOV     R5,A
0289 FC                MOV     R4,A
C51 COMPILER V9.53.0.0   TEMP                                                              12/15/2023 14:28:41 PAGE 107 

028A 900000      R     MOV     DPTR,#bm
028D E0                MOVX    A,@DPTR
028E F8                MOV     R0,A
028F A3                INC     DPTR
0290 E0                MOVX    A,@DPTR
0291 F9                MOV     R1,A
0292 A3                INC     DPTR
0293 E0                MOVX    A,@DPTR
0294 FA                MOV     R2,A
0295 A3                INC     DPTR
0296 E0                MOVX    A,@DPTR
0297 FB                MOV     R3,A
0298 C3                CLR     C
0299 120000      E     LCALL   ?C?ULCMP
029C 7003              JNZ     $ + 5H
029E 020000      R     LJMP    ?C0213
                                           ; SOURCE LINE # 758
02A1 900000      R     MOV     DPTR,#bm
02A4 A3                INC     DPTR
02A5 A3                INC     DPTR
02A6 A3                INC     DPTR
02A7 E0                MOVX    A,@DPTR
02A8 5401              ANL     A,#01H
02AA FF                MOV     R7,A
02AB E4                CLR     A
02AC FE                MOV     R6,A
02AD FD                MOV     R5,A
02AE FC                MOV     R4,A
02AF EF                MOV     A,R7
02B0 7003              JNZ     $ + 5H
02B2 020000      R     LJMP    ?C0214
                                           ; SOURCE LINE # 759
02B5 7F01              MOV     R7,#01H
02B7 900000      R     MOV     DPTR,#id
02BA E0                MOVX    A,@DPTR
02BB F9                MOV     R1,A
02BC F8                MOV     R0,A
02BD 120000      E     LCALL   ?C?LSHL
02C0 900000      R     MOV     DPTR,#vertical_menu_bm
02C3 E0                MOVX    A,@DPTR
02C4 F8                MOV     R0,A
02C5 A3                INC     DPTR
02C6 E0                MOVX    A,@DPTR
02C7 F9                MOV     R1,A
02C8 A3                INC     DPTR
02C9 E0                MOVX    A,@DPTR
02CA FA                MOV     R2,A
02CB A3                INC     DPTR
02CC E0                MOVX    A,@DPTR
02CD 5F                ANL     A,R7
02CE FF                MOV     R7,A
02CF EA                MOV     A,R2
02D0 5E                ANL     A,R6
02D1 FE                MOV     R6,A
02D2 E9                MOV     A,R1
02D3 5D                ANL     A,R5
02D4 FD                MOV     R5,A
02D5 E8                MOV     A,R0
02D6 5C                ANL     A,R4
02D7 4D                ORL     A,R5
02D8 4E                ORL     A,R6
02D9 4F                ORL     A,R7
C51 COMPILER V9.53.0.0   TEMP                                                              12/15/2023 14:28:41 PAGE 108 

02DA 7003              JNZ     $ + 5H
02DC 020000      R     LJMP    ?C0215
                                           ; SOURCE LINE # 760
02DF E4                CLR     A
02E0 900000      R     MOV     DPTR,#v_id
02E3 F0                MOVX    @DPTR,A
                                           ; SOURCE LINE # 761
02E4 900000      R     MOV     DPTR,#i
02E7 E0                MOVX    A,@DPTR
02E8 FF                MOV     R7,A
02E9 7E00              MOV     R6,#00H
02EB 900000      R     MOV     DPTR,#ICON_RECT_SZ
02EE E4                CLR     A
02EF 93                MOVC    A,@A+DPTR
02F0 FA                MOV     R2,A
02F1 7401              MOV     A,#01H
02F3 93                MOVC    A,@A+DPTR
02F4 FB                MOV     R3,A
02F5 FD                MOV     R5,A
02F6 AC02              MOV     R4,AR2
02F8 120000      E     LCALL   ?C?IMUL
02FB 900000      R     MOV     DPTR,#v_start_x
02FE EE                MOV     A,R6
02FF F0                MOVX    @DPTR,A
0300 A3                INC     DPTR
0301 EF                MOV     A,R7
0302 F0                MOVX    @DPTR,A
                                           ; SOURCE LINE # 762
0303 EB                MOV     A,R3
0304 25E0              ADD     A,ACC
0306 FF                MOV     R7,A
0307 EA                MOV     A,R2
0308 33                RLC     A
0309 FE                MOV     R6,A
030A C3                CLR     C
030B 900000      R     MOV     DPTR,#SCREEN_HEIGHT
030E 7401              MOV     A,#01H
0310 93                MOVC    A,@A+DPTR
0311 9F                SUBB    A,R7
0312 FF                MOV     R7,A
0313 E4                CLR     A
0314 93                MOVC    A,@A+DPTR
0315 9E                SUBB    A,R6
0316 900000      R     MOV     DPTR,#v_start_y
0319 F0                MOVX    @DPTR,A
031A A3                INC     DPTR
031B EF                MOV     A,R7
031C F0                MOVX    @DPTR,A
                                           ; SOURCE LINE # 763
031D 900000      R     MOV     DPTR,#vertical_menu_bm
0320 E0                MOVX    A,@DPTR
0321 F8                MOV     R0,A
0322 A3                INC     DPTR
0323 A3                INC     DPTR
0324 E0                MOVX    A,@DPTR
0325 FA                MOV     R2,A
0326 A3                INC     DPTR
0327 E0                MOVX    A,@DPTR
0328 FB                MOV     R3,A
0329 C000              PUSH    AR0
032B C001              PUSH    AR1
032D E4                CLR     A
C51 COMPILER V9.53.0.0   TEMP                                                              12/15/2023 14:28:41 PAGE 109 

032E 7F01              MOV     R7,#01H
0330 FE                MOV     R6,A
0331 FD                MOV     R5,A
0332 FC                MOV     R4,A
0333 900000      R     MOV     DPTR,#id
0336 E0                MOVX    A,@DPTR
0337 F9                MOV     R1,A
0338 F8                MOV     R0,A
0339 120000      E     LCALL   ?C?LSHL
033C 120000      E     LCALL   ?C?LNOT
033F D001              POP     AR1
0341 D000              POP     AR0
0343 EB                MOV     A,R3
0344 5F                ANL     A,R7
0345 FF                MOV     R7,A
0346 EA                MOV     A,R2
0347 5E                ANL     A,R6
0348 FE                MOV     R6,A
0349 E9                MOV     A,R1
034A 5D                ANL     A,R5
034B FD                MOV     R5,A
034C E8                MOV     A,R0
034D 5C                ANL     A,R4
034E FC                MOV     R4,A
034F 900000      R     MOV     DPTR,#vertical_menu_bm
0352 120000      E     LCALL   ?C?LSTXDATA
0355         ?C0216:
                                           ; SOURCE LINE # 764
0355 E4                CLR     A
0356 FF                MOV     R7,A
0357 FE                MOV     R6,A
0358 FD                MOV     R5,A
0359 FC                MOV     R4,A
035A 900000      R     MOV     DPTR,#vertical_menu_bm
035D E0                MOVX    A,@DPTR
035E F8                MOV     R0,A
035F A3                INC     DPTR
0360 E0                MOVX    A,@DPTR
0361 F9                MOV     R1,A
0362 A3                INC     DPTR
0363 E0                MOVX    A,@DPTR
0364 FA                MOV     R2,A
0365 A3                INC     DPTR
0366 E0                MOVX    A,@DPTR
0367 FB                MOV     R3,A
0368 C3                CLR     C
0369 120000      E     LCALL   ?C?ULCMP
036C 7003              JNZ     $ + 5H
036E 020000      R     LJMP    ?C0215
                                           ; SOURCE LINE # 765
0371 900000      R     MOV     DPTR,#vertical_menu_bm
0374 A3                INC     DPTR
0375 A3                INC     DPTR
0376 A3                INC     DPTR
0377 E0                MOVX    A,@DPTR
0378 5401              ANL     A,#01H
037A FF                MOV     R7,A
037B EF                MOV     A,R7
037C 607A              JZ      ?C0218
                                           ; SOURCE LINE # 766
037E 900000      R     MOV     DPTR,#v_start_y
0381 E0                MOVX    A,@DPTR
C51 COMPILER V9.53.0.0   TEMP                                                              12/15/2023 14:28:41 PAGE 110 

0382 FC                MOV     R4,A
0383 A3                INC     DPTR
0384 E0                MOVX    A,@DPTR
0385 FD                MOV     R5,A
0386 900000      R     MOV     DPTR,#ICON_RECT_SZ
0389 E4                CLR     A
038A 93                MOVC    A,@A+DPTR
038B FE                MOV     R6,A
038C 7401              MOV     A,#01H
038E 93                MOVC    A,@A+DPTR
038F FF                MOV     R7,A
0390 900000      R     MOV     DPTR,#v_start_x
0393 E0                MOVX    A,@DPTR
0394 FA                MOV     R2,A
0395 A3                INC     DPTR
0396 E0                MOVX    A,@DPTR
0397 2F                ADD     A,R7
0398 FB                MOV     R3,A
0399 EA                MOV     A,R2
039A 3E                ADDC    A,R6
039B FA                MOV     R2,A
039C 900000      R     MOV     DPTR,#v_start_y
039F E0                MOVX    A,@DPTR
03A0 F8                MOV     R0,A
03A1 A3                INC     DPTR
03A2 E0                MOVX    A,@DPTR
03A3 2F                ADD     A,R7
03A4 FF                MOV     R7,A
03A5 E8                MOV     A,R0
03A6 3E                ADDC    A,R6
03A7 900000      R     MOV     DPTR,#?_add_touch_place?BYTE+06H
03AA F0                MOVX    @DPTR,A
03AB A3                INC     DPTR
03AC EF                MOV     A,R7
03AD F0                MOVX    @DPTR,A
03AE 900000      R     MOV     DPTR,#v_id
03B1 E0                MOVX    A,@DPTR
03B2 900000      R     MOV     DPTR,#?_add_touch_place?BYTE+08H
03B5 F0                MOVX    @DPTR,A
03B6 900000      R     MOV     DPTR,#v_start_x
03B9 E0                MOVX    A,@DPTR
03BA FE                MOV     R6,A
03BB A3                INC     DPTR
03BC E0                MOVX    A,@DPTR
03BD FF                MOV     R7,A
03BE 120000      R     LCALL   _add_touch_place
                                           ; SOURCE LINE # 767
03C1 900000      R     MOV     DPTR,#v_start_x
03C4 E0                MOVX    A,@DPTR
03C5 FE                MOV     R6,A
03C6 A3                INC     DPTR
03C7 E0                MOVX    A,@DPTR
03C8 FF                MOV     R7,A
03C9 A3                INC     DPTR
03CA E0                MOVX    A,@DPTR
03CB FC                MOV     R4,A
03CC A3                INC     DPTR
03CD E0                MOVX    A,@DPTR
03CE FD                MOV     R5,A
03CF 900000      R     MOV     DPTR,#v_id
03D2 E0                MOVX    A,@DPTR
03D3 FB                MOV     R3,A
C51 COMPILER V9.53.0.0   TEMP                                                              12/15/2023 14:28:41 PAGE 111 

03D4 900000      E     MOV     DPTR,#?_Draw_image?BYTE+05H
03D7 E4                CLR     A
03D8 F0                MOVX    @DPTR,A
03D9 A3                INC     DPTR
03DA EB                MOV     A,R3
03DB F0                MOVX    @DPTR,A
03DC 7B24              MOV     R3,#024H
03DE 120000      E     LCALL   _Draw_image
                                           ; SOURCE LINE # 768
03E1 900000      R     MOV     DPTR,#ICON_RECT_SZ
03E4 E4                CLR     A
03E5 93                MOVC    A,@A+DPTR
03E6 FE                MOV     R6,A
03E7 7401              MOV     A,#01H
03E9 93                MOVC    A,@A+DPTR
03EA FF                MOV     R7,A
03EB C3                CLR     C
03EC 900000      R     MOV     DPTR,#v_start_y+01H
03EF E0                MOVX    A,@DPTR
03F0 9F                SUBB    A,R7
03F1 F0                MOVX    @DPTR,A
03F2 900000      R     MOV     DPTR,#v_start_y
03F5 E0                MOVX    A,@DPTR
03F6 9E                SUBB    A,R6
03F7 F0                MOVX    @DPTR,A
                                           ; SOURCE LINE # 769
03F8         ?C0218:
                                           ; SOURCE LINE # 770
03F8 900000      R     MOV     DPTR,#vertical_menu_bm
03FB E0                MOVX    A,@DPTR
03FC FC                MOV     R4,A
03FD A3                INC     DPTR
03FE E0                MOVX    A,@DPTR
03FF FD                MOV     R5,A
0400 A3                INC     DPTR
0401 E0                MOVX    A,@DPTR
0402 FE                MOV     R6,A
0403 A3                INC     DPTR
0404 E0                MOVX    A,@DPTR
0405 FF                MOV     R7,A
0406 7801              MOV     R0,#01H
0408 120000      E     LCALL   ?C?ULSHR
040B 900000      R     MOV     DPTR,#vertical_menu_bm
040E 120000      E     LCALL   ?C?LSTXDATA
                                           ; SOURCE LINE # 771
0411 900000      R     MOV     DPTR,#v_id
0414 E0                MOVX    A,@DPTR
0415 04                INC     A
0416 F0                MOVX    @DPTR,A
                                           ; SOURCE LINE # 772
0417 020000      R     LJMP    ?C0216
                                           ; SOURCE LINE # 773
041A         ?C0215:
                                           ; SOURCE LINE # 775
041A 900000      R     MOV     DPTR,#start_y
041D E0                MOVX    A,@DPTR
041E FC                MOV     R4,A
041F A3                INC     DPTR
0420 E0                MOVX    A,@DPTR
0421 FD                MOV     R5,A
0422 900000      R     MOV     DPTR,#ICON_RECT_SZ
0425 E4                CLR     A
C51 COMPILER V9.53.0.0   TEMP                                                              12/15/2023 14:28:41 PAGE 112 

0426 93                MOVC    A,@A+DPTR
0427 FE                MOV     R6,A
0428 7401              MOV     A,#01H
042A 93                MOVC    A,@A+DPTR
042B FF                MOV     R7,A
042C 900000      R     MOV     DPTR,#start_x
042F E0                MOVX    A,@DPTR
0430 FA                MOV     R2,A
0431 A3                INC     DPTR
0432 E0                MOVX    A,@DPTR
0433 2F                ADD     A,R7
0434 FB                MOV     R3,A
0435 EA                MOV     A,R2
0436 3E                ADDC    A,R6
0437 FA                MOV     R2,A
0438 900000      R     MOV     DPTR,#start_y
043B E0                MOVX    A,@DPTR
043C F8                MOV     R0,A
043D A3                INC     DPTR
043E E0                MOVX    A,@DPTR
043F 2F                ADD     A,R7
0440 FF                MOV     R7,A
0441 E8                MOV     A,R0
0442 3E                ADDC    A,R6
0443 900000      R     MOV     DPTR,#?_add_touch_place?BYTE+06H
0446 F0                MOVX    @DPTR,A
0447 A3                INC     DPTR
0448 EF                MOV     A,R7
0449 F0                MOVX    @DPTR,A
044A 900000      R     MOV     DPTR,#id
044D E0                MOVX    A,@DPTR
044E 900000      R     MOV     DPTR,#?_add_touch_place?BYTE+08H
0451 F0                MOVX    @DPTR,A
0452 900000      R     MOV     DPTR,#start_x
0455 E0                MOVX    A,@DPTR
0456 FE                MOV     R6,A
0457 A3                INC     DPTR
0458 E0                MOVX    A,@DPTR
0459 FF                MOV     R7,A
045A 120000      R     LCALL   _add_touch_place
                                           ; SOURCE LINE # 776
045D 900000      R     MOV     DPTR,#start_x
0460 E0                MOVX    A,@DPTR
0461 FE                MOV     R6,A
0462 A3                INC     DPTR
0463 E0                MOVX    A,@DPTR
0464 FF                MOV     R7,A
0465 A3                INC     DPTR
0466 E0                MOVX    A,@DPTR
0467 FC                MOV     R4,A
0468 A3                INC     DPTR
0469 E0                MOVX    A,@DPTR
046A FD                MOV     R5,A
046B 900000      R     MOV     DPTR,#id
046E E0                MOVX    A,@DPTR
046F FB                MOV     R3,A
0470 900000      E     MOV     DPTR,#?_Draw_image?BYTE+05H
0473 E4                CLR     A
0474 F0                MOVX    @DPTR,A
0475 A3                INC     DPTR
0476 EB                MOV     A,R3
0477 F0                MOVX    @DPTR,A
C51 COMPILER V9.53.0.0   TEMP                                                              12/15/2023 14:28:41 PAGE 113 

0478 7B24              MOV     R3,#024H
047A 120000      E     LCALL   _Draw_image
                                           ; SOURCE LINE # 777
047D 900000      R     MOV     DPTR,#ICON_RECT_SZ
0480 E4                CLR     A
0481 93                MOVC    A,@A+DPTR
0482 FE                MOV     R6,A
0483 7401              MOV     A,#01H
0485 93                MOVC    A,@A+DPTR
0486 FF                MOV     R7,A
0487 900000      R     MOV     DPTR,#start_x+01H
048A E0                MOVX    A,@DPTR
048B 2F                ADD     A,R7
048C F0                MOVX    @DPTR,A
048D 900000      R     MOV     DPTR,#start_x
0490 E0                MOVX    A,@DPTR
0491 3E                ADDC    A,R6
0492 F0                MOVX    @DPTR,A
                                           ; SOURCE LINE # 778
0493 900000      R     MOV     DPTR,#i
0496 E0                MOVX    A,@DPTR
0497 04                INC     A
0498 F0                MOVX    @DPTR,A
                                           ; SOURCE LINE # 779
0499         ?C0214:
                                           ; SOURCE LINE # 780
0499 900000      R     MOV     DPTR,#bm
049C E0                MOVX    A,@DPTR
049D FC                MOV     R4,A
049E A3                INC     DPTR
049F E0                MOVX    A,@DPTR
04A0 FD                MOV     R5,A
04A1 A3                INC     DPTR
04A2 E0                MOVX    A,@DPTR
04A3 FE                MOV     R6,A
04A4 A3                INC     DPTR
04A5 E0                MOVX    A,@DPTR
04A6 FF                MOV     R7,A
04A7 7801              MOV     R0,#01H
04A9 120000      E     LCALL   ?C?ULSHR
04AC 900000      R     MOV     DPTR,#bm
04AF 120000      E     LCALL   ?C?LSTXDATA
                                           ; SOURCE LINE # 781
04B2 900000      R     MOV     DPTR,#id
04B5 E0                MOVX    A,@DPTR
04B6 04                INC     A
04B7 F0                MOVX    @DPTR,A
                                           ; SOURCE LINE # 782
04B8 020000      R     LJMP    ?C0212
04BB         ?C0213:
                                           ; SOURCE LINE # 783
04BB 900000      R     MOV     DPTR,#_cur_menu_fanc
04BE 74FF              MOV     A,#0FFH
04C0 F0                MOVX    @DPTR,A
04C1 A3                INC     DPTR
04C2 7400        R     MOV     A,#HIGH _bottom_level_controls
04C4 F0                MOVX    @DPTR,A
04C5 A3                INC     DPTR
04C6 7400        R     MOV     A,#LOW _bottom_level_controls
04C8 F0                MOVX    @DPTR,A
                                           ; SOURCE LINE # 784
                                           ; SOURCE LINE # 787
C51 COMPILER V9.53.0.0   TEMP                                                              12/15/2023 14:28:41 PAGE 114 

                                           ; SOURCE LINE # 790
04C9 E500        R     MOV     A,main_menu_bm+03H
04CB 5401              ANL     A,#01H
04CD FF                MOV     R7,A
04CE EF                MOV     A,R7
04CF 7003              JNZ     $ + 5H
04D1 020000      R     LJMP    ?C0219
                                           ; SOURCE LINE # 791
04D4 7800        R     MOV     R0,#LOW FONT_SIZE
04D6 7600              MOV     @R0,#00H
04D8 08                INC     R0
04D9 7623              MOV     @R0,#023H
                                           ; SOURCE LINE # 792
04DB E500        R     MOV     A,main_menu_bm+02H
04DD 5402              ANL     A,#02H
04DF FE                MOV     R6,A
04E0 EE                MOV     A,R6
04E1 6009              JZ      ?C0220
                                           ; SOURCE LINE # 793
04E3 7800        R     MOV     R0,#LOW LINE_WIDTH
04E5 7600              MOV     @R0,#00H
04E7 08                INC     R0
04E8 76C8              MOV     @R0,#0C8H
                                           ; SOURCE LINE # 794
04EA 8016              SJMP    ?C0221
04EC         ?C0220:
                                           ; SOURCE LINE # 795
04EC E500        R     MOV     A,main_menu_bm+02H
04EE 5420              ANL     A,#020H
04F0 FE                MOV     R6,A
04F1 EE                MOV     A,R6
04F2 7800        R     MOV     R0,#LOW LINE_WIDTH
04F4 6007              JZ      ?C0222
                                           ; SOURCE LINE # 796
04F6 7600              MOV     @R0,#00H
04F8 08                INC     R0
04F9 7696              MOV     @R0,#096H
04FB 8005              SJMP    ?C0221
04FD         ?C0222:
                                           ; SOURCE LINE # 798
04FD 7600              MOV     @R0,#00H
04FF 08                INC     R0
0500 76AB              MOV     @R0,#0ABH
                                           ; SOURCE LINE # 799
0502         ?C0221:
                                           ; SOURCE LINE # 800
0502 7D26              MOV     R5,#026H
0504 7C02              MOV     R4,#02H
0506 7F28              MOV     R7,#028H
0508 7E00              MOV     R6,#00H
050A 120000      E     LCALL   _make_point
050D 7800        R     MOV     R0,#LOW p
050F 7C00        R     MOV     R4,#HIGH p
0511 7D01              MOV     R5,#01H
0513 7E00              MOV     R6,#00H
0515 7F04              MOV     R7,#04H
0517 120000      E     LCALL   ?C?COPY
051A 7800        R     MOV     R0,#LOW start_p
051C 7C00        R     MOV     R4,#HIGH start_p
051E 7D01              MOV     R5,#01H
0520 7E00              MOV     R6,#00H
0522 7F04              MOV     R7,#04H
C51 COMPILER V9.53.0.0   TEMP                                                              12/15/2023 14:28:41 PAGE 115 

0524 120000      E     LCALL   ?C?COPY
                                           ; SOURCE LINE # 801
0527 7B01              MOV     R3,#01H
0529 7A00        R     MOV     R2,#HIGH p
052B 7900        R     MOV     R1,#LOW p
052D 120000      R     LCALL   _add_t_preflow
                                           ; SOURCE LINE # 802
0530 120000      R     LCALL   L?0286
                                           ; SOURCE LINE # 803
0533 120000      R     LCALL   L?0291
                                           ; SOURCE LINE # 804
0536 120000      R     LCALL   L?0292
                                           ; SOURCE LINE # 805
0539 7B01              MOV     R3,#01H
053B 7A00        R     MOV     R2,#HIGH p
053D 7900        R     MOV     R1,#LOW p
053F 120000      R     LCALL   _add_t_up
                                           ; SOURCE LINE # 806
0542 120000      R     LCALL   L?0293
                                           ; SOURCE LINE # 807
0545 E500        R     MOV     A,main_menu_bm+02H
0547 5402              ANL     A,#02H
0549 FE                MOV     R6,A
054A E4                CLR     A
054B FD                MOV     R5,A
054C FC                MOV     R4,A
054D EE                MOV     A,R6
054E 6013              JZ      ?C0224
                                           ; SOURCE LINE # 808
0550 7800        R     MOV     R0,#LOW LEVEL_HEIGHT
0552 E6                MOV     A,@R0
0553 FF                MOV     R7,A
0554 25E0              ADD     A,ACC
0556 F6                MOV     @R0,A
                                           ; SOURCE LINE # 809
0557 120000      R     LCALL   L?0294
                                           ; SOURCE LINE # 810
055A 7800        R     MOV     R0,#LOW LEVEL_HEIGHT
055C E6                MOV     A,@R0
055D FF                MOV     R7,A
055E C3                CLR     C
055F 13                RRC     A
0560 F6                MOV     @R0,A
                                           ; SOURCE LINE # 811
                                           ; SOURCE LINE # 812
0561 8025              SJMP    ?C0280
0563         ?C0224:
                                           ; SOURCE LINE # 813
0563 E4                CLR     A
0564 FF                MOV     R7,A
0565 E500        R     MOV     A,main_menu_bm+02H
0567 5420              ANL     A,#020H
0569 FE                MOV     R6,A
056A E4                CLR     A
056B FD                MOV     R5,A
056C FC                MOV     R4,A
056D EE                MOV     A,R6
056E 6009              JZ      ?C0226
                                           ; SOURCE LINE # 814
0570 120000      R     LCALL   L?0288
                                           ; SOURCE LINE # 815
0573 120000      R     LCALL   L?0295
C51 COMPILER V9.53.0.0   TEMP                                                              12/15/2023 14:28:41 PAGE 116 

                                           ; SOURCE LINE # 816
0576 120000      R     LCALL   L?0286
                                           ; SOURCE LINE # 817
0579         ?C0226:
                                           ; SOURCE LINE # 818
0579 120000      R     LCALL   L?0294
                                           ; SOURCE LINE # 819
057C 7B01              MOV     R3,#01H
057E 7A00        R     MOV     R2,#HIGH p
0580 7900        R     MOV     R1,#LOW p
0582 120000      R     LCALL   _add_end_i_t
                                           ; SOURCE LINE # 820
0585 120000      R     LCALL   L?0288
                                           ; SOURCE LINE # 821
0588         ?C0280:
0588 7B01              MOV     R3,#01H
058A 7A00        R     MOV     R2,#HIGH p
058C 7900        R     MOV     R1,#LOW p
058E 120000      R     LCALL   _add_t_postflow
                                           ; SOURCE LINE # 822
                                           ; SOURCE LINE # 823
0591 020000      R     LJMP    ?C0227
0594         ?C0219:
0594 E500        R     MOV     A,main_menu_bm+03H
0596 5402              ANL     A,#02H
0598 FF                MOV     R7,A
0599 EF                MOV     A,R7
059A 6070              JZ      ?C0227
                                           ; SOURCE LINE # 824
059C E500        R     MOV     A,main_menu_bm+02H
059E 5420              ANL     A,#020H
05A0 FE                MOV     R6,A
05A1 EE                MOV     A,R6
05A2 7800        R     MOV     R0,#LOW LINE_WIDTH
05A4 6007              JZ      ?C0229
                                           ; SOURCE LINE # 825
05A6 7601              MOV     @R0,#01H
05A8 08                INC     R0
05A9 762C              MOV     @R0,#02CH
                                           ; SOURCE LINE # 826
                                           ; SOURCE LINE # 827
05AB 8005              SJMP    ?C0279
05AD         ?C0229:
                                           ; SOURCE LINE # 828
05AD 7601              MOV     @R0,#01H
05AF 08                INC     R0
05B0 7690              MOV     @R0,#090H
                                           ; SOURCE LINE # 829
05B2         ?C0279:
05B2 7800        R     MOV     R0,#LOW FONT_SIZE
05B4 7600              MOV     @R0,#00H
05B6 08                INC     R0
05B7 7626              MOV     @R0,#026H
                                           ; SOURCE LINE # 830
05B9         ?C0230:
                                           ; SOURCE LINE # 831
05B9 7DF4              MOV     R5,#0F4H
05BB 7C01              MOV     R4,#01H
05BD 7F28              MOV     R7,#028H
05BF 7E00              MOV     R6,#00H
05C1 120000      E     LCALL   _make_point
05C4 7800        R     MOV     R0,#LOW p
C51 COMPILER V9.53.0.0   TEMP                                                              12/15/2023 14:28:41 PAGE 117 

05C6 7C00        R     MOV     R4,#HIGH p
05C8 7D01              MOV     R5,#01H
05CA 7E00              MOV     R6,#00H
05CC 7F04              MOV     R7,#04H
05CE 120000      E     LCALL   ?C?COPY
05D1 7800        R     MOV     R0,#LOW start_p
05D3 7C00        R     MOV     R4,#HIGH start_p
05D5 7D01              MOV     R5,#01H
05D7 7E00              MOV     R6,#00H
05D9 7F04              MOV     R7,#04H
05DB 120000      E     LCALL   ?C?COPY
                                           ; SOURCE LINE # 832
05DE 120000      R     LCALL   L?0292
                                           ; SOURCE LINE # 833
05E1 120000      R     LCALL   L?0287
                                           ; SOURCE LINE # 834
05E4 120000      R     LCALL   L?0291
                                           ; SOURCE LINE # 835
05E7 120000      R     LCALL   L?0289
                                           ; SOURCE LINE # 836
05EA 120000      R     LCALL   L?0293
                                           ; SOURCE LINE # 837
05ED E4                CLR     A
05EE FF                MOV     R7,A
05EF E500        R     MOV     A,main_menu_bm+02H
05F1 5420              ANL     A,#020H
05F3 FE                MOV     R6,A
05F4 E4                CLR     A
05F5 FD                MOV     R5,A
05F6 FC                MOV     R4,A
05F7 EE                MOV     A,R6
05F8 6006              JZ      ?C0231
                                           ; SOURCE LINE # 838
05FA 120000      R     LCALL   L?0287
                                           ; SOURCE LINE # 839
05FD 120000      R     LCALL   L?0295
                                           ; SOURCE LINE # 840
0600         ?C0231:
                                           ; SOURCE LINE # 841
0600 7B01              MOV     R3,#01H
0602 7A00        R     MOV     R2,#HIGH p
0604 7900        R     MOV     R1,#LOW p
0606 120000      R     LCALL   _add_i_kz
                                           ; SOURCE LINE # 842
0609 120000      R     LCALL   L?0289
                                           ; SOURCE LINE # 843
060C         ?C0227:
                                           ; SOURCE LINE # 844
060C 900000      R     MOV     DPTR,#p
060F E0                MOVX    A,@DPTR
0610 FA                MOV     R2,A
0611 A3                INC     DPTR
0612 E0                MOVX    A,@DPTR
0613 FB                MOV     R3,A
0614 FF                MOV     R7,A
0615 AE02              MOV     R6,AR2
0617 900000      E     MOV     DPTR,#?_Draw_line?BYTE+06H
061A 7402              MOV     A,#02H
061C F0                MOVX    @DPTR,A
061D A3                INC     DPTR
061E 748A              MOV     A,#08AH
0620 F0                MOVX    @DPTR,A
C51 COMPILER V9.53.0.0   TEMP                                                              12/15/2023 14:28:41 PAGE 118 

0621 A3                INC     DPTR
0622 7405              MOV     A,#05H
0624 F0                MOVX    @DPTR,A
0625 A3                INC     DPTR
0626 74DE              MOV     A,#0DEH
0628 F0                MOVX    @DPTR,A
0629 A3                INC     DPTR
062A 74DB              MOV     A,#0DBH
062C F0                MOVX    @DPTR,A
062D 7D3A              MOV     R5,#03AH
062F 7C02              MOV     R4,#02H
0631 120000      E     LCALL   _Draw_line
                                           ; SOURCE LINE # 845
0634 900000      E     MOV     DPTR,#?_Draw_line?BYTE+06H
0637 7402              MOV     A,#02H
0639 F0                MOVX    @DPTR,A
063A A3                INC     DPTR
063B 743A              MOV     A,#03AH
063D F0                MOVX    @DPTR,A
063E A3                INC     DPTR
063F 7405              MOV     A,#05H
0641 F0                MOVX    @DPTR,A
0642 A3                INC     DPTR
0643 74DE              MOV     A,#0DEH
0645 F0                MOVX    @DPTR,A
0646 A3                INC     DPTR
0647 74DB              MOV     A,#0DBH
0649 F0                MOVX    @DPTR,A
064A 7BD8              MOV     R3,#0D8H
064C 7A04              MOV     R2,#04H
064E 7D3A              MOV     R5,#03AH
0650 7C02              MOV     R4,#02H
0652 7F28              MOV     R7,#028H
0654 7E00              MOV     R6,#00H
0656 120000      E     LCALL   _Draw_line
                                           ; SOURCE LINE # 846
0659 900000      E     MOV     DPTR,#?_Draw_line?BYTE+06H
065C 7402              MOV     A,#02H
065E F0                MOVX    @DPTR,A
065F A3                INC     DPTR
0660 748A              MOV     A,#08AH
0662 F0                MOVX    @DPTR,A
0663 A3                INC     DPTR
0664 7405              MOV     A,#05H
0666 F0                MOVX    @DPTR,A
0667 A3                INC     DPTR
0668 74DE              MOV     A,#0DEH
066A F0                MOVX    @DPTR,A
066B A3                INC     DPTR
066C 74DB              MOV     A,#0DBH
066E F0                MOVX    @DPTR,A
066F 7BD8              MOV     R3,#0D8H
0671 7A04              MOV     R2,#04H
0673 7D8A              MOV     R5,#08AH
0675 7C02              MOV     R4,#02H
0677 7F28              MOV     R7,#028H
0679 7E00              MOV     R6,#00H
067B 120000      E     LCALL   _Draw_line
                                           ; SOURCE LINE # 847
                                           ; SOURCE LINE # 849
067E E500        R     MOV     A,Welding_state
0680 7063              JNZ     ?C0232
C51 COMPILER V9.53.0.0   TEMP                                                              12/15/2023 14:28:41 PAGE 119 

                                           ; SOURCE LINE # 850
0682 900000      R     MOV     DPTR,#SCREEN_WIDTH
0685 04                INC     A
0686 93                MOVC    A,@A+DPTR
0687 24FF              ADD     A,#0FFH
0689 FB                MOV     R3,A
068A E4                CLR     A
068B 93                MOVC    A,@A+DPTR
068C 34FF              ADDC    A,#0FFH
068E FA                MOV     R2,A
068F 900000      E     MOV     DPTR,#?_Draw_text?BYTE+06H
0692 E4                CLR     A
0693 F0                MOVX    @DPTR,A
0694 A3                INC     DPTR
0695 74FF              MOV     A,#0FFH
0697 F0                MOVX    @DPTR,A
0698 E4                CLR     A
0699 A3                INC     DPTR
069A F0                MOVX    @DPTR,A
069B A3                INC     DPTR
069C 7426              MOV     A,#026H
069E F0                MOVX    @DPTR,A
069F A3                INC     DPTR
06A0 74AF              MOV     A,#0AFH
06A2 F0                MOVX    @DPTR,A
06A3 A3                INC     DPTR
06A4 74FF              MOV     A,#0FFH
06A6 F0                MOVX    @DPTR,A
06A7 A3                INC     DPTR
06A8 E4                CLR     A
06A9 F0                MOVX    @DPTR,A
06AA A3                INC     DPTR
06AB 7440              MOV     A,#040H
06AD F0                MOVX    @DPTR,A
06AE A3                INC     DPTR
06AF 74F8              MOV     A,#0F8H
06B1 F0                MOVX    @DPTR,A
06B2 A3                INC     DPTR
06B3 741F              MOV     A,#01FH
06B5 F0                MOVX    @DPTR,A
06B6 E4                CLR     A
06B7 FD                MOV     R5,A
06B8 FC                MOV     R4,A
06B9 FF                MOV     R7,A
06BA FE                MOV     R6,A
06BB 120000      E     LCALL   _Draw_text
06BE 900000      R     MOV     DPTR,#Par_big_text_sp
06C1 EE                MOV     A,R6
06C2 F0                MOVX    @DPTR,A
06C3 A3                INC     DPTR
06C4 EF                MOV     A,R7
06C5 F0                MOVX    @DPTR,A
                                           ; SOURCE LINE # 860
06C6 E4                CLR     A
06C7 900000      R     MOV     DPTR,#prev_par_id
06CA F0                MOVX    @DPTR,A
06CB A3                INC     DPTR
06CC F0                MOVX    @DPTR,A
                                           ; SOURCE LINE # 861
06CD 900000      R     MOV     DPTR,#cur_par_id
06D0 F0                MOVX    @DPTR,A
06D1 A3                INC     DPTR
C51 COMPILER V9.53.0.0   TEMP                                                              12/15/2023 14:28:41 PAGE 120 

06D2 741E              MOV     A,#01EH
06D4 F0                MOVX    @DPTR,A
                                           ; SOURCE LINE # 862
06D5 FF                MOV     R7,A
06D6 120000      R     LCALL   _par_select
                                           ; SOURCE LINE # 863
06D9 900000      R     MOV     DPTR,#prev_par_id
06DC E4                CLR     A
06DD F0                MOVX    @DPTR,A
06DE A3                INC     DPTR
06DF 741E              MOV     A,#01EH
06E1 F0                MOVX    @DPTR,A
                                           ; SOURCE LINE # 865
06E2 020000      R     LJMP    ?C0233
06E5         ?C0232:
06E5 E500        R     MOV     A,Welding_state
06E7 6408              XRL     A,#08H
06E9 6003              JZ      $ + 5H
06EB 020000      R     LJMP    ?C0233
                                           ; SOURCE LINE # 866
06EE 900000      R     MOV     DPTR,#SCREEN_WIDTH
06F1 04                INC     A
06F2 93                MOVC    A,@A+DPTR
06F3 24D4              ADD     A,#0D4H
06F5 FB                MOV     R3,A
06F6 E4                CLR     A
06F7 93                MOVC    A,@A+DPTR
06F8 34FE              ADDC    A,#0FEH
06FA FA                MOV     R2,A
06FB 900000      E     MOV     DPTR,#?_Draw_text?BYTE+06H
06FE E4                CLR     A
06FF F0                MOVX    @DPTR,A
0700 A3                INC     DPTR
0701 74FF              MOV     A,#0FFH
0703 F0                MOVX    @DPTR,A
0704 E4                CLR     A
0705 A3                INC     DPTR
0706 F0                MOVX    @DPTR,A
0707 A3                INC     DPTR
0708 7426              MOV     A,#026H
070A F0                MOVX    @DPTR,A
070B A3                INC     DPTR
070C 74AF              MOV     A,#0AFH
070E F0                MOVX    @DPTR,A
070F A3                INC     DPTR
0710 74FF              MOV     A,#0FFH
0712 F0                MOVX    @DPTR,A
0713 A3                INC     DPTR
0714 E4                CLR     A
0715 F0                MOVX    @DPTR,A
0716 A3                INC     DPTR
0717 7420              MOV     A,#020H
0719 F0                MOVX    @DPTR,A
071A A3                INC     DPTR
071B 74F8              MOV     A,#0F8H
071D F0                MOVX    @DPTR,A
071E A3                INC     DPTR
071F E4                CLR     A
0720 F0                MOVX    @DPTR,A
0721 FD                MOV     R5,A
0722 FC                MOV     R4,A
0723 FF                MOV     R7,A
C51 COMPILER V9.53.0.0   TEMP                                                              12/15/2023 14:28:41 PAGE 121 

0724 FE                MOV     R6,A
0725 120000      E     LCALL   _Draw_text
0728 900000      R     MOV     DPTR,#Amp_text_sp
072B EE                MOV     A,R6
072C F0                MOVX    @DPTR,A
072D A3                INC     DPTR
072E EF                MOV     A,R7
072F F0                MOVX    @DPTR,A
                                           ; SOURCE LINE # 876
0730 900000      R     MOV     DPTR,#SCREEN_WIDTH
0733 7401              MOV     A,#01H
0735 93                MOVC    A,@A+DPTR
0736 24FF              ADD     A,#0FFH
0738 FB                MOV     R3,A
0739 E4                CLR     A
073A 93                MOVC    A,@A+DPTR
073B 34FF              ADDC    A,#0FFH
073D FA                MOV     R2,A
073E 900000      E     MOV     DPTR,#?_Draw_text?BYTE+06H
0741 E4                CLR     A
0742 F0                MOVX    @DPTR,A
0743 A3                INC     DPTR
0744 74CA              MOV     A,#0CAH
0746 F0                MOVX    @DPTR,A
0747 E4                CLR     A
0748 A3                INC     DPTR
0749 F0                MOVX    @DPTR,A
074A A3                INC     DPTR
074B F0                MOVX    @DPTR,A
074C A3                INC     DPTR
074D 7440              MOV     A,#040H
074F F0                MOVX    @DPTR,A
0750 A3                INC     DPTR
0751 7480              MOV     A,#080H
0753 F0                MOVX    @DPTR,A
0754 A3                INC     DPTR
0755 E4                CLR     A
0756 F0                MOVX    @DPTR,A
0757 A3                INC     DPTR
0758 7402              MOV     A,#02H
075A F0                MOVX    @DPTR,A
075B A3                INC     DPTR
075C 744D              MOV     A,#04DH
075E F0                MOVX    @DPTR,A
075F A3                INC     DPTR
0760 74E5              MOV     A,#0E5H
0762 F0                MOVX    @DPTR,A
0763 7D4A              MOV     R5,#04AH
0765 7C00              MOV     R4,#00H
0767 7FA2              MOV     R7,#0A2H
0769 7E03              MOV     R6,#03H
076B 120000      E     LCALL   _Draw_text
076E 900000      R     MOV     DPTR,#Volt_text_sp
0771 EE                MOV     A,R6
0772 F0                MOVX    @DPTR,A
0773 A3                INC     DPTR
0774 EF                MOV     A,R7
0775 F0                MOVX    @DPTR,A
                                           ; SOURCE LINE # 885
0776         ?C0233:
                                           ; SOURCE LINE # 890
0776 020000      E     LJMP    Draw_end
C51 COMPILER V9.53.0.0   TEMP                                                              12/15/2023 14:28:41 PAGE 122 

             ; FUNCTION make_scene (END)

C51 COMPILER V9.53.0.0   TEMP                                                              12/15/2023 14:28:41 PAGE 123 

NAME                                    CLASS   MSPACE  TYPE    OFFSET  SIZE
====                                    =====   ======  ====    ======  ====


ENC_STOP . . . . . . . . . . . . . . .  E_CONST  -----  U_CHAR   -----  1
LINE_HIGHT . . . . . . . . . . . . . .  PUBLIC   CODE   U_CHAR   0077H  1
icon_t . . . . . . . . . . . . . . . .  TYPEDEF  -----  STRUCT   -----  9
  id . . . . . . . . . . . . . . . . .  MEMBER   -----  U_CHAR   0000H  1
  r. . . . . . . . . . . . . . . . . .  MEMBER   -----  STRUCT   0001H  8
EIID_BASE2_I2X . . . . . . . . . . . .  E_CONST  -----  U_CHAR   -----  1
_dummy_line_up . . . . . . . . . . . .  PUBLIC   CODE   PROC     0006H  -----
  p. . . . . . . . . . . . . . . . . .  AUTO     XDATA  PTR      0000H  3
EPDI_I_MIN_MINUS . . . . . . . . . . .  E_CONST  -----  U_CHAR   -----  1
EIID_AC. . . . . . . . . . . . . . . .  E_CONST  -----  U_CHAR   -----  1
icon_sp_bottom_menu. . . . . . . . . .  PUBLIC   XDATA  ARRAY    0000H  32
EIID_BASE_T4 . . . . . . . . . . . . .  E_CONST  -----  U_CHAR   -----  1
EIID_D_10. . . . . . . . . . . . . . .  E_CONST  -----  U_CHAR   -----  1
point_t. . . . . . . . . . . . . . . .  TYPEDEF  -----  STRUCT   -----  4
  x. . . . . . . . . . . . . . . . . .  MEMBER   -----  U_INT    0000H  2
  y. . . . . . . . . . . . . . . . . .  MEMBER   -----  U_INT    0002H  2
EPID_IMPULSE_I3. . . . . . . . . . . .  E_CONST  -----  U_CHAR   -----  1
EIID_H2O_OFF . . . . . . . . . . . . .  E_CONST  -----  U_CHAR   -----  1
EIID_D_20. . . . . . . . . . . . . . .  E_CONST  -----  U_CHAR   -----  1
EIID_2T. . . . . . . . . . . . . . . .  E_CONST  -----  U_CHAR   -----  1
EIID_FREQ_F1 . . . . . . . . . . . . .  E_CONST  -----  U_CHAR   -----  1
EIID_D_40. . . . . . . . . . . . . . .  E_CONST  -----  U_CHAR   -----  1
EIID_4T. . . . . . . . . . . . . . . .  E_CONST  -----  U_CHAR   -----  1
rect_t . . . . . . . . . . . . . . . .  TYPEDEF  -----  STRUCT   -----  8
  x0 . . . . . . . . . . . . . . . . .  MEMBER   -----  U_INT    0000H  2
  y0 . . . . . . . . . . . . . . . . .  MEMBER   -----  U_INT    0002H  2
  x1 . . . . . . . . . . . . . . . . .  MEMBER   -----  U_INT    0004H  2
  y1 . . . . . . . . . . . . . . . . .  MEMBER   -----  U_INT    0006H  2
active_items . . . . . . . . . . . . .  PUBLIC   CODE   ARRAY    009BH  8
EIID_D_32. . . . . . . . . . . . . . .  E_CONST  -----  U_CHAR   -----  1
EIID_PULSE_ON. . . . . . . . . . . . .  E_CONST  -----  U_CHAR   -----  1
EPID_BASE2_I2X . . . . . . . . . . . .  E_CONST  -----  U_CHAR   -----  1
EIID_D_24. . . . . . . . . . . . . . .  E_CONST  -----  U_CHAR   -----  1
EPID_KZ_I5 . . . . . . . . . . . . . .  E_CONST  -----  U_CHAR   -----  1
EIID_D_16. . . . . . . . . . . . . . .  E_CONST  -----  U_CHAR   -----  1
EPID_BASE_T4 . . . . . . . . . . . . .  E_CONST  -----  U_CHAR   -----  1
EIID_IMPULSE_T5. . . . . . . . . . . .  E_CONST  -----  U_CHAR   -----  1
EIID_UP_T3 . . . . . . . . . . . . . .  E_CONST  -----  U_CHAR   -----  1
EIID_TIG_SPOT. . . . . . . . . . . . .  E_CONST  -----  U_CHAR   -----  1
EPID_FREQ_F1 . . . . . . . . . . . . .  E_CONST  -----  U_CHAR   -----  1
EIID_HF. . . . . . . . . . . . . . . .  E_CONST  -----  U_CHAR   -----  1
text_sp. . . . . . . . . . . . . . . .  PUBLIC   XDATA  ARRAY    0020H  86
LINE_WIDTH . . . . . . . . . . . . . .  PUBLIC   IDATA  U_INT    0000H  2
Amp_text_sp. . . . . . . . . . . . . .  PUBLIC   XDATA  U_INT    0076H  2
open_additional_settings . . . . . . .  PUBLIC   CODE   PROC     0000H  -----
  i. . . . . . . . . . . . . . . . . .  AUTO     XDATA  U_CHAR   0000H  1
EPID_IGNITION_TYPE . . . . . . . . . .  E_CONST  -----  U_CHAR   -----  1
dgus_text_display_t. . . . . . . . . .  TYPEDEF  -----  STRUCT   -----  26
  vp . . . . . . . . . . . . . . . . .  MEMBER   -----  U_INT    0000H  2
  start_pos. . . . . . . . . . . . . .  MEMBER   -----  STRUCT   0002H  4
  color. . . . . . . . . . . . . . . .  MEMBER   -----  U_INT    0006H  2
  lh . . . . . . . . . . . . . . . . .  MEMBER   -----  STRUCT   0008H  4
  rl . . . . . . . . . . . . . . . . .  MEMBER   -----  STRUCT   000CH  4
  text_len . . . . . . . . . . . . . .  MEMBER   -----  U_INT    0010H  2
  font0_id . . . . . . . . . . . . . .  MEMBER   -----  U_CHAR   0012H  1
  font1_id . . . . . . . . . . . . . .  MEMBER   -----  U_CHAR   0013H  1
  font_x_dots. . . . . . . . . . . . .  MEMBER   -----  U_CHAR   0014H  1
C51 COMPILER V9.53.0.0   TEMP                                                              12/15/2023 14:28:41 PAGE 124 

NAME                                    CLASS   MSPACE  TYPE    OFFSET  SIZE
====                                    =====   ======  ====    ======  ====


  font_y_dots. . . . . . . . . . . . .  MEMBER   -----  U_CHAR   0015H  1
  encode_mode. . . . . . . . . . . . .  MEMBER   -----  U_CHAR   0016H  1
  hor_dis. . . . . . . . . . . . . . .  MEMBER   -----  U_CHAR   0017H  1
  ver_dis. . . . . . . . . . . . . . .  MEMBER   -----  U_CHAR   0018H  1
  undef. . . . . . . . . . . . . . . .  MEMBER   -----  U_CHAR   0019H  1
_Draw_text_set_text. . . . . . . . . .  EXTERN   CODE   PROC     -----  -----
_Draw_text_get_pos . . . . . . . . . .  EXTERN   CODE   PROC     -----  -----
dgus_data_variable_display_t . . . . .  TYPEDEF  -----  STRUCT   -----  20
  vp . . . . . . . . . . . . . . . . .  MEMBER   -----  U_INT    0000H  2
  upper_left_point . . . . . . . . . .  MEMBER   -----  STRUCT   0002H  4
  color. . . . . . . . . . . . . . . .  MEMBER   -----  U_INT    0006H  2
  lib_id . . . . . . . . . . . . . . .  MEMBER   -----  U_CHAR   0008H  1
  font_size. . . . . . . . . . . . . .  MEMBER   -----  U_CHAR   0009H  1
  alignment. . . . . . . . . . . . . .  MEMBER   -----  U_CHAR   000AH  1
  integer_digits . . . . . . . . . . .  MEMBER   -----  U_CHAR   000BH  1
  decimal_places . . . . . . . . . . .  MEMBER   -----  U_CHAR   000CH  1
  variable_data_type . . . . . . . . .  MEMBER   -----  U_CHAR   000DH  1
  len_unit . . . . . . . . . . . . . .  MEMBER   -----  U_CHAR   000EH  1
  string_unit. . . . . . . . . . . . .  MEMBER   -----  ARRAY    000FH  5
EPID_IMPULSE_T5. . . . . . . . . . . .  E_CONST  -----  U_CHAR   -----  1
EPID_UP_T3 . . . . . . . . . . . . . .  E_CONST  -----  U_CHAR   -----  1
size_t . . . . . . . . . . . . . . . .  TYPEDEF  -----  U_INT    -----  2
make_scene . . . . . . . . . . . . . .  PUBLIC   CODE   PROC     0000H  -----
  v_id . . . . . . . . . . . . . . . .  AUTO     XDATA  U_CHAR   000AH  1
  v_start_x. . . . . . . . . . . . . .  AUTO     XDATA  U_INT    000BH  2
  v_start_y. . . . . . . . . . . . . .  AUTO     XDATA  U_INT    000DH  2
  start_x. . . . . . . . . . . . . . .  AUTO     XDATA  U_INT    0000H  2
  start_y. . . . . . . . . . . . . . .  AUTO     XDATA  U_INT    0002H  2
  bm . . . . . . . . . . . . . . . . .  AUTO     XDATA  U_LONG   0004H  4
  i. . . . . . . . . . . . . . . . . .  AUTO     XDATA  U_CHAR   0008H  1
  id . . . . . . . . . . . . . . . . .  AUTO     XDATA  U_CHAR   0009H  1
  p. . . . . . . . . . . . . . . . . .  AUTO     XDATA  STRUCT   0000H  4
  start_p. . . . . . . . . . . . . . .  AUTO     XDATA  STRUCT   0004H  4
EPID_I_CLEAN . . . . . . . . . . . . .  E_CONST  -----  U_CHAR   -----  1
prev_par_id. . . . . . . . . . . . . .  PUBLIC   XDATA  U_INT    0078H  2
Volt_text_sp . . . . . . . . . . . . .  PUBLIC   XDATA  U_INT    007AH  2
cur_prog_id. . . . . . . . . . . . . .  PUBLIC   XDATA  U_INT    007CH  2
LEVEL_HEIGHT . . . . . . . . . . . . .  PUBLIC   IDATA  U_CHAR   0002H  1
lim_t. . . . . . . . . . . . . . . . .  TYPEDEF  -----  STRUCT   -----  4
  min. . . . . . . . . . . . . . . . .  MEMBER   -----  INT      0000H  2
  max. . . . . . . . . . . . . . . . .  MEMBER   -----  INT      0002H  2
_add_t_down. . . . . . . . . . . . . .  PUBLIC   CODE   PROC     0006H  -----
  p. . . . . . . . . . . . . . . . . .  AUTO     XDATA  PTR      0000H  3
_add_touch_place . . . . . . . . . . .  PUBLIC   CODE   PROC     0006H  -----
  x0 . . . . . . . . . . . . . . . . .  AUTO     XDATA  U_INT    0000H  2
  y0 . . . . . . . . . . . . . . . . .  AUTO     XDATA  U_INT    0002H  2
  x1 . . . . . . . . . . . . . . . . .  AUTO     XDATA  U_INT    0004H  2
  y1 . . . . . . . . . . . . . . . . .  AUTO     XDATA  U_INT    0006H  2
  touch_id . . . . . . . . . . . . . .  AUTO     XDATA  U_CHAR   0008H  1
  p_menu . . . . . . . . . . . . . . .  * REG *  DATA   PTR      0001H  3
_Draw_line . . . . . . . . . . . . . .  EXTERN   CODE   PROC     -----  -----
EPID_T_CLEAN . . . . . . . . . . . . .  E_CONST  -----  U_CHAR   -----  1
cur_par_id . . . . . . . . . . . . . .  PUBLIC   XDATA  U_INT    007EH  2
_display_par . . . . . . . . . . . . .  PUBLIC   CODE   PROC     0000H  -----
  par_id . . . . . . . . . . . . . . .  AUTO     XDATA  U_INT    0000H  2
  tmp. . . . . . . . . . . . . . . . .  AUTO     XDATA  U_INT    0029H  2
  par_color. . . . . . . . . . . . . .  AUTO     XDATA  U_INT    0002H  2
C51 COMPILER V9.53.0.0   TEMP                                                              12/15/2023 14:28:41 PAGE 125 

NAME                                    CLASS   MSPACE  TYPE    OFFSET  SIZE
====                                    =====   ======  ====    ======  ====


  format . . . . . . . . . . . . . . .  AUTO     XDATA  ARRAY    0004H  16
  format_big . . . . . . . . . . . . .  AUTO     XDATA  ARRAY    0014H  16
  format_id. . . . . . . . . . . . . .  AUTO     XDATA  U_CHAR   0024H  1
  par_value. . . . . . . . . . . . . .  AUTO     XDATA  FLOAT    0025H  4
TOUCH_HEIGHT . . . . . . . . . . . . .  PUBLIC   CODE   U_CHAR   0078H  1
EIID_DOWN_T6 . . . . . . . . . . . . .  E_CONST  -----  U_CHAR   -----  1
Draw_start . . . . . . . . . . . . . .  EXTERN   CODE   PROC     -----  -----
EPID_OSCIL_TYPE. . . . . . . . . . . .  E_CONST  -----  U_CHAR   -----  1
EIID_PROG_ID . . . . . . . . . . . . .  E_CONST  -----  U_CHAR   -----  1
Par_big_text_sp. . . . . . . . . . . .  PUBLIC   XDATA  U_INT    0080H  2
SCREEN_WIDTH . . . . . . . . . . . . .  STATIC   CODE   U_INT    0073H  2
_Encoder_process_code. . . . . . . . .  PUBLIC   CODE   PROC     0000H  -----
  state. . . . . . . . . . . . . . . .  * REG *  DATA   U_CHAR   0005H  1
  shifts . . . . . . . . . . . . . . .  STATIC   CODE   ARRAY    00C3H  4
vertical_menu_bm . . . . . . . . . . .  PUBLIC   XDATA  U_LONG   0082H  4
EPID_DOWN_T6 . . . . . . . . . . . . .  E_CONST  -----  U_CHAR   -----  1
_par_select. . . . . . . . . . . . . .  PUBLIC   CODE   PROC     0000H  -----
  par_id . . . . . . . . . . . . . . .  AUTO     XDATA  U_CHAR   0000H  1
  r. . . . . . . . . . . . . . . . . .  AUTO     XDATA  STRUCT   0001H  8
  old_par_id . . . . . . . . . . . . .  * REG *  DATA   U_CHAR   0007H  1
Draw_end . . . . . . . . . . . . . . .  EXTERN   CODE   PROC     -----  -----
EIID_DC_PLUS . . . . . . . . . . . . .  E_CONST  -----  U_CHAR   -----  1
EIID_4T_PLUS . . . . . . . . . . . . .  E_CONST  -----  U_CHAR   -----  1
MSPIFLASH. . . . . . . . . . . . . . .  TYPEDEF  -----  STRUCT   -----  16
  Mode . . . . . . . . . . . . . . . .  MEMBER   -----  U_CHAR   0000H  1
  ID . . . . . . . . . . . . . . . . .  MEMBER   -----  U_INT    0001H  2
  FLAddr . . . . . . . . . . . . . . .  MEMBER   -----  U_LONG   0003H  4
  VPAddr . . . . . . . . . . . . . . .  MEMBER   -----  U_INT    0007H  2
  Len. . . . . . . . . . . . . . . . .  MEMBER   -----  U_INT    0009H  2
  Buf. . . . . . . . . . . . . . . . .  MEMBER   -----  PTR      000BH  3
  Delay. . . . . . . . . . . . . . . .  MEMBER   -----  U_INT    000EH  2
_mSPIFLASH . . . . . . . . . . . . . .  * TAG *  -----  STRUCT   -----  16
  Mode . . . . . . . . . . . . . . . .  MEMBER   -----  U_CHAR   0000H  1
  ID . . . . . . . . . . . . . . . . .  MEMBER   -----  U_INT    0001H  2
  FLAddr . . . . . . . . . . . . . . .  MEMBER   -----  U_LONG   0003H  4
  VPAddr . . . . . . . . . . . . . . .  MEMBER   -----  U_INT    0007H  2
  Len. . . . . . . . . . . . . . . . .  MEMBER   -----  U_INT    0009H  2
  Buf. . . . . . . . . . . . . . . . .  MEMBER   -----  PTR      000BH  3
  Delay. . . . . . . . . . . . . . . .  MEMBER   -----  U_INT    000EH  2
s8 . . . . . . . . . . . . . . . . . .  TYPEDEF  -----  CHAR     -----  1
EIID_RECT. . . . . . . . . . . . . . .  E_CONST  -----  U_CHAR   -----  1
_add_i_t_impulse . . . . . . . . . . .  PUBLIC   CODE   PROC     0006H  -----
  p. . . . . . . . . . . . . . . . . .  AUTO     XDATA  PTR      0000H  3
EIID_LIFT. . . . . . . . . . . . . . .  E_CONST  -----  U_CHAR   -----  1
u8 . . . . . . . . . . . . . . . . . .  TYPEDEF  -----  U_CHAR   -----  1
_make_point. . . . . . . . . . . . . .  EXTERN   CODE   PROC     -----  -----
MNORFLASH. . . . . . . . . . . . . . .  TYPEDEF  -----  STRUCT   -----  12
  Mode . . . . . . . . . . . . . . . .  MEMBER   -----  U_CHAR   0000H  1
  FLAddr . . . . . . . . . . . . . . .  MEMBER   -----  U_LONG   0001H  4
  VPAddr . . . . . . . . . . . . . . .  MEMBER   -----  U_INT    0005H  2
  Len. . . . . . . . . . . . . . . . .  MEMBER   -----  U_INT    0007H  2
  Buf. . . . . . . . . . . . . . . . .  MEMBER   -----  PTR      0009H  3
_mNORFLASH . . . . . . . . . . . . . .  * TAG *  -----  STRUCT   -----  12
  Mode . . . . . . . . . . . . . . . .  MEMBER   -----  U_CHAR   0000H  1
  FLAddr . . . . . . . . . . . . . . .  MEMBER   -----  U_LONG   0001H  4
  VPAddr . . . . . . . . . . . . . . .  MEMBER   -----  U_INT    0005H  2
  Len. . . . . . . . . . . . . . . . .  MEMBER   -----  U_INT    0007H  2
C51 COMPILER V9.53.0.0   TEMP                                                              12/15/2023 14:28:41 PAGE 126 

NAME                                    CLASS   MSPACE  TYPE    OFFSET  SIZE
====                                    =====   ======  ====    ======  ====


  Buf. . . . . . . . . . . . . . . . .  MEMBER   -----  PTR      0009H  3
EPID_IS_PLUS_4T. . . . . . . . . . . .  E_CONST  -----  U_CHAR   -----  1
MEN_WELD_MOD . . . . . . . . . . . . .  E_CONST  -----  U_CHAR   -----  1
EIID_END_I4. . . . . . . . . . . . . .  E_CONST  -----  U_CHAR   -----  1
ENC_L0 . . . . . . . . . . . . . . . .  E_CONST  -----  U_CHAR   -----  1
ENC_L1 . . . . . . . . . . . . . . . .  E_CONST  -----  U_CHAR   -----  1
EIID_TRIG. . . . . . . . . . . . . . .  E_CONST  -----  U_CHAR   -----  1
EPID_PLUS_PULSE. . . . . . . . . . . .  E_CONST  -----  U_CHAR   -----  1
EIID_TRAP. . . . . . . . . . . . . . .  E_CONST  -----  U_CHAR   -----  1
dgus_variables_icon_t. . . . . . . . .  TYPEDEF  -----  STRUCT   -----  20
  vp . . . . . . . . . . . . . . . . .  MEMBER   -----  U_INT    0000H  2
  upper_left_point . . . . . . . . . .  MEMBER   -----  STRUCT   0002H  4
  v_min. . . . . . . . . . . . . . . .  MEMBER   -----  U_INT    0006H  2
  v_max. . . . . . . . . . . . . . . .  MEMBER   -----  U_INT    0008H  2
  icon_min . . . . . . . . . . . . . .  MEMBER   -----  U_INT    000AH  2
  icon_max . . . . . . . . . . . . . .  MEMBER   -----  U_INT    000CH  2
  icon_lib . . . . . . . . . . . . . .  MEMBER   -----  U_CHAR   000EH  1
  mode . . . . . . . . . . . . . . . .  MEMBER   -----  U_CHAR   000FH  1
  layer_mode . . . . . . . . . . . . .  MEMBER   -----  U_CHAR   0010H  1
  icon_gamma . . . . . . . . . . . . .  MEMBER   -----  U_CHAR   0011H  1
  pic_gamma. . . . . . . . . . . . . .  MEMBER   -----  U_CHAR   0012H  1
  filter_set . . . . . . . . . . . . .  MEMBER   -----  U_CHAR   0013H  1
EPID_I_MIN_PLUS. . . . . . . . . . . .  E_CONST  -----  U_CHAR   -----  1
_Draw_text . . . . . . . . . . . . . .  EXTERN   CODE   PROC     -----  -----
ENC_R0 . . . . . . . . . . . . . . . .  E_CONST  -----  U_CHAR   -----  1
EPID_END_I4. . . . . . . . . . . . . .  E_CONST  -----  U_CHAR   -----  1
EIID_SIZE. . . . . . . . . . . . . . .  E_CONST  -----  U_CHAR   -----  1
_add_i_kz. . . . . . . . . . . . . . .  PUBLIC   CODE   PROC     0000H  -----
  p. . . . . . . . . . . . . . . . . .  AUTO     XDATA  PTR      0000H  3
ENC_R1 . . . . . . . . . . . . . . . .  E_CONST  -----  U_CHAR   -----  1
EIID_BALANCE_D1. . . . . . . . . . . .  E_CONST  -----  U_CHAR   -----  1
_cur_par_value_change. . . . . . . . .  PUBLIC   CODE   PROC     0003H  -----
  par_id . . . . . . . . . . . . . . .  AUTO     XDATA  U_INT    0000H  2
  shift. . . . . . . . . . . . . . . .  AUTO     XDATA  CHAR     0002H  1
  val. . . . . . . . . . . . . . . . .  AUTO     XDATA  PTR      0003H  3
  val_max. . . . . . . . . . . . . . .  AUTO     XDATA  INT      0006H  2
  val_min. . . . . . . . . . . . . . .  AUTO     XDATA  INT      0008H  2
  val. . . . . . . . . . . . . . . . .  AUTO     XDATA  PTR      0004H  3
  i. . . . . . . . . . . . . . . . . .  AUTO     XDATA  U_CHAR   0003H  1
  tmp. . . . . . . . . . . . . . . . .  AUTO     XDATA  U_INT    0003H  2
  mod_submod . . . . . . . . . . . . .  * TAG *  -----  STRUCT   -----  2
  tmp. . . . . . . . . . . . . . . . .  AUTO     XDATA  STRUCT   0003H  2
MEN_FLOW_MOD . . . . . . . . . . . . .  E_CONST  -----  U_CHAR   -----  1
dgus_basic_raphics_t . . . . . . . . .  TYPEDEF  -----  STRUCT   -----  28
  vp . . . . . . . . . . . . . . . . .  MEMBER   -----  U_INT    0000H  2
  x0 . . . . . . . . . . . . . . . . .  MEMBER   -----  U_INT    0002H  2
  y0 . . . . . . . . . . . . . . . . .  MEMBER   -----  U_INT    0004H  2
  x1 . . . . . . . . . . . . . . . . .  MEMBER   -----  U_INT    0006H  2
  y1 . . . . . . . . . . . . . . . . .  MEMBER   -----  U_INT    0008H  2
  dashed_line_en . . . . . . . . . . .  MEMBER   -----  U_CHAR   000AH  1
  dash_set . . . . . . . . . . . . . .  MEMBER   -----  ARRAY    000BH  4
  pixel_scale. . . . . . . . . . . . .  MEMBER   -----  U_CHAR   000FH  1
  d0 . . . . . . . . . . . . . . . . .  MEMBER   -----  ARRAY    0010H  12
EIID_END_T7. . . . . . . . . . . . . .  E_CONST  -----  U_CHAR   -----  1
_Norflash_read . . . . . . . . . . . .  EXTERN   CODE   PROC     -----  -----
EPID_BALANCE_D1. . . . . . . . . . . .  E_CONST  -----  U_CHAR   -----  1
_?ix1000 . . . . . . . . . . . . . . .  STATIC   CODE   ARRAY    00A3H  16
C51 COMPILER V9.53.0.0   TEMP                                                              12/15/2023 14:28:41 PAGE 127 

NAME                                    CLASS   MSPACE  TYPE    OFFSET  SIZE
====                                    =====   ======  ====    ======  ====


EPID_ELECTRODE_D . . . . . . . . . . .  E_CONST  -----  U_CHAR   -----  1
_?ix1001 . . . . . . . . . . . . . . .  STATIC   CODE   ARRAY    00B3H  16
_make_lim. . . . . . . . . . . . . . .  PUBLIC   CODE   PROC     000CH  -----
  lim. . . . . . . . . . . . . . . . .  AUTO     DATA   PTR      0001H  3
  min. . . . . . . . . . . . . . . . .  AUTO     DATA   INT      0004H  2
  max. . . . . . . . . . . . . . . . .  AUTO     XDATA  INT      0005H  2
cur_menu_active. . . . . . . . . . . .  PUBLIC   XDATA  U_LONG   0086H  4
TIME_Y_LEVEL . . . . . . . . . . . . .  PUBLIC   IDATA  U_INT    0003H  2
par. . . . . . . . . . . . . . . . . .  PUBLIC   XDATA  ARRAY    008AH  86
EPID_MODES_SUBMODES. . . . . . . . . .  E_CONST  -----  U_CHAR   -----  1
EIID_H2O_ON. . . . . . . . . . . . . .  E_CONST  -----  U_CHAR   -----  1
EIID_PULSE_OFF . . . . . . . . . . . .  E_CONST  -----  U_CHAR   -----  1
_add_t_up. . . . . . . . . . . . . . .  PUBLIC   CODE   PROC     0000H  -----
  p. . . . . . . . . . . . . . . . . .  AUTO     XDATA  PTR      0000H  3
MEN_D_MOD. . . . . . . . . . . . . . .  E_CONST  -----  U_CHAR   -----  1
EPID_END_T7. . . . . . . . . . . . . .  E_CONST  -----  U_CHAR   -----  1
ICON_RECT_SZ . . . . . . . . . . . . .  PUBLIC   CODE   U_INT    0079H  2
EIID_POST_FLOW_T8. . . . . . . . . . .  E_CONST  -----  U_CHAR   -----  1
_add_freq_bal. . . . . . . . . . . . .  PUBLIC   CODE   PROC     0006H  -----
  p. . . . . . . . . . . . . . . . . .  AUTO     XDATA  PTR      0000H  3
EPID_WAVE_FORM . . . . . . . . . . . .  E_CONST  -----  U_CHAR   -----  1
Filled_rect_under_par_sp . . . . . . .  PUBLIC   XDATA  U_INT    00E0H  2
EIID_AC_MIX. . . . . . . . . . . . . .  E_CONST  -----  U_CHAR   -----  1
MMUSIC . . . . . . . . . . . . . . . .  TYPEDEF  -----  STRUCT   -----  35
  IdNmu. . . . . . . . . . . . . . . .  MEMBER   -----  ARRAY    0000H  32
  PlayTail . . . . . . . . . . . . . .  MEMBER   -----  U_CHAR   0020H  1
  PlayHead . . . . . . . . . . . . . .  MEMBER   -----  U_CHAR   0021H  1
  PlayInterrupt. . . . . . . . . . . .  MEMBER   -----  U_CHAR   0022H  1
_mMUSIC. . . . . . . . . . . . . . . .  * TAG *  -----  STRUCT   -----  35
  IdNmu. . . . . . . . . . . . . . . .  MEMBER   -----  ARRAY    0000H  32
  PlayTail . . . . . . . . . . . . . .  MEMBER   -----  U_CHAR   0020H  1
  PlayHead . . . . . . . . . . . . . .  MEMBER   -----  U_CHAR   0021H  1
  PlayInterrupt. . . . . . . . . . . .  MEMBER   -----  U_CHAR   0022H  1
_Norflash_write. . . . . . . . . . . .  EXTERN   CODE   PROC     -----  -----
PAR_ID . . . . . . . . . . . . . . . .  * TAG *  -----  ENUM     -----  -----
EPID_POST_FLOW_T8. . . . . . . . . . .  E_CONST  -----  U_CHAR   -----  1
Welding_state. . . . . . . . . . . . .  PUBLIC   DATA   U_CHAR   0000H  1
_dummy_line_down . . . . . . . . . . .  PUBLIC   CODE   PROC     0006H  -----
  p. . . . . . . . . . . . . . . . . .  AUTO     XDATA  PTR      0000H  3
N_prog_text_sp . . . . . . . . . . . .  PUBLIC   XDATA  U_INT    00E2H  2
FONT_SIZE. . . . . . . . . . . . . . .  PUBLIC   IDATA  U_INT    0005H  2
EIID_MMA . . . . . . . . . . . . . . .  E_CONST  -----  U_CHAR   -----  1
s32. . . . . . . . . . . . . . . . . .  TYPEDEF  -----  LONG     -----  4
_add_t_start_i . . . . . . . . . . . .  PUBLIC   CODE   PROC     0006H  -----
  p. . . . . . . . . . . . . . . . . .  AUTO     XDATA  PTR      0000H  3
u32. . . . . . . . . . . . . . . . . .  TYPEDEF  -----  U_LONG   -----  4
s16. . . . . . . . . . . . . . . . . .  TYPEDEF  -----  INT      -----  2
MMA. . . . . . . . . . . . . . . . . .  E_CONST  -----  U_CHAR   -----  1
MEN_PLS_WAVE_SHAPE_MOD . . . . . . . .  E_CONST  -----  U_CHAR   -----  1
EPID_SERVICE_PAR . . . . . . . . . . .  E_CONST  -----  U_CHAR   -----  1
u16. . . . . . . . . . . . . . . . . .  TYPEDEF  -----  U_INT    -----  2
_cur_menu_fanc . . . . . . . . . . . .  PUBLIC   XDATA  PTR      00E4H  3
touch_rect_cnt . . . . . . . . . . . .  PUBLIC   XDATA  U_CHAR   00E7H  1
SCREEN_HEIGHT. . . . . . . . . . . . .  STATIC   CODE   U_INT    0075H  2
_Draw_filled_rect_redraw . . . . . . .  EXTERN   CODE   PROC     -----  -----
cur_active_items_id. . . . . . . . . .  PUBLIC   IDATA  U_CHAR   0007H  1
_add_end_i_t . . . . . . . . . . . . .  PUBLIC   CODE   PROC     0000H  -----
C51 COMPILER V9.53.0.0   TEMP                                                              12/15/2023 14:28:41 PAGE 128 

NAME                                    CLASS   MSPACE  TYPE    OFFSET  SIZE
====                                    =====   ======  ====    ======  ====


  p. . . . . . . . . . . . . . . . . .  AUTO     XDATA  PTR      0000H  3
MEN_IGN_MOD. . . . . . . . . . . . . .  E_CONST  -----  U_CHAR   -----  1
EIID_TIG . . . . . . . . . . . . . . .  E_CONST  -----  U_CHAR   -----  1
_add_t_postflow. . . . . . . . . . . .  PUBLIC   CODE   PROC     0000H  -----
  p. . . . . . . . . . . . . . . . . .  AUTO     XDATA  PTR      0000H  3
_add_t_preflow . . . . . . . . . . . .  PUBLIC   CODE   PROC     0000H  -----
  p. . . . . . . . . . . . . . . . . .  AUTO     XDATA  PTR      0000H  3
par_step . . . . . . . . . . . . . . .  PUBLIC   XDATA  ARRAY    00E8H  86
cur_menu . . . . . . . . . . . . . . .  PUBLIC   XDATA  ARRAY    013EH  432
TIG. . . . . . . . . . . . . . . . . .  E_CONST  -----  U_CHAR   -----  1
EIID_PRE_FLOW_T1 . . . . . . . . . . .  E_CONST  -----  U_CHAR   -----  1
MEN_BTN_MOD. . . . . . . . . . . . . .  E_CONST  -----  U_CHAR   -----  1
EPID_BSN . . . . . . . . . . . . . . .  E_CONST  -----  U_CHAR   -----  1
EIID_START_I1. . . . . . . . . . . . .  E_CONST  -----  U_CHAR   -----  1
EIID_SIN . . . . . . . . . . . . . . .  E_CONST  -----  U_CHAR   -----  1
T2CON. . . . . . . . . . . . . . . . .  SFR      DATA   U_CHAR   00C8H  1
par_lim. . . . . . . . . . . . . . . .  PUBLIC   XDATA  ARRAY    02EEH  172
_Draw_text_set_color . . . . . . . . .  EXTERN   CODE   PROC     -----  -----
par_tek. . . . . . . . . . . . . . . .  PUBLIC   XDATA  ARRAY    039AH  72
EPID_PRE_FLOW_T1 . . . . . . . . . . .  E_CONST  -----  U_CHAR   -----  1
EPID_IMPULSE_CNT . . . . . . . . . . .  E_CONST  -----  U_CHAR   -----  1
MEN_POL_MOD. . . . . . . . . . . . . .  E_CONST  -----  U_CHAR   -----  1
EPID_START_I1. . . . . . . . . . . . .  E_CONST  -----  U_CHAR   -----  1
_bottom_level_controls . . . . . . . .  PUBLIC   CODE   PROC     0000H  -----
  item_pos . . . . . . . . . . . . . .  AUTO     XDATA  U_CHAR   0000H  1
  i. . . . . . . . . . . . . . . . . .  AUTO     XDATA  U_CHAR   0001H  1
  id . . . . . . . . . . . . . . . . .  AUTO     XDATA  U_CHAR   0002H  1
main_menu_bm . . . . . . . . . . . . .  PUBLIC   DATA   U_LONG   0001H  4
MEN_PLS_MOD. . . . . . . . . . . . . .  E_CONST  -----  U_CHAR   -----  1
EPID_2T_4T . . . . . . . . . . . . . .  E_CONST  -----  U_CHAR   -----  1
EIID_DC_MINUS. . . . . . . . . . . . .  E_CONST  -----  U_CHAR   -----  1
_add_base_i1_i2_t. . . . . . . . . . .  PUBLIC   CODE   PROC     0006H  -----
  p. . . . . . . . . . . . . . . . . .  AUTO     XDATA  PTR      0000H  3
init_par_udgu. . . . . . . . . . . . .  PUBLIC   CODE   PROC     0000H  -----
  i. . . . . . . . . . . . . . . . . .  AUTO     XDATA  U_CHAR   0000H  1
  p_tmp. . . . . . . . . . . . . . . .  AUTO     XDATA  PTR      0001H  3
EPID_KC_RATIO. . . . . . . . . . . . .  E_CONST  -----  U_CHAR   -----  1
EIID_START_T2. . . . . . . . . . . . .  E_CONST  -----  U_CHAR   -----  1
_draw_number_wtih_touch_centered . . .  PUBLIC   CODE   PROC     0008H  -----
  x. . . . . . . . . . . . . . . . . .  AUTO     XDATA  U_INT    0000H  2
  y. . . . . . . . . . . . . . . . . .  AUTO     XDATA  U_INT    0002H  2
  font_size. . . . . . . . . . . . . .  AUTO     XDATA  U_INT    0004H  2
  touch_id . . . . . . . . . . . . . .  AUTO     XDATA  U_CHAR   0006H  1
EIID_BASE_I2 . . . . . . . . . . . . .  E_CONST  -----  U_CHAR   -----  1
_Draw_filled_rect. . . . . . . . . . .  EXTERN   CODE   PROC     -----  -----
_Draw_image. . . . . . . . . . . . . .  EXTERN   CODE   PROC     -----  -----
va_list. . . . . . . . . . . . . . . .  TYPEDEF  -----  PTR      -----  3
EPID_I_IGN_PULSE . . . . . . . . . . .  E_CONST  -----  U_CHAR   -----  1
menu_item_bm . . . . . . . . . . . . .  PUBLIC   CODE   ARRAY    007BH  32
EPID_FLOW_SENSOR . . . . . . . . . . .  E_CONST  -----  U_CHAR   -----  1
EPID_START_T2. . . . . . . . . . . . .  E_CONST  -----  U_CHAR   -----  1
EPID_POLARITY. . . . . . . . . . . . .  E_CONST  -----  U_CHAR   -----  1
EPID_BASE_I2 . . . . . . . . . . . . .  E_CONST  -----  U_CHAR   -----  1
EIDD_KZ_I5 . . . . . . . . . . . . . .  E_CONST  -----  U_CHAR   -----  1
EIID_IMPULSE_I3. . . . . . . . . . . .  E_CONST  -----  U_CHAR   -----  1
EPID_MINUS_PULSE . . . . . . . . . . .  E_CONST  -----  U_CHAR   -----  1


C51 COMPILER V9.53.0.0   TEMP                                                              12/15/2023 14:28:41 PAGE 129 

MODULE INFORMATION:   STATIC OVERLAYABLE
   CODE SIZE        =   8931    ----
   CONSTANT SIZE    =    199    ----
   XDATA SIZE       =    994     144
   PDATA SIZE       =   ----    ----
   DATA SIZE        =      5    ----
   IDATA SIZE       =      8    ----
   BIT SIZE         =   ----    ----
END OF MODULE INFORMATION.


C51 COMPILATION COMPLETE.  0 WARNING(S),  0 ERROR(S)
