C51 COMPILER V9.53.0.0   TEMP                                                              11/07/2023 20:45:01 PAGE 1   


C51 COMPILER V9.53.0.0, COMPILATION OF MODULE TEMP
OBJECT MODULE PLACED IN .\Objects\temp.obj
COMPILER INVOKED BY: D:\DWIN\Keil_v5\C51\BIN\C51.EXE source\temp.c LARGE OPTIMIZE(8,SPEED) BROWSE INCDIR(.\driver;.\sour
                    -ce) DEBUG OBJECTEXTEND CODE SYMBOLS PRINT(.\Listings\temp.lst) OBJECT(.\Objects\temp.obj)

line level    source

   1          #include "temp.h"
   2          #include "sys.h"
   3          #include "string.h"
   4          
   5          #define ARR_SIZE(x) (sizeof(x) / sizeof(x[0]))
   6          
   7          
   8          
   9          
  10          typedef enum {
  11              EIID_TIG,       EIID_TIG_SPOT, EIID_MMA,
  12              EIID_AC,        EIID_AC_MIX,   EIID_DC_MINUS, EIID_DC_PLUS,
  13              EIID_2T,        EIID_4T,       EIID_4T_PLUS,
  14              EIID_HF,        EIID_LIFT,
  15              EIID_PULSE_OFF, EIID_PULSE_ON,
  16              EIID_D_10,      EIID_D_16,     EIID_D_20,     EIID_D_24, EIID_D_32, EIID_D_40,
  17              EIID_SIN,       EIID_TRIG,     EIID_RECT,     EIID_TRAP,
  18              EIID_H2O_ON,    EIID_H2O_OFF,
  19              EIID_NO_ICON,
  20          }icon_id;
  21          
  22          enum {
  23              MEN_WELD_MOD, 
  24              MEN_BTN_MOD,
  25              MEN_POL_MOD, 
  26              MEN_IGN_MOD,
  27              MEN_PLS_MOD,
  28              MEN_PLS_WAVE_SHAPE_MOD,  
  29              MEN_D_MOD,   
  30              MEN_FLOW_MOD,
  31          };
  32          
  33          enum {
  34              TIG,
  35              TIG_SPOT,
  36              MMA,
  37          };
  38          
  39          code const u16 ICON_RECT_SZ = 128;
  40          
  41          code const u32 active_items[] = {
  42              ((u32)1 << EIID_TIG)       | ((u32)1 << EIID_TIG_SPOT) | ((u32)1 << EIID_MMA)      |
  43              ((u32)1 << EIID_2T)        | ((u32)1 << EIID_4T)       | ((u32)1 << EIID_4T_PLUS)  |
  44              ((u32)1 << EIID_AC)        | ((u32)1 << EIID_AC_MIX)   | ((u32)1 << EIID_DC_MINUS) |
  45              ((u32)1 << EIID_HF)        | ((u32)1 << EIID_LIFT)     |
  46              ((u32)1 << EIID_PULSE_OFF) | ((u32)1 << EIID_PULSE_ON) |
  47              ((u32)1 << EIID_SIN)       | ((u32)1 << EIID_TRIG)     | ((u32)1 << EIID_RECT)     | ((u32)1 << EIID_T
             -RAP) |
  48              ((u32)1 << EIID_D_10)      | ((u32)1 << EIID_D_16)     | ((u32)1 << EIID_D_20)     | ((u32)1 << EIID_D
             -_24) | ((u32)1 << EIID_D_32) | ((u32)1 << EIID_D_40) |
  49              ((u32)1 << EIID_H2O_OFF)   | ((u32)1 << EIID_H2O_ON),    //tig;
  50          
  51              ((u32)1 << EIID_TIG)       | ((u32)1 << EIID_TIG_SPOT) | ((u32)1 << EIID_MMA)      |
  52              ((u32)1 << EIID_2T)        | 
C51 COMPILER V9.53.0.0   TEMP                                                              11/07/2023 20:45:01 PAGE 2   

  53              ((u32)1 << EIID_AC)        | ((u32)1 << EIID_AC_MIX)   | ((u32)1 << EIID_DC_MINUS) |
  54              ((u32)1 << EIID_HF)        | ((u32)1 << EIID_LIFT)     |
  55              ((u32)1 << EIID_PULSE_OFF) | ((u32)1 << EIID_PULSE_ON) |
  56              ((u32)1 << EIID_SIN)       | ((u32)1 << EIID_TRIG)     | ((u32)1 << EIID_RECT)     | ((u32)1 << EIID_T
             -RAP) |
  57              ((u32)1 << EIID_D_10)      | ((u32)1 << EIID_D_16)     | ((u32)1 << EIID_D_20)     | ((u32)1 << EIID_D
             -_24) | ((u32)1 << EIID_D_32) | ((u32)1 << EIID_D_40) |
  58              ((u32)1 << EIID_H2O_OFF)   | ((u32)1 << EIID_H2O_ON),     //tig /spot;
  59          
  60              ((u32)1 << EIID_TIG)       | ((u32)1 << EIID_TIG_SPOT) | ((u32)1 << EIID_MMA)     |
  61              ((u32)1 << EIID_AC)        | ((u32)1 << EIID_DC_MINUS) | ((u32)1 << EIID_DC_PLUS) |
  62              ((u32)1 << EIID_PULSE_OFF) | ((u32)1 << EIID_PULSE_ON),     //mma
  63          };
  64          u8 cur_active_items_id = TIG;
  65          
  66          code const u32 menu_item_bm[] = { 
  67              ((u32)1 << EIID_TIG)       | ((u32)1 << EIID_TIG_SPOT) | ((u32)1 << EIID_MMA),      
  68              ((u32)1 << EIID_2T)        | ((u32)1 << EIID_4T)       | ((u32)1 << EIID_4T_PLUS),    
  69              ((u32)1 << EIID_AC)        | ((u32)1 << EIID_AC_MIX)   | ((u32)1 << EIID_DC_MINUS) | ((u32)1 << EIID_D
             -C_PLUS),                                             
  70              ((u32)1 << EIID_HF)        | ((u32)1 << EIID_LIFT),
  71              ((u32)1 << EIID_PULSE_OFF) | ((u32)1 << EIID_PULSE_ON),
  72              ((u32)1 << EIID_SIN)       | ((u32)1 << EIID_TRIG)     | ((u32)1 << EIID_RECT)     | ((u32)1 << EIID_T
             -RAP),                                                
  73              ((u32)1 << EIID_D_10)      | ((u32)1 << EIID_D_16)     | ((u32)1 << EIID_D_20)     | ((u32)1 << EIID_D
             -_24) | ((u32)1 << EIID_D_32) | ((u32)1 << EIID_D_40),
  74              ((u32)1 << EIID_H2O_OFF)   | ((u32)1 << EIID_H2O_ON),   
  75          }; 
  76          
  77          struct Flags {
  78              u16 mode : 3;
  79              u16 tact : 3;
  80              u16 pol : 4;
  81              u16 ignition: 2;
  82              u16 pulse : 2;
  83              u16 vawe : 4;
  84              u16 elctrode_d: 5;
  85              u16 flow :2;
  86          }bit_field_startup;
  87          
  88          
  89          icon_t cur_menu[32];
  90          u32 cur_menu_active;
  91          u8 cur_menu_size;
  92          
  93          
  94          //—Ç–µ —ç–ª–µ–º–µ–Ω—Ç—ã –∫–æ—Ç–æ—Ä—ã–µ –±—É–¥—É—Ç –æ—Ç–æ–±—Ä–∞–∂–µ–Ω—ã –≤ –≥–æ—Ä–∏–∑–æ–Ω—Ç–∞–ª—å–Ω–æ–º –º–
             -µ–Ω—é
  95          idata u32 main_menu_bm = (((u32)1 << EIID_TIG)       |
  96                                   ((u32)1 << EIID_2T)        |
  97                                   ((u32)1 << EIID_AC)        |
  98                                   ((u32)1 << EIID_HF)        |
  99                                   ((u32)1 << EIID_PULSE_OFF) |
 100                                   ((u32)1 << EIID_SIN)       |
 101                                   ((u32)1 << EIID_D_10)      |
 102                                  ((u32)1 << EIID_H2O_OFF)      
 103                                         
 104          );
 105          //–±–∏—Ç–æ–≤–∞—è –º–∞—Å–∫–∞ –≥–æ—Ä–∏–∑–æ–Ω—Ç–∞–ª—å–Ω–æ–≥–æ –º–µ–Ω—é –Ω–∞ –Ω–∏–∂–Ω–µ–º —ç–∫—Ä–∞–Ω–µ –Ω–µ–æ–
             -±—Ö–æ–¥–∏–º–∞ –ø–µ—Ä–≤–æ–Ω–∞—á–∞–ª—å–Ω–∞—è –∏–Ω–∏—Ü–∏–∞–ª–∏–∑–∞—Ü–∏—è
 106          
 107          
C51 COMPILER V9.53.0.0   TEMP                                                              11/07/2023 20:45:01 PAGE 3   

 108          void (*cur_menu_fanc)(u8 item_pos);
 109          
 110          void change_mode_control(u8 item_pos);
 111          void dgus_draw_icons(u16 vp, icon_t *p_icon, u8 size);
 112          void make_menu_bar(u16 vp, u8 is_vertical, u16 start_x, u16 start_y, u32 id_bm, void (*cur_menu_fanc)(u8 i
             -tem_pos));
 113          
 114          
 115          
 116          
 117          
 118          
 119          
 120          void dgus_draw_icons(u16 vp, icon_t *p_icon, u8 size)
 121          {//classic now change 
 122   1          u8 i, j;
 123   1          u16 cmd[100];
 124   1          cmd[0] = 0x2407; //icon_write_instruction      
 125   1          cmd[1] = size; //display_icon_cnt
 126   1          j = 2;
 127   1          for(i = 0; i < size; i++) {
 128   2              cmd[j] = p_icon[i].r.x0;
 129   2              j++;
 130   2              cmd[j] = p_icon[i].r.y0;
 131   2              j++;
 132   2              cmd[j] = p_icon[i].ico;
 133   2              j++;
 134   2          }
 135   1          cmd[j] = 0xFF00;
 136   1          write_dgus_vp(vp, (u8*)&cmd, j);
 137   1      }
 138          
 139          
 140          void make_menu_bar(u16 vp, u8 is_vertical, u16 start_x, u16 start_y, u32 id_bm, void (*fanc)(u8 item_pos))
 141          {
 142   1          u8 i; 
 143   1          s16 shift_x = 0;
 144   1          s16 shift_y = 0;
 145   1      
 146   1          if(is_vertical)
 147   1              shift_y = -ICON_RECT_SZ;
 148   1          else
 149   1              shift_x = ICON_RECT_SZ;
 150   1      
 151   1          i = 0;
 152   1          cur_menu_size = 0;
 153   1          while (id_bm != 0) {
 154   2              if((u32)id_bm & (u32)1) {
 155   3                  cur_menu[cur_menu_size].ico = i;
 156   3                  cur_menu[cur_menu_size].r.x0 = start_x;
 157   3                  cur_menu[cur_menu_size].r.y0 = start_y;
 158   3                  cur_menu[cur_menu_size].r.x1 = start_x + ICON_RECT_SZ;
 159   3                  cur_menu[cur_menu_size].r.y1 = start_y + ICON_RECT_SZ;
 160   3                  start_x += shift_x;
 161   3                  start_y += shift_y;
 162   3                  cur_menu_size++;        
 163   3              }
 164   2              id_bm >>= 1;
 165   2              i++;
 166   2          }
 167   1      
 168   1          cur_menu_fanc = fanc;
C51 COMPILER V9.53.0.0   TEMP                                                              11/07/2023 20:45:01 PAGE 4   

 169   1          dgus_draw_icons(vp, cur_menu, cur_menu_size);
 170   1      }
 171          
 172          void bottom_level_controls(u8 item_pos)
 173          { //–≤—ã–∑–æ–≤–µ—Ç—Å—è –ø–æ—Å–ª–µ –≤—ã–±–æ—Ä–∞ —ç–ª–µ–º–µ–Ω—Ç–∞ –≤ –≥–æ—Ä–∏–∑–æ–Ω—Ç–∞–ª—å–Ω–æ–º –º–µ–Ω—é
 174   1          u32 bm;
 175   1          u8 i;
 176   1          //–ø–æ–ª—É—á–∏—Ç—å –∏–Ω–¥–µ–∫—Å —Ç–∏–ø–∞ –º–µ–Ω—é 
 177   1          for(i = 0; i < ARR_SIZE(menu_item_bm); i++) {
 178   2              if((u32)menu_item_bm[i] & (u32)((u32)1 << cur_menu[item_pos].ico)) { //–ø–æ–∏—Å–∫ –º–µ–Ω—é –∫ –∫–æ
             -—Ç–æ—Ä–º—É –æ—Ç–Ω–æ—Å–∏—Ç—Å—è –¥–∞–Ω–Ω—ã–π —ç–ª–µ–º–µ–Ω—Ç
 179   3                  bm = active_items[cur_active_items_id] & menu_item_bm[i];//—É–±—Ä–∞—Ç—å –∏–∑ –æ—Ç–æ–±—Ä–∞–∂–µ–
             -Ω–∏—è —ç–µ–ª–µ–º–µ–Ω—Ç—ã –∫–æ—Ç–æ—Ä—ã–µ –Ω–µ –¥–æ—Å—Ç—É–ø–Ω—ã –≤ –¥–∞–Ω–Ω–æ–º —Ä–µ–∂–∏–º–µ 
 180   3                  bm &= ~((u32)1 << cur_menu[item_pos].ico); //—É–±—Ä–∞—Ç—å –∏–∑ –æ—Ç–±–æ—Ä–∞–∂–µ–Ω–∏—è —ç–ª–µ–º
             -–µ–Ω—Ç –∫–æ—Ç–æ—Ä—ã–π —É–∂–µ –≤—ã—Å–≤–µ—á–µ–Ω –≤ –Ω–∏–∂–Ω–µ–º –º–µ–Ω—é
 181   3                  if(bm != 0 )//–µ—Å–ª–∏ –Ω–µ—á–µ–≥–æ –≤—ã–≤–æ–¥–∏—Ç—å –Ω–µ —Ä–∏—Å–æ–≤–∞—Ç—å –≥–æ—Ä–∏–∑–æ–Ω—Ç–∞–
             -ª—å–Ω–æ–µ –º–µ–Ω—é
 182   3                      make_menu_bar(0x9500, 1, ICON_RECT_SZ * item_pos, 800 - 128 * 2, bm, change_mode_control);
             -         
 183   3                  break;
 184   3              }
 185   2          }
 186   1      }
 187          
 188          void change_mode_control(u8 item_pos) 
 189          {//–≤—ã–∑–æ–≤–µ—Ç—Å—è –ø–æ—Å–ª–µ –≤—ã–±–æ—Ä–∞ —ç–µ–ª–µ–º–µ–Ω—Ç–∞ –≤ –≤–µ—Ä—Ç–∏–∫–∞–ª—å–Ω–æ–º –º–µ–Ω—é
 190   1          u8 i;
 191   1          u32 bm;
 192   1      
 193   1      
 194   1          for(i = 0; i < ARR_SIZE(menu_item_bm); i++) {
 195   2              if(menu_item_bm[i] & (u32)1 << cur_menu[item_pos].ico) {
 196   3                  main_menu_bm &= (u32)~menu_item_bm[i]; //–æ—á–∏—Å—Ç—å –æ–±–ª–∞—Å—Ç—å —Å–≤—è–∑–∞–Ω–Ω—É—é —Å —ç—
             -Ç–∏–º –ø–æ–¥–º–µ–Ω—é –≤ –≥–∞–≤–Ω–æ–º –º–µ–Ω—é
 197   3                  switch (cur_menu[item_pos].ico)
 198   3                  {
 199   4                      case EIID_TIG:
 200   4                          cur_active_items_id = TIG;
 201   4                          break;
 202   4                      
 203   4                      case EIID_TIG_SPOT:
 204   4                          cur_active_items_id = EIID_TIG_SPOT;
 205   4                          break;
 206   4      
 207   4                      case EIID_MMA:
 208   4                          cur_active_items_id = MMA;
 209   4                          break;
 210   4                  }
 211   3                  main_menu_bm |= ((u32)1 << cur_menu[item_pos].ico); //–≤—Å—Ç–∞–≤–∏—Ç—å —Ç–µ–∫—É—â–∏–π –≤—ã–±—Ä
             -–∞–Ω–Ω—ã–π —ç–ª–µ–º–µ–Ω—Ç –≤ –≥–ª–∞–≤–Ω–æ–µ –º–µ–Ω—é
 212   3                  
 213   3                  bm = active_items[cur_active_items_id];
 214   3                  bm &= (u32)main_menu_bm;
 215   3                  make_menu_bar(0x9000, 0, 0, 800 - ICON_RECT_SZ, bm, bottom_level_controls); 
 216   3                  break;
 217   3              }
 218   2          }
 219   1          
 220   1          {
 221   2              u16 tmp = 0;
 222   2              write_dgus_vp(0x9500, (u8*)&tmp, 1);
 223   2          }
C51 COMPILER V9.53.0.0   TEMP                                                              11/07/2023 20:45:01 PAGE 5   

 224   1         
 225   1      
 226   1         
 227   1      }
 228          
 229          
 230          
 231          void draw_bottom_menu(void)
 232          {   
 233   1          // bit_field_startup.mode = 1;
 234   1          // bit_field_startup.tact = 1;
 235   1          // bit_field_startup.pol = 1;
 236   1          // bit_field_startup.ignition = 1;
 237   1          // bit_field_startup.pulse = 1;
 238   1          // bit_field_startup.vawe = 1;
 239   1          // bit_field_startup.elctrode_d = 1;
 240   1          // bit_field_startup.flow = 1;
 241   1          
 242   1          // //main_menu_bm = *(u32*)&bit_field_startup;
 243   1      
 244   1          cur_active_items_id = TIG;
 245   1          make_menu_bar(0x9000, 0, 0, 800 - ICON_RECT_SZ, main_menu_bm, bottom_level_controls);   
 246   1      }
 247          
 248          
 249          
 250          
 251          
 252          
 253          
 254          
 255          
 256          
 257          
 258          
 259          
 260          // dgus_draw_fillded_rect(u16 vp, filled_rect_t *p_rect, u8 size) 
 261          // {
 262          //     u8 i, j;
 263          //     u16 cmd[100];
 264          //     u8 size = 2;
 265          //     cmd[0] = 0x0004; //
 266          //     cmd[1] = size; //–∫–æ–ª–∏—á–µ—Å—Ç–≤–æ —ç–ª–µ–º–µ–Ω—Ç–æ–≤ –¥–ª—è –≤—ã–≤–æ–¥–∞
 267          //     j = 2;
 268          //     for(i = 0; i < size; i++) {
 269          //         cmd[j] = p_rect[i].x0;
 270          //         j++;
 271          //         cmd[j] = p_rect[i].y0;
 272          //         j++;
 273          //         cmd[j] = p_rect[i].x1;
 274          //         j++;
 275          //         cmd[j] = p_rect[i].y1;
 276          //         j++;
 277          //         cmd[j] = p_rect[i].color;
 278          //         j++;
 279          //     }
 280          //     cmd[j] = 0xFF00;
 281          //     write_dgus_vp(vp, (u8*)&cmd, j);
 282          // }
 283          
 284          
 285          typedef struct {
C51 COMPILER V9.53.0.0   TEMP                                                              11/07/2023 20:45:01 PAGE 6   

 286              u16 x;
 287              u16 y;
 288              u16 color;
 289          } rect_line;
 290          
 291          rect_line make_rect_line(u16 x, u16 y, u16 color) 
 292          {
 293   1          rect_line rl;
 294   1          rl.x = x;
 295   1          rl.y = y;
 296   1          rl.color = color;
 297   1          return rl; 
 298   1      }
 299          
 300          point_t make_point(u16 x, u16 y) 
 301          {
 302   1          point_t p;
 303   1          p.x = x;
 304   1          p.y = y;
 305   1          return p;
 306   1      }
 307          
 308          void draw_cyclogramm(void) 
 309          {
 310   1          u16 start_x = 0;
 311   1          u16 start_y = 300;
 312   1          const u8 LINE_HEIGHT = 10;//px
 313   1          const u8 LINE_WIDTH = 150;//px
 314   1          
 315   1          
 316   1          
 317   1          point_t p[10];
 318   1          p[0] = make_point(0,300);
 319   1          p[1] = make_point(p[0].x + LINE_WIDTH, p[0].y); 
 320   1          p[2] = make_point(p[1].x, p[1].y - LINE_WIDTH); 
 321   1          p[3] = make_point(p[2].x + LINE_WIDTH, p[2].y);
 322   1          p[4] = make_point(p[3].x + LINE_WIDTH, p[3].y - LINE_WIDTH);
 323   1          
 324   1          p[5] = make_point(p[4].x + LINE_WIDTH * 2, p[4].y);
 325   1          p[6] = make_point(p[5].x + LINE_WIDTH, p[5].y + LINE_WIDTH);
 326   1          p[7] = make_point(p[6].x + LINE_WIDTH, p[6].y);
 327   1          p[8] = make_point(p[7].x, p[7].y + LINE_WIDTH);
 328   1          p[9] = make_point(p[7].x + LINE_WIDTH, p[7].y);
 329   1          
 330   1           
 331   1         
 332   1          
 333   1          //dgusbb_draw_fillded_rect(0x7000, rect, ARR_SIZE(rect));
 334   1      
 335   1      
 336   1          
 337   1      }
 338          
 339          
 340          
 341          
 342          
 343          
 344          
 345          
C51 COMPILER V9.53.0.0   TEMP                                                              11/07/2023 20:45:01 PAGE 7   

ASSEMBLY LISTING OF GENERATED OBJECT CODE


             ; FUNCTION _dgus_draw_icons (BEGIN)
                                           ; SOURCE LINE # 120
0000 900000      R     MOV     DPTR,#vp
0003 EE                MOV     A,R6
0004 F0                MOVX    @DPTR,A
0005 A3                INC     DPTR
0006 EF                MOV     A,R7
0007 F0                MOVX    @DPTR,A
0008 A3                INC     DPTR
0009 EB                MOV     A,R3
000A F0                MOVX    @DPTR,A
000B A3                INC     DPTR
000C EA                MOV     A,R2
000D F0                MOVX    @DPTR,A
000E A3                INC     DPTR
000F E9                MOV     A,R1
0010 F0                MOVX    @DPTR,A
                                           ; SOURCE LINE # 121
                                           ; SOURCE LINE # 124
0011 900000      R     MOV     DPTR,#cmd
0014 7424              MOV     A,#024H
0016 F0                MOVX    @DPTR,A
0017 A3                INC     DPTR
0018 7407              MOV     A,#07H
001A F0                MOVX    @DPTR,A
                                           ; SOURCE LINE # 125
001B 900000      R     MOV     DPTR,#size
001E E0                MOVX    A,@DPTR
001F FF                MOV     R7,A
0020 900000      R     MOV     DPTR,#cmd+02H
0023 E4                CLR     A
0024 F0                MOVX    @DPTR,A
0025 A3                INC     DPTR
0026 EF                MOV     A,R7
0027 F0                MOVX    @DPTR,A
                                           ; SOURCE LINE # 126
0028 900000      R     MOV     DPTR,#j
002B 7402              MOV     A,#02H
002D F0                MOVX    @DPTR,A
                                           ; SOURCE LINE # 127
002E E4                CLR     A
002F 900000      R     MOV     DPTR,#i
0032 F0                MOVX    @DPTR,A
0033         ?C0001:
0033 900000      R     MOV     DPTR,#size
0036 E0                MOVX    A,@DPTR
0037 FF                MOV     R7,A
0038 A3                INC     DPTR
0039 E0                MOVX    A,@DPTR
003A FE                MOV     R6,A
003B C3                CLR     C
003C 9F                SUBB    A,R7
003D 4003              JC      $ + 5H
003F 020000      R     LJMP    ?C0002
                                           ; SOURCE LINE # 128
0042 EE                MOV     A,R6
0043 75F009            MOV     B,#09H
0046 A4                MUL     AB
0047 FF                MOV     R7,A
C51 COMPILER V9.53.0.0   TEMP                                                              11/07/2023 20:45:01 PAGE 8   

0048 900000      R     MOV     DPTR,#p_icon
004B E0                MOVX    A,@DPTR
004C FB                MOV     R3,A
004D A3                INC     DPTR
004E E0                MOVX    A,@DPTR
004F FA                MOV     R2,A
0050 A3                INC     DPTR
0051 E0                MOVX    A,@DPTR
0052 2F                ADD     A,R7
0053 F9                MOV     R1,A
0054 EA                MOV     A,R2
0055 35F0              ADDC    A,B
0057 FA                MOV     R2,A
0058 900001            MOV     DPTR,#01H
005B 120000      E     LCALL   ?C?ILDOPTR
005E FF                MOV     R7,A
005F 900000      R     MOV     DPTR,#j
0062 E0                MOVX    A,@DPTR
0063 25E0              ADD     A,ACC
0065 2400        R     ADD     A,#LOW cmd
0067 F582              MOV     DPL,A
0069 E4                CLR     A
006A 3400        R     ADDC    A,#HIGH cmd
006C F583              MOV     DPH,A
006E E5F0              MOV     A,B
0070 F0                MOVX    @DPTR,A
0071 A3                INC     DPTR
0072 EF                MOV     A,R7
0073 F0                MOVX    @DPTR,A
                                           ; SOURCE LINE # 129
0074 900000      R     MOV     DPTR,#j
0077 E0                MOVX    A,@DPTR
0078 04                INC     A
0079 F0                MOVX    @DPTR,A
                                           ; SOURCE LINE # 130
007A 900003            MOV     DPTR,#03H
007D 120000      E     LCALL   ?C?ILDOPTR
0080 FF                MOV     R7,A
0081 900000      R     MOV     DPTR,#j
0084 E0                MOVX    A,@DPTR
0085 25E0              ADD     A,ACC
0087 2400        R     ADD     A,#LOW cmd
0089 F582              MOV     DPL,A
008B E4                CLR     A
008C 3400        R     ADDC    A,#HIGH cmd
008E F583              MOV     DPH,A
0090 E5F0              MOV     A,B
0092 F0                MOVX    @DPTR,A
0093 A3                INC     DPTR
0094 EF                MOV     A,R7
0095 F0                MOVX    @DPTR,A
                                           ; SOURCE LINE # 131
0096 900000      R     MOV     DPTR,#j
0099 E0                MOVX    A,@DPTR
009A 04                INC     A
009B F0                MOVX    @DPTR,A
                                           ; SOURCE LINE # 132
009C 900000      R     MOV     DPTR,#p_icon
009F E0                MOVX    A,@DPTR
00A0 FB                MOV     R3,A
00A1 A3                INC     DPTR
00A2 E0                MOVX    A,@DPTR
C51 COMPILER V9.53.0.0   TEMP                                                              11/07/2023 20:45:01 PAGE 9   

00A3 FA                MOV     R2,A
00A4 A3                INC     DPTR
00A5 E0                MOVX    A,@DPTR
00A6 F9                MOV     R1,A
00A7 900000      R     MOV     DPTR,#i
00AA E0                MOVX    A,@DPTR
00AB 75F009            MOV     B,#09H
00AE A4                MUL     AB
00AF F582              MOV     DPL,A
00B1 85F083            MOV     DPH,B
00B4 120000      E     LCALL   ?C?CLDOPTR
00B7 FF                MOV     R7,A
00B8 900000      R     MOV     DPTR,#j
00BB E0                MOVX    A,@DPTR
00BC 25E0              ADD     A,ACC
00BE 2400        R     ADD     A,#LOW cmd
00C0 F582              MOV     DPL,A
00C2 E4                CLR     A
00C3 3400        R     ADDC    A,#HIGH cmd
00C5 F583              MOV     DPH,A
00C7 E4                CLR     A
00C8 F0                MOVX    @DPTR,A
00C9 A3                INC     DPTR
00CA EF                MOV     A,R7
00CB F0                MOVX    @DPTR,A
                                           ; SOURCE LINE # 133
00CC 900000      R     MOV     DPTR,#j
00CF E0                MOVX    A,@DPTR
00D0 04                INC     A
00D1 F0                MOVX    @DPTR,A
                                           ; SOURCE LINE # 134
00D2 900000      R     MOV     DPTR,#i
00D5 E0                MOVX    A,@DPTR
00D6 04                INC     A
00D7 F0                MOVX    @DPTR,A
00D8 020000      R     LJMP    ?C0001
00DB         ?C0002:
                                           ; SOURCE LINE # 135
00DB 900000      R     MOV     DPTR,#j
00DE E0                MOVX    A,@DPTR
00DF FD                MOV     R5,A
00E0 25E0              ADD     A,ACC
00E2 2400        R     ADD     A,#LOW cmd
00E4 F582              MOV     DPL,A
00E6 E4                CLR     A
00E7 3400        R     ADDC    A,#HIGH cmd
00E9 F583              MOV     DPH,A
00EB 74FF              MOV     A,#0FFH
00ED F0                MOVX    @DPTR,A
00EE A3                INC     DPTR
00EF E4                CLR     A
00F0 F0                MOVX    @DPTR,A
                                           ; SOURCE LINE # 136
00F1 900000      R     MOV     DPTR,#vp
00F4 E0                MOVX    A,@DPTR
00F5 FE                MOV     R6,A
00F6 A3                INC     DPTR
00F7 E0                MOVX    A,@DPTR
00F8 FF                MOV     R7,A
00F9 7B01              MOV     R3,#01H
00FB 7A00        R     MOV     R2,#HIGH cmd
00FD 7900        R     MOV     R1,#LOW cmd
C51 COMPILER V9.53.0.0   TEMP                                                              11/07/2023 20:45:01 PAGE 10  

00FF 900000      E     MOV     DPTR,#?_write_dgus_vp?BYTE+05H
0102 E4                CLR     A
0103 F0                MOVX    @DPTR,A
0104 A3                INC     DPTR
0105 ED                MOV     A,R5
0106 F0                MOVX    @DPTR,A
0107 020000      E     LJMP    _write_dgus_vp
             ; FUNCTION _dgus_draw_icons (END)

             ; FUNCTION _make_menu_bar (BEGIN)
                                           ; SOURCE LINE # 140
0000 900000      R     MOV     DPTR,#vp
0003 EE                MOV     A,R6
0004 F0                MOVX    @DPTR,A
0005 A3                INC     DPTR
0006 EF                MOV     A,R7
0007 F0                MOVX    @DPTR,A
0008 900000      R     MOV     DPTR,#start_x
000B EA                MOV     A,R2
000C F0                MOVX    @DPTR,A
000D A3                INC     DPTR
000E EB                MOV     A,R3
000F F0                MOVX    @DPTR,A
;---- Variable 'is_vertical' assigned to Register 'R5' ----
                                           ; SOURCE LINE # 141
                                           ; SOURCE LINE # 143
0010 E4                CLR     A
0011 900000      R     MOV     DPTR,#shift_x
0014 F0                MOVX    @DPTR,A
0015 A3                INC     DPTR
0016 F0                MOVX    @DPTR,A
                                           ; SOURCE LINE # 144
0017 A3                INC     DPTR
0018 F0                MOVX    @DPTR,A
0019 A3                INC     DPTR
001A F0                MOVX    @DPTR,A
                                           ; SOURCE LINE # 146
001B ED                MOV     A,R5
001C 900000      R     MOV     DPTR,#ICON_RECT_SZ
001F 6012              JZ      ?C0005
                                           ; SOURCE LINE # 147
0021 E4                CLR     A
0022 93                MOVC    A,@A+DPTR
0023 FE                MOV     R6,A
0024 7401              MOV     A,#01H
0026 93                MOVC    A,@A+DPTR
0027 FF                MOV     R7,A
0028 C3                CLR     C
0029 E4                CLR     A
002A 9F                SUBB    A,R7
002B FF                MOV     R7,A
002C E4                CLR     A
002D 9E                SUBB    A,R6
002E 900000      R     MOV     DPTR,#shift_y
0031 800A              SJMP    ?C0030
0033         ?C0005:
                                           ; SOURCE LINE # 149
0033 E4                CLR     A
0034 93                MOVC    A,@A+DPTR
0035 FF                MOV     R7,A
0036 7401              MOV     A,#01H
0038 93                MOVC    A,@A+DPTR
C51 COMPILER V9.53.0.0   TEMP                                                              11/07/2023 20:45:01 PAGE 11  

0039 900000      R     MOV     DPTR,#shift_x
003C CF                XCH     A,R7
003D         ?C0030:
003D F0                MOVX    @DPTR,A
003E A3                INC     DPTR
003F EF                MOV     A,R7
0040 F0                MOVX    @DPTR,A
0041         ?C0006:
                                           ; SOURCE LINE # 151
0041 E4                CLR     A
0042 900000      R     MOV     DPTR,#i
0045 F0                MOVX    @DPTR,A
                                           ; SOURCE LINE # 152
0046 900000      R     MOV     DPTR,#cur_menu_size
0049 F0                MOVX    @DPTR,A
004A         ?C0007:
                                           ; SOURCE LINE # 153
004A E4                CLR     A
004B FF                MOV     R7,A
004C FE                MOV     R6,A
004D FD                MOV     R5,A
004E FC                MOV     R4,A
004F 900000      R     MOV     DPTR,#id_bm
0052 E0                MOVX    A,@DPTR
0053 F8                MOV     R0,A
0054 A3                INC     DPTR
0055 E0                MOVX    A,@DPTR
0056 F9                MOV     R1,A
0057 A3                INC     DPTR
0058 E0                MOVX    A,@DPTR
0059 FA                MOV     R2,A
005A A3                INC     DPTR
005B E0                MOVX    A,@DPTR
005C FB                MOV     R3,A
005D C3                CLR     C
005E 120000      E     LCALL   ?C?ULCMP
0061 7003              JNZ     $ + 5H
0063 020000      R     LJMP    ?C0008
                                           ; SOURCE LINE # 154
0066 900000      R     MOV     DPTR,#id_bm
0069 A3                INC     DPTR
006A A3                INC     DPTR
006B A3                INC     DPTR
006C E0                MOVX    A,@DPTR
006D 5401              ANL     A,#01H
006F FF                MOV     R7,A
0070 E4                CLR     A
0071 EF                MOV     A,R7
0072 7003              JNZ     $ + 5H
0074 020000      R     LJMP    ?C0009
                                           ; SOURCE LINE # 155
0077 900000      R     MOV     DPTR,#i
007A E0                MOVX    A,@DPTR
007B FF                MOV     R7,A
007C 900000      R     MOV     DPTR,#cur_menu_size
007F E0                MOVX    A,@DPTR
0080 FE                MOV     R6,A
0081 75F009            MOV     B,#09H
0084 A4                MUL     AB
0085 2400        R     ADD     A,#LOW cur_menu
0087 F582              MOV     DPL,A
0089 E5F0              MOV     A,B
C51 COMPILER V9.53.0.0   TEMP                                                              11/07/2023 20:45:01 PAGE 12  

008B 3400        R     ADDC    A,#HIGH cur_menu
008D F583              MOV     DPH,A
008F EF                MOV     A,R7
0090 F0                MOVX    @DPTR,A
                                           ; SOURCE LINE # 156
0091 900000      R     MOV     DPTR,#start_x
0094 E0                MOVX    A,@DPTR
0095 FC                MOV     R4,A
0096 A3                INC     DPTR
0097 E0                MOVX    A,@DPTR
0098 FD                MOV     R5,A
0099 75F009            MOV     B,#09H
009C EE                MOV     A,R6
009D A4                MUL     AB
009E 2400        R     ADD     A,#LOW cur_menu+01H
00A0 F582              MOV     DPL,A
00A2 E5F0              MOV     A,B
00A4 3400        R     ADDC    A,#HIGH cur_menu+01H
00A6 F583              MOV     DPH,A
00A8 EC                MOV     A,R4
00A9 F0                MOVX    @DPTR,A
00AA A3                INC     DPTR
00AB ED                MOV     A,R5
00AC F0                MOVX    @DPTR,A
                                           ; SOURCE LINE # 157
00AD 900000      R     MOV     DPTR,#start_y
00B0 E0                MOVX    A,@DPTR
00B1 FE                MOV     R6,A
00B2 A3                INC     DPTR
00B3 E0                MOVX    A,@DPTR
00B4 FF                MOV     R7,A
00B5 900000      R     MOV     DPTR,#cur_menu_size
00B8 E0                MOVX    A,@DPTR
00B9 FD                MOV     R5,A
00BA 75F009            MOV     B,#09H
00BD A4                MUL     AB
00BE 2400        R     ADD     A,#LOW cur_menu+03H
00C0 F582              MOV     DPL,A
00C2 E5F0              MOV     A,B
00C4 3400        R     ADDC    A,#HIGH cur_menu+03H
00C6 F583              MOV     DPH,A
00C8 EE                MOV     A,R6
00C9 F0                MOVX    @DPTR,A
00CA A3                INC     DPTR
00CB EF                MOV     A,R7
00CC F0                MOVX    @DPTR,A
                                           ; SOURCE LINE # 158
00CD 900000      R     MOV     DPTR,#ICON_RECT_SZ
00D0 E4                CLR     A
00D1 93                MOVC    A,@A+DPTR
00D2 FE                MOV     R6,A
00D3 7401              MOV     A,#01H
00D5 93                MOVC    A,@A+DPTR
00D6 FF                MOV     R7,A
00D7 900000      R     MOV     DPTR,#start_x+01H
00DA E0                MOVX    A,@DPTR
00DB 2F                ADD     A,R7
00DC FF                MOV     R7,A
00DD 900000      R     MOV     DPTR,#start_x
00E0 E0                MOVX    A,@DPTR
00E1 3E                ADDC    A,R6
00E2 FE                MOV     R6,A
C51 COMPILER V9.53.0.0   TEMP                                                              11/07/2023 20:45:01 PAGE 13  

00E3 75F009            MOV     B,#09H
00E6 ED                MOV     A,R5
00E7 A4                MUL     AB
00E8 2400        R     ADD     A,#LOW cur_menu+05H
00EA F582              MOV     DPL,A
00EC E5F0              MOV     A,B
00EE 3400        R     ADDC    A,#HIGH cur_menu+05H
00F0 F583              MOV     DPH,A
00F2 EE                MOV     A,R6
00F3 F0                MOVX    @DPTR,A
00F4 A3                INC     DPTR
00F5 EF                MOV     A,R7
00F6 F0                MOVX    @DPTR,A
                                           ; SOURCE LINE # 159
00F7 900000      R     MOV     DPTR,#ICON_RECT_SZ
00FA E4                CLR     A
00FB 93                MOVC    A,@A+DPTR
00FC FE                MOV     R6,A
00FD 7401              MOV     A,#01H
00FF 93                MOVC    A,@A+DPTR
0100 FF                MOV     R7,A
0101 900000      R     MOV     DPTR,#start_y+01H
0104 E0                MOVX    A,@DPTR
0105 2F                ADD     A,R7
0106 FF                MOV     R7,A
0107 900000      R     MOV     DPTR,#start_y
010A E0                MOVX    A,@DPTR
010B 3E                ADDC    A,R6
010C FE                MOV     R6,A
010D 900000      R     MOV     DPTR,#cur_menu_size
0110 E0                MOVX    A,@DPTR
0111 75F009            MOV     B,#09H
0114 A4                MUL     AB
0115 2400        R     ADD     A,#LOW cur_menu+07H
0117 F582              MOV     DPL,A
0119 E5F0              MOV     A,B
011B 3400        R     ADDC    A,#HIGH cur_menu+07H
011D F583              MOV     DPH,A
011F EE                MOV     A,R6
0120 F0                MOVX    @DPTR,A
0121 A3                INC     DPTR
0122 EF                MOV     A,R7
0123 F0                MOVX    @DPTR,A
                                           ; SOURCE LINE # 160
0124 900000      R     MOV     DPTR,#shift_x
0127 E0                MOVX    A,@DPTR
0128 FE                MOV     R6,A
0129 A3                INC     DPTR
012A E0                MOVX    A,@DPTR
012B FF                MOV     R7,A
012C 900000      R     MOV     DPTR,#start_x+01H
012F E0                MOVX    A,@DPTR
0130 2F                ADD     A,R7
0131 F0                MOVX    @DPTR,A
0132 900000      R     MOV     DPTR,#start_x
0135 E0                MOVX    A,@DPTR
0136 3E                ADDC    A,R6
0137 F0                MOVX    @DPTR,A
                                           ; SOURCE LINE # 161
0138 900000      R     MOV     DPTR,#shift_y
013B E0                MOVX    A,@DPTR
013C FE                MOV     R6,A
C51 COMPILER V9.53.0.0   TEMP                                                              11/07/2023 20:45:01 PAGE 14  

013D A3                INC     DPTR
013E E0                MOVX    A,@DPTR
013F FF                MOV     R7,A
0140 900000      R     MOV     DPTR,#start_y+01H
0143 E0                MOVX    A,@DPTR
0144 2F                ADD     A,R7
0145 F0                MOVX    @DPTR,A
0146 900000      R     MOV     DPTR,#start_y
0149 E0                MOVX    A,@DPTR
014A 3E                ADDC    A,R6
014B F0                MOVX    @DPTR,A
                                           ; SOURCE LINE # 162
014C 900000      R     MOV     DPTR,#cur_menu_size
014F E0                MOVX    A,@DPTR
0150 04                INC     A
0151 F0                MOVX    @DPTR,A
                                           ; SOURCE LINE # 163
0152         ?C0009:
                                           ; SOURCE LINE # 164
0152 900000      R     MOV     DPTR,#id_bm
0155 E0                MOVX    A,@DPTR
0156 FC                MOV     R4,A
0157 A3                INC     DPTR
0158 E0                MOVX    A,@DPTR
0159 FD                MOV     R5,A
015A A3                INC     DPTR
015B E0                MOVX    A,@DPTR
015C FE                MOV     R6,A
015D A3                INC     DPTR
015E E0                MOVX    A,@DPTR
015F FF                MOV     R7,A
0160 7801              MOV     R0,#01H
0162 120000      E     LCALL   ?C?ULSHR
0165 900000      R     MOV     DPTR,#id_bm
0168 120000      E     LCALL   ?C?LSTXDATA
                                           ; SOURCE LINE # 165
016B 900000      R     MOV     DPTR,#i
016E E0                MOVX    A,@DPTR
016F 04                INC     A
0170 F0                MOVX    @DPTR,A
                                           ; SOURCE LINE # 166
0171 020000      R     LJMP    ?C0007
0174         ?C0008:
                                           ; SOURCE LINE # 168
0174 900000      R     MOV     DPTR,#fanc
0177 E0                MOVX    A,@DPTR
0178 F9                MOV     R1,A
0179 A3                INC     DPTR
017A E0                MOVX    A,@DPTR
017B FA                MOV     R2,A
017C A3                INC     DPTR
017D E0                MOVX    A,@DPTR
017E 900000      R     MOV     DPTR,#_cur_menu_fanc
0181 C9                XCH     A,R1
0182 F0                MOVX    @DPTR,A
0183 A3                INC     DPTR
0184 EA                MOV     A,R2
0185 F0                MOVX    @DPTR,A
0186 A3                INC     DPTR
0187 E9                MOV     A,R1
0188 F0                MOVX    @DPTR,A
                                           ; SOURCE LINE # 169
C51 COMPILER V9.53.0.0   TEMP                                                              11/07/2023 20:45:01 PAGE 15  

0189 900000      R     MOV     DPTR,#vp
018C E0                MOVX    A,@DPTR
018D FE                MOV     R6,A
018E A3                INC     DPTR
018F E0                MOVX    A,@DPTR
0190 FF                MOV     R7,A
0191 7B01              MOV     R3,#01H
0193 7A00        R     MOV     R2,#HIGH cur_menu
0195 7900        R     MOV     R1,#LOW cur_menu
0197 900000      R     MOV     DPTR,#cur_menu_size
019A E0                MOVX    A,@DPTR
019B 900000      R     MOV     DPTR,#?_dgus_draw_icons?BYTE+05H
019E F0                MOVX    @DPTR,A
019F 020000      R     LJMP    _dgus_draw_icons
             ; FUNCTION _make_menu_bar (END)

             ; FUNCTION _bottom_level_controls (BEGIN)
                                           ; SOURCE LINE # 172
0000 900000      R     MOV     DPTR,#item_pos
0003 EF                MOV     A,R7
0004 F0                MOVX    @DPTR,A
                                           ; SOURCE LINE # 173
                                           ; SOURCE LINE # 177
0005 E4                CLR     A
0006 900000      R     MOV     DPTR,#i
0009 F0                MOVX    @DPTR,A
000A         ?C0011:
000A 900000      R     MOV     DPTR,#i
000D E0                MOVX    A,@DPTR
000E FB                MOV     R3,A
000F C3                CLR     C
0010 9408              SUBB    A,#08H
0012 4003              JC      $ + 5H
0014 020000      R     LJMP    ?C0016
                                           ; SOURCE LINE # 178
0017 E4                CLR     A
0018 7F01              MOV     R7,#01H
001A FE                MOV     R6,A
001B FD                MOV     R5,A
001C FC                MOV     R4,A
001D 900000      R     MOV     DPTR,#item_pos
0020 E0                MOVX    A,@DPTR
0021 75F009            MOV     B,#09H
0024 A4                MUL     AB
0025 2400        R     ADD     A,#LOW cur_menu
0027 F582              MOV     DPL,A
0029 E5F0              MOV     A,B
002B 3400        R     ADDC    A,#HIGH cur_menu
002D F583              MOV     DPH,A
002F E0                MOVX    A,@DPTR
0030 F9                MOV     R1,A
0031 F8                MOV     R0,A
0032 120000      E     LCALL   ?C?LSHL
0035 EB                MOV     A,R3
0036 25E0              ADD     A,ACC
0038 25E0              ADD     A,ACC
003A 2400        R     ADD     A,#LOW menu_item_bm
003C F582              MOV     DPL,A
003E E4                CLR     A
003F 3400        R     ADDC    A,#HIGH menu_item_bm
0041 F583              MOV     DPH,A
0043 120000      E     LCALL   ?C?LLDCODE0
C51 COMPILER V9.53.0.0   TEMP                                                              11/07/2023 20:45:01 PAGE 16  

0046 EB                MOV     A,R3
0047 5F                ANL     A,R7
0048 FF                MOV     R7,A
0049 EA                MOV     A,R2
004A 5E                ANL     A,R6
004B FE                MOV     R6,A
004C E9                MOV     A,R1
004D 5D                ANL     A,R5
004E FD                MOV     R5,A
004F E8                MOV     A,R0
0050 5C                ANL     A,R4
0051 FC                MOV     R4,A
0052 4D                ORL     A,R5
0053 4E                ORL     A,R6
0054 4F                ORL     A,R7
0055 7003              JNZ     $ + 5H
0057 020000      R     LJMP    ?C0013
                                           ; SOURCE LINE # 179
005A 900000      R     MOV     DPTR,#i
005D E0                MOVX    A,@DPTR
005E 25E0              ADD     A,ACC
0060 25E0              ADD     A,ACC
0062 2400        R     ADD     A,#LOW menu_item_bm
0064 F582              MOV     DPL,A
0066 E4                CLR     A
0067 3400        R     ADDC    A,#HIGH menu_item_bm
0069 F583              MOV     DPH,A
006B 120000      E     LCALL   ?C?LLDCODE
006E 900000      R     MOV     DPTR,#cur_active_items_id
0071 E0                MOVX    A,@DPTR
0072 25E0              ADD     A,ACC
0074 25E0              ADD     A,ACC
0076 2400        R     ADD     A,#LOW active_items
0078 F582              MOV     DPL,A
007A E4                CLR     A
007B 3400        R     ADDC    A,#HIGH active_items
007D F583              MOV     DPH,A
007F 120000      E     LCALL   ?C?LLDCODE0
0082 EB                MOV     A,R3
0083 5F                ANL     A,R7
0084 FF                MOV     R7,A
0085 EA                MOV     A,R2
0086 5E                ANL     A,R6
0087 FE                MOV     R6,A
0088 E9                MOV     A,R1
0089 5D                ANL     A,R5
008A FD                MOV     R5,A
008B E8                MOV     A,R0
008C 5C                ANL     A,R4
008D FC                MOV     R4,A
008E 900000      R     MOV     DPTR,#bm
0091 120000      E     LCALL   ?C?LSTXDATA
                                           ; SOURCE LINE # 180
0094 900000      R     MOV     DPTR,#bm
0097 E0                MOVX    A,@DPTR
0098 F8                MOV     R0,A
0099 A3                INC     DPTR
009A E0                MOVX    A,@DPTR
009B F9                MOV     R1,A
009C A3                INC     DPTR
009D E0                MOVX    A,@DPTR
009E FA                MOV     R2,A
C51 COMPILER V9.53.0.0   TEMP                                                              11/07/2023 20:45:01 PAGE 17  

009F A3                INC     DPTR
00A0 E0                MOVX    A,@DPTR
00A1 FB                MOV     R3,A
00A2 C000              PUSH    AR0
00A4 C001              PUSH    AR1
00A6 E4                CLR     A
00A7 7F01              MOV     R7,#01H
00A9 FE                MOV     R6,A
00AA FD                MOV     R5,A
00AB FC                MOV     R4,A
00AC 900000      R     MOV     DPTR,#item_pos
00AF E0                MOVX    A,@DPTR
00B0 75F009            MOV     B,#09H
00B3 A4                MUL     AB
00B4 2400        R     ADD     A,#LOW cur_menu
00B6 F582              MOV     DPL,A
00B8 E5F0              MOV     A,B
00BA 3400        R     ADDC    A,#HIGH cur_menu
00BC F583              MOV     DPH,A
00BE E0                MOVX    A,@DPTR
00BF F9                MOV     R1,A
00C0 F8                MOV     R0,A
00C1 120000      E     LCALL   ?C?LSHL
00C4 120000      E     LCALL   ?C?LNOT
00C7 D001              POP     AR1
00C9 D000              POP     AR0
00CB EB                MOV     A,R3
00CC 5F                ANL     A,R7
00CD FF                MOV     R7,A
00CE EA                MOV     A,R2
00CF 5E                ANL     A,R6
00D0 FE                MOV     R6,A
00D1 E9                MOV     A,R1
00D2 5D                ANL     A,R5
00D3 FD                MOV     R5,A
00D4 E8                MOV     A,R0
00D5 5C                ANL     A,R4
00D6 FC                MOV     R4,A
00D7 900000      R     MOV     DPTR,#bm
00DA 120000      E     LCALL   ?C?LSTXDATA
                                           ; SOURCE LINE # 181
00DD E4                CLR     A
00DE FF                MOV     R7,A
00DF FE                MOV     R6,A
00E0 FD                MOV     R5,A
00E1 FC                MOV     R4,A
00E2 900000      R     MOV     DPTR,#bm
00E5 E0                MOVX    A,@DPTR
00E6 F8                MOV     R0,A
00E7 A3                INC     DPTR
00E8 E0                MOVX    A,@DPTR
00E9 F9                MOV     R1,A
00EA A3                INC     DPTR
00EB E0                MOVX    A,@DPTR
00EC FA                MOV     R2,A
00ED A3                INC     DPTR
00EE E0                MOVX    A,@DPTR
00EF FB                MOV     R3,A
00F0 C3                CLR     C
00F1 120000      E     LCALL   ?C?ULCMP
00F4 6056              JZ      ?C0016
                                           ; SOURCE LINE # 182
C51 COMPILER V9.53.0.0   TEMP                                                              11/07/2023 20:45:01 PAGE 18  

00F6 900000      R     MOV     DPTR,#item_pos
00F9 E0                MOVX    A,@DPTR
00FA FF                MOV     R7,A
00FB 7E00              MOV     R6,#00H
00FD 900000      R     MOV     DPTR,#ICON_RECT_SZ
0100 E4                CLR     A
0101 93                MOVC    A,@A+DPTR
0102 FC                MOV     R4,A
0103 7401              MOV     A,#01H
0105 93                MOVC    A,@A+DPTR
0106 FD                MOV     R5,A
0107 120000      E     LCALL   ?C?IMUL
010A AA06              MOV     R2,AR6
010C AB07              MOV     R3,AR7
010E 900000      R     MOV     DPTR,#?_make_menu_bar?BYTE+05H
0111 7402              MOV     A,#02H
0113 F0                MOVX    @DPTR,A
0114 A3                INC     DPTR
0115 7420              MOV     A,#020H
0117 F0                MOVX    @DPTR,A
0118 900000      R     MOV     DPTR,#bm
011B E0                MOVX    A,@DPTR
011C FC                MOV     R4,A
011D A3                INC     DPTR
011E E0                MOVX    A,@DPTR
011F FD                MOV     R5,A
0120 A3                INC     DPTR
0121 E0                MOVX    A,@DPTR
0122 FE                MOV     R6,A
0123 A3                INC     DPTR
0124 E0                MOVX    A,@DPTR
0125 FF                MOV     R7,A
0126 900000      R     MOV     DPTR,#?_make_menu_bar?BYTE+07H
0129 120000      E     LCALL   ?C?LSTXDATA
012C 900000      R     MOV     DPTR,#?_make_menu_bar?BYTE+0BH
012F 74FF              MOV     A,#0FFH
0131 F0                MOVX    @DPTR,A
0132 A3                INC     DPTR
0133 7400        R     MOV     A,#HIGH _change_mode_control
0135 F0                MOVX    @DPTR,A
0136 A3                INC     DPTR
0137 7400        R     MOV     A,#LOW _change_mode_control
0139 F0                MOVX    @DPTR,A
013A 7D01              MOV     R5,#01H
013C 7F00              MOV     R7,#00H
013E 7E95              MOV     R6,#095H
0140 020000      R     LJMP    _make_menu_bar
                                           ; SOURCE LINE # 183
                                           ; SOURCE LINE # 184
                                           ; SOURCE LINE # 185
0143         ?C0013:
0143 900000      R     MOV     DPTR,#i
0146 E0                MOVX    A,@DPTR
0147 04                INC     A
0148 F0                MOVX    @DPTR,A
0149 020000      R     LJMP    ?C0011
                                           ; SOURCE LINE # 186
014C         ?C0016:
014C 22                RET     
             ; FUNCTION _bottom_level_controls (END)

             ; FUNCTION _change_mode_control (BEGIN)
C51 COMPILER V9.53.0.0   TEMP                                                              11/07/2023 20:45:01 PAGE 19  

                                           ; SOURCE LINE # 188
0000 900000      R     MOV     DPTR,#item_pos
0003 EF                MOV     A,R7
0004 F0                MOVX    @DPTR,A
                                           ; SOURCE LINE # 189
                                           ; SOURCE LINE # 194
0005 E4                CLR     A
0006 A3                INC     DPTR
0007 F0                MOVX    @DPTR,A
0008         ?C0017:
0008 900000      R     MOV     DPTR,#i
000B E0                MOVX    A,@DPTR
000C FB                MOV     R3,A
000D C3                CLR     C
000E 9408              SUBB    A,#08H
0010 4003              JC      $ + 5H
0012 020000      R     LJMP    ?C0018
                                           ; SOURCE LINE # 195
0015 E4                CLR     A
0016 7F01              MOV     R7,#01H
0018 FE                MOV     R6,A
0019 FD                MOV     R5,A
001A FC                MOV     R4,A
001B 900000      R     MOV     DPTR,#item_pos
001E E0                MOVX    A,@DPTR
001F 75F009            MOV     B,#09H
0022 A4                MUL     AB
0023 2400        R     ADD     A,#LOW cur_menu
0025 F582              MOV     DPL,A
0027 E5F0              MOV     A,B
0029 3400        R     ADDC    A,#HIGH cur_menu
002B F583              MOV     DPH,A
002D E0                MOVX    A,@DPTR
002E F9                MOV     R1,A
002F F8                MOV     R0,A
0030 120000      E     LCALL   ?C?LSHL
0033 EB                MOV     A,R3
0034 25E0              ADD     A,ACC
0036 25E0              ADD     A,ACC
0038 2400        R     ADD     A,#LOW menu_item_bm
003A F582              MOV     DPL,A
003C E4                CLR     A
003D 3400        R     ADDC    A,#HIGH menu_item_bm
003F F583              MOV     DPH,A
0041 120000      E     LCALL   ?C?LLDCODE0
0044 EB                MOV     A,R3
0045 5F                ANL     A,R7
0046 FF                MOV     R7,A
0047 EA                MOV     A,R2
0048 5E                ANL     A,R6
0049 FE                MOV     R6,A
004A E9                MOV     A,R1
004B 5D                ANL     A,R5
004C FD                MOV     R5,A
004D E8                MOV     A,R0
004E 5C                ANL     A,R4
004F FC                MOV     R4,A
0050 4D                ORL     A,R5
0051 4E                ORL     A,R6
0052 4F                ORL     A,R7
0053 7003              JNZ     $ + 5H
0055 020000      R     LJMP    ?C0019
C51 COMPILER V9.53.0.0   TEMP                                                              11/07/2023 20:45:01 PAGE 20  

                                           ; SOURCE LINE # 196
0058 7800        R     MOV     R0,#LOW main_menu_bm
005A 120000      E     LCALL   ?C?LLDIDATA0
005D 900000      R     MOV     DPTR,#i
0060 E0                MOVX    A,@DPTR
0061 25E0              ADD     A,ACC
0063 25E0              ADD     A,ACC
0065 2400        R     ADD     A,#LOW menu_item_bm
0067 F582              MOV     DPL,A
0069 E4                CLR     A
006A 3400        R     ADDC    A,#HIGH menu_item_bm
006C F583              MOV     DPH,A
006E 120000      E     LCALL   ?C?LLDCODE
0071 120000      E     LCALL   ?C?LNOT
0074 EB                MOV     A,R3
0075 5F                ANL     A,R7
0076 FF                MOV     R7,A
0077 EA                MOV     A,R2
0078 5E                ANL     A,R6
0079 FE                MOV     R6,A
007A E9                MOV     A,R1
007B 5D                ANL     A,R5
007C FD                MOV     R5,A
007D E8                MOV     A,R0
007E 5C                ANL     A,R4
007F FC                MOV     R4,A
0080 7800        R     MOV     R0,#LOW main_menu_bm
0082 120000      E     LCALL   ?C?LSTIDATA
                                           ; SOURCE LINE # 197
0085 900000      R     MOV     DPTR,#item_pos
0088 E0                MOVX    A,@DPTR
0089 75F009            MOV     B,#09H
008C A4                MUL     AB
008D 2400        R     ADD     A,#LOW cur_menu
008F F582              MOV     DPL,A
0091 E5F0              MOV     A,B
0093 3400        R     ADDC    A,#HIGH cur_menu
0095 F583              MOV     DPH,A
0097 E0                MOVX    A,@DPTR
0098 14                DEC     A
0099 600E              JZ      ?C0023
009B 14                DEC     A
009C 6013              JZ      ?C0024
009E 2402              ADD     A,#02H
00A0 7015              JNZ     ?C0021
                                           ; SOURCE LINE # 198
                                           ; SOURCE LINE # 199
00A2         ?C0022:
                                           ; SOURCE LINE # 200
00A2 E4                CLR     A
00A3 900000      R     MOV     DPTR,#cur_active_items_id
00A6 F0                MOVX    @DPTR,A
                                           ; SOURCE LINE # 201
00A7 800E              SJMP    ?C0021
                                           ; SOURCE LINE # 203
00A9         ?C0023:
                                           ; SOURCE LINE # 204
00A9 900000      R     MOV     DPTR,#cur_active_items_id
00AC 7401              MOV     A,#01H
00AE F0                MOVX    @DPTR,A
                                           ; SOURCE LINE # 205
00AF 8006              SJMP    ?C0021
C51 COMPILER V9.53.0.0   TEMP                                                              11/07/2023 20:45:01 PAGE 21  

                                           ; SOURCE LINE # 207
00B1         ?C0024:
                                           ; SOURCE LINE # 208
00B1 900000      R     MOV     DPTR,#cur_active_items_id
00B4 7402              MOV     A,#02H
00B6 F0                MOVX    @DPTR,A
                                           ; SOURCE LINE # 209
                                           ; SOURCE LINE # 210
00B7         ?C0021:
                                           ; SOURCE LINE # 211
00B7 7800        R     MOV     R0,#LOW main_menu_bm
00B9 120000      E     LCALL   ?C?LLDIDATA0
00BC C000              PUSH    AR0
00BE C001              PUSH    AR1
00C0 E4                CLR     A
00C1 7F01              MOV     R7,#01H
00C3 FE                MOV     R6,A
00C4 FD                MOV     R5,A
00C5 FC                MOV     R4,A
00C6 900000      R     MOV     DPTR,#item_pos
00C9 E0                MOVX    A,@DPTR
00CA 75F009            MOV     B,#09H
00CD A4                MUL     AB
00CE 2400        R     ADD     A,#LOW cur_menu
00D0 F582              MOV     DPL,A
00D2 E5F0              MOV     A,B
00D4 3400        R     ADDC    A,#HIGH cur_menu
00D6 F583              MOV     DPH,A
00D8 E0                MOVX    A,@DPTR
00D9 F9                MOV     R1,A
00DA F8                MOV     R0,A
00DB 120000      E     LCALL   ?C?LSHL
00DE D001              POP     AR1
00E0 D000              POP     AR0
00E2 EB                MOV     A,R3
00E3 4F                ORL     A,R7
00E4 FF                MOV     R7,A
00E5 EA                MOV     A,R2
00E6 4E                ORL     A,R6
00E7 FE                MOV     R6,A
00E8 E9                MOV     A,R1
00E9 4D                ORL     A,R5
00EA FD                MOV     R5,A
00EB E8                MOV     A,R0
00EC 4C                ORL     A,R4
00ED FC                MOV     R4,A
00EE 7800        R     MOV     R0,#LOW main_menu_bm
00F0 120000      E     LCALL   ?C?LSTIDATA
                                           ; SOURCE LINE # 213
00F3 900000      R     MOV     DPTR,#cur_active_items_id
00F6 E0                MOVX    A,@DPTR
00F7 25E0              ADD     A,ACC
00F9 25E0              ADD     A,ACC
00FB 2400        R     ADD     A,#LOW active_items
00FD F582              MOV     DPL,A
00FF E4                CLR     A
0100 3400        R     ADDC    A,#HIGH active_items
0102 F583              MOV     DPH,A
0104 120000      E     LCALL   ?C?LLDCODE
0107 900000      R     MOV     DPTR,#bm
010A 120000      E     LCALL   ?C?LSTXDATA
                                           ; SOURCE LINE # 214
C51 COMPILER V9.53.0.0   TEMP                                                              11/07/2023 20:45:01 PAGE 22  

010D 900000      R     MOV     DPTR,#bm
0110 E0                MOVX    A,@DPTR
0111 FC                MOV     R4,A
0112 A3                INC     DPTR
0113 E0                MOVX    A,@DPTR
0114 FD                MOV     R5,A
0115 A3                INC     DPTR
0116 E0                MOVX    A,@DPTR
0117 FE                MOV     R6,A
0118 A3                INC     DPTR
0119 E0                MOVX    A,@DPTR
011A FF                MOV     R7,A
011B 7800        R     MOV     R0,#LOW main_menu_bm
011D 120000      E     LCALL   ?C?LLDIDATA0
0120 EF                MOV     A,R7
0121 5B                ANL     A,R3
0122 FF                MOV     R7,A
0123 EE                MOV     A,R6
0124 5A                ANL     A,R2
0125 FE                MOV     R6,A
0126 ED                MOV     A,R5
0127 59                ANL     A,R1
0128 FD                MOV     R5,A
0129 EC                MOV     A,R4
012A 58                ANL     A,R0
012B FC                MOV     R4,A
012C 900000      R     MOV     DPTR,#bm
012F 120000      E     LCALL   ?C?LSTXDATA
                                           ; SOURCE LINE # 215
0132 900000      R     MOV     DPTR,#ICON_RECT_SZ
0135 E4                CLR     A
0136 93                MOVC    A,@A+DPTR
0137 FE                MOV     R6,A
0138 7401              MOV     A,#01H
013A 93                MOVC    A,@A+DPTR
013B FF                MOV     R7,A
013C C3                CLR     C
013D 7420              MOV     A,#020H
013F 9F                SUBB    A,R7
0140 900000      R     MOV     DPTR,#?_make_menu_bar?BYTE+06H
0143 F0                MOVX    @DPTR,A
0144 7403              MOV     A,#03H
0146 9E                SUBB    A,R6
0147 900000      R     MOV     DPTR,#?_make_menu_bar?BYTE+05H
014A F0                MOVX    @DPTR,A
014B 900000      R     MOV     DPTR,#bm
014E E0                MOVX    A,@DPTR
014F FC                MOV     R4,A
0150 A3                INC     DPTR
0151 E0                MOVX    A,@DPTR
0152 FD                MOV     R5,A
0153 A3                INC     DPTR
0154 E0                MOVX    A,@DPTR
0155 FE                MOV     R6,A
0156 A3                INC     DPTR
0157 E0                MOVX    A,@DPTR
0158 FF                MOV     R7,A
0159 900000      R     MOV     DPTR,#?_make_menu_bar?BYTE+07H
015C 120000      E     LCALL   ?C?LSTXDATA
015F 900000      R     MOV     DPTR,#?_make_menu_bar?BYTE+0BH
0162 74FF              MOV     A,#0FFH
0164 F0                MOVX    @DPTR,A
C51 COMPILER V9.53.0.0   TEMP                                                              11/07/2023 20:45:01 PAGE 23  

0165 A3                INC     DPTR
0166 7400        R     MOV     A,#HIGH _bottom_level_controls
0168 F0                MOVX    @DPTR,A
0169 A3                INC     DPTR
016A 7400        R     MOV     A,#LOW _bottom_level_controls
016C F0                MOVX    @DPTR,A
016D E4                CLR     A
016E FB                MOV     R3,A
016F FA                MOV     R2,A
0170 FD                MOV     R5,A
0171 FF                MOV     R7,A
0172 7E90              MOV     R6,#090H
0174 120000      R     LCALL   _make_menu_bar
                                           ; SOURCE LINE # 216
0177 8009              SJMP    ?C0018
                                           ; SOURCE LINE # 217
                                           ; SOURCE LINE # 218
0179         ?C0019:
0179 900000      R     MOV     DPTR,#i
017C E0                MOVX    A,@DPTR
017D 04                INC     A
017E F0                MOVX    @DPTR,A
017F 020000      R     LJMP    ?C0017
0182         ?C0018:
                                           ; SOURCE LINE # 220
                                           ; SOURCE LINE # 221
0182 E4                CLR     A
0183 900000      R     MOV     DPTR,#tmp
0186 F0                MOVX    @DPTR,A
0187 A3                INC     DPTR
0188 F0                MOVX    @DPTR,A
                                           ; SOURCE LINE # 222
0189 7B01              MOV     R3,#01H
018B 7A00        R     MOV     R2,#HIGH tmp
018D 7900        R     MOV     R1,#LOW tmp
018F 900000      E     MOV     DPTR,#?_write_dgus_vp?BYTE+05H
0192 F0                MOVX    @DPTR,A
0193 A3                INC     DPTR
0194 04                INC     A
0195 F0                MOVX    @DPTR,A
0196 7F00              MOV     R7,#00H
0198 7E95              MOV     R6,#095H
019A 020000      E     LJMP    _write_dgus_vp
             ; FUNCTION _change_mode_control (END)

             ; FUNCTION draw_bottom_menu (BEGIN)
                                           ; SOURCE LINE # 231
                                           ; SOURCE LINE # 232
                                           ; SOURCE LINE # 244
0000 E4                CLR     A
0001 900000      R     MOV     DPTR,#cur_active_items_id
0004 F0                MOVX    @DPTR,A
                                           ; SOURCE LINE # 245
0005 900000      R     MOV     DPTR,#ICON_RECT_SZ
0008 93                MOVC    A,@A+DPTR
0009 FE                MOV     R6,A
000A 7401              MOV     A,#01H
000C 93                MOVC    A,@A+DPTR
000D FF                MOV     R7,A
000E C3                CLR     C
000F 7420              MOV     A,#020H
0011 9F                SUBB    A,R7
C51 COMPILER V9.53.0.0   TEMP                                                              11/07/2023 20:45:01 PAGE 24  

0012 900000      R     MOV     DPTR,#?_make_menu_bar?BYTE+06H
0015 F0                MOVX    @DPTR,A
0016 7403              MOV     A,#03H
0018 9E                SUBB    A,R6
0019 900000      R     MOV     DPTR,#?_make_menu_bar?BYTE+05H
001C F0                MOVX    @DPTR,A
001D 7800        R     MOV     R0,#LOW main_menu_bm
001F 120000      E     LCALL   ?C?LLDIDATA
0022 900000      R     MOV     DPTR,#?_make_menu_bar?BYTE+07H
0025 120000      E     LCALL   ?C?LSTXDATA
0028 900000      R     MOV     DPTR,#?_make_menu_bar?BYTE+0BH
002B 74FF              MOV     A,#0FFH
002D F0                MOVX    @DPTR,A
002E A3                INC     DPTR
002F 7400        R     MOV     A,#HIGH _bottom_level_controls
0031 F0                MOVX    @DPTR,A
0032 A3                INC     DPTR
0033 7400        R     MOV     A,#LOW _bottom_level_controls
0035 F0                MOVX    @DPTR,A
0036 E4                CLR     A
0037 FB                MOV     R3,A
0038 FA                MOV     R2,A
0039 FD                MOV     R5,A
003A FF                MOV     R7,A
003B 7E90              MOV     R6,#090H
003D 020000      R     LJMP    _make_menu_bar
             ; FUNCTION draw_bottom_menu (END)

             ; FUNCTION _make_rect_line (BEGIN)
                                           ; SOURCE LINE # 291
;---- Variable 'x' assigned to Register 'R6/R7' ----
;---- Variable 'color' assigned to Register 'R2/R3' ----
;---- Variable 'y' assigned to Register 'R4/R5' ----
                                           ; SOURCE LINE # 292
                                           ; SOURCE LINE # 294
0000 900000      R     MOV     DPTR,#rl
0003 EE                MOV     A,R6
0004 F0                MOVX    @DPTR,A
0005 A3                INC     DPTR
0006 EF                MOV     A,R7
0007 F0                MOVX    @DPTR,A
                                           ; SOURCE LINE # 295
0008 AF05              MOV     R7,AR5
000A A3                INC     DPTR
000B EC                MOV     A,R4
000C F0                MOVX    @DPTR,A
000D A3                INC     DPTR
000E EF                MOV     A,R7
000F F0                MOVX    @DPTR,A
                                           ; SOURCE LINE # 296
0010 AF03              MOV     R7,AR3
0012 A3                INC     DPTR
0013 EA                MOV     A,R2
0014 F0                MOVX    @DPTR,A
0015 A3                INC     DPTR
0016 EF                MOV     A,R7
0017 F0                MOVX    @DPTR,A
                                           ; SOURCE LINE # 297
0018 7B01              MOV     R3,#01H
001A 7A00        R     MOV     R2,#HIGH rl
001C 7900        R     MOV     R1,#LOW rl
                                           ; SOURCE LINE # 298
C51 COMPILER V9.53.0.0   TEMP                                                              11/07/2023 20:45:01 PAGE 25  

001E         ?C0027:
001E 22                RET     
             ; FUNCTION _make_rect_line (END)

             ; FUNCTION L?0031 (BEGIN)
0000 3400              ADDC    A,#00H
0002 FE                MOV     R6,A
0003         L?0032:
0003 E0                MOVX    A,@DPTR
0004 FC                MOV     R4,A
0005 A3                INC     DPTR
0006 E0                MOVX    A,@DPTR
0007 FD                MOV     R5,A
             ; FUNCTION _make_point (BEGIN)
                                           ; SOURCE LINE # 300
;---- Variable 'y' assigned to Register 'R4/R5' ----
;---- Variable 'x' assigned to Register 'R6/R7' ----
                                           ; SOURCE LINE # 301
                                           ; SOURCE LINE # 303
0008 900000      R     MOV     DPTR,#p
000B EE                MOV     A,R6
000C F0                MOVX    @DPTR,A
000D A3                INC     DPTR
000E EF                MOV     A,R7
000F F0                MOVX    @DPTR,A
                                           ; SOURCE LINE # 304
0010 AF05              MOV     R7,AR5
0012 A3                INC     DPTR
0013 EC                MOV     A,R4
0014 F0                MOVX    @DPTR,A
0015 A3                INC     DPTR
0016 EF                MOV     A,R7
0017 F0                MOVX    @DPTR,A
                                           ; SOURCE LINE # 305
0018 7B01              MOV     R3,#01H
001A 7A00        R     MOV     R2,#HIGH p
001C 7900        R     MOV     R1,#LOW p
                                           ; SOURCE LINE # 306
001E         ?C0028:
001E 22                RET     
             ; FUNCTION _make_point (END)

             ; FUNCTION draw_cyclogramm (BEGIN)
                                           ; SOURCE LINE # 308
                                           ; SOURCE LINE # 309
                                           ; SOURCE LINE # 310
0000 E4                CLR     A
0001 900000      R     MOV     DPTR,#start_x
0004 F0                MOVX    @DPTR,A
0005 A3                INC     DPTR
0006 F0                MOVX    @DPTR,A
                                           ; SOURCE LINE # 311
0007 A3                INC     DPTR
0008 04                INC     A
0009 F0                MOVX    @DPTR,A
000A A3                INC     DPTR
000B 742C              MOV     A,#02CH
000D F0                MOVX    @DPTR,A
                                           ; SOURCE LINE # 312
000E A3                INC     DPTR
000F 740A              MOV     A,#0AH
0011 F0                MOVX    @DPTR,A
C51 COMPILER V9.53.0.0   TEMP                                                              11/07/2023 20:45:01 PAGE 26  

                                           ; SOURCE LINE # 313
0012 A3                INC     DPTR
0013 7496              MOV     A,#096H
0015 F0                MOVX    @DPTR,A
                                           ; SOURCE LINE # 318
0016 7D2C              MOV     R5,#02CH
0018 7C01              MOV     R4,#01H
001A E4                CLR     A
001B FF                MOV     R7,A
001C FE                MOV     R6,A
001D 120000      R     LCALL   _make_point
0020 7800        R     MOV     R0,#LOW p
0022 7C00        R     MOV     R4,#HIGH p
0024 7D01              MOV     R5,#01H
0026 7F04              MOV     R7,#04H
0028 120000      E     LCALL   ?C?COPY
                                           ; SOURCE LINE # 319
002B 900000      R     MOV     DPTR,#LINE_WIDTH
002E E0                MOVX    A,@DPTR
002F FF                MOV     R7,A
0030 900000      R     MOV     DPTR,#p+01H
0033 E0                MOVX    A,@DPTR
0034 2F                ADD     A,R7
0035 FF                MOV     R7,A
0036 900000      R     MOV     DPTR,#p
0039 E0                MOVX    A,@DPTR
003A 900000      R     MOV     DPTR,#p+02H
003D 120000      R     LCALL   L?0031
0040 7800        R     MOV     R0,#LOW p+04H
0042 7C00        R     MOV     R4,#HIGH p+04H
0044 7D01              MOV     R5,#01H
0046 7E00              MOV     R6,#00H
0048 7F04              MOV     R7,#04H
004A 120000      E     LCALL   ?C?COPY
                                           ; SOURCE LINE # 320
004D 900000      R     MOV     DPTR,#p+04H
0050 E0                MOVX    A,@DPTR
0051 FE                MOV     R6,A
0052 A3                INC     DPTR
0053 E0                MOVX    A,@DPTR
0054 FF                MOV     R7,A
0055 900000      R     MOV     DPTR,#LINE_WIDTH
0058 E0                MOVX    A,@DPTR
0059 FD                MOV     R5,A
005A C3                CLR     C
005B 900000      R     MOV     DPTR,#p+07H
005E E0                MOVX    A,@DPTR
005F 9D                SUBB    A,R5
0060 FD                MOV     R5,A
0061 900000      R     MOV     DPTR,#p+06H
0064 E0                MOVX    A,@DPTR
0065 9400              SUBB    A,#00H
0067 FC                MOV     R4,A
0068 120000      R     LCALL   _make_point
006B 7800        R     MOV     R0,#LOW p+08H
006D 7C00        R     MOV     R4,#HIGH p+08H
006F 7D01              MOV     R5,#01H
0071 7E00              MOV     R6,#00H
0073 7F04              MOV     R7,#04H
0075 120000      E     LCALL   ?C?COPY
                                           ; SOURCE LINE # 321
0078 900000      R     MOV     DPTR,#LINE_WIDTH
C51 COMPILER V9.53.0.0   TEMP                                                              11/07/2023 20:45:01 PAGE 27  

007B E0                MOVX    A,@DPTR
007C FF                MOV     R7,A
007D 900000      R     MOV     DPTR,#p+09H
0080 E0                MOVX    A,@DPTR
0081 2F                ADD     A,R7
0082 FF                MOV     R7,A
0083 900000      R     MOV     DPTR,#p+08H
0086 E0                MOVX    A,@DPTR
0087 900000      R     MOV     DPTR,#p+0AH
008A 120000      R     LCALL   L?0031
008D 7800        R     MOV     R0,#LOW p+0CH
008F 7C00        R     MOV     R4,#HIGH p+0CH
0091 7D01              MOV     R5,#01H
0093 7E00              MOV     R6,#00H
0095 7F04              MOV     R7,#04H
0097 120000      E     LCALL   ?C?COPY
                                           ; SOURCE LINE # 322
009A 900000      R     MOV     DPTR,#LINE_WIDTH
009D E0                MOVX    A,@DPTR
009E FD                MOV     R5,A
009F FF                MOV     R7,A
00A0 900000      R     MOV     DPTR,#p+0DH
00A3 E0                MOVX    A,@DPTR
00A4 2F                ADD     A,R7
00A5 FF                MOV     R7,A
00A6 900000      R     MOV     DPTR,#p+0CH
00A9 E0                MOVX    A,@DPTR
00AA 3400              ADDC    A,#00H
00AC FE                MOV     R6,A
00AD C3                CLR     C
00AE 900000      R     MOV     DPTR,#p+0FH
00B1 E0                MOVX    A,@DPTR
00B2 9D                SUBB    A,R5
00B3 FD                MOV     R5,A
00B4 900000      R     MOV     DPTR,#p+0EH
00B7 E0                MOVX    A,@DPTR
00B8 9400              SUBB    A,#00H
00BA FC                MOV     R4,A
00BB 120000      R     LCALL   _make_point
00BE 7800        R     MOV     R0,#LOW p+010H
00C0 7C00        R     MOV     R4,#HIGH p+010H
00C2 7D01              MOV     R5,#01H
00C4 7E00              MOV     R6,#00H
00C6 7F04              MOV     R7,#04H
00C8 120000      E     LCALL   ?C?COPY
                                           ; SOURCE LINE # 324
00CB 900000      R     MOV     DPTR,#LINE_WIDTH
00CE E0                MOVX    A,@DPTR
00CF 75F002            MOV     B,#02H
00D2 A4                MUL     AB
00D3 FF                MOV     R7,A
00D4 900000      R     MOV     DPTR,#p+011H
00D7 E0                MOVX    A,@DPTR
00D8 2F                ADD     A,R7
00D9 FF                MOV     R7,A
00DA 900000      R     MOV     DPTR,#p+010H
00DD E0                MOVX    A,@DPTR
00DE 35F0              ADDC    A,B
00E0 FE                MOV     R6,A
00E1 900000      R     MOV     DPTR,#p+012H
00E4 120000      R     LCALL   L?0032
00E7 7800        R     MOV     R0,#LOW p+014H
C51 COMPILER V9.53.0.0   TEMP                                                              11/07/2023 20:45:01 PAGE 28  

00E9 7C00        R     MOV     R4,#HIGH p+014H
00EB 7D01              MOV     R5,#01H
00ED 7E00              MOV     R6,#00H
00EF 7F04              MOV     R7,#04H
00F1 120000      E     LCALL   ?C?COPY
                                           ; SOURCE LINE # 325
00F4 900000      R     MOV     DPTR,#LINE_WIDTH
00F7 E0                MOVX    A,@DPTR
00F8 FD                MOV     R5,A
00F9 FF                MOV     R7,A
00FA 900000      R     MOV     DPTR,#p+015H
00FD E0                MOVX    A,@DPTR
00FE 2F                ADD     A,R7
00FF FF                MOV     R7,A
0100 900000      R     MOV     DPTR,#p+014H
0103 E0                MOVX    A,@DPTR
0104 3400              ADDC    A,#00H
0106 FE                MOV     R6,A
0107 900000      R     MOV     DPTR,#p+017H
010A E0                MOVX    A,@DPTR
010B 2D                ADD     A,R5
010C FD                MOV     R5,A
010D 900000      R     MOV     DPTR,#p+016H
0110 E0                MOVX    A,@DPTR
0111 3400              ADDC    A,#00H
0113 FC                MOV     R4,A
0114 120000      R     LCALL   _make_point
0117 7800        R     MOV     R0,#LOW p+018H
0119 7C00        R     MOV     R4,#HIGH p+018H
011B 7D01              MOV     R5,#01H
011D 7E00              MOV     R6,#00H
011F 7F04              MOV     R7,#04H
0121 120000      E     LCALL   ?C?COPY
                                           ; SOURCE LINE # 326
0124 900000      R     MOV     DPTR,#LINE_WIDTH
0127 E0                MOVX    A,@DPTR
0128 FF                MOV     R7,A
0129 900000      R     MOV     DPTR,#p+019H
012C E0                MOVX    A,@DPTR
012D 2F                ADD     A,R7
012E FF                MOV     R7,A
012F 900000      R     MOV     DPTR,#p+018H
0132 E0                MOVX    A,@DPTR
0133 3400              ADDC    A,#00H
0135 FE                MOV     R6,A
0136 900000      R     MOV     DPTR,#p+01AH
0139 120000      R     LCALL   L?0032
013C 7800        R     MOV     R0,#LOW p+01CH
013E 7C00        R     MOV     R4,#HIGH p+01CH
0140 7D01              MOV     R5,#01H
0142 7E00              MOV     R6,#00H
0144 7F04              MOV     R7,#04H
0146 120000      E     LCALL   ?C?COPY
                                           ; SOURCE LINE # 327
0149 900000      R     MOV     DPTR,#p+01CH
014C E0                MOVX    A,@DPTR
014D FE                MOV     R6,A
014E A3                INC     DPTR
014F E0                MOVX    A,@DPTR
0150 FF                MOV     R7,A
0151 900000      R     MOV     DPTR,#LINE_WIDTH
0154 E0                MOVX    A,@DPTR
C51 COMPILER V9.53.0.0   TEMP                                                              11/07/2023 20:45:01 PAGE 29  

0155 FD                MOV     R5,A
0156 900000      R     MOV     DPTR,#p+01FH
0159 E0                MOVX    A,@DPTR
015A 2D                ADD     A,R5
015B FD                MOV     R5,A
015C 900000      R     MOV     DPTR,#p+01EH
015F E0                MOVX    A,@DPTR
0160 3400              ADDC    A,#00H
0162 FC                MOV     R4,A
0163 120000      R     LCALL   _make_point
0166 7800        R     MOV     R0,#LOW p+020H
0168 7C00        R     MOV     R4,#HIGH p+020H
016A 7D01              MOV     R5,#01H
016C 7E00              MOV     R6,#00H
016E 7F04              MOV     R7,#04H
0170 120000      E     LCALL   ?C?COPY
                                           ; SOURCE LINE # 328
0173 900000      R     MOV     DPTR,#LINE_WIDTH
0176 E0                MOVX    A,@DPTR
0177 FF                MOV     R7,A
0178 900000      R     MOV     DPTR,#p+01DH
017B E0                MOVX    A,@DPTR
017C 2F                ADD     A,R7
017D FF                MOV     R7,A
017E 900000      R     MOV     DPTR,#p+01CH
0181 E0                MOVX    A,@DPTR
0182 3400              ADDC    A,#00H
0184 FE                MOV     R6,A
0185 900000      R     MOV     DPTR,#p+01EH
0188 120000      R     LCALL   L?0032
018B 7800        R     MOV     R0,#LOW p+024H
018D 7C00        R     MOV     R4,#HIGH p+024H
018F 7D01              MOV     R5,#01H
0191 7E00              MOV     R6,#00H
0193 7F04              MOV     R7,#04H
0195 020000      E     LJMP    ?C?COPY
             ; FUNCTION draw_cyclogramm (END)

C51 COMPILER V9.53.0.0   TEMP                                                              11/07/2023 20:45:01 PAGE 30  

NAME                                    CLASS   MSPACE  TYPE    OFFSET  SIZE
====                                    =====   ======  ====    ======  ====


icon_t . . . . . . . . . . . . . . . .  TYPEDEF  -----  STRUCT   -----  9
  ico. . . . . . . . . . . . . . . . .  MEMBER   -----  U_CHAR   0000H  1
  r. . . . . . . . . . . . . . . . . .  MEMBER   -----  STRUCT   0001H  8
EIID_AC. . . . . . . . . . . . . . . .  E_CONST  -----  U_CHAR   -----  1
EIID_D_10. . . . . . . . . . . . . . .  E_CONST  -----  U_CHAR   -----  1
cur_menu_size. . . . . . . . . . . . .  PUBLIC   XDATA  U_CHAR   0000H  1
point_t. . . . . . . . . . . . . . . .  TYPEDEF  -----  STRUCT   -----  4
  x. . . . . . . . . . . . . . . . . .  MEMBER   -----  U_INT    0000H  2
  y. . . . . . . . . . . . . . . . . .  MEMBER   -----  U_INT    0002H  2
EIID_H2O_OFF . . . . . . . . . . . . .  E_CONST  -----  U_CHAR   -----  1
EIID_D_20. . . . . . . . . . . . . . .  E_CONST  -----  U_CHAR   -----  1
EIID_2T. . . . . . . . . . . . . . . .  E_CONST  -----  U_CHAR   -----  1
EIID_D_40. . . . . . . . . . . . . . .  E_CONST  -----  U_CHAR   -----  1
EIID_4T. . . . . . . . . . . . . . . .  E_CONST  -----  U_CHAR   -----  1
rect_t . . . . . . . . . . . . . . . .  TYPEDEF  -----  STRUCT   -----  8
  x0 . . . . . . . . . . . . . . . . .  MEMBER   -----  U_INT    0000H  2
  y0 . . . . . . . . . . . . . . . . .  MEMBER   -----  U_INT    0002H  2
  x1 . . . . . . . . . . . . . . . . .  MEMBER   -----  U_INT    0004H  2
  y1 . . . . . . . . . . . . . . . . .  MEMBER   -----  U_INT    0006H  2
active_items . . . . . . . . . . . . .  PUBLIC   CODE   ARRAY    0002H  12
EIID_D_32. . . . . . . . . . . . . . .  E_CONST  -----  U_CHAR   -----  1
EIID_PULSE_ON. . . . . . . . . . . . .  E_CONST  -----  U_CHAR   -----  1
EIID_D_24. . . . . . . . . . . . . . .  E_CONST  -----  U_CHAR   -----  1
EIID_D_16. . . . . . . . . . . . . . .  E_CONST  -----  U_CHAR   -----  1
EIID_TIG_SPOT. . . . . . . . . . . . .  E_CONST  -----  U_CHAR   -----  1
EIID_HF. . . . . . . . . . . . . . . .  E_CONST  -----  U_CHAR   -----  1
_write_dgus_vp . . . . . . . . . . . .  EXTERN   CODE   PROC     -----  -----
TIG_SPOT . . . . . . . . . . . . . . .  E_CONST  -----  U_CHAR   -----  1
size_t . . . . . . . . . . . . . . . .  TYPEDEF  -----  U_INT    -----  2
bit_field_startup. . . . . . . . . . .  PUBLIC   XDATA  STRUCT   0001H  4
EIID_NO_ICON . . . . . . . . . . . . .  E_CONST  -----  U_CHAR   -----  1
EIID_DC_PLUS . . . . . . . . . . . . .  E_CONST  -----  U_CHAR   -----  1
EIID_4T_PLUS . . . . . . . . . . . . .  E_CONST  -----  U_CHAR   -----  1
MSPIFLASH. . . . . . . . . . . . . . .  TYPEDEF  -----  STRUCT   -----  16
  Mode . . . . . . . . . . . . . . . .  MEMBER   -----  U_CHAR   0000H  1
  ID . . . . . . . . . . . . . . . . .  MEMBER   -----  U_INT    0001H  2
  FLAddr . . . . . . . . . . . . . . .  MEMBER   -----  U_LONG   0003H  4
  VPAddr . . . . . . . . . . . . . . .  MEMBER   -----  U_INT    0007H  2
  Len. . . . . . . . . . . . . . . . .  MEMBER   -----  U_INT    0009H  2
  Buf. . . . . . . . . . . . . . . . .  MEMBER   -----  PTR      000BH  3
  Delay. . . . . . . . . . . . . . . .  MEMBER   -----  U_INT    000EH  2
_mSPIFLASH . . . . . . . . . . . . . .  * TAG *  -----  STRUCT   -----  16
  Mode . . . . . . . . . . . . . . . .  MEMBER   -----  U_CHAR   0000H  1
  ID . . . . . . . . . . . . . . . . .  MEMBER   -----  U_INT    0001H  2
  FLAddr . . . . . . . . . . . . . . .  MEMBER   -----  U_LONG   0003H  4
  VPAddr . . . . . . . . . . . . . . .  MEMBER   -----  U_INT    0007H  2
  Len. . . . . . . . . . . . . . . . .  MEMBER   -----  U_INT    0009H  2
  Buf. . . . . . . . . . . . . . . . .  MEMBER   -----  PTR      000BH  3
  Delay. . . . . . . . . . . . . . . .  MEMBER   -----  U_INT    000EH  2
s8 . . . . . . . . . . . . . . . . . .  TYPEDEF  -----  CHAR     -----  1
EIID_RECT. . . . . . . . . . . . . . .  E_CONST  -----  U_CHAR   -----  1
EIID_LIFT. . . . . . . . . . . . . . .  E_CONST  -----  U_CHAR   -----  1
u8 . . . . . . . . . . . . . . . . . .  TYPEDEF  -----  U_CHAR   -----  1
_make_point. . . . . . . . . . . . . .  PUBLIC   CODE   PROC     0008H  -----
  x. . . . . . . . . . . . . . . . . .  * REG *  DATA   U_INT    0006H  2
  y. . . . . . . . . . . . . . . . . .  * REG *  DATA   U_INT    0004H  2
  p. . . . . . . . . . . . . . . . . .  AUTO     XDATA  STRUCT   0000H  4
C51 COMPILER V9.53.0.0   TEMP                                                              11/07/2023 20:45:01 PAGE 31  

NAME                                    CLASS   MSPACE  TYPE    OFFSET  SIZE
====                                    =====   ======  ====    ======  ====


MNORFLASH. . . . . . . . . . . . . . .  TYPEDEF  -----  STRUCT   -----  12
  Mode . . . . . . . . . . . . . . . .  MEMBER   -----  U_CHAR   0000H  1
  FLAddr . . . . . . . . . . . . . . .  MEMBER   -----  U_LONG   0001H  4
  VPAddr . . . . . . . . . . . . . . .  MEMBER   -----  U_INT    0005H  2
  Len. . . . . . . . . . . . . . . . .  MEMBER   -----  U_INT    0007H  2
  Buf. . . . . . . . . . . . . . . . .  MEMBER   -----  PTR      0009H  3
_mNORFLASH . . . . . . . . . . . . . .  * TAG *  -----  STRUCT   -----  12
  Mode . . . . . . . . . . . . . . . .  MEMBER   -----  U_CHAR   0000H  1
  FLAddr . . . . . . . . . . . . . . .  MEMBER   -----  U_LONG   0001H  4
  VPAddr . . . . . . . . . . . . . . .  MEMBER   -----  U_INT    0005H  2
  Len. . . . . . . . . . . . . . . . .  MEMBER   -----  U_INT    0007H  2
  Buf. . . . . . . . . . . . . . . . .  MEMBER   -----  PTR      0009H  3
MEN_WELD_MOD . . . . . . . . . . . . .  E_CONST  -----  U_CHAR   -----  1
EIID_TRIG. . . . . . . . . . . . . . .  E_CONST  -----  U_CHAR   -----  1
EIID_TRAP. . . . . . . . . . . . . . .  E_CONST  -----  U_CHAR   -----  1
rect_line. . . . . . . . . . . . . . .  TYPEDEF  -----  STRUCT   -----  6
  x. . . . . . . . . . . . . . . . . .  MEMBER   -----  U_INT    0000H  2
  y. . . . . . . . . . . . . . . . . .  MEMBER   -----  U_INT    0002H  2
  color. . . . . . . . . . . . . . . .  MEMBER   -----  U_INT    0004H  2
_make_rect_line. . . . . . . . . . . .  PUBLIC   CODE   PROC     0000H  -----
  x. . . . . . . . . . . . . . . . . .  * REG *  DATA   U_INT    0006H  2
  y. . . . . . . . . . . . . . . . . .  * REG *  DATA   U_INT    0004H  2
  color. . . . . . . . . . . . . . . .  * REG *  DATA   U_INT    0002H  2
  rl . . . . . . . . . . . . . . . . .  AUTO     XDATA  STRUCT   0000H  6
MEN_FLOW_MOD . . . . . . . . . . . . .  E_CONST  -----  U_CHAR   -----  1
draw_bottom_menu . . . . . . . . . . .  PUBLIC   CODE   PROC     0000H  -----
cur_menu_active. . . . . . . . . . . .  PUBLIC   XDATA  U_LONG   0005H  4
EIID_H2O_ON. . . . . . . . . . . . . .  E_CONST  -----  U_CHAR   -----  1
EIID_PULSE_OFF . . . . . . . . . . . .  E_CONST  -----  U_CHAR   -----  1
_dgus_draw_icons . . . . . . . . . . .  PUBLIC   CODE   PROC     0000H  -----
  vp . . . . . . . . . . . . . . . . .  AUTO     XDATA  U_INT    0000H  2
  p_icon . . . . . . . . . . . . . . .  AUTO     XDATA  PTR      0002H  3
  size . . . . . . . . . . . . . . . .  AUTO     XDATA  U_CHAR   0005H  1
  i. . . . . . . . . . . . . . . . . .  AUTO     XDATA  U_CHAR   0006H  1
  j. . . . . . . . . . . . . . . . . .  AUTO     XDATA  U_CHAR   0007H  1
  cmd. . . . . . . . . . . . . . . . .  AUTO     XDATA  ARRAY    0008H  200
MEN_D_MOD. . . . . . . . . . . . . . .  E_CONST  -----  U_CHAR   -----  1
draw_cyclogramm. . . . . . . . . . . .  PUBLIC   CODE   PROC     0000H  -----
  start_x. . . . . . . . . . . . . . .  AUTO     XDATA  U_INT    0000H  2
  start_y. . . . . . . . . . . . . . .  AUTO     XDATA  U_INT    0002H  2
  LINE_HEIGHT. . . . . . . . . . . . .  AUTO     XDATA  U_CHAR   0004H  1
  LINE_WIDTH . . . . . . . . . . . . .  AUTO     XDATA  U_CHAR   0005H  1
  p. . . . . . . . . . . . . . . . . .  AUTO     XDATA  ARRAY    0006H  40
ICON_RECT_SZ . . . . . . . . . . . . .  PUBLIC   CODE   U_INT    0000H  2
_make_menu_bar . . . . . . . . . . . .  PUBLIC   CODE   PROC     0000H  -----
  vp . . . . . . . . . . . . . . . . .  AUTO     XDATA  U_INT    0000H  2
  is_vertical. . . . . . . . . . . . .  AUTO     DATA   U_CHAR   0005H  1
  start_x. . . . . . . . . . . . . . .  AUTO     XDATA  U_INT    0003H  2
  start_y. . . . . . . . . . . . . . .  AUTO     XDATA  U_INT    0005H  2
  id_bm. . . . . . . . . . . . . . . .  AUTO     XDATA  U_LONG   0007H  4
  fanc . . . . . . . . . . . . . . . .  AUTO     XDATA  PTR      000BH  3
  i. . . . . . . . . . . . . . . . . .  AUTO     XDATA  U_CHAR   000EH  1
  shift_x. . . . . . . . . . . . . . .  AUTO     XDATA  INT      000FH  2
  shift_y. . . . . . . . . . . . . . .  AUTO     XDATA  INT      0011H  2
EIID_AC_MIX. . . . . . . . . . . . . .  E_CONST  -----  U_CHAR   -----  1
MMUSIC . . . . . . . . . . . . . . . .  TYPEDEF  -----  STRUCT   -----  35
  IdNmu. . . . . . . . . . . . . . . .  MEMBER   -----  ARRAY    0000H  32
C51 COMPILER V9.53.0.0   TEMP                                                              11/07/2023 20:45:01 PAGE 32  

NAME                                    CLASS   MSPACE  TYPE    OFFSET  SIZE
====                                    =====   ======  ====    ======  ====


  PlayTail . . . . . . . . . . . . . .  MEMBER   -----  U_CHAR   0020H  1
  PlayHead . . . . . . . . . . . . . .  MEMBER   -----  U_CHAR   0021H  1
  PlayInterrupt. . . . . . . . . . . .  MEMBER   -----  U_CHAR   0022H  1
_mMUSIC. . . . . . . . . . . . . . . .  * TAG *  -----  STRUCT   -----  35
  IdNmu. . . . . . . . . . . . . . . .  MEMBER   -----  ARRAY    0000H  32
  PlayTail . . . . . . . . . . . . . .  MEMBER   -----  U_CHAR   0020H  1
  PlayHead . . . . . . . . . . . . . .  MEMBER   -----  U_CHAR   0021H  1
  PlayInterrupt. . . . . . . . . . . .  MEMBER   -----  U_CHAR   0022H  1
_change_mode_control . . . . . . . . .  PUBLIC   CODE   PROC     0000H  -----
  item_pos . . . . . . . . . . . . . .  AUTO     XDATA  U_CHAR   0000H  1
  tmp. . . . . . . . . . . . . . . . .  AUTO     XDATA  U_INT    0006H  2
  i. . . . . . . . . . . . . . . . . .  AUTO     XDATA  U_CHAR   0001H  1
  bm . . . . . . . . . . . . . . . . .  AUTO     XDATA  U_LONG   0002H  4
EIID_MMA . . . . . . . . . . . . . . .  E_CONST  -----  U_CHAR   -----  1
s32. . . . . . . . . . . . . . . . . .  TYPEDEF  -----  LONG     -----  4
icon_id. . . . . . . . . . . . . . . .  TYPEDEF  -----  U_CHAR   -----  1
u32. . . . . . . . . . . . . . . . . .  TYPEDEF  -----  U_LONG   -----  4
s16. . . . . . . . . . . . . . . . . .  TYPEDEF  -----  INT      -----  2
MMA. . . . . . . . . . . . . . . . . .  E_CONST  -----  U_CHAR   -----  1
MEN_PLS_WAVE_SHAPE_MOD . . . . . . . .  E_CONST  -----  U_CHAR   -----  1
u16. . . . . . . . . . . . . . . . . .  TYPEDEF  -----  U_INT    -----  2
_cur_menu_fanc . . . . . . . . . . . .  PUBLIC   XDATA  PTR      0009H  3
cur_active_items_id. . . . . . . . . .  PUBLIC   XDATA  U_CHAR   000CH  1
MEN_IGN_MOD. . . . . . . . . . . . . .  E_CONST  -----  U_CHAR   -----  1
EIID_TIG . . . . . . . . . . . . . . .  E_CONST  -----  U_CHAR   -----  1
cur_menu . . . . . . . . . . . . . . .  PUBLIC   XDATA  ARRAY    000DH  288
TIG. . . . . . . . . . . . . . . . . .  E_CONST  -----  U_CHAR   -----  1
MEN_BTN_MOD. . . . . . . . . . . . . .  E_CONST  -----  U_CHAR   -----  1
EIID_SIN . . . . . . . . . . . . . . .  E_CONST  -----  U_CHAR   -----  1
T2CON. . . . . . . . . . . . . . . . .  SFR      DATA   U_CHAR   00C8H  1
MEN_POL_MOD. . . . . . . . . . . . . .  E_CONST  -----  U_CHAR   -----  1
_bottom_level_controls . . . . . . . .  PUBLIC   CODE   PROC     0000H  -----
  item_pos . . . . . . . . . . . . . .  AUTO     XDATA  U_CHAR   0000H  1
  bm . . . . . . . . . . . . . . . . .  AUTO     XDATA  U_LONG   0001H  4
  i. . . . . . . . . . . . . . . . . .  AUTO     XDATA  U_CHAR   0005H  1
main_menu_bm . . . . . . . . . . . . .  PUBLIC   IDATA  U_LONG   0000H  4
Flags. . . . . . . . . . . . . . . . .  * TAG *  -----  STRUCT   -----  4
  mode . . . . . . . . . . . . . . . .  MEMBER   -----  FIELD    0000H  3.0
  tact . . . . . . . . . . . . . . . .  MEMBER   -----  FIELD    0000H  3.3
  pol. . . . . . . . . . . . . . . . .  MEMBER   -----  FIELD    0000H  4.6
  ignition . . . . . . . . . . . . . .  MEMBER   -----  FIELD    0000H  2.10
  pulse. . . . . . . . . . . . . . . .  MEMBER   -----  FIELD    0000H  2.12
  vawe . . . . . . . . . . . . . . . .  MEMBER   -----  FIELD    0002H  4.0
  elctrode_d . . . . . . . . . . . . .  MEMBER   -----  FIELD    0002H  5.4
  flow . . . . . . . . . . . . . . . .  MEMBER   -----  FIELD    0002H  2.9
MEN_PLS_MOD. . . . . . . . . . . . . .  E_CONST  -----  U_CHAR   -----  1
EIID_DC_MINUS. . . . . . . . . . . . .  E_CONST  -----  U_CHAR   -----  1
menu_item_bm . . . . . . . . . . . . .  PUBLIC   CODE   ARRAY    000EH  32


MODULE INFORMATION:   STATIC OVERLAYABLE
   CODE SIZE        =   1964    ----
   CONSTANT SIZE    =     46    ----
   XDATA SIZE       =    301     297
   PDATA SIZE       =   ----    ----
   DATA SIZE        =   ----    ----
   IDATA SIZE       =      4    ----
   BIT SIZE         =   ----    ----
C51 COMPILER V9.53.0.0   TEMP                                                              11/07/2023 20:45:01 PAGE 33  

END OF MODULE INFORMATION.


C51 COMPILATION COMPLETE.  0 WARNING(S),  0 ERROR(S)
