C51 COMPILER V9.53.0.0   TEMP                                                              12/06/2023 15:46:42 PAGE 1   


C51 COMPILER V9.53.0.0, COMPILATION OF MODULE TEMP
OBJECT MODULE PLACED IN .\Objects\temp.obj
COMPILER INVOKED BY: D:\DWIN\Keil_v5\C51\BIN\C51.EXE source\temp.c LARGE OPTIMIZE(8,SPEED) BROWSE INCDIR(.\driver;.\sour
                    -ce) DEBUG OBJECTEXTEND CODE SYMBOLS PRINT(.\Listings\temp.lst) OBJECT(.\Objects\temp.obj)

line level    source

   1          #include "temp.h"
   2          #include "sys.h"
   3          #include "string.h"
   4          #include "stdio.h"
   5          #include "drawing.h"
   6          #include "encoder.h"
   7          
   8          code const u8  LINE_HIGHT   = 13;//px
   9          idata      u16 LINE_WIDTH   = 150;//px
  10          idata      u16 FONT_SIZE    = 24;
  11          code const u8  LEVEL_HEIGHT = 90;//px
  12          code const u8  TOUCH_HEIGHT = 100;//px
  13          idata      u16 TIME_Y_LEVEL = 800 - 150;
  14          code const u16 ICON_RECT_SZ = 128;
  15          
  16          
  17          
  18          
  19          
  20          //tig_spot —Ç–æ–ª—å–∫–æ 2t
  21          code const u32 active_items[] = {
  22              ((u32)1 << EIID_TIG)       | ((u32)1 << EIID_MMA)      |
  23              ((u32)1 << EIID_2T)        | ((u32)1 << EIID_4T)       | ((u32)1 << EIID_4T_PLUS)  | ((u32)1 << EIID_T
             -IG_SPOT) |
  24              ((u32)1 << EIID_AC)        | ((u32)1 << EIID_AC_MIX)   | ((u32)1 << EIID_DC_MINUS) |
  25              ((u32)1 << EIID_HF)        | ((u32)1 << EIID_LIFT)     |
  26              ((u32)1 << EIID_PULSE_OFF) | ((u32)1 << EIID_PULSE_ON) |
  27              ((u32)1 << EIID_SIN)       | ((u32)1 << EIID_TRIG)     | ((u32)1 << EIID_RECT)     | ((u32)1 << EIID_T
             -RAP) |
  28              ((u32)1 << EIID_D_10)      | ((u32)1 << EIID_D_16)     | ((u32)1 << EIID_D_20)     | ((u32)1 << EIID_D
             -_24) | ((u32)1 << EIID_D_32) | ((u32)1 << EIID_D_40) |
  29              ((u32)1 << EIID_H2O_OFF)   | ((u32)1 << EIID_H2O_ON),    //tig;
  30          
  31              ((u32)1 << EIID_TIG)       | ((u32)1 << EIID_MMA)     |
  32              ((u32)1 << EIID_AC)        | ((u32)1 << EIID_DC_MINUS) | ((u32)1 << EIID_DC_PLUS) |
  33              ((u32)1 << EIID_PULSE_OFF) | ((u32)1 << EIID_PULSE_ON),     //mma
  34          };
  35          
  36          code const u32 menu_item_bm[] = { 
  37              ((u32)1 << EIID_TIG)       | ((u32)1 << EIID_MMA),      
  38              ((u32)1 << EIID_2T)        | ((u32)1 << EIID_4T)       | ((u32)1 << EIID_4T_PLUS)  | ((u32)1 << EIID_T
             -IG_SPOT),    
  39              ((u32)1 << EIID_AC)        | ((u32)1 << EIID_AC_MIX)   | ((u32)1 << EIID_DC_MINUS) | ((u32)1 << EIID_D
             -C_PLUS),                                             
  40              ((u32)1 << EIID_HF)        | ((u32)1 << EIID_LIFT),
  41              ((u32)1 << EIID_PULSE_OFF) | ((u32)1 << EIID_PULSE_ON),
  42              ((u32)1 << EIID_SIN)       | ((u32)1 << EIID_TRIG)     | ((u32)1 << EIID_RECT)     | ((u32)1 << EIID_T
             -RAP),                                                
  43              ((u32)1 << EIID_D_10)      | ((u32)1 << EIID_D_16)     | ((u32)1 << EIID_D_20)     | ((u32)1 << EIID_D
             -_24) | ((u32)1 << EIID_D_32) | ((u32)1 << EIID_D_40),
  44              ((u32)1 << EIID_H2O_OFF)   | ((u32)1 << EIID_H2O_ON),   
  45          }; 
  46          
  47          //—Ç–µ —ç–ª–µ–º–µ–Ω—Ç—ã –∫–æ—Ç–æ—Ä—ã–µ –±—É–¥—É—Ç –æ—Ç–æ–±—Ä–∞–∂–µ–Ω—ã –≤ –≥–æ—Ä–∏–∑–æ–Ω—Ç–∞–ª—å–Ω–æ–º –º–
C51 COMPILER V9.53.0.0   TEMP                                                              12/06/2023 15:46:42 PAGE 2   

             -µ–Ω—é –∏ —Ç–æ –∫–∞–∫–∞—è —Å–µ–π—á–∞—Å –Ω–∞—Å—Ç—Ä–æ–π–∫–∞
  48          idata u32 main_menu_bm = (((u32)1 << EIID_TIG)       |
  49                                   ((u32)1 << EIID_2T)        |
  50                                   ((u32)1 << EIID_AC)        |
  51                                   ((u32)1 << EIID_HF)        |
  52                                   ((u32)1 << EIID_PULSE_OFF) |
  53                                   ((u32)1 << EIID_SIN)       |
  54                                   ((u32)1 << EIID_D_10)      |
  55                                   ((u32)1 << EIID_H2O_OFF)      
  56                                         
  57          );
  58          //–±–∏—Ç–æ–≤–∞—è –º–∞—Å–∫–∞ –≥–æ—Ä–∏–∑–æ–Ω—Ç–∞–ª—å–Ω–æ–≥–æ –º–µ–Ω—é –Ω–∞ –Ω–∏–∂–Ω–µ–º —ç–∫—Ä–∞–Ω–µ –Ω–µ–æ–
             -±—Ö–æ–¥–∏–º–∞ –ø–µ—Ä–≤–æ–Ω–∞—á–∞–ª—å–Ω–∞—è –∏–Ω–∏—Ü–∏–∞–ª–∏–∑–∞—Ü–∏—è
  59          
  60          icon_t cur_menu[48];
  61          u32 cur_menu_active;
  62          u8 cur_menu_size;
  63          
  64          u8 idata cur_active_items_id = TIG;
  65          
  66          
  67          u16 text_sp[EIID_SIZE]; //–º–∞—Å—Å–∏–≤ sp –∏–¥–µ–Ω—Ç–∏—Ñ–∏–∫–∞—Ç–æ—Ä–æ–≤ –ª–∏–Ω–∏–π, –∫–∞—Ä—Ç–∏–Ω–æ–∫, —á–
             -∏—Å–µ–ª
  68          s16 par[EIID_SIZE];
  69          xdata u16 par_tek[36];//–ø–∞—Ä–∞–º–µ—Ç—Ä—ã –¥–ª—è —Å–∏–ª–æ–≤–æ–π —á–∞—Å—Ç–∏
  70          u16 cur_par_id; //–Ω–æ–º–µ—Ä —Ç–µ–∫—É—â–µ–≥–æ –ø–∞—Ä–∞–º–µ—Ç—Ä–∞ –∫ –æ—Ç–æ–±—Ä–∞–∂–µ–Ω–∏—é
  71          
  72          typedef struct {
  73              s16 min;
  74              s16 max;
  75          }lim_t;
  76          lim_t par_lim[EIID_SIZE];
  77          s16   par_step[EIID_SIZE];
  78          
  79          u16 Amp_text_sp; //–ø–æ–ª–µ –¥–ª—è –≤—ã–≤–æ–¥–∞ —Ç–æ–∫–∞ –≤–æ –≤—Ä–µ–º—è —Å–≤–∞—Ä–∫–∏
  80          u16 Volt_text_sp;//–ø–æ–ª–µ –¥–ª—è –≤—ã–≤–æ–¥–∞ –Ω–∞–ø—Ä–∞—è–∂–µ–Ω–∏—è –≤–æ –≤—Ä–µ–º—è —Å–≤–∞—Ä–∫–∏
  81          u16 Filled_rect_under_par_sp; //–ø—Ä—è–º–æ—É–≥–æ–ª—å–Ω–∏–∫ –ø–æ–¥ –ø–∞—Ä–∞–º–µ—Ç—Ä–∞–º–∏
  82          
  83          u16 icon_sp_bottom_menu[16]; //sp –∫–∞—Ä—Ç–∏–Ω–æ–∫ –Ω–∏–∂–Ω–µ–≥–æ –≥–æ—Ä–∏–∑–æ–Ω—Ç–∞–ª—å–Ω–æ–≥–æ –º–µ–Ω—é 
             -// –¥–ª—è –∏—Ö –∏–∑–º–µ–Ω–µ–Ω–∏—è
  84          
  85          void (*cur_menu_fanc)(u8 item_pos);
  86          void cur_par_value_change(u16 cur_par_id, s8 shift);
  87          void display_par(u16 par_id);
  88          
  89          void make_lim(lim_t *lim, s16 min, s16 max) {
  90   1          lim->min = min;
  91   1          lim->max = max;
  92   1      }
  93          
  94          
  95          
  96          void add_touch_place(u16 x0, u16 y0, u16 x1, u16 y1, u8 touch_id)
  97          {
  98   1          if(cur_menu_size > ARR_SIZE(cur_menu)) return;
  99   1      
 100   1          cur_menu[cur_menu_size].ico = touch_id;
 101   1          cur_menu[cur_menu_size].r.x0 = x0;
 102   1          cur_menu[cur_menu_size].r.y0 = y0;
 103   1          cur_menu[cur_menu_size].r.x1 = x1;
 104   1          cur_menu[cur_menu_size].r.y1 = y1; // —Ä–∞–∑–º–µ—Ä –∫–Ω–æ–ø–∫–∏
 105   1          cur_menu_size++;        
C51 COMPILER V9.53.0.0   TEMP                                                              12/06/2023 15:46:42 PAGE 3   

 106   1      }
 107          
 108          
 109          
 110          
 111          
 112          
 113          void draw_number_wtih_touch_centered(point_t line_start, u16 font_size, u16 color, u8 touch_id)
 114          {
 115   1          text_sp[touch_id] = Draw_text(line_start.x, 
 116   1                                        line_start.y - (font_size * 2), 
 117   1                                        line_start.x + LINE_WIDTH, 
 118   1                                        line_start.y, 
 119   1                                        0,0,
 120   1                                        font_size,
 121   1                                        font_size * 2, 
 122   1                                        TEXT_INTERVAL_1 | TEXT_ALIGNMENT_CENTER | TEXT_ALIGNMENT_VERTICAL_UP | T
             -EXT_ENC_BIG5,
 123   1                                        color);
 124   1          display_par(touch_id);
 125   1          add_touch_place(line_start.x, line_start.y - (font_size * 2), line_start.x + LINE_WIDTH, line_start.y,
             - touch_id);
 126   1      }
 127          
 128          
 129          
 130          point_t dummy_line_up(point_t p)
 131          {
 132   1          point_t p2; 
 133   1          p2 = make_point(p.x, p.y - LEVEL_HEIGHT);
 134   1          draw_line(p.x, p.y, p2.x, p2.y, LINE_HIGHT, GREEN);
 135   1          return p2;
 136   1      }
 137          
 138          point_t dummy_line_down(point_t p)
 139          {
 140   1          point_t p2; 
 141   1          p2 = make_point(p.x, p.y + LEVEL_HEIGHT);
 142   1          draw_line(p.x, p.y, p2.x, p2.y, LINE_HIGHT, GREEN);
 143   1          return p2;
 144   1      }
 145          
 146          point_t add_t_preflow(point_t p) //–≤–æ–∑–≤—Ä–∞—â–∞–µ—Ç –∫–æ–Ω–µ—á–Ω—É—é —Ç–æ—á–∫—É –ø–æ—Å–ª–µ –æ—Ç—Ä–∏—Å–
             -æ–≤–∫–∏ –¥–∞–Ω–Ω–æ–≥–æ —É—á–∞—Å—Ç–∫–∞
 147          {
 148   1          point_t p2;
 149   1          p2 = make_point(p.x + LINE_WIDTH, p.y);
 150   1      
 151   1          draw_line(p.x, p.y, p2.x, p2.y, LINE_HIGHT, GREEN);
 152   1      
 153   1          //add_touch_place(p.x, p.y, p2.x, TIME_Y_LEVEL + TOUCH_HEIGHT, EIID_PRE_FLOW_T1);//—Å–æ–∑–¥–∞–Ω–∏–µ –æ
             -–±–ª–∞—Å—Ç–∏ –∫–∞—Å–∞–Ω–∏—è –¥–ª—è –Ω–∞—Å—Ç—Ä–æ–π–∫–∏ –≤—Ä–µ–º–µ–Ω–∏ –ø—Ä–æ–¥—É–≤–∫–∏
 154   1          draw_number_wtih_touch_centered(make_point(p.x, TIME_Y_LEVEL), 36, CYAN, EIID_PRE_FLOW_T1); //–≤—Ä–µ–º
             -—è –ø—Ä–æ–¥—É–≤–∫–∏
 155   1          return p2;    
 156   1      }
 157          
 158          
 159          
 160          point_t add_t_start_i(point_t p) 
 161          {
 162   1          point_t p2; 
C51 COMPILER V9.53.0.0   TEMP                                                              12/06/2023 15:46:42 PAGE 4   

 163   1          p2 = make_point(p.x + LINE_WIDTH, p.y);
 164   1          draw_line(p.x, p.y, p2.x, p2.y,  LINE_HIGHT, GREEN);
 165   1          
 166   1          draw_number_wtih_touch_centered(p, FONT_SIZE, YELLOW, EIID_START_I1);//–Ω–∞—á–∞–ª—å–Ω—ã–π —Ç–æ–∫
 167   1          draw_number_wtih_touch_centered(make_point(p.x, TIME_Y_LEVEL), 36, CYAN, EIID_START_T2);//–≤—Ä–µ–º—è –
             -Ω–∞—á–∞–ª—å–Ω–æ–≥–æ —Ç–æ–∫–∞
 168   1      
 169   1          return p2;
 170   1      }
 171          
 172          
 173          point_t add_t_up(point_t p) 
 174          {
 175   1          point_t p2;
 176   1          p2 = make_point(p.x + LINE_WIDTH, p.y - LEVEL_HEIGHT);
 177   1          draw_line(p.x, p.y - 1, p2.x, p2.y,  LINE_HIGHT, GREEN);
 178   1          
 179   1          draw_number_wtih_touch_centered(make_point(p.x, TIME_Y_LEVEL), 36, CYAN, EIID_UP_T3); //–≤—Ä–µ–º—è –Ω–
             -∞—Ä–æ—Å—Ç–∞–Ω–∏—è
 180   1      
 181   1          return p2;
 182   1      }
 183          
 184          point_t add_base_i1_i2_t(point_t p) 
 185          {
 186   1          point_t p2;
 187   1          u16 half_height = LINE_HIGHT / 2;
 188   1          p2 = make_point(p.x + LINE_WIDTH, p.y);
 189   1      
 190   1          draw_line(p.x, p.y, p2.x, p2.y,  LINE_HIGHT, GREEN);
 191   1      
 192   1          draw_number_wtih_touch_centered(make_point(p.x, TIME_Y_LEVEL), 30, CYAN, EIID_BASE_T4); //–≤—Ä–µ–º—è –
             -±–∞–∑—ã
 193   1          draw_number_wtih_touch_centered(p, FONT_SIZE, PINK, EIID_BASE_I2); //—Ç–æ–∫ –±–∞–∑—ã
 194   1          if(main_menu_bm & (u32)1 << EIID_4T_PLUS) 
 195   1              draw_number_wtih_touch_centered(make_point(p.x, p.y + (FONT_SIZE * 2) + (LINE_HIGHT * 2)), FONT_SI
             -ZE, YELLOW, EIID_BASE2_I2X); //–≤—Ç–æ—Ä–æ–π —Ç–æ–∫ –±–∞–∑—ã
 196   1          return p2;
 197   1      }
 198          
 199          point_t add_i_t_impulse(point_t p) 
 200          {
 201   1          point_t p2;
 202   1          p2 = make_point(p.x + LINE_WIDTH, p.y);
 203   1      
 204   1          draw_line(p.x, p.y, p2.x, p2.y,  LINE_HIGHT, GREEN);
 205   1      
 206   1          draw_number_wtih_touch_centered(make_point(p.x, TIME_Y_LEVEL), 30, CYAN, EIID_IMPULSE_T5);// –≤—Ä–µ–º—
             -è –∏–º–ø—É–ª—å—Å–∞
 207   1          draw_number_wtih_touch_centered(p, FONT_SIZE, YELLOW, EIID_IMPULSE_I3);  //—Ç–æ–∫ –∏–º–ø—É–ª—å—Å–∞
 208   1      
 209   1          return p2;
 210   1      }
 211          
 212          point_t add_t_down(point_t p)
 213          {
 214   1          point_t p2;
 215   1          p2 = make_point(p.x + LINE_WIDTH, p.y + LEVEL_HEIGHT);
 216   1      
 217   1          draw_line(p.x + 1, p.y, p2.x, p2.y,  LINE_HIGHT, GREEN);
 218   1      
 219   1          draw_number_wtih_touch_centered(make_point(p.x, TIME_Y_LEVEL), 36, CYAN, EIID_DOWN_T6); //–≤—Ä–µ–º—è —
C51 COMPILER V9.53.0.0   TEMP                                                              12/06/2023 15:46:42 PAGE 5   

             -Å–ø–∞–¥–∞
 220   1          return p2;
 221   1      }
 222          
 223          point_t add_end_i_t(point_t p)
 224          {
 225   1          point_t p2;
 226   1          p2 = make_point(p.x + LINE_WIDTH, p.y);
 227   1      
 228   1          draw_line(p.x, p.y, p2.x, p2.y,  LINE_HIGHT, GREEN);
 229   1          
 230   1          draw_number_wtih_touch_centered(make_point(p.x, TIME_Y_LEVEL), 36, CYAN, EIID_END_T7); //–≤—Ä–µ–º—è –∫
             -–æ–Ω–µ—á–Ω–æ–≥–æ —Ç–æ–∫–∞
 231   1          draw_number_wtih_touch_centered(p, FONT_SIZE, YELLOW, EIID_END_I4); //–∫–æ–Ω–µ—á–Ω—ã–π —Ç–æ–∫
 232   1          return p2;
 233   1      }
 234          
 235          point_t add_t_postflow(point_t p)
 236          {
 237   1          point_t p2;
 238   1          p2 = make_point(p.x + LINE_WIDTH, p.y);
 239   1      
 240   1          draw_line(p.x, p.y, p2.x, p2.y,  LINE_HIGHT, GREEN);
 241   1          
 242   1          draw_number_wtih_touch_centered(make_point(p.x, TIME_Y_LEVEL), 36, CYAN, EIID_POST_FLOW_T8);//–≤—Ä–µ–º
             -—è –∫–æ–Ω–µ—á–Ω–æ–π –ø—Ä–æ–¥—É–≤–∫–∏
 243   1          return p2;
 244   1      }
 245          
 246          
 247          point_t add_i_kz(point_t p)
 248          {
 249   1          point_t p2;
 250   1          p2 = make_point(p.x + LINE_WIDTH, p.y - LEVEL_HEIGHT);
 251   1          draw_line(p.x, p.y, p2.x, p2.y, LINE_HIGHT, GREEN);
 252   1      
 253   1          draw_number_wtih_touch_centered(make_point(p.x, p2.y), FONT_SIZE, YELLOW, EIDD_KZ_I5);//–≤—Ä–µ–º—è –∫–
             -æ–Ω–µ—á–Ω–æ–π –ø—Ä–æ–¥—É–≤–∫–∏
 254   1          return p2;   
 255   1      }
 256          
 257          
 258          
 259          
 260          void bottom_level_controls(u8 item_pos);
 261          
 262          void make_bottom_menu(void)
 263          {
 264   1          cur_menu_size = 0;
 265   1          {
 266   2              u8 i;
 267   2              u8 id; 
 268   2              u16 start_x = 0;
 269   2              u16 start_y = 800 - ICON_RECT_SZ;
 270   2              u32 id_bm = main_menu_bm;
 271   2              id = 0;
 272   2              i = 0;
 273   2              while (id_bm != 0) {
 274   3                  if((u32)id_bm & (u32)1) {
 275   4                      add_touch_place(start_x, start_y, start_x + ICON_RECT_SZ, start_y + ICON_RECT_SZ, id);
 276   4                      image_change_id(icon_sp_bottom_menu[i], id);
 277   4                      image_change_pos(icon_sp_bottom_menu[i], make_point(start_x, start_y));
C51 COMPILER V9.53.0.0   TEMP                                                              12/06/2023 15:46:42 PAGE 6   

 278   4                      start_x += ICON_RECT_SZ;
 279   4                      i++;
 280   4                  }
 281   3                  id_bm >>= 1;
 282   3                  id++;
 283   3              }
 284   2      
 285   2              add_touch_place(start_x, start_y, start_x + ICON_RECT_SZ, start_y + ICON_RECT_SZ, i);//—Ä–µ–∑–µ—Ä–
             -≤
 286   2      
 287   2              start_x += ICON_RECT_SZ;
 288   2              add_touch_place(start_x, start_y, start_x + ICON_RECT_SZ, start_y + ICON_RECT_SZ, i);
 289   2              image_change_id(icon_sp_bottom_menu[i], 0);
 290   2              image_change_pos(icon_sp_bottom_menu[i], make_point(start_x, start_y));
 291   2      
 292   2              for(i = 0; i < 6; i++) {
 293   3                  add_touch_place(0, 0, 0, 0, 0); //—Ä–µ–∑–µ—Ä–≤ –¥–ª—è –≤–µ—Ä—Ç–∏–∫–∞–ª—å–Ω–æ–≥–æ –º–µ–Ω—é + 6
 294   3              }
 295   2      
 296   2              cur_menu_fanc = bottom_level_controls;
 297   2          }
 298   1      }
 299          
 300          
 301          
 302          void par_select(u8 pair_id);
 303          
 304          void bottom_level_controls(u8 item_pos)
 305          { //–≤—ã–∑–æ–≤–µ—Ç—Å—è –ø–æ—Å–ª–µ –≤—ã–±–æ—Ä–∞ —ç–ª–µ–º–µ–Ω—Ç–∞ –≤ –≥–æ—Ä–∏–∑–æ–Ω—Ç–∞–ª—å–Ω–æ–º –º–µ–Ω—é
 306   1          u32 bm = 0;
 307   1          u8 i;
 308   1          u8 id;     
 309   1          u16 start_x;
 310   1          u16 start_y;
 311   1      
 312   1      
 313   1          for(i = 10; i < 16; i++) { //–∑–∞—á–∏—Å—Ç–∫–∞ –ø—Ä–æ—à–ª–æ–≥–æ –º–µ–Ω—é
 314   2              image_change_id(icon_sp_bottom_menu[i], 0xffff);
 315   2              cur_menu[i].r.x0 = 0;
 316   2              cur_menu[i].r.y0 = 0;  
 317   2              cur_menu[i].r.x1 = 0;  
 318   2              cur_menu[i].r.y1 = 0;      
 319   2          }
 320   1          //–ø–æ–ª—É—á–∏—Ç—å –∏–Ω–¥–µ–∫—Å —Ç–∏–ø–∞ –º–µ–Ω—é
 321   1          if(item_pos < 8) { //–æ—Ç—Ä–∏–∑–æ–≤–∞—Ç—å –≤–µ—Ä—Ç–∏–∫–∞–ª—å–Ω–æ–µ –º–µ–Ω—é
 322   2              for(i = 0; i < ARR_SIZE(menu_item_bm); i++) {
 323   3                  if((u32)menu_item_bm[i] & (u32)((u32)1 << cur_menu[item_pos].ico)) { //–ø–æ–∏—Å–∫ –º–µ–Ω—é –∫ 
             -–∫–æ—Ç–æ—Ä–º—É –æ—Ç–Ω–æ—Å–∏—Ç—Å—è –¥–∞–Ω–Ω—ã–π —ç–ª–µ–º–µ–Ω—Ç
 324   4                      bm = active_items[cur_active_items_id] & menu_item_bm[i];//—É–±—Ä–∞—Ç—å –∏–∑ –æ—Ç–æ–±—Ä–∞–
             -∂–µ–Ω–∏—è —ç–µ–ª–µ–º–µ–Ω—Ç—ã –∫–æ—Ç–æ—Ä—ã–µ –Ω–µ –¥–æ—Å—Ç—É–ø–Ω—ã –≤ –¥–∞–Ω–Ω–æ–º —Ä–µ–∂–∏–º–µ 
 325   4                      bm &= ~((u32)1 << cur_menu[item_pos].ico); //—É–±—Ä–∞—Ç—å –∏–∑ –æ—Ç–±–æ—Ä–∞–∂–µ–Ω–∏—è —ç–ª
             -–µ–º–µ–Ω—Ç –∫–æ—Ç–æ—Ä—ã–π —É–∂–µ –≤—ã—Å–≤–µ—á–µ–Ω –≤ –Ω–∏–∂–Ω–µ–º –º–µ–Ω—é
 326   4                      if(bm != 0 ) { //–µ—Å–ª–∏ –Ω–µ—á–µ–≥–æ –≤—ã–≤–æ–¥–∏—Ç—å –Ω–µ —Ä–∏—Å–æ–≤–∞—Ç—å –≥–æ—Ä–∏–∑–æ
             -–Ω—Ç–∞–ª—å–Ω–æ–µ –º–µ–Ω—é
 327   5                        
 328   5                          
 329   5                          id = 0;
 330   5                          i = 10;
 331   5                          
 332   5                          start_x = ICON_RECT_SZ * item_pos;
 333   5                          start_y = 800 - (ICON_RECT_SZ * 2);
 334   5                          while (bm != 0) {
C51 COMPILER V9.53.0.0   TEMP                                                              12/06/2023 15:46:42 PAGE 7   

 335   6                              if((u32)bm & (u32)1) {
 336   7                                  image_change_pos(icon_sp_bottom_menu[i], make_point(start_x, start_y));
 337   7                                  image_change_id(icon_sp_bottom_menu[i], id);
 338   7                                  
 339   7                                  cur_menu[i].r.x0 = start_x;
 340   7                                  cur_menu[i].r.y0 = start_y;
 341   7                                  cur_menu[i].r.x1 = start_x + ICON_RECT_SZ;
 342   7                                  cur_menu[i].r.y1 = start_y + ICON_RECT_SZ;
 343   7                                  cur_menu[i].ico  = id;
 344   7                                  start_y -= ICON_RECT_SZ; 
 345   7                                  i++;
 346   7                              }
 347   6                              bm >>= 1;
 348   6                             
 349   6                              id++;
 350   6                          } 
 351   5                      }
 352   4                      break;
 353   4                  }
 354   3              }
 355   2          } else { //–µ—Å–ª—ã –≤—ã–±–æ—Ä –∏–∑ –≤–µ—Ä—Ç–∏–∫–∞–ª—å–Ω–æ–≥–æ –º–µ–Ω—é //–µ–ª—Å–∏ –ø–æ–∑—Ü–∏—è –±–æ–ª
             -—à–µ 10
 356   2              
 357   2              if(item_pos > 15)  { //–≤–±–æ—Ä –∏–∑ –Ω–∞—Å—Ç—Ä–æ–π–∫–∏ –ø–∞—Ä–∞–º–µ—Ç—Ä–æ–≤
 358   3                 par_select(cur_menu[item_pos].ico);
 359   3                 return;
 360   3              }
 361   2      
 362   2      
 363   2              for(i = 0; i < ARR_SIZE(menu_item_bm); i++) {
 364   3                  if(menu_item_bm[i] & (u32)1 << cur_menu[item_pos].ico) {
 365   4                      main_menu_bm &= (u32)~menu_item_bm[i]; //–æ—á–∏—Å—Ç—å –æ–±–ª–∞—Å—Ç—å —Å–≤—è–∑–∞–Ω–Ω—É—é —Å
             - —ç—Ç–∏–º –ø–æ–¥–º–µ–Ω—é –≤ –≥–∞–≤–Ω–æ–º –º–µ–Ω—é
 366   4                      
 367   4                      main_menu_bm |= ((u32)1 << cur_menu[item_pos].ico); //–≤—Å—Ç–∞–≤–∏—Ç—å —Ç–µ–∫—É—â–∏–π –≤—ã
             -–±—Ä–∞–Ω–Ω—ã–π —ç–ª–µ–º–µ–Ω—Ç –≤ –≥–ª–∞–≤–Ω–æ–µ –º–µ–Ω—é
 368   4                      
 369   4                      
 370   4                      cur_par_value_change(cur_menu[item_pos].ico, 0); //–∏–∑–º–µ–Ω–µ–Ω–∏–µ –ø–∞—Ä–∞–º–µ—Ç—Ä–∞ –
             -¥–ª—è —Å–∏–ª–æ–≤–æ–π —á–∞—Å—Ç–∏
 371   4      
 372   4                      switch (cur_menu[item_pos].ico)
 373   4                      {
 374   5                          case EIID_TIG: {
 375   6                              cur_active_items_id = TIG;
 376   6                              make_scene(); 
 377   6                          } break;
 378   5      
 379   5                          case EIID_TIG_SPOT: { //–≤ —Ä–µ–∂–∏–º–µ tig_spot –µ—Å—Ç—å —Ç–æ–ª—å–∫–æ 2_t
 380   6                              cur_active_items_id = TIG;
 381   6                              bm &= ~(menu_item_bm[MEN_BTN_MOD]);
 382   6                              bm |= ((u32)1 << EIID_2T);
 383   6                              make_scene(); 
 384   6                          } break;
 385   5      
 386   5                          case EIID_MMA: {
 387   6                              cur_active_items_id = MMA;
 388   6                              make_scene(); 
 389   6                          } break;
 390   5      
 391   5                          case EIID_2T:
 392   5                          case EIID_4T:
C51 COMPILER V9.53.0.0   TEMP                                                              12/06/2023 15:46:42 PAGE 8   

 393   5                          case EIID_4T_PLUS: {
 394   6                              make_scene();         
 395   6                          } break;
 396   5      
 397   5                          case EIID_PULSE_ON :
 398   5                          case EIID_PULSE_OFF: {
 399   6                              make_scene();         
 400   6                          } break;
 401   5                      }
 402   4      
 403   4                      bm = main_menu_bm & active_items[cur_active_items_id];
 404   4                      
 405   4                      
 406   4      
 407   4                      for(i = 0; i < 8; i++) { //–∑–∞—á–∏—Å—Ç–∫–∞ –ø—Ä–æ—à–ª–æ–≥–æ –º–µ–Ω—é
 408   5                          image_change_id(icon_sp_bottom_menu[i], 0xffff);    
 409   5                      }
 410   4                     
 411   4                      id = 0;
 412   4                      i = 0;
 413   4                      start_x = 0;
 414   4                      start_y = 800 - (ICON_RECT_SZ);
 415   4      
 416   4                      while (bm != 0) { //–æ—Ç—Ä–∏—Å–æ–≤–∫–∞ –Ω–∏–∂–Ω–µ–≥–æ –º–µ–Ω—é
 417   5                          if((u32)bm & (u32)1) {
 418   6                              image_change_pos(icon_sp_bottom_menu[i], make_point(start_x, start_y));
 419   6                              image_change_id(icon_sp_bottom_menu[i], id);
 420   6                              
 421   6                              cur_menu[i].r.x0 = start_x;
 422   6                              cur_menu[i].r.y0 = start_y;
 423   6                              cur_menu[i].r.x1 = start_x + ICON_RECT_SZ;
 424   6                              cur_menu[i].r.y1 = start_y + ICON_RECT_SZ;
 425   6                              cur_menu[i].ico  = id;
 426   6                              start_x += ICON_RECT_SZ; 
 427   6                              i++;
 428   6                          }
 429   5                          bm >>= 1;
 430   5                          id++;
 431   5                      }
 432   4                      for(; i < 10; i++) { //–∑–∞—á–∏—Å—Ç–∫–∞ –æ–±–ª–∞—Å—Ç–µ–π –∫–∞—Å–∞–Ω–∏—è
 433   5                          cur_menu[i].r.x0 = 0;
 434   5                          cur_menu[i].r.y0 = 0;
 435   5                          cur_menu[i].r.x1 = 0;
 436   5                          cur_menu[i].r.y1 = 0;
 437   5                      } 
 438   4                     
 439   4                      break;
 440   4                  }
 441   3              }
 442   2          }
 443   1          
 444   1      }
 445          
 446          
 447          
 448          
 449          void display_par(u16 par_id) 
 450          {
 451   1          switch (par_id)
 452   1          {
 453   2              case EIID_PRE_FLOW_T1:
 454   2              case EIID_START_T2:     
C51 COMPILER V9.53.0.0   TEMP                                                              12/06/2023 15:46:42 PAGE 9   

 455   2              case EIID_UP_T3:           
 456   2              case EIID_DOWN_T6:      
 457   2              case EIID_END_T7: {
 458   3                  Draw_text_change_text("%.1fs", text_sp[par_id], par[par_id] / (float)10.0);
 459   3              } break;       
 460   2      
 461   2              case EIID_BASE_T4:      
 462   2              case EIID_IMPULSE_T5: {
 463   3                  Draw_text_change_text("%dms", text_sp[par_id], par[par_id]);
 464   3              } break;
 465   2      
 466   2              case EIID_POST_FLOW_T8: {
 467   3                  Draw_text_change_text("%ds", text_sp[par_id], par[par_id]); 
 468   3              } break;
 469   2                 
 470   2              case EIID_START_I1:     
 471   2              case EIID_BASE_I2:      
 472   2              case EIID_BASE2_I2X:
 473   2              case EIID_IMPULSE_I3:   
 474   2              case EIID_END_I4:       
 475   2              case EIDD_KZ_I5: {
 476   3                  Draw_text_change_text("%dA", text_sp[par_id], par[par_id]); 
 477   3              } break;       
 478   2      
 479   2              case EIID_FREQ_F1:      
 480   2              case EIID_BALANCE_D1: {
 481   3      
 482   3              } break;   
 483   2          }
 484   1      }
 485          
 486          void cur_par_value_change(u16 cur_par_id, s8 shift)
 487          {
 488   1          if(shift != 0) {
 489   2              par[cur_par_id] += ((s16)par_step[cur_par_id] * shift); 
 490   2              if(par[cur_par_id] > par_lim[cur_par_id].max)       
 491   2                  par[cur_par_id] = par_lim[cur_par_id].max;
 492   2              else if(par[cur_par_id] < par_lim[cur_par_id].min) 
 493   2                  par[cur_par_id] = par_lim[cur_par_id].min;
 494   2          } 
 495   1         
 496   1          switch (cur_par_id)
 497   1          {
 498   2              case EIID_PRE_FLOW_T1:
 499   2              case EIID_START_T2   :
 500   2              case EIID_UP_T3      :
 501   2              case EIID_DOWN_T6    :
 502   2              case EIID_END_T7     : {
 503   3                  data u16 tmp = par[cur_par_id];
 504   3                  switch (cur_par_id)
 505   3                  {
 506   4                      case EIID_PRE_FLOW_T1: par_tek[EPID_PRE_FLOW_T1] = tmp; break;    
 507   4                      case EIID_START_T2   : par_tek[EPID_START_T2]    = tmp; break;    
 508   4                      case EIID_UP_T3      : par_tek[EPID_UP_T3]       = tmp; break;    
 509   4                      case EIID_DOWN_T6    : par_tek[EPID_DOWN_T6]     = tmp; break;    
 510   4                      case EIID_END_T7     : par_tek[EPID_END_T7]      = tmp; break;     
 511   4                  }
 512   3                  display_par(cur_par_id);
 513   3              } break;
 514   2              
 515   2              case EIID_POST_FLOW_T8: {
 516   3                  display_par(cur_par_id);    
C51 COMPILER V9.53.0.0   TEMP                                                              12/06/2023 15:46:42 PAGE 10  

 517   3              } break;
 518   2      
 519   2              case EIID_BASE_T4   :
 520   2              case EIID_IMPULSE_T5: {
 521   3                  display_par(cur_par_id);
 522   3              } break;
 523   2             
 524   2              case EIID_START_I1  :     
 525   2              case EIID_BASE_I2   :
 526   2              case EIID_BASE2_I2X :  
 527   2              case EIID_IMPULSE_I3: 
 528   2              case EIID_END_I4    :
 529   2              case EIDD_KZ_I5     :
 530   2              case EIID_FREQ_F1   :
 531   2              case EIID_BALANCE_D1: {
 532   3                  data u16 tmp = par[cur_par_id];
 533   3                  switch (cur_par_id)
 534   3                  {
 535   4                      case EIID_START_I1  : par_tek[EPID_START_I1]   = tmp; break;    
 536   4                      case EIID_BASE_I2   : par_tek[EPID_BASE_I2]    = tmp; break;
 537   4                      case EIID_BASE2_I2X : par_tek[EPID_BASE2_I2X]  = tmp; break; 
 538   4                      case EIID_IMPULSE_I3: par_tek[EPID_IMPULSE_I3] = tmp; break;
 539   4                      case EIID_END_I4    : par_tek[EPID_END_I4]     = tmp; break;
 540   4                      case EIDD_KZ_I5     : par_tek[EPID_KZ_I5]      = tmp; break;
 541   4                      case EIID_FREQ_F1   : par_tek[EPID_FREQ_F1]    = tmp; break;
 542   4                      case EIID_BALANCE_D1: par_tek[EPID_BALANCE_D1] = tmp; break;   
 543   4                  }
 544   3                  display_par(cur_par_id);        
 545   3              }break;
 546   2      
 547   2              case EIID_PULSE_OFF:
 548   2              case EIID_PULSE_ON :
 549   2              case EIID_AC       :
 550   2              case EIID_AC_MIX   :
 551   2              case EIID_DC_MINUS :
 552   2              case EIID_DC_PLUS  : 
 553   2              case EIID_TIG      :       
 554   2              case EIID_MMA      : 
 555   2              case EIID_TIG_SPOT : {
 556   3                  struct mod_submod{
 557   3                      u16 d0    : 4; //–ø—É—Å—Ç–æ, –Ω–µ –∏—Å–ø–æ–ª—å–∑—É–µ—Ç—Å—è.   
 558   3                      u16 pulse : 4; //1-–ø—É–ª—å—Å 2-–Ω–µ –ø—É–ª—å—Å
 559   3                      u16 pol   : 4; //1-DC  2-AC  3-MIX
 560   3                      u16 mod   : 4; //1-TIG 2-MMA 3-TIG Spot
 561   3                  } tmp;
 562   3                  *(u16*)&tmp = par_tek[EPID_MODES_SUBMODES]; 
 563   3                  switch (cur_par_id)
 564   3                  {
 565   4                      case EIID_PULSE_OFF: tmp.pulse = 1; break; 
 566   4                      case EIID_PULSE_ON : tmp.pulse = 0; break;
 567   4                      case EIID_AC       : tmp.pol = 1;   break;
 568   4                      case EIID_AC_MIX   : tmp.pol = 2;   break;
 569   4                      case EIID_DC_MINUS : tmp.pol = 0; par_tek[EPID_POLARITY] = 2; break;
 570   4                      case EIID_DC_PLUS  : tmp.pol = 0; par_tek[EPID_POLARITY] = 1; break;
 571   4                      case EIID_TIG      : tmp.mod = 0;   break;
 572   4                      case EIID_MMA      : tmp.mod = 1;   break;
 573   4                      case EIID_TIG_SPOT : tmp.mod = 2;   break;
 574   4                  }
 575   3                  par_tek[EPID_MODES_SUBMODES] = *(u16*)&tmp;
 576   3              } break;
 577   2          
 578   2              case EIID_2T : par_tek[EPID_2T_4T] = 1; break;
C51 COMPILER V9.53.0.0   TEMP                                                              12/06/2023 15:46:42 PAGE 11  

 579   2              case EIID_4T : par_tek[EPID_2T_4T] = 2; par_tek[EPID_IS_PLUS_4T] = 2; break;//4t plus mode off
 580   2              case EIID_4T_PLUS : {
 581   3                  par_tek[EPID_IS_PLUS_4T] = 1; //4t plus mode
 582   3              } break;
 583   2      
 584   2              case EIID_HF  : par_tek[EPID_IGNITION_TYPE] = 2; break;
 585   2              case EIID_LIFT: par_tek[EPID_IGNITION_TYPE] = 1; break;
 586   2      
 587   2              case EIID_H2O_OFF: par_tek[EPID_FLOW_SENSOR] = 1; break; 
 588   2              case EIID_H2O_ON : par_tek[EPID_FLOW_SENSOR] = 2; break;
 589   2      
 590   2              case EIID_D_10: par_tek[EPID_ELECTRODE_D] = 1; break;    
 591   2              case EIID_D_16: par_tek[EPID_ELECTRODE_D] = 2; break;
 592   2              case EIID_D_20: par_tek[EPID_ELECTRODE_D] = 3; break;    
 593   2              case EIID_D_24: par_tek[EPID_ELECTRODE_D] = 4; break;
 594   2              case EIID_D_32: par_tek[EPID_ELECTRODE_D] = 5; break;
 595   2              case EIID_D_40: par_tek[EPID_ELECTRODE_D] = 6; break;
 596   2      
 597   2              case EIID_SIN : par_tek[EPID_WAVE_FORM] = 1; break;
 598   2              case EIID_RECT: par_tek[EPID_WAVE_FORM] = 2; break;  
 599   2              case EIID_TRIG: par_tek[EPID_WAVE_FORM] = 3; break;
 600   2              case EIID_TRAP: par_tek[EPID_WAVE_FORM] = 4; break;
 601   2      
 602   2          }
 603   1         
 604   1      }
 605          
 606          
 607          void Process_Encoder(u8 state)
 608          {
 609   1          code const s8 shifts[] = {-1, -5, +1, +5};
 610   1        
 611   1          cur_par_value_change(cur_par_id, shifts[state]);     
 612   1         
 613   1      }
 614          
 615          
 616          
 617          void par_select(u8 new_par_id)
 618          {
 619   1          static idata u16 old_color = YELLOW;
 620   1      
 621   1          if(cur_par_id == new_par_id) 
 622   1              return;
 623   1          else {
 624   2              Draw_text_change_color(text_sp[cur_par_id], old_color);  
 625   2              old_color = Draw_text_get_color(text_sp[new_par_id]);//–∑–∞–ø–æ–º–Ω–∏—Ç—å —Å—Ç–∞—Ä—ã–π —Ü–≤–µ—Ç
 626   2              Draw_text_change_color(text_sp[new_par_id], PINK);//–∑–∞–º–µ–Ω–∏—Ç—å –Ω–∞ —Ü–≤–µ—Ç "–≤—ã–±—Ä–∞–Ω–Ω
             -–æ–≥–æ —ç–ª–µ–º–µ–Ω—Ç–∞"
 627   2              cur_par_id = new_par_id;
 628   2          }      
 629   1      }
 630          
 631          
 632          
 633          void init_par_udgu(void)
 634          {
 635   1          make_lim(&par_lim[EIID_PRE_FLOW_T1],  1,   100  ); //–¢1  –≤—Ä–µ–º—è –ø—Ä–µ–¥–≤. –ø—Ä–æ–¥—É–≤–∫–∏, —Å 
 636   1          make_lim(&par_lim[EIID_START_I1],     5,   350  );
 637   1          make_lim(&par_lim[EIID_START_T2],     1,   100  );
 638   1          make_lim(&par_lim[EIID_UP_T3],        1,   100  );
 639   1          make_lim(&par_lim[EIID_BASE_I2],      5,   350  );
C51 COMPILER V9.53.0.0   TEMP                                                              12/06/2023 15:46:42 PAGE 12  

 640   1          make_lim(&par_lim[EIID_BASE_T4],      1,   10000);
 641   1          make_lim(&par_lim[EIID_IMPULSE_I3],   5,   350  );
 642   1          make_lim(&par_lim[EIID_IMPULSE_T5],   1,   10000);
 643   1          make_lim(&par_lim[EIID_FREQ_F1],      20,  200  );
 644   1          make_lim(&par_lim[EIID_BALANCE_D1],   30,  80   );
 645   1          make_lim(&par_lim[EIID_DOWN_T6],      1,   100  );
 646   1          make_lim(&par_lim[EIID_END_I4],       5,   350  );
 647   1          make_lim(&par_lim[EIID_END_T7],       1,   100  );
 648   1          make_lim(&par_lim[EIID_POST_FLOW_T8], 1,   60   );
 649   1          make_lim(&par_lim[EIDD_KZ_I5],        0,   100  );
 650   1          make_lim(&par_lim[EIID_BASE2_I2X],    5,   350  );
 651   1      
 652   1          par_step[EIID_PRE_FLOW_T1]  =  1  ; //ms //100ms
 653   1          par_step[EIID_START_I1]     =  1  ; //A  
 654   1          par_step[EIID_START_T2]     =  1  ; //ms //100ms  
 655   1          par_step[EIID_UP_T3]        =  1  ; //ms //100ms     
 656   1          par_step[EIID_BASE_I2]      =  1  ; //A    
 657   1          par_step[EIID_BASE_T4]      =  1  ; //ms   
 658   1          par_step[EIID_IMPULSE_I3]   =  1  ; //A
 659   1          par_step[EIID_IMPULSE_T5]   =  1  ; //ms 
 660   1          par_step[EIID_FREQ_F1]      =  1  ;   
 661   1          par_step[EIID_BALANCE_D1]   =  1  ;
 662   1          par_step[EIID_DOWN_T6]      =  1  ; //ms //100ms   
 663   1          par_step[EIID_END_I4]       =  1  ; //A     
 664   1          par_step[EIID_END_T7]       =  1  ; //ms //100ms    
 665   1          par_step[EIID_POST_FLOW_T8] =  1  ; //
 666   1          par_step[EIDD_KZ_I5]        =  1  ; //%     
 667   1          par_step[EIID_BASE2_I2X]    =  1  ; //A 
 668   1      
 669   1      
 670   1          par_tek[EPID_MODES_SUBMODES] = 0x0100;
 671   1          par[EIID_PRE_FLOW_T1]        = par_tek[EPID_PRE_FLOW_T1]    = 53;   // t gaz
 672   1          par[EIID_START_I1]           = par_tek[EPID_START_I1]       = 50;   // I begin
 673   1          par[EIID_START_T2]           = par_tek[EPID_START_T2]       = 20;   // t begin
 674   1          par[EIID_UP_T3]              = par_tek[EPID_UP_T3]          = 33;   // increase
 675   1          par[EIID_BASE_I2]            = par_tek[EPID_BASE_I2]        = 100;  // I –±–∞–∑—ã
 676   1          par[EIID_BASE_T4]            = par_tek[EPID_BASE_T4]        = 2;    // t –±–∞–∑—ã
 677   1          par[EIID_IMPULSE_I3]         = par_tek[EPID_IMPULSE_I3]     = 150;  // I –∏–º–ø
 678   1          par[EIID_IMPULSE_T5]         = par_tek[EPID_IMPULSE_T5]     = 3;    // t –∏–º–ø
 679   1          par[EIID_FREQ_F1]            = par_tek[EPID_FREQ_F1]        = 100;  // F
 680   1          par[EIID_BALANCE_D1]         = par_tek[EPID_BALANCE_D1]     = 6;   // balans
 681   1          par[EIID_DOWN_T6]            = par_tek[EPID_DOWN_T6]        = 11;  // Decrease
 682   1          par[EIID_END_I4]             = par_tek[EPID_END_I4]         = 60;   // I end
 683   1          par[EIID_END_T7]             = par_tek[EPID_END_T7]         = 11;   // t end
 684   1          par[EIID_POST_FLOW_T8]       = par_tek[EPID_POST_FLOW_T8]   = 3;   // t gaz
 685   1          par[EIDD_KZ_I5]              = par_tek[EPID_KZ_I5]          = 55;  // I kz
 686   1                                         par_tek[EPID_BSN]            = 1;   // BSN 1-off 2-on
 687   1                                         par_tek[EPID_2T_4T]          = 1;   // 2T-4T
 688   1                                         par_tek[EPID_IGNITION_TYPE]  = 2;
 689   1                                         par_tek[EPID_FLOW_SENSOR]    = 1;
 690   1                                         par_tek[EPID_POLARITY]       = 2;
 691   1                                         par_tek[EPID_ELECTRODE_D]    = 3;
 692   1                                         par_tek[EPID_SERVICE_PAR]    = 1;   // sin
 693   1          par_tek[23]=0;                    // flags
 694   1          par_tek[24]=24;
 695   1          par_tek[25]=25;
 696   1          par_tek[26]=26;
 697   1          par_tek[27]=27;
 698   1          par_tek[28]=2;   // Oscill  1-our, 2-China
 699   1          par_tek[29]=29;
 700   1          par_tek[30]=30;
 701   1          par_tek[31]=31;
C51 COMPILER V9.53.0.0   TEMP                                                              12/06/2023 15:46:42 PAGE 13  

 702   1          par_tek[32]=32;
 703   1          par_tek[33]=33;
 704   1          par_tek[34]=120; // 4T+ - –≤—Ç–æ—Ä–æ–π —Ç–æ–∫ –±–∞–∑—ã
 705   1          par_tek[35]=1;   // 4T+  1-off, 2-on  
 706   1      
 707   1        
 708   1      }
 709          
 710          
 711          
 712          void make_scene(void) 
 713          {
 714   1          u16 x = 40;
 715   1          u16 y = 550;
 716   1          u8 i;
 717   1      
 718   1          drawing_init();
 719   1          
 720   1          Draw_clear_screen();
 721   1      
 722   1      
 723   1      
 724   1          
 725   1          draw_filled_rect(0, 0, 1279, 799, GRAY);
 726   1      
 727   1          Filled_rect_under_par_sp = draw_filled_rect(40, 280, 190, 650, 0x528A); // —Ä–∞–º–∫–∞ –ø–æ–¥ –ø–∞—Ä–∞–
             -º–µ—Ç—Ä–∞–º–∏
 728   1      
 729   1          draw_filled_rect(0, 210, 1278, 210 + 10, BLACK);
 730   1      
 731   1          
 732   1          for(i = 0; i < ARR_SIZE(icon_sp_bottom_menu); i++) {
 733   2              icon_sp_bottom_menu[i] = draw_image(0, 0, 0xffff); // —Å–æ–∑–¥–∞–Ω–∏–µ –ø—É–ª–∞ –∫–∞—Ä—Ç–∏–Ω–æ–∫ –
             -±–µ–∑ –æ—Ç–æ–±—Ä–∞–∂–µ–Ω–∏—è –∫–∞—Ä—Ç–∏–Ω–∫–∏
 734   2          }
 735   1          
 736   1          make_bottom_menu();
 737   1      
 738   1          cur_par_id = EIID_BASE_I2;
 739   1      
 740   1      
 741   1          if(main_menu_bm & (u32)1 << EIID_TIG) {//tig pulse ac
 742   2              point_t p;
 743   2              LINE_WIDTH = 150;
 744   2              FONT_SIZE = 35; 
 745   2              p = add_t_preflow(make_point(x, y));
 746   2              p = dummy_line_up(p);
 747   2              p = add_t_start_i(p);
 748   2              p = add_t_up(p);
 749   2              p = add_base_i1_i2_t(p);
 750   2              p = dummy_line_down(p);
 751   2              p = add_i_t_impulse(p);
 752   2              p = dummy_line_up(p);
 753   2              p = add_t_down(p);
 754   2              p = add_end_i_t(p);
 755   2              p = dummy_line_down(p);
 756   2              p = add_t_postflow(p);
 757   2      
 758   2      
 759   2          } else if(main_menu_bm & (u32)1 << EIID_MMA) {//mma
 760   2              point_t p;
 761   2              if(main_menu_bm & (u32)1 << EIID_PULSE_ON) {
C51 COMPILER V9.53.0.0   TEMP                                                              12/06/2023 15:46:42 PAGE 14  

 762   3                  LINE_WIDTH = 300;
 763   3                  FONT_SIZE = 48;
 764   3              } else {
 765   3                  LINE_WIDTH = 400;
 766   3                  FONT_SIZE = 64;
 767   3              }
 768   2              
 769   2              p = dummy_line_up(make_point(40, 450));
 770   2              p = add_t_start_i(p);
 771   2              p = dummy_line_down(p);
 772   2              p = add_base_i1_i2_t(p);
 773   2              if(main_menu_bm & (u32)1 << EIID_PULSE_ON) {
 774   3                  p = dummy_line_up(p);
 775   3                  p = add_i_t_impulse(p);             
 776   3              }
 777   2              p = add_i_kz(p);
 778   2              p = dummy_line_down(p);
 779   2              p = dummy_line_down(p);
 780   2          }
 781   1         
 782   1      
 783   1          {
 784   2              
 785   2              Amp_text_sp = Draw_text(
 786   2                  0, 
 787   2                  0,
 788   2                  SCREEN_WIDTH - 300,
 789   2                  255,  
 790   2                  0,38, 
 791   2                  175,255, 
 792   2                  TEXT_INTERVAL_1 | TEXT_ALIGNMENT_RIGHT | TEXT_ALIGNMENT_VERTICAL_UP | TEXT_ENC_ASCII, //for bi
             -g unicode font use ascii encode and icl is font id
 793   2                  RED); 
 794   2              
 795   2              Volt_text_sp = Draw_text(
 796   2                  930, 
 797   2                  74,
 798   2                  SCREEN_WIDTH,
 799   2                  128 + 74, 
 800   2                  0,0, 
 801   2                  64,128, 
 802   2                  TEXT_INTERVAL_1 | TEXT_ALIGNMENT_LEFT | TEXT_ALIGNMENT_VERTICAL_UP | TEXT_ENC_GBK, //for big u
             -nicode font use ascii encode and icl is font id
 803   2                  DARK_GREEN);
 804   2          }
 805   1          
 806   1          
 807   1          {
 808   2              data u8 i;
 809   2              data u16 x = 40;
 810   2              for(i = 0; i < 9; i++) {
 811   3                  draw_line(x, 650 - 80, x, 650, 5, 0xDEDB);
 812   3                  x+=150;
 813   3              }
 814   2              draw_line(40, 650 - 80, 1240, 650 - 80, 5, 0xDEDB);
 815   2              draw_line(40, 650, 1240, 650, 5, 0xDEDB);
 816   2          }
 817   1      
 818   1          
 819   1          
 820   1      
 821   1         //Draw_Number(0,0, 999, 0, "A", 64, PINK);
C51 COMPILER V9.53.0.0   TEMP                                                              12/06/2023 15:46:42 PAGE 15  

 822   1          
 823   1          
 824   1          // {
 825   1          //     u8 i;
 826   1          //     u16 new_id = 0;
 827   1      
 828   1          //     while (1)
 829   1          //     {
 830   1          //         for (i = 0; i < 8; i++) {
 831   1          //             image_change_id(icon_sp_bottom_menu[i], new_id);
 832   1          //         }
 833   1          //         new_id++;
 834   1          //         if(new_id == 10) new_id = 0;
 835   1          //         delay_ms(300);
 836   1          //     }
 837   1          // }
 838   1      
 839   1           
 840   1          //draw_bottom_menu();
 841   1      }
 842          
 843          
 844          
 845          //To do
 846          // -–£–±—Ä–∞—Ç—å –ø–æ–¥–º–µ–Ω—é –≤—ã–±–æ—Ä–∞ —Ä–µ–∂–∏–º–∞ —Å–≤–∞—Ä–∫–∏ —Ä–µ–∂–∏–º tig spot
 847          //  sprt –¥–æ–±–∞–≤–∏—Ç—å –≤ –≤—ã–±–æ—Ä —Ä–µ–∂–∏–º–∞ –∫–Ω–æ–ø–∫–∏ –Ω–∞ –≥–æ—Ä–µ–ª–∫–µ
C51 COMPILER V9.53.0.0   TEMP                                                              12/06/2023 15:46:42 PAGE 16  

ASSEMBLY LISTING OF GENERATED OBJECT CODE


             ; FUNCTION L?0223 (BEGIN)
0000         L?0224:
0000 900000      R     MOV     DPTR,#?_make_lim?BYTE+05H
0003 7401              MOV     A,#01H
0005 F0                MOVX    @DPTR,A
0006 A3                INC     DPTR
0007 745E              MOV     A,#05EH
0009 F0                MOVX    @DPTR,A
000A 7D05              MOV     R5,#05H
             ; FUNCTION _make_lim (BEGIN)
                                           ; SOURCE LINE # 89
;---- Variable 'lim' assigned to Register 'R1/R2/R3' ----
;---- Variable 'min' assigned to Register 'R4/R5' ----
                                           ; SOURCE LINE # 90
000C AF05              MOV     R7,AR5
000E EC                MOV     A,R4
000F 8FF0              MOV     B,R7
0011 120000      E     LCALL   ?C?ISTPTR
                                           ; SOURCE LINE # 91
0014 900000      R     MOV     DPTR,#max
0017 E0                MOVX    A,@DPTR
0018 FF                MOV     R7,A
0019 A3                INC     DPTR
001A E0                MOVX    A,@DPTR
001B 900002            MOV     DPTR,#02H
001E CF                XCH     A,R7
001F 8FF0              MOV     B,R7
0021 020000      E     LJMP    ?C?ISTOPTR
             ; FUNCTION _make_lim (END)

             ; FUNCTION L?0218 (BEGIN)
0000 900000      R     MOV     DPTR,#start_x
0003 E0                MOVX    A,@DPTR
0004 FA                MOV     R2,A
0005 A3                INC     DPTR
0006 E0                MOVX    A,@DPTR
0007 2F                ADD     A,R7
0008 FB                MOV     R3,A
0009 EA                MOV     A,R2
000A 3E                ADDC    A,R6
000B FA                MOV     R2,A
000C 900000      R     MOV     DPTR,#start_y
000F E0                MOVX    A,@DPTR
0010 F8                MOV     R0,A
0011 A3                INC     DPTR
0012 E0                MOVX    A,@DPTR
0013 2F                ADD     A,R7
0014 FF                MOV     R7,A
0015 E8                MOV     A,R0
0016 3E                ADDC    A,R6
0017 900000      R     MOV     DPTR,#?_add_touch_place?BYTE+06H
001A F0                MOVX    @DPTR,A
001B A3                INC     DPTR
001C EF                MOV     A,R7
001D F0                MOVX    @DPTR,A
001E 900000      R     MOV     DPTR,#i
0021         L?0219:
0021 E0                MOVX    A,@DPTR
0022 900000      R     MOV     DPTR,#?_add_touch_place?BYTE+08H
C51 COMPILER V9.53.0.0   TEMP                                                              12/06/2023 15:46:42 PAGE 17  

0025 F0                MOVX    @DPTR,A
0026 900000      R     MOV     DPTR,#start_x
0029 E0                MOVX    A,@DPTR
002A FE                MOV     R6,A
002B A3                INC     DPTR
002C E0                MOVX    A,@DPTR
002D FF                MOV     R7,A
             ; FUNCTION _add_touch_place (BEGIN)
                                           ; SOURCE LINE # 96
002E 900000      R     MOV     DPTR,#x0
0031 EE                MOV     A,R6
0032 F0                MOVX    @DPTR,A
0033 A3                INC     DPTR
0034 EF                MOV     A,R7
0035 F0                MOVX    @DPTR,A
0036 A3                INC     DPTR
0037 EC                MOV     A,R4
0038 F0                MOVX    @DPTR,A
0039 A3                INC     DPTR
003A ED                MOV     A,R5
003B F0                MOVX    @DPTR,A
;---- Variable 'x1' assigned to Register 'R2/R3' ----
                                           ; SOURCE LINE # 97
                                           ; SOURCE LINE # 98
003C 900000      R     MOV     DPTR,#cur_menu_size
003F E0                MOVX    A,@DPTR
0040 D3                SETB    C
0041 9430              SUBB    A,#030H
0043 4003              JC      $ + 5H
0045 020000      R     LJMP    ?C0003
0048         ?C0002:
                                           ; SOURCE LINE # 100
0048 900000      R     MOV     DPTR,#touch_id
004B E0                MOVX    A,@DPTR
004C FF                MOV     R7,A
004D 900000      R     MOV     DPTR,#cur_menu_size
0050 E0                MOVX    A,@DPTR
0051 FE                MOV     R6,A
0052 75F009            MOV     B,#09H
0055 A4                MUL     AB
0056 2400        R     ADD     A,#LOW cur_menu
0058 F582              MOV     DPL,A
005A E5F0              MOV     A,B
005C 3400        R     ADDC    A,#HIGH cur_menu
005E F583              MOV     DPH,A
0060 EF                MOV     A,R7
0061 F0                MOVX    @DPTR,A
                                           ; SOURCE LINE # 101
0062 900000      R     MOV     DPTR,#x0
0065 E0                MOVX    A,@DPTR
0066 FC                MOV     R4,A
0067 A3                INC     DPTR
0068 E0                MOVX    A,@DPTR
0069 FD                MOV     R5,A
006A 75F009            MOV     B,#09H
006D EE                MOV     A,R6
006E A4                MUL     AB
006F 2400        R     ADD     A,#LOW cur_menu+01H
0071 F582              MOV     DPL,A
0073 E5F0              MOV     A,B
0075 3400        R     ADDC    A,#HIGH cur_menu+01H
0077 F583              MOV     DPH,A
C51 COMPILER V9.53.0.0   TEMP                                                              12/06/2023 15:46:42 PAGE 18  

0079 EC                MOV     A,R4
007A F0                MOVX    @DPTR,A
007B A3                INC     DPTR
007C ED                MOV     A,R5
007D F0                MOVX    @DPTR,A
                                           ; SOURCE LINE # 102
007E 900000      R     MOV     DPTR,#y0
0081 E0                MOVX    A,@DPTR
0082 FE                MOV     R6,A
0083 A3                INC     DPTR
0084 E0                MOVX    A,@DPTR
0085 FF                MOV     R7,A
0086 900000      R     MOV     DPTR,#cur_menu_size
0089 E0                MOVX    A,@DPTR
008A FD                MOV     R5,A
008B 75F009            MOV     B,#09H
008E A4                MUL     AB
008F 2400        R     ADD     A,#LOW cur_menu+03H
0091 F582              MOV     DPL,A
0093 E5F0              MOV     A,B
0095 3400        R     ADDC    A,#HIGH cur_menu+03H
0097 F583              MOV     DPH,A
0099 EE                MOV     A,R6
009A F0                MOVX    @DPTR,A
009B A3                INC     DPTR
009C EF                MOV     A,R7
009D F0                MOVX    @DPTR,A
                                           ; SOURCE LINE # 103
009E AF03              MOV     R7,AR3
00A0 75F009            MOV     B,#09H
00A3 ED                MOV     A,R5
00A4 A4                MUL     AB
00A5 2400        R     ADD     A,#LOW cur_menu+05H
00A7 F582              MOV     DPL,A
00A9 E5F0              MOV     A,B
00AB 3400        R     ADDC    A,#HIGH cur_menu+05H
00AD F583              MOV     DPH,A
00AF EA                MOV     A,R2
00B0 F0                MOVX    @DPTR,A
00B1 A3                INC     DPTR
00B2 EF                MOV     A,R7
00B3 F0                MOVX    @DPTR,A
                                           ; SOURCE LINE # 104
00B4 900000      R     MOV     DPTR,#y1
00B7 E0                MOVX    A,@DPTR
00B8 FE                MOV     R6,A
00B9 A3                INC     DPTR
00BA E0                MOVX    A,@DPTR
00BB FF                MOV     R7,A
00BC 75F009            MOV     B,#09H
00BF ED                MOV     A,R5
00C0 A4                MUL     AB
00C1 2400        R     ADD     A,#LOW cur_menu+07H
00C3 F582              MOV     DPL,A
00C5 E5F0              MOV     A,B
00C7 3400        R     ADDC    A,#HIGH cur_menu+07H
00C9 F583              MOV     DPH,A
00CB EE                MOV     A,R6
00CC F0                MOVX    @DPTR,A
00CD A3                INC     DPTR
00CE EF                MOV     A,R7
00CF F0                MOVX    @DPTR,A
C51 COMPILER V9.53.0.0   TEMP                                                              12/06/2023 15:46:42 PAGE 19  

                                           ; SOURCE LINE # 105
00D0 900000      R     MOV     DPTR,#cur_menu_size
00D3 E0                MOVX    A,@DPTR
00D4 04                INC     A
00D5 F0                MOVX    @DPTR,A
                                           ; SOURCE LINE # 106
00D6         ?C0003:
00D6 22                RET     
             ; FUNCTION _add_touch_place (END)

             ; FUNCTION draw_number_wtih_touch_centered (BEGIN)
                                           ; SOURCE LINE # 113
                                           ; SOURCE LINE # 114
                                           ; SOURCE LINE # 115
0000 900000      R     MOV     DPTR,#line_start
0003 E0                MOVX    A,@DPTR
0004 FA                MOV     R2,A
0005 A3                INC     DPTR
0006 E0                MOVX    A,@DPTR
0007 FB                MOV     R3,A
0008 FF                MOV     R7,A
0009 AE02              MOV     R6,AR2
000B C006              PUSH    AR6
000D C007              PUSH    AR7
000F 900000      R     MOV     DPTR,#font_size+01H
0012 E0                MOVX    A,@DPTR
0013 25E0              ADD     A,ACC
0015 FF                MOV     R7,A
0016 900000      R     MOV     DPTR,#font_size
0019 E0                MOVX    A,@DPTR
001A 33                RLC     A
001B FE                MOV     R6,A
001C C3                CLR     C
001D 900000      R     MOV     DPTR,#line_start+03H
0020 E0                MOVX    A,@DPTR
0021 9F                SUBB    A,R7
0022 FD                MOV     R5,A
0023 900000      R     MOV     DPTR,#line_start+02H
0026 E0                MOVX    A,@DPTR
0027 9E                SUBB    A,R6
0028 FC                MOV     R4,A
0029 EB                MOV     A,R3
002A 7800        R     MOV     R0,#LOW LINE_WIDTH+01H
002C 26                ADD     A,@R0
002D FB                MOV     R3,A
002E EA                MOV     A,R2
002F 18                DEC     R0
0030 36                ADDC    A,@R0
0031 FA                MOV     R2,A
0032 E0                MOVX    A,@DPTR
0033 FF                MOV     R7,A
0034 A3                INC     DPTR
0035 E0                MOVX    A,@DPTR
0036 900000      E     MOV     DPTR,#?_Draw_text?BYTE+06H
0039 CF                XCH     A,R7
003A F0                MOVX    @DPTR,A
003B A3                INC     DPTR
003C EF                MOV     A,R7
003D F0                MOVX    @DPTR,A
003E E4                CLR     A
003F A3                INC     DPTR
0040 F0                MOVX    @DPTR,A
C51 COMPILER V9.53.0.0   TEMP                                                              12/06/2023 15:46:42 PAGE 20  

0041 A3                INC     DPTR
0042 F0                MOVX    @DPTR,A
0043 900000      R     MOV     DPTR,#font_size
0046 A3                INC     DPTR
0047 E0                MOVX    A,@DPTR
0048 900000      E     MOV     DPTR,#?_Draw_text?BYTE+0AH
004B F0                MOVX    @DPTR,A
004C 25E0              ADD     A,ACC
004E A3                INC     DPTR
004F F0                MOVX    @DPTR,A
0050 A3                INC     DPTR
0051 E4                CLR     A
0052 F0                MOVX    @DPTR,A
0053 A3                INC     DPTR
0054 7443              MOV     A,#043H
0056 F0                MOVX    @DPTR,A
0057 900000      R     MOV     DPTR,#color
005A E0                MOVX    A,@DPTR
005B FF                MOV     R7,A
005C A3                INC     DPTR
005D E0                MOVX    A,@DPTR
005E 900000      E     MOV     DPTR,#?_Draw_text?BYTE+0EH
0061 CF                XCH     A,R7
0062 F0                MOVX    @DPTR,A
0063 A3                INC     DPTR
0064 EF                MOV     A,R7
0065 F0                MOVX    @DPTR,A
0066 D007              POP     AR7
0068 D006              POP     AR6
006A 120000      E     LCALL   _Draw_text
006D 900000      R     MOV     DPTR,#touch_id
0070 E0                MOVX    A,@DPTR
0071 FD                MOV     R5,A
0072 25E0              ADD     A,ACC
0074 2400        R     ADD     A,#LOW text_sp
0076 F582              MOV     DPL,A
0078 E4                CLR     A
0079 3400        R     ADDC    A,#HIGH text_sp
007B F583              MOV     DPH,A
007D EE                MOV     A,R6
007E F0                MOVX    @DPTR,A
007F A3                INC     DPTR
0080 EF                MOV     A,R7
0081 F0                MOVX    @DPTR,A
                                           ; SOURCE LINE # 124
0082 ED                MOV     A,R5
0083 FF                MOV     R7,A
0084 7E00              MOV     R6,#00H
0086 120000      R     LCALL   _display_par
                                           ; SOURCE LINE # 125
0089 900000      R     MOV     DPTR,#line_start
008C E0                MOVX    A,@DPTR
008D FA                MOV     R2,A
008E A3                INC     DPTR
008F E0                MOVX    A,@DPTR
0090 FB                MOV     R3,A
0091 FF                MOV     R7,A
0092 AE02              MOV     R6,AR2
0094 C006              PUSH    AR6
0096 C007              PUSH    AR7
0098 900000      R     MOV     DPTR,#font_size+01H
009B E0                MOVX    A,@DPTR
C51 COMPILER V9.53.0.0   TEMP                                                              12/06/2023 15:46:42 PAGE 21  

009C 25E0              ADD     A,ACC
009E FF                MOV     R7,A
009F 900000      R     MOV     DPTR,#font_size
00A2 E0                MOVX    A,@DPTR
00A3 33                RLC     A
00A4 FE                MOV     R6,A
00A5 C3                CLR     C
00A6 900000      R     MOV     DPTR,#line_start+03H
00A9 E0                MOVX    A,@DPTR
00AA 9F                SUBB    A,R7
00AB FD                MOV     R5,A
00AC 900000      R     MOV     DPTR,#line_start+02H
00AF E0                MOVX    A,@DPTR
00B0 9E                SUBB    A,R6
00B1 FC                MOV     R4,A
00B2 EB                MOV     A,R3
00B3 7800        R     MOV     R0,#LOW LINE_WIDTH+01H
00B5 26                ADD     A,@R0
00B6 FB                MOV     R3,A
00B7 EA                MOV     A,R2
00B8 18                DEC     R0
00B9 36                ADDC    A,@R0
00BA FA                MOV     R2,A
00BB E0                MOVX    A,@DPTR
00BC FF                MOV     R7,A
00BD A3                INC     DPTR
00BE E0                MOVX    A,@DPTR
00BF 900000      R     MOV     DPTR,#?_add_touch_place?BYTE+06H
00C2 CF                XCH     A,R7
00C3 F0                MOVX    @DPTR,A
00C4 A3                INC     DPTR
00C5 EF                MOV     A,R7
00C6 F0                MOVX    @DPTR,A
00C7 900000      R     MOV     DPTR,#touch_id
00CA E0                MOVX    A,@DPTR
00CB 900000      R     MOV     DPTR,#?_add_touch_place?BYTE+08H
00CE F0                MOVX    @DPTR,A
00CF D007              POP     AR7
00D1 D006              POP     AR6
00D3 020000      R     LJMP    _add_touch_place
             ; FUNCTION draw_number_wtih_touch_centered (END)

             ; FUNCTION L?0220 (BEGIN)
0000 7800        R     MOV     R0,#LOW p
0002 7C00        R     MOV     R4,#HIGH p
0004 7D01              MOV     R5,#01H
0006 7E00              MOV     R6,#00H
0008 7F04              MOV     R7,#04H
000A 120000      E     LCALL   ?C?COPY
000D 7800        R     MOV     R0,#LOW ?dummy_line_up?BYTE
000F 7C00        R     MOV     R4,#HIGH ?dummy_line_up?BYTE
0011 7D01              MOV     R5,#01H
0013 7B01              MOV     R3,#01H
0015         L?0221:
0015 7A00        R     MOV     R2,#HIGH p
0017 7900        R     MOV     R1,#LOW p
0019         L?0222:
0019 7E00              MOV     R6,#00H
001B 7F04              MOV     R7,#04H
001D 120000      E     LCALL   ?C?COPY
             ; FUNCTION dummy_line_up (BEGIN)
                                           ; SOURCE LINE # 130
C51 COMPILER V9.53.0.0   TEMP                                                              12/06/2023 15:46:42 PAGE 22  

                                           ; SOURCE LINE # 131
                                           ; SOURCE LINE # 133
0020 900000      R     MOV     DPTR,#p
0023 E0                MOVX    A,@DPTR
0024 FE                MOV     R6,A
0025 A3                INC     DPTR
0026 E0                MOVX    A,@DPTR
0027 FF                MOV     R7,A
0028 900000      R     MOV     DPTR,#LEVEL_HEIGHT
002B E4                CLR     A
002C 93                MOVC    A,@A+DPTR
002D FD                MOV     R5,A
002E C3                CLR     C
002F 900000      R     MOV     DPTR,#p+03H
0032 E0                MOVX    A,@DPTR
0033 9D                SUBB    A,R5
0034 FD                MOV     R5,A
0035 900000      R     MOV     DPTR,#p+02H
0038 E0                MOVX    A,@DPTR
0039 9400              SUBB    A,#00H
003B FC                MOV     R4,A
003C 120000      E     LCALL   _make_point
003F 7800        R     MOV     R0,#LOW p2
0041 7C00        R     MOV     R4,#HIGH p2
0043 7D01              MOV     R5,#01H
0045 7E00              MOV     R6,#00H
0047 7F04              MOV     R7,#04H
0049 120000      E     LCALL   ?C?COPY
                                           ; SOURCE LINE # 134
004C 900000      R     MOV     DPTR,#p+02H
004F E0                MOVX    A,@DPTR
0050 FC                MOV     R4,A
0051 A3                INC     DPTR
0052 E0                MOVX    A,@DPTR
0053 FD                MOV     R5,A
0054 A3                INC     DPTR
0055 E0                MOVX    A,@DPTR
0056 FA                MOV     R2,A
0057 A3                INC     DPTR
0058 E0                MOVX    A,@DPTR
0059 FB                MOV     R3,A
005A A3                INC     DPTR
005B E0                MOVX    A,@DPTR
005C FF                MOV     R7,A
005D A3                INC     DPTR
005E E0                MOVX    A,@DPTR
005F 900000      E     MOV     DPTR,#?_draw_line?BYTE+06H
0062 CF                XCH     A,R7
0063 F0                MOVX    @DPTR,A
0064 A3                INC     DPTR
0065 EF                MOV     A,R7
0066 F0                MOVX    @DPTR,A
0067 900000      R     MOV     DPTR,#LINE_HIGHT
006A E4                CLR     A
006B 93                MOVC    A,@A+DPTR
006C 900000      E     MOV     DPTR,#?_draw_line?BYTE+08H
006F F0                MOVX    @DPTR,A
0070 A3                INC     DPTR
0071 7407              MOV     A,#07H
0073 F0                MOVX    @DPTR,A
0074 A3                INC     DPTR
0075 74E0              MOV     A,#0E0H
C51 COMPILER V9.53.0.0   TEMP                                                              12/06/2023 15:46:42 PAGE 23  

0077 F0                MOVX    @DPTR,A
0078 900000      R     MOV     DPTR,#p
007B E0                MOVX    A,@DPTR
007C FE                MOV     R6,A
007D A3                INC     DPTR
007E E0                MOVX    A,@DPTR
007F FF                MOV     R7,A
0080 120000      E     LCALL   _draw_line
                                           ; SOURCE LINE # 135
0083 7B01              MOV     R3,#01H
0085 7A00        R     MOV     R2,#HIGH p2
0087 7900        R     MOV     R1,#LOW p2
                                           ; SOURCE LINE # 136
0089         ?C0005:
0089 22                RET     
             ; FUNCTION dummy_line_up (END)

             ; FUNCTION L?0216 (BEGIN)
0000         L?0217:
0000 7800        R     MOV     R0,#LOW p
0002 7C00        R     MOV     R4,#HIGH p
0004 7D01              MOV     R5,#01H
0006 7E00              MOV     R6,#00H
0008 7F04              MOV     R7,#04H
000A 120000      E     LCALL   ?C?COPY
000D 7800        R     MOV     R0,#LOW ?dummy_line_down?BYTE
000F 7C00        R     MOV     R4,#HIGH ?dummy_line_down?BYTE
0011 7D01              MOV     R5,#01H
0013 7B01              MOV     R3,#01H
0015 7A00        R     MOV     R2,#HIGH p
0017 7900        R     MOV     R1,#LOW p
0019 7E00              MOV     R6,#00H
001B 7F04              MOV     R7,#04H
001D 120000      E     LCALL   ?C?COPY
             ; FUNCTION dummy_line_down (BEGIN)
                                           ; SOURCE LINE # 138
                                           ; SOURCE LINE # 139
                                           ; SOURCE LINE # 141
0020 900000      R     MOV     DPTR,#p
0023 E0                MOVX    A,@DPTR
0024 FE                MOV     R6,A
0025 A3                INC     DPTR
0026 E0                MOVX    A,@DPTR
0027 FF                MOV     R7,A
0028 900000      R     MOV     DPTR,#LEVEL_HEIGHT
002B E4                CLR     A
002C 93                MOVC    A,@A+DPTR
002D FD                MOV     R5,A
002E 900000      R     MOV     DPTR,#p+03H
0031 E0                MOVX    A,@DPTR
0032 2D                ADD     A,R5
0033 FD                MOV     R5,A
0034 900000      R     MOV     DPTR,#p+02H
0037 E0                MOVX    A,@DPTR
0038 3400              ADDC    A,#00H
003A FC                MOV     R4,A
003B 120000      E     LCALL   _make_point
003E 7800        R     MOV     R0,#LOW p2
0040 7C00        R     MOV     R4,#HIGH p2
0042 7D01              MOV     R5,#01H
0044 7E00              MOV     R6,#00H
0046 7F04              MOV     R7,#04H
C51 COMPILER V9.53.0.0   TEMP                                                              12/06/2023 15:46:42 PAGE 24  

0048 120000      E     LCALL   ?C?COPY
                                           ; SOURCE LINE # 142
004B 900000      R     MOV     DPTR,#p+02H
004E E0                MOVX    A,@DPTR
004F FC                MOV     R4,A
0050 A3                INC     DPTR
0051 E0                MOVX    A,@DPTR
0052 FD                MOV     R5,A
0053 A3                INC     DPTR
0054 E0                MOVX    A,@DPTR
0055 FA                MOV     R2,A
0056 A3                INC     DPTR
0057 E0                MOVX    A,@DPTR
0058 FB                MOV     R3,A
0059 A3                INC     DPTR
005A E0                MOVX    A,@DPTR
005B FF                MOV     R7,A
005C A3                INC     DPTR
005D E0                MOVX    A,@DPTR
005E 900000      E     MOV     DPTR,#?_draw_line?BYTE+06H
0061 CF                XCH     A,R7
0062 F0                MOVX    @DPTR,A
0063 A3                INC     DPTR
0064 EF                MOV     A,R7
0065 F0                MOVX    @DPTR,A
0066 900000      R     MOV     DPTR,#LINE_HIGHT
0069 E4                CLR     A
006A 93                MOVC    A,@A+DPTR
006B 900000      E     MOV     DPTR,#?_draw_line?BYTE+08H
006E F0                MOVX    @DPTR,A
006F A3                INC     DPTR
0070 7407              MOV     A,#07H
0072 F0                MOVX    @DPTR,A
0073 A3                INC     DPTR
0074 74E0              MOV     A,#0E0H
0076 F0                MOVX    @DPTR,A
0077 900000      R     MOV     DPTR,#p
007A E0                MOVX    A,@DPTR
007B FE                MOV     R6,A
007C A3                INC     DPTR
007D E0                MOVX    A,@DPTR
007E FF                MOV     R7,A
007F 120000      E     LCALL   _draw_line
                                           ; SOURCE LINE # 143
0082 7B01              MOV     R3,#01H
0084 7A00        R     MOV     R2,#HIGH p2
0086 7900        R     MOV     R1,#LOW p2
                                           ; SOURCE LINE # 144
0088         ?C0006:
0088 22                RET     
             ; FUNCTION dummy_line_down (END)

             ; FUNCTION add_t_preflow (BEGIN)
                                           ; SOURCE LINE # 146
                                           ; SOURCE LINE # 147
                                           ; SOURCE LINE # 149
0000 7800        R     MOV     R0,#LOW LINE_WIDTH
0002 E6                MOV     A,@R0
0003 FE                MOV     R6,A
0004 08                INC     R0
0005 E6                MOV     A,@R0
0006 FF                MOV     R7,A
C51 COMPILER V9.53.0.0   TEMP                                                              12/06/2023 15:46:42 PAGE 25  

0007 900000      R     MOV     DPTR,#p+01H
000A E0                MOVX    A,@DPTR
000B 2F                ADD     A,R7
000C FF                MOV     R7,A
000D 900000      R     MOV     DPTR,#p
0010 E0                MOVX    A,@DPTR
0011 3E                ADDC    A,R6
0012 FE                MOV     R6,A
0013 900000      R     MOV     DPTR,#p+02H
0016 E0                MOVX    A,@DPTR
0017 FC                MOV     R4,A
0018 A3                INC     DPTR
0019 E0                MOVX    A,@DPTR
001A FD                MOV     R5,A
001B 120000      E     LCALL   _make_point
001E 7800        R     MOV     R0,#LOW p2
0020 7C00        R     MOV     R4,#HIGH p2
0022 7D01              MOV     R5,#01H
0024 7E00              MOV     R6,#00H
0026 7F04              MOV     R7,#04H
0028 120000      E     LCALL   ?C?COPY
                                           ; SOURCE LINE # 151
002B 900000      R     MOV     DPTR,#p+02H
002E E0                MOVX    A,@DPTR
002F FC                MOV     R4,A
0030 A3                INC     DPTR
0031 E0                MOVX    A,@DPTR
0032 FD                MOV     R5,A
0033 A3                INC     DPTR
0034 E0                MOVX    A,@DPTR
0035 FA                MOV     R2,A
0036 A3                INC     DPTR
0037 E0                MOVX    A,@DPTR
0038 FB                MOV     R3,A
0039 A3                INC     DPTR
003A E0                MOVX    A,@DPTR
003B FF                MOV     R7,A
003C A3                INC     DPTR
003D E0                MOVX    A,@DPTR
003E 900000      E     MOV     DPTR,#?_draw_line?BYTE+06H
0041 CF                XCH     A,R7
0042 F0                MOVX    @DPTR,A
0043 A3                INC     DPTR
0044 EF                MOV     A,R7
0045 F0                MOVX    @DPTR,A
0046 900000      R     MOV     DPTR,#LINE_HIGHT
0049 E4                CLR     A
004A 93                MOVC    A,@A+DPTR
004B 900000      E     MOV     DPTR,#?_draw_line?BYTE+08H
004E F0                MOVX    @DPTR,A
004F A3                INC     DPTR
0050 7407              MOV     A,#07H
0052 F0                MOVX    @DPTR,A
0053 A3                INC     DPTR
0054 74E0              MOV     A,#0E0H
0056 F0                MOVX    @DPTR,A
0057 900000      R     MOV     DPTR,#p
005A E0                MOVX    A,@DPTR
005B FE                MOV     R6,A
005C A3                INC     DPTR
005D E0                MOVX    A,@DPTR
005E FF                MOV     R7,A
C51 COMPILER V9.53.0.0   TEMP                                                              12/06/2023 15:46:42 PAGE 26  

005F 120000      E     LCALL   _draw_line
                                           ; SOURCE LINE # 154
0062 900000      R     MOV     DPTR,#p
0065 E0                MOVX    A,@DPTR
0066 FE                MOV     R6,A
0067 A3                INC     DPTR
0068 E0                MOVX    A,@DPTR
0069 FF                MOV     R7,A
006A 7800        R     MOV     R0,#LOW TIME_Y_LEVEL
006C E6                MOV     A,@R0
006D FC                MOV     R4,A
006E 08                INC     R0
006F E6                MOV     A,@R0
0070 FD                MOV     R5,A
0071 120000      E     LCALL   _make_point
0074 7800        R     MOV     R0,#LOW ?draw_number_wtih_touch_centered?BYTE
0076 7C00        R     MOV     R4,#HIGH ?draw_number_wtih_touch_centered?BYTE
0078 7D01              MOV     R5,#01H
007A 7E00              MOV     R6,#00H
007C 7F04              MOV     R7,#04H
007E 120000      E     LCALL   ?C?COPY
0081 900000      R     MOV     DPTR,#?draw_number_wtih_touch_centered?BYTE+04H
0084 E4                CLR     A
0085 F0                MOVX    @DPTR,A
0086 A3                INC     DPTR
0087 7424              MOV     A,#024H
0089 F0                MOVX    @DPTR,A
008A A3                INC     DPTR
008B 7407              MOV     A,#07H
008D F0                MOVX    @DPTR,A
008E A3                INC     DPTR
008F 74FF              MOV     A,#0FFH
0091 F0                MOVX    @DPTR,A
0092 A3                INC     DPTR
0093 741A              MOV     A,#01AH
0095 F0                MOVX    @DPTR,A
0096 120000      R     LCALL   draw_number_wtih_touch_centered
                                           ; SOURCE LINE # 155
0099 7B01              MOV     R3,#01H
009B 7A00        R     MOV     R2,#HIGH p2
009D 7900        R     MOV     R1,#LOW p2
                                           ; SOURCE LINE # 156
009F         ?C0007:
009F 22                RET     
             ; FUNCTION add_t_preflow (END)

             ; FUNCTION L?0225 (BEGIN)
0000 7800        R     MOV     R0,#LOW p
0002 7C00        R     MOV     R4,#HIGH p
0004 7D01              MOV     R5,#01H
0006 7E00              MOV     R6,#00H
0008 7F04              MOV     R7,#04H
000A 120000      E     LCALL   ?C?COPY
000D 7800        R     MOV     R0,#LOW ?add_t_start_i?BYTE
000F 7C00        R     MOV     R4,#HIGH ?add_t_start_i?BYTE
0011 7D01              MOV     R5,#01H
0013 7B01              MOV     R3,#01H
0015 7A00        R     MOV     R2,#HIGH p
0017 7900        R     MOV     R1,#LOW p
0019 7E00              MOV     R6,#00H
001B 7F04              MOV     R7,#04H
001D 120000      E     LCALL   ?C?COPY
C51 COMPILER V9.53.0.0   TEMP                                                              12/06/2023 15:46:42 PAGE 27  

             ; FUNCTION add_t_start_i (BEGIN)
                                           ; SOURCE LINE # 160
                                           ; SOURCE LINE # 161
                                           ; SOURCE LINE # 163
0020 7800        R     MOV     R0,#LOW LINE_WIDTH
0022 E6                MOV     A,@R0
0023 FE                MOV     R6,A
0024 08                INC     R0
0025 E6                MOV     A,@R0
0026 FF                MOV     R7,A
0027 900000      R     MOV     DPTR,#p+01H
002A E0                MOVX    A,@DPTR
002B 2F                ADD     A,R7
002C FF                MOV     R7,A
002D 900000      R     MOV     DPTR,#p
0030 E0                MOVX    A,@DPTR
0031 3E                ADDC    A,R6
0032 FE                MOV     R6,A
0033 900000      R     MOV     DPTR,#p+02H
0036 E0                MOVX    A,@DPTR
0037 FC                MOV     R4,A
0038 A3                INC     DPTR
0039 E0                MOVX    A,@DPTR
003A FD                MOV     R5,A
003B 120000      E     LCALL   _make_point
003E 7800        R     MOV     R0,#LOW p2
0040 7C00        R     MOV     R4,#HIGH p2
0042 7D01              MOV     R5,#01H
0044 7E00              MOV     R6,#00H
0046 7F04              MOV     R7,#04H
0048 120000      E     LCALL   ?C?COPY
                                           ; SOURCE LINE # 164
004B 900000      R     MOV     DPTR,#p+02H
004E E0                MOVX    A,@DPTR
004F FC                MOV     R4,A
0050 A3                INC     DPTR
0051 E0                MOVX    A,@DPTR
0052 FD                MOV     R5,A
0053 A3                INC     DPTR
0054 E0                MOVX    A,@DPTR
0055 FA                MOV     R2,A
0056 A3                INC     DPTR
0057 E0                MOVX    A,@DPTR
0058 FB                MOV     R3,A
0059 A3                INC     DPTR
005A E0                MOVX    A,@DPTR
005B FF                MOV     R7,A
005C A3                INC     DPTR
005D E0                MOVX    A,@DPTR
005E 900000      E     MOV     DPTR,#?_draw_line?BYTE+06H
0061 CF                XCH     A,R7
0062 F0                MOVX    @DPTR,A
0063 A3                INC     DPTR
0064 EF                MOV     A,R7
0065 F0                MOVX    @DPTR,A
0066 900000      R     MOV     DPTR,#LINE_HIGHT
0069 E4                CLR     A
006A 93                MOVC    A,@A+DPTR
006B 900000      E     MOV     DPTR,#?_draw_line?BYTE+08H
006E F0                MOVX    @DPTR,A
006F A3                INC     DPTR
0070 7407              MOV     A,#07H
C51 COMPILER V9.53.0.0   TEMP                                                              12/06/2023 15:46:42 PAGE 28  

0072 F0                MOVX    @DPTR,A
0073 A3                INC     DPTR
0074 74E0              MOV     A,#0E0H
0076 F0                MOVX    @DPTR,A
0077 900000      R     MOV     DPTR,#p
007A E0                MOVX    A,@DPTR
007B FE                MOV     R6,A
007C A3                INC     DPTR
007D E0                MOVX    A,@DPTR
007E FF                MOV     R7,A
007F 120000      E     LCALL   _draw_line
                                           ; SOURCE LINE # 166
0082 7800        R     MOV     R0,#LOW ?draw_number_wtih_touch_centered?BYTE
0084 7C00        R     MOV     R4,#HIGH ?draw_number_wtih_touch_centered?BYTE
0086 7D01              MOV     R5,#01H
0088 7B01              MOV     R3,#01H
008A 7A00        R     MOV     R2,#HIGH p
008C 7900        R     MOV     R1,#LOW p
008E 7E00              MOV     R6,#00H
0090 7F04              MOV     R7,#04H
0092 120000      E     LCALL   ?C?COPY
0095 7800        R     MOV     R0,#LOW FONT_SIZE
0097 E6                MOV     A,@R0
0098 FF                MOV     R7,A
0099 08                INC     R0
009A E6                MOV     A,@R0
009B 900000      R     MOV     DPTR,#?draw_number_wtih_touch_centered?BYTE+04H
009E CF                XCH     A,R7
009F F0                MOVX    @DPTR,A
00A0 A3                INC     DPTR
00A1 EF                MOV     A,R7
00A2 F0                MOVX    @DPTR,A
00A3 A3                INC     DPTR
00A4 74FF              MOV     A,#0FFH
00A6 F0                MOVX    @DPTR,A
00A7 A3                INC     DPTR
00A8 74E0              MOV     A,#0E0H
00AA F0                MOVX    @DPTR,A
00AB A3                INC     DPTR
00AC 741B              MOV     A,#01BH
00AE F0                MOVX    @DPTR,A
00AF 120000      R     LCALL   draw_number_wtih_touch_centered
                                           ; SOURCE LINE # 167
00B2 900000      R     MOV     DPTR,#p
00B5 E0                MOVX    A,@DPTR
00B6 FE                MOV     R6,A
00B7 A3                INC     DPTR
00B8 E0                MOVX    A,@DPTR
00B9 FF                MOV     R7,A
00BA 7800        R     MOV     R0,#LOW TIME_Y_LEVEL
00BC E6                MOV     A,@R0
00BD FC                MOV     R4,A
00BE 08                INC     R0
00BF E6                MOV     A,@R0
00C0 FD                MOV     R5,A
00C1 120000      E     LCALL   _make_point
00C4 7800        R     MOV     R0,#LOW ?draw_number_wtih_touch_centered?BYTE
00C6 7C00        R     MOV     R4,#HIGH ?draw_number_wtih_touch_centered?BYTE
00C8 7D01              MOV     R5,#01H
00CA 7E00              MOV     R6,#00H
00CC 7F04              MOV     R7,#04H
00CE 120000      E     LCALL   ?C?COPY
C51 COMPILER V9.53.0.0   TEMP                                                              12/06/2023 15:46:42 PAGE 29  

00D1 900000      R     MOV     DPTR,#?draw_number_wtih_touch_centered?BYTE+04H
00D4 E4                CLR     A
00D5 F0                MOVX    @DPTR,A
00D6 A3                INC     DPTR
00D7 7424              MOV     A,#024H
00D9 F0                MOVX    @DPTR,A
00DA A3                INC     DPTR
00DB 7407              MOV     A,#07H
00DD F0                MOVX    @DPTR,A
00DE A3                INC     DPTR
00DF 74FF              MOV     A,#0FFH
00E1 F0                MOVX    @DPTR,A
00E2 A3                INC     DPTR
00E3 741C              MOV     A,#01CH
00E5 F0                MOVX    @DPTR,A
00E6 120000      R     LCALL   draw_number_wtih_touch_centered
                                           ; SOURCE LINE # 169
00E9 7B01              MOV     R3,#01H
00EB 7A00        R     MOV     R2,#HIGH p2
00ED 7900        R     MOV     R1,#LOW p2
                                           ; SOURCE LINE # 170
00EF         ?C0008:
00EF 22                RET     
             ; FUNCTION add_t_start_i (END)

             ; FUNCTION add_t_up (BEGIN)
                                           ; SOURCE LINE # 173
                                           ; SOURCE LINE # 174
                                           ; SOURCE LINE # 176
0000 7800        R     MOV     R0,#LOW LINE_WIDTH
0002 E6                MOV     A,@R0
0003 FE                MOV     R6,A
0004 08                INC     R0
0005 E6                MOV     A,@R0
0006 FF                MOV     R7,A
0007 900000      R     MOV     DPTR,#p+01H
000A E0                MOVX    A,@DPTR
000B 2F                ADD     A,R7
000C FF                MOV     R7,A
000D 900000      R     MOV     DPTR,#p
0010 E0                MOVX    A,@DPTR
0011 3E                ADDC    A,R6
0012 FE                MOV     R6,A
0013 900000      R     MOV     DPTR,#LEVEL_HEIGHT
0016 E4                CLR     A
0017 93                MOVC    A,@A+DPTR
0018 FD                MOV     R5,A
0019 C3                CLR     C
001A 900000      R     MOV     DPTR,#p+03H
001D E0                MOVX    A,@DPTR
001E 9D                SUBB    A,R5
001F FD                MOV     R5,A
0020 900000      R     MOV     DPTR,#p+02H
0023 E0                MOVX    A,@DPTR
0024 9400              SUBB    A,#00H
0026 FC                MOV     R4,A
0027 120000      E     LCALL   _make_point
002A 7800        R     MOV     R0,#LOW p2
002C 7C00        R     MOV     R4,#HIGH p2
002E 7D01              MOV     R5,#01H
0030 7E00              MOV     R6,#00H
0032 7F04              MOV     R7,#04H
C51 COMPILER V9.53.0.0   TEMP                                                              12/06/2023 15:46:42 PAGE 30  

0034 120000      E     LCALL   ?C?COPY
                                           ; SOURCE LINE # 177
0037 900000      R     MOV     DPTR,#p+03H
003A E0                MOVX    A,@DPTR
003B 24FF              ADD     A,#0FFH
003D FD                MOV     R5,A
003E 900000      R     MOV     DPTR,#p+02H
0041 E0                MOVX    A,@DPTR
0042 34FF              ADDC    A,#0FFH
0044 FC                MOV     R4,A
0045 900000      R     MOV     DPTR,#p2
0048 E0                MOVX    A,@DPTR
0049 FA                MOV     R2,A
004A A3                INC     DPTR
004B E0                MOVX    A,@DPTR
004C FB                MOV     R3,A
004D A3                INC     DPTR
004E E0                MOVX    A,@DPTR
004F FF                MOV     R7,A
0050 A3                INC     DPTR
0051 E0                MOVX    A,@DPTR
0052 900000      E     MOV     DPTR,#?_draw_line?BYTE+06H
0055 CF                XCH     A,R7
0056 F0                MOVX    @DPTR,A
0057 A3                INC     DPTR
0058 EF                MOV     A,R7
0059 F0                MOVX    @DPTR,A
005A 900000      R     MOV     DPTR,#LINE_HIGHT
005D E4                CLR     A
005E 93                MOVC    A,@A+DPTR
005F 900000      E     MOV     DPTR,#?_draw_line?BYTE+08H
0062 F0                MOVX    @DPTR,A
0063 A3                INC     DPTR
0064 7407              MOV     A,#07H
0066 F0                MOVX    @DPTR,A
0067 A3                INC     DPTR
0068 74E0              MOV     A,#0E0H
006A F0                MOVX    @DPTR,A
006B 900000      R     MOV     DPTR,#p
006E E0                MOVX    A,@DPTR
006F FE                MOV     R6,A
0070 A3                INC     DPTR
0071 E0                MOVX    A,@DPTR
0072 FF                MOV     R7,A
0073 120000      E     LCALL   _draw_line
                                           ; SOURCE LINE # 179
0076 900000      R     MOV     DPTR,#p
0079 E0                MOVX    A,@DPTR
007A FE                MOV     R6,A
007B A3                INC     DPTR
007C E0                MOVX    A,@DPTR
007D FF                MOV     R7,A
007E 7800        R     MOV     R0,#LOW TIME_Y_LEVEL
0080 E6                MOV     A,@R0
0081 FC                MOV     R4,A
0082 08                INC     R0
0083 E6                MOV     A,@R0
0084 FD                MOV     R5,A
0085 120000      E     LCALL   _make_point
0088 7800        R     MOV     R0,#LOW ?draw_number_wtih_touch_centered?BYTE
008A 7C00        R     MOV     R4,#HIGH ?draw_number_wtih_touch_centered?BYTE
008C 7D01              MOV     R5,#01H
C51 COMPILER V9.53.0.0   TEMP                                                              12/06/2023 15:46:42 PAGE 31  

008E 7E00              MOV     R6,#00H
0090 7F04              MOV     R7,#04H
0092 120000      E     LCALL   ?C?COPY
0095 900000      R     MOV     DPTR,#?draw_number_wtih_touch_centered?BYTE+04H
0098 E4                CLR     A
0099 F0                MOVX    @DPTR,A
009A A3                INC     DPTR
009B 7424              MOV     A,#024H
009D F0                MOVX    @DPTR,A
009E A3                INC     DPTR
009F 7407              MOV     A,#07H
00A1 F0                MOVX    @DPTR,A
00A2 A3                INC     DPTR
00A3 74FF              MOV     A,#0FFH
00A5 F0                MOVX    @DPTR,A
00A6 A3                INC     DPTR
00A7 741D              MOV     A,#01DH
00A9 F0                MOVX    @DPTR,A
00AA 120000      R     LCALL   draw_number_wtih_touch_centered
                                           ; SOURCE LINE # 181
00AD 7B01              MOV     R3,#01H
00AF 7A00        R     MOV     R2,#HIGH p2
00B1 7900        R     MOV     R1,#LOW p2
                                           ; SOURCE LINE # 182
00B3         ?C0009:
00B3 22                RET     
             ; FUNCTION add_t_up (END)

             ; FUNCTION L?0226 (BEGIN)
0000 7800        R     MOV     R0,#LOW p
0002 7C00        R     MOV     R4,#HIGH p
0004 7D01              MOV     R5,#01H
0006 7E00              MOV     R6,#00H
0008 7F04              MOV     R7,#04H
000A 120000      E     LCALL   ?C?COPY
000D 7800        R     MOV     R0,#LOW ?add_base_i1_i2_t?BYTE
000F 7C00        R     MOV     R4,#HIGH ?add_base_i1_i2_t?BYTE
0011 7D01              MOV     R5,#01H
0013 7B01              MOV     R3,#01H
0015 7A00        R     MOV     R2,#HIGH p
0017 7900        R     MOV     R1,#LOW p
0019 7E00              MOV     R6,#00H
001B 7F04              MOV     R7,#04H
001D 120000      E     LCALL   ?C?COPY
             ; FUNCTION add_base_i1_i2_t (BEGIN)
                                           ; SOURCE LINE # 184
                                           ; SOURCE LINE # 185
                                           ; SOURCE LINE # 187
0020 900000      R     MOV     DPTR,#LINE_HIGHT
0023 E4                CLR     A
0024 93                MOVC    A,@A+DPTR
0025 C3                CLR     C
0026 13                RRC     A
0027 FF                MOV     R7,A
0028 900000      R     MOV     DPTR,#half_height
002B E4                CLR     A
002C F0                MOVX    @DPTR,A
002D A3                INC     DPTR
002E EF                MOV     A,R7
002F F0                MOVX    @DPTR,A
                                           ; SOURCE LINE # 188
0030 7800        R     MOV     R0,#LOW LINE_WIDTH
C51 COMPILER V9.53.0.0   TEMP                                                              12/06/2023 15:46:42 PAGE 32  

0032 E6                MOV     A,@R0
0033 FE                MOV     R6,A
0034 08                INC     R0
0035 E6                MOV     A,@R0
0036 FF                MOV     R7,A
0037 900000      R     MOV     DPTR,#p+01H
003A E0                MOVX    A,@DPTR
003B 2F                ADD     A,R7
003C FF                MOV     R7,A
003D 900000      R     MOV     DPTR,#p
0040 E0                MOVX    A,@DPTR
0041 3E                ADDC    A,R6
0042 FE                MOV     R6,A
0043 900000      R     MOV     DPTR,#p+02H
0046 E0                MOVX    A,@DPTR
0047 FC                MOV     R4,A
0048 A3                INC     DPTR
0049 E0                MOVX    A,@DPTR
004A FD                MOV     R5,A
004B 120000      E     LCALL   _make_point
004E 7800        R     MOV     R0,#LOW p2
0050 7C00        R     MOV     R4,#HIGH p2
0052 7D01              MOV     R5,#01H
0054 7E00              MOV     R6,#00H
0056 7F04              MOV     R7,#04H
0058 120000      E     LCALL   ?C?COPY
                                           ; SOURCE LINE # 190
005B 900000      R     MOV     DPTR,#p+02H
005E E0                MOVX    A,@DPTR
005F FC                MOV     R4,A
0060 A3                INC     DPTR
0061 E0                MOVX    A,@DPTR
0062 FD                MOV     R5,A
0063 A3                INC     DPTR
0064 E0                MOVX    A,@DPTR
0065 FA                MOV     R2,A
0066 A3                INC     DPTR
0067 E0                MOVX    A,@DPTR
0068 FB                MOV     R3,A
0069 A3                INC     DPTR
006A E0                MOVX    A,@DPTR
006B FF                MOV     R7,A
006C A3                INC     DPTR
006D E0                MOVX    A,@DPTR
006E 900000      E     MOV     DPTR,#?_draw_line?BYTE+06H
0071 CF                XCH     A,R7
0072 F0                MOVX    @DPTR,A
0073 A3                INC     DPTR
0074 EF                MOV     A,R7
0075 F0                MOVX    @DPTR,A
0076 900000      R     MOV     DPTR,#LINE_HIGHT
0079 E4                CLR     A
007A 93                MOVC    A,@A+DPTR
007B 900000      E     MOV     DPTR,#?_draw_line?BYTE+08H
007E F0                MOVX    @DPTR,A
007F A3                INC     DPTR
0080 7407              MOV     A,#07H
0082 F0                MOVX    @DPTR,A
0083 A3                INC     DPTR
0084 74E0              MOV     A,#0E0H
0086 F0                MOVX    @DPTR,A
0087 900000      R     MOV     DPTR,#p
C51 COMPILER V9.53.0.0   TEMP                                                              12/06/2023 15:46:42 PAGE 33  

008A E0                MOVX    A,@DPTR
008B FE                MOV     R6,A
008C A3                INC     DPTR
008D E0                MOVX    A,@DPTR
008E FF                MOV     R7,A
008F 120000      E     LCALL   _draw_line
                                           ; SOURCE LINE # 192
0092 900000      R     MOV     DPTR,#p
0095 E0                MOVX    A,@DPTR
0096 FE                MOV     R6,A
0097 A3                INC     DPTR
0098 E0                MOVX    A,@DPTR
0099 FF                MOV     R7,A
009A 7800        R     MOV     R0,#LOW TIME_Y_LEVEL
009C E6                MOV     A,@R0
009D FC                MOV     R4,A
009E 08                INC     R0
009F E6                MOV     A,@R0
00A0 FD                MOV     R5,A
00A1 120000      E     LCALL   _make_point
00A4 7800        R     MOV     R0,#LOW ?draw_number_wtih_touch_centered?BYTE
00A6 7C00        R     MOV     R4,#HIGH ?draw_number_wtih_touch_centered?BYTE
00A8 7D01              MOV     R5,#01H
00AA 7E00              MOV     R6,#00H
00AC 7F04              MOV     R7,#04H
00AE 120000      E     LCALL   ?C?COPY
00B1 900000      R     MOV     DPTR,#?draw_number_wtih_touch_centered?BYTE+04H
00B4 E4                CLR     A
00B5 F0                MOVX    @DPTR,A
00B6 A3                INC     DPTR
00B7 741E              MOV     A,#01EH
00B9 F0                MOVX    @DPTR,A
00BA A3                INC     DPTR
00BB 7407              MOV     A,#07H
00BD F0                MOVX    @DPTR,A
00BE A3                INC     DPTR
00BF 74FF              MOV     A,#0FFH
00C1 F0                MOVX    @DPTR,A
00C2 A3                INC     DPTR
00C3 741F              MOV     A,#01FH
00C5 F0                MOVX    @DPTR,A
00C6 120000      R     LCALL   draw_number_wtih_touch_centered
                                           ; SOURCE LINE # 193
00C9 7800        R     MOV     R0,#LOW ?draw_number_wtih_touch_centered?BYTE
00CB 7C00        R     MOV     R4,#HIGH ?draw_number_wtih_touch_centered?BYTE
00CD 7D01              MOV     R5,#01H
00CF 7B01              MOV     R3,#01H
00D1 7A00        R     MOV     R2,#HIGH p
00D3 7900        R     MOV     R1,#LOW p
00D5 7E00              MOV     R6,#00H
00D7 7F04              MOV     R7,#04H
00D9 120000      E     LCALL   ?C?COPY
00DC 7800        R     MOV     R0,#LOW FONT_SIZE
00DE E6                MOV     A,@R0
00DF FF                MOV     R7,A
00E0 08                INC     R0
00E1 E6                MOV     A,@R0
00E2 900000      R     MOV     DPTR,#?draw_number_wtih_touch_centered?BYTE+04H
00E5 CF                XCH     A,R7
00E6 F0                MOVX    @DPTR,A
00E7 A3                INC     DPTR
00E8 EF                MOV     A,R7
C51 COMPILER V9.53.0.0   TEMP                                                              12/06/2023 15:46:42 PAGE 34  

00E9 F0                MOVX    @DPTR,A
00EA A3                INC     DPTR
00EB 74F8              MOV     A,#0F8H
00ED F0                MOVX    @DPTR,A
00EE A3                INC     DPTR
00EF 741F              MOV     A,#01FH
00F1 F0                MOVX    @DPTR,A
00F2 A3                INC     DPTR
00F3 14                DEC     A
00F4 F0                MOVX    @DPTR,A
00F5 120000      R     LCALL   draw_number_wtih_touch_centered
                                           ; SOURCE LINE # 194
00F8 7800        R     MOV     R0,#LOW main_menu_bm
00FA 120000      E     LCALL   ?C?LLDIDATA
00FD EE                MOV     A,R6
00FE 5401              ANL     A,#01H
0100 FE                MOV     R6,A
0101 EE                MOV     A,R6
0102 605A              JZ      ?C0010
                                           ; SOURCE LINE # 195
0104 7800        R     MOV     R0,#LOW FONT_SIZE+01H
0106 E6                MOV     A,@R0
0107 25E0              ADD     A,ACC
0109 FF                MOV     R7,A
010A 18                DEC     R0
010B E6                MOV     A,@R0
010C 33                RLC     A
010D FE                MOV     R6,A
010E 900000      R     MOV     DPTR,#p+03H
0111 E0                MOVX    A,@DPTR
0112 2F                ADD     A,R7
0113 FD                MOV     R5,A
0114 900000      R     MOV     DPTR,#p+02H
0117 E0                MOVX    A,@DPTR
0118 3E                ADDC    A,R6
0119 FC                MOV     R4,A
011A 900000      R     MOV     DPTR,#LINE_HIGHT
011D E4                CLR     A
011E 93                MOVC    A,@A+DPTR
011F 75F002            MOV     B,#02H
0122 A4                MUL     AB
0123 2D                ADD     A,R5
0124 FD                MOV     R5,A
0125 E5F0              MOV     A,B
0127 3C                ADDC    A,R4
0128 FC                MOV     R4,A
0129 900000      R     MOV     DPTR,#p
012C E0                MOVX    A,@DPTR
012D FE                MOV     R6,A
012E A3                INC     DPTR
012F E0                MOVX    A,@DPTR
0130 FF                MOV     R7,A
0131 120000      E     LCALL   _make_point
0134 7800        R     MOV     R0,#LOW ?draw_number_wtih_touch_centered?BYTE
0136 7C00        R     MOV     R4,#HIGH ?draw_number_wtih_touch_centered?BYTE
0138 7D01              MOV     R5,#01H
013A 7E00              MOV     R6,#00H
013C 7F04              MOV     R7,#04H
013E 120000      E     LCALL   ?C?COPY
0141 7800        R     MOV     R0,#LOW FONT_SIZE
0143 E6                MOV     A,@R0
0144 FF                MOV     R7,A
C51 COMPILER V9.53.0.0   TEMP                                                              12/06/2023 15:46:42 PAGE 35  

0145 08                INC     R0
0146 E6                MOV     A,@R0
0147 900000      R     MOV     DPTR,#?draw_number_wtih_touch_centered?BYTE+04H
014A CF                XCH     A,R7
014B F0                MOVX    @DPTR,A
014C A3                INC     DPTR
014D EF                MOV     A,R7
014E F0                MOVX    @DPTR,A
014F A3                INC     DPTR
0150 74FF              MOV     A,#0FFH
0152 F0                MOVX    @DPTR,A
0153 A3                INC     DPTR
0154 74E0              MOV     A,#0E0H
0156 F0                MOVX    @DPTR,A
0157 A3                INC     DPTR
0158 7429              MOV     A,#029H
015A F0                MOVX    @DPTR,A
015B 120000      R     LCALL   draw_number_wtih_touch_centered
015E         ?C0010:
                                           ; SOURCE LINE # 196
015E 7B01              MOV     R3,#01H
0160 7A00        R     MOV     R2,#HIGH p2
0162 7900        R     MOV     R1,#LOW p2
                                           ; SOURCE LINE # 197
0164         ?C0011:
0164 22                RET     
             ; FUNCTION add_base_i1_i2_t (END)

             ; FUNCTION L?0227 (BEGIN)
0000 7800        R     MOV     R0,#LOW p
0002 7C00        R     MOV     R4,#HIGH p
0004 7D01              MOV     R5,#01H
0006 7E00              MOV     R6,#00H
0008 7F04              MOV     R7,#04H
000A 120000      E     LCALL   ?C?COPY
000D 7800        R     MOV     R0,#LOW ?add_i_t_impulse?BYTE
000F 7C00        R     MOV     R4,#HIGH ?add_i_t_impulse?BYTE
0011 7D01              MOV     R5,#01H
0013 7B01              MOV     R3,#01H
0015 7A00        R     MOV     R2,#HIGH p
0017 7900        R     MOV     R1,#LOW p
0019 7E00              MOV     R6,#00H
001B 7F04              MOV     R7,#04H
001D 120000      E     LCALL   ?C?COPY
             ; FUNCTION add_i_t_impulse (BEGIN)
                                           ; SOURCE LINE # 199
                                           ; SOURCE LINE # 200
                                           ; SOURCE LINE # 202
0020 7800        R     MOV     R0,#LOW LINE_WIDTH
0022 E6                MOV     A,@R0
0023 FE                MOV     R6,A
0024 08                INC     R0
0025 E6                MOV     A,@R0
0026 FF                MOV     R7,A
0027 900000      R     MOV     DPTR,#p+01H
002A E0                MOVX    A,@DPTR
002B 2F                ADD     A,R7
002C FF                MOV     R7,A
002D 900000      R     MOV     DPTR,#p
0030 E0                MOVX    A,@DPTR
0031 3E                ADDC    A,R6
0032 FE                MOV     R6,A
C51 COMPILER V9.53.0.0   TEMP                                                              12/06/2023 15:46:42 PAGE 36  

0033 900000      R     MOV     DPTR,#p+02H
0036 E0                MOVX    A,@DPTR
0037 FC                MOV     R4,A
0038 A3                INC     DPTR
0039 E0                MOVX    A,@DPTR
003A FD                MOV     R5,A
003B 120000      E     LCALL   _make_point
003E 7800        R     MOV     R0,#LOW p2
0040 7C00        R     MOV     R4,#HIGH p2
0042 7D01              MOV     R5,#01H
0044 7E00              MOV     R6,#00H
0046 7F04              MOV     R7,#04H
0048 120000      E     LCALL   ?C?COPY
                                           ; SOURCE LINE # 204
004B 900000      R     MOV     DPTR,#p+02H
004E E0                MOVX    A,@DPTR
004F FC                MOV     R4,A
0050 A3                INC     DPTR
0051 E0                MOVX    A,@DPTR
0052 FD                MOV     R5,A
0053 A3                INC     DPTR
0054 E0                MOVX    A,@DPTR
0055 FA                MOV     R2,A
0056 A3                INC     DPTR
0057 E0                MOVX    A,@DPTR
0058 FB                MOV     R3,A
0059 A3                INC     DPTR
005A E0                MOVX    A,@DPTR
005B FF                MOV     R7,A
005C A3                INC     DPTR
005D E0                MOVX    A,@DPTR
005E 900000      E     MOV     DPTR,#?_draw_line?BYTE+06H
0061 CF                XCH     A,R7
0062 F0                MOVX    @DPTR,A
0063 A3                INC     DPTR
0064 EF                MOV     A,R7
0065 F0                MOVX    @DPTR,A
0066 900000      R     MOV     DPTR,#LINE_HIGHT
0069 E4                CLR     A
006A 93                MOVC    A,@A+DPTR
006B 900000      E     MOV     DPTR,#?_draw_line?BYTE+08H
006E F0                MOVX    @DPTR,A
006F A3                INC     DPTR
0070 7407              MOV     A,#07H
0072 F0                MOVX    @DPTR,A
0073 A3                INC     DPTR
0074 74E0              MOV     A,#0E0H
0076 F0                MOVX    @DPTR,A
0077 900000      R     MOV     DPTR,#p
007A E0                MOVX    A,@DPTR
007B FE                MOV     R6,A
007C A3                INC     DPTR
007D E0                MOVX    A,@DPTR
007E FF                MOV     R7,A
007F 120000      E     LCALL   _draw_line
                                           ; SOURCE LINE # 206
0082 900000      R     MOV     DPTR,#p
0085 E0                MOVX    A,@DPTR
0086 FE                MOV     R6,A
0087 A3                INC     DPTR
0088 E0                MOVX    A,@DPTR
0089 FF                MOV     R7,A
C51 COMPILER V9.53.0.0   TEMP                                                              12/06/2023 15:46:42 PAGE 37  

008A 7800        R     MOV     R0,#LOW TIME_Y_LEVEL
008C E6                MOV     A,@R0
008D FC                MOV     R4,A
008E 08                INC     R0
008F E6                MOV     A,@R0
0090 FD                MOV     R5,A
0091 120000      E     LCALL   _make_point
0094 7800        R     MOV     R0,#LOW ?draw_number_wtih_touch_centered?BYTE
0096 7C00        R     MOV     R4,#HIGH ?draw_number_wtih_touch_centered?BYTE
0098 7D01              MOV     R5,#01H
009A 7E00              MOV     R6,#00H
009C 7F04              MOV     R7,#04H
009E 120000      E     LCALL   ?C?COPY
00A1 900000      R     MOV     DPTR,#?draw_number_wtih_touch_centered?BYTE+04H
00A4 E4                CLR     A
00A5 F0                MOVX    @DPTR,A
00A6 A3                INC     DPTR
00A7 741E              MOV     A,#01EH
00A9 F0                MOVX    @DPTR,A
00AA A3                INC     DPTR
00AB 7407              MOV     A,#07H
00AD F0                MOVX    @DPTR,A
00AE A3                INC     DPTR
00AF 74FF              MOV     A,#0FFH
00B1 F0                MOVX    @DPTR,A
00B2 A3                INC     DPTR
00B3 7421              MOV     A,#021H
00B5 F0                MOVX    @DPTR,A
00B6 120000      R     LCALL   draw_number_wtih_touch_centered
                                           ; SOURCE LINE # 207
00B9 7800        R     MOV     R0,#LOW ?draw_number_wtih_touch_centered?BYTE
00BB 7C00        R     MOV     R4,#HIGH ?draw_number_wtih_touch_centered?BYTE
00BD 7D01              MOV     R5,#01H
00BF 7B01              MOV     R3,#01H
00C1 7A00        R     MOV     R2,#HIGH p
00C3 7900        R     MOV     R1,#LOW p
00C5 7E00              MOV     R6,#00H
00C7 7F04              MOV     R7,#04H
00C9 120000      E     LCALL   ?C?COPY
00CC 7800        R     MOV     R0,#LOW FONT_SIZE
00CE E6                MOV     A,@R0
00CF FF                MOV     R7,A
00D0 08                INC     R0
00D1 E6                MOV     A,@R0
00D2 900000      R     MOV     DPTR,#?draw_number_wtih_touch_centered?BYTE+04H
00D5 CF                XCH     A,R7
00D6 F0                MOVX    @DPTR,A
00D7 A3                INC     DPTR
00D8 EF                MOV     A,R7
00D9 F0                MOVX    @DPTR,A
00DA A3                INC     DPTR
00DB 74FF              MOV     A,#0FFH
00DD F0                MOVX    @DPTR,A
00DE A3                INC     DPTR
00DF 74E0              MOV     A,#0E0H
00E1 F0                MOVX    @DPTR,A
00E2 A3                INC     DPTR
00E3 7420              MOV     A,#020H
00E5 F0                MOVX    @DPTR,A
00E6 120000      R     LCALL   draw_number_wtih_touch_centered
                                           ; SOURCE LINE # 209
00E9 7B01              MOV     R3,#01H
C51 COMPILER V9.53.0.0   TEMP                                                              12/06/2023 15:46:42 PAGE 38  

00EB 7A00        R     MOV     R2,#HIGH p2
00ED 7900        R     MOV     R1,#LOW p2
                                           ; SOURCE LINE # 210
00EF         ?C0012:
00EF 22                RET     
             ; FUNCTION add_i_t_impulse (END)

             ; FUNCTION add_t_down (BEGIN)
                                           ; SOURCE LINE # 212
                                           ; SOURCE LINE # 213
                                           ; SOURCE LINE # 215
0000 7800        R     MOV     R0,#LOW LINE_WIDTH
0002 E6                MOV     A,@R0
0003 FE                MOV     R6,A
0004 08                INC     R0
0005 E6                MOV     A,@R0
0006 FF                MOV     R7,A
0007 900000      R     MOV     DPTR,#p+01H
000A E0                MOVX    A,@DPTR
000B 2F                ADD     A,R7
000C FF                MOV     R7,A
000D 900000      R     MOV     DPTR,#p
0010 E0                MOVX    A,@DPTR
0011 3E                ADDC    A,R6
0012 FE                MOV     R6,A
0013 900000      R     MOV     DPTR,#LEVEL_HEIGHT
0016 E4                CLR     A
0017 93                MOVC    A,@A+DPTR
0018 FD                MOV     R5,A
0019 900000      R     MOV     DPTR,#p+03H
001C E0                MOVX    A,@DPTR
001D 2D                ADD     A,R5
001E FD                MOV     R5,A
001F 900000      R     MOV     DPTR,#p+02H
0022 E0                MOVX    A,@DPTR
0023 3400              ADDC    A,#00H
0025 FC                MOV     R4,A
0026 120000      E     LCALL   _make_point
0029 7800        R     MOV     R0,#LOW p2
002B 7C00        R     MOV     R4,#HIGH p2
002D 7D01              MOV     R5,#01H
002F 7E00              MOV     R6,#00H
0031 7F04              MOV     R7,#04H
0033 120000      E     LCALL   ?C?COPY
                                           ; SOURCE LINE # 217
0036 900000      R     MOV     DPTR,#p+01H
0039 E0                MOVX    A,@DPTR
003A 2401              ADD     A,#01H
003C FF                MOV     R7,A
003D 900000      R     MOV     DPTR,#p
0040 E0                MOVX    A,@DPTR
0041 3400              ADDC    A,#00H
0043 FE                MOV     R6,A
0044 C007              PUSH    AR7
0046 900000      R     MOV     DPTR,#p+02H
0049 E0                MOVX    A,@DPTR
004A FC                MOV     R4,A
004B A3                INC     DPTR
004C E0                MOVX    A,@DPTR
004D FD                MOV     R5,A
004E A3                INC     DPTR
004F E0                MOVX    A,@DPTR
C51 COMPILER V9.53.0.0   TEMP                                                              12/06/2023 15:46:42 PAGE 39  

0050 FA                MOV     R2,A
0051 A3                INC     DPTR
0052 E0                MOVX    A,@DPTR
0053 FB                MOV     R3,A
0054 A3                INC     DPTR
0055 E0                MOVX    A,@DPTR
0056 FF                MOV     R7,A
0057 A3                INC     DPTR
0058 E0                MOVX    A,@DPTR
0059 900000      E     MOV     DPTR,#?_draw_line?BYTE+06H
005C CF                XCH     A,R7
005D F0                MOVX    @DPTR,A
005E A3                INC     DPTR
005F EF                MOV     A,R7
0060 F0                MOVX    @DPTR,A
0061 900000      R     MOV     DPTR,#LINE_HIGHT
0064 E4                CLR     A
0065 93                MOVC    A,@A+DPTR
0066 900000      E     MOV     DPTR,#?_draw_line?BYTE+08H
0069 F0                MOVX    @DPTR,A
006A A3                INC     DPTR
006B 7407              MOV     A,#07H
006D F0                MOVX    @DPTR,A
006E A3                INC     DPTR
006F 74E0              MOV     A,#0E0H
0071 F0                MOVX    @DPTR,A
0072 D007              POP     AR7
0074 120000      E     LCALL   _draw_line
                                           ; SOURCE LINE # 219
0077 900000      R     MOV     DPTR,#p
007A E0                MOVX    A,@DPTR
007B FE                MOV     R6,A
007C A3                INC     DPTR
007D E0                MOVX    A,@DPTR
007E FF                MOV     R7,A
007F 7800        R     MOV     R0,#LOW TIME_Y_LEVEL
0081 E6                MOV     A,@R0
0082 FC                MOV     R4,A
0083 08                INC     R0
0084 E6                MOV     A,@R0
0085 FD                MOV     R5,A
0086 120000      E     LCALL   _make_point
0089 7800        R     MOV     R0,#LOW ?draw_number_wtih_touch_centered?BYTE
008B 7C00        R     MOV     R4,#HIGH ?draw_number_wtih_touch_centered?BYTE
008D 7D01              MOV     R5,#01H
008F 7E00              MOV     R6,#00H
0091 7F04              MOV     R7,#04H
0093 120000      E     LCALL   ?C?COPY
0096 900000      R     MOV     DPTR,#?draw_number_wtih_touch_centered?BYTE+04H
0099 E4                CLR     A
009A F0                MOVX    @DPTR,A
009B A3                INC     DPTR
009C 7424              MOV     A,#024H
009E F0                MOVX    @DPTR,A
009F A3                INC     DPTR
00A0 7407              MOV     A,#07H
00A2 F0                MOVX    @DPTR,A
00A3 A3                INC     DPTR
00A4 74FF              MOV     A,#0FFH
00A6 F0                MOVX    @DPTR,A
00A7 A3                INC     DPTR
00A8 7424              MOV     A,#024H
C51 COMPILER V9.53.0.0   TEMP                                                              12/06/2023 15:46:42 PAGE 40  

00AA F0                MOVX    @DPTR,A
00AB 120000      R     LCALL   draw_number_wtih_touch_centered
                                           ; SOURCE LINE # 220
00AE 7B01              MOV     R3,#01H
00B0 7A00        R     MOV     R2,#HIGH p2
00B2 7900        R     MOV     R1,#LOW p2
                                           ; SOURCE LINE # 221
00B4         ?C0013:
00B4 22                RET     
             ; FUNCTION add_t_down (END)

             ; FUNCTION add_end_i_t (BEGIN)
                                           ; SOURCE LINE # 223
                                           ; SOURCE LINE # 224
                                           ; SOURCE LINE # 226
0000 7800        R     MOV     R0,#LOW LINE_WIDTH
0002 E6                MOV     A,@R0
0003 FE                MOV     R6,A
0004 08                INC     R0
0005 E6                MOV     A,@R0
0006 FF                MOV     R7,A
0007 900000      R     MOV     DPTR,#p+01H
000A E0                MOVX    A,@DPTR
000B 2F                ADD     A,R7
000C FF                MOV     R7,A
000D 900000      R     MOV     DPTR,#p
0010 E0                MOVX    A,@DPTR
0011 3E                ADDC    A,R6
0012 FE                MOV     R6,A
0013 900000      R     MOV     DPTR,#p+02H
0016 E0                MOVX    A,@DPTR
0017 FC                MOV     R4,A
0018 A3                INC     DPTR
0019 E0                MOVX    A,@DPTR
001A FD                MOV     R5,A
001B 120000      E     LCALL   _make_point
001E 7800        R     MOV     R0,#LOW p2
0020 7C00        R     MOV     R4,#HIGH p2
0022 7D01              MOV     R5,#01H
0024 7E00              MOV     R6,#00H
0026 7F04              MOV     R7,#04H
0028 120000      E     LCALL   ?C?COPY
                                           ; SOURCE LINE # 228
002B 900000      R     MOV     DPTR,#p+02H
002E E0                MOVX    A,@DPTR
002F FC                MOV     R4,A
0030 A3                INC     DPTR
0031 E0                MOVX    A,@DPTR
0032 FD                MOV     R5,A
0033 A3                INC     DPTR
0034 E0                MOVX    A,@DPTR
0035 FA                MOV     R2,A
0036 A3                INC     DPTR
0037 E0                MOVX    A,@DPTR
0038 FB                MOV     R3,A
0039 A3                INC     DPTR
003A E0                MOVX    A,@DPTR
003B FF                MOV     R7,A
003C A3                INC     DPTR
003D E0                MOVX    A,@DPTR
003E 900000      E     MOV     DPTR,#?_draw_line?BYTE+06H
0041 CF                XCH     A,R7
C51 COMPILER V9.53.0.0   TEMP                                                              12/06/2023 15:46:42 PAGE 41  

0042 F0                MOVX    @DPTR,A
0043 A3                INC     DPTR
0044 EF                MOV     A,R7
0045 F0                MOVX    @DPTR,A
0046 900000      R     MOV     DPTR,#LINE_HIGHT
0049 E4                CLR     A
004A 93                MOVC    A,@A+DPTR
004B 900000      E     MOV     DPTR,#?_draw_line?BYTE+08H
004E F0                MOVX    @DPTR,A
004F A3                INC     DPTR
0050 7407              MOV     A,#07H
0052 F0                MOVX    @DPTR,A
0053 A3                INC     DPTR
0054 74E0              MOV     A,#0E0H
0056 F0                MOVX    @DPTR,A
0057 900000      R     MOV     DPTR,#p
005A E0                MOVX    A,@DPTR
005B FE                MOV     R6,A
005C A3                INC     DPTR
005D E0                MOVX    A,@DPTR
005E FF                MOV     R7,A
005F 120000      E     LCALL   _draw_line
                                           ; SOURCE LINE # 230
0062 900000      R     MOV     DPTR,#p
0065 E0                MOVX    A,@DPTR
0066 FE                MOV     R6,A
0067 A3                INC     DPTR
0068 E0                MOVX    A,@DPTR
0069 FF                MOV     R7,A
006A 7800        R     MOV     R0,#LOW TIME_Y_LEVEL
006C E6                MOV     A,@R0
006D FC                MOV     R4,A
006E 08                INC     R0
006F E6                MOV     A,@R0
0070 FD                MOV     R5,A
0071 120000      E     LCALL   _make_point
0074 7800        R     MOV     R0,#LOW ?draw_number_wtih_touch_centered?BYTE
0076 7C00        R     MOV     R4,#HIGH ?draw_number_wtih_touch_centered?BYTE
0078 7D01              MOV     R5,#01H
007A 7E00              MOV     R6,#00H
007C 7F04              MOV     R7,#04H
007E 120000      E     LCALL   ?C?COPY
0081 900000      R     MOV     DPTR,#?draw_number_wtih_touch_centered?BYTE+04H
0084 E4                CLR     A
0085 F0                MOVX    @DPTR,A
0086 A3                INC     DPTR
0087 7424              MOV     A,#024H
0089 F0                MOVX    @DPTR,A
008A A3                INC     DPTR
008B 7407              MOV     A,#07H
008D F0                MOVX    @DPTR,A
008E A3                INC     DPTR
008F 74FF              MOV     A,#0FFH
0091 F0                MOVX    @DPTR,A
0092 A3                INC     DPTR
0093 7426              MOV     A,#026H
0095 F0                MOVX    @DPTR,A
0096 120000      R     LCALL   draw_number_wtih_touch_centered
                                           ; SOURCE LINE # 231
0099 7800        R     MOV     R0,#LOW ?draw_number_wtih_touch_centered?BYTE
009B 7C00        R     MOV     R4,#HIGH ?draw_number_wtih_touch_centered?BYTE
009D 7D01              MOV     R5,#01H
C51 COMPILER V9.53.0.0   TEMP                                                              12/06/2023 15:46:42 PAGE 42  

009F 7B01              MOV     R3,#01H
00A1 7A00        R     MOV     R2,#HIGH p
00A3 7900        R     MOV     R1,#LOW p
00A5 7E00              MOV     R6,#00H
00A7 7F04              MOV     R7,#04H
00A9 120000      E     LCALL   ?C?COPY
00AC 7800        R     MOV     R0,#LOW FONT_SIZE
00AE E6                MOV     A,@R0
00AF FF                MOV     R7,A
00B0 08                INC     R0
00B1 E6                MOV     A,@R0
00B2 900000      R     MOV     DPTR,#?draw_number_wtih_touch_centered?BYTE+04H
00B5 CF                XCH     A,R7
00B6 F0                MOVX    @DPTR,A
00B7 A3                INC     DPTR
00B8 EF                MOV     A,R7
00B9 F0                MOVX    @DPTR,A
00BA A3                INC     DPTR
00BB 74FF              MOV     A,#0FFH
00BD F0                MOVX    @DPTR,A
00BE A3                INC     DPTR
00BF 74E0              MOV     A,#0E0H
00C1 F0                MOVX    @DPTR,A
00C2 A3                INC     DPTR
00C3 7425              MOV     A,#025H
00C5 F0                MOVX    @DPTR,A
00C6 120000      R     LCALL   draw_number_wtih_touch_centered
                                           ; SOURCE LINE # 232
00C9 7B01              MOV     R3,#01H
00CB 7A00        R     MOV     R2,#HIGH p2
00CD 7900        R     MOV     R1,#LOW p2
                                           ; SOURCE LINE # 233
00CF         ?C0014:
00CF 22                RET     
             ; FUNCTION add_end_i_t (END)

             ; FUNCTION add_t_postflow (BEGIN)
                                           ; SOURCE LINE # 235
                                           ; SOURCE LINE # 236
                                           ; SOURCE LINE # 238
0000 7800        R     MOV     R0,#LOW LINE_WIDTH
0002 E6                MOV     A,@R0
0003 FE                MOV     R6,A
0004 08                INC     R0
0005 E6                MOV     A,@R0
0006 FF                MOV     R7,A
0007 900000      R     MOV     DPTR,#p+01H
000A E0                MOVX    A,@DPTR
000B 2F                ADD     A,R7
000C FF                MOV     R7,A
000D 900000      R     MOV     DPTR,#p
0010 E0                MOVX    A,@DPTR
0011 3E                ADDC    A,R6
0012 FE                MOV     R6,A
0013 900000      R     MOV     DPTR,#p+02H
0016 E0                MOVX    A,@DPTR
0017 FC                MOV     R4,A
0018 A3                INC     DPTR
0019 E0                MOVX    A,@DPTR
001A FD                MOV     R5,A
001B 120000      E     LCALL   _make_point
001E 7800        R     MOV     R0,#LOW p2
C51 COMPILER V9.53.0.0   TEMP                                                              12/06/2023 15:46:42 PAGE 43  

0020 7C00        R     MOV     R4,#HIGH p2
0022 7D01              MOV     R5,#01H
0024 7E00              MOV     R6,#00H
0026 7F04              MOV     R7,#04H
0028 120000      E     LCALL   ?C?COPY
                                           ; SOURCE LINE # 240
002B 900000      R     MOV     DPTR,#p+02H
002E E0                MOVX    A,@DPTR
002F FC                MOV     R4,A
0030 A3                INC     DPTR
0031 E0                MOVX    A,@DPTR
0032 FD                MOV     R5,A
0033 A3                INC     DPTR
0034 E0                MOVX    A,@DPTR
0035 FA                MOV     R2,A
0036 A3                INC     DPTR
0037 E0                MOVX    A,@DPTR
0038 FB                MOV     R3,A
0039 A3                INC     DPTR
003A E0                MOVX    A,@DPTR
003B FF                MOV     R7,A
003C A3                INC     DPTR
003D E0                MOVX    A,@DPTR
003E 900000      E     MOV     DPTR,#?_draw_line?BYTE+06H
0041 CF                XCH     A,R7
0042 F0                MOVX    @DPTR,A
0043 A3                INC     DPTR
0044 EF                MOV     A,R7
0045 F0                MOVX    @DPTR,A
0046 900000      R     MOV     DPTR,#LINE_HIGHT
0049 E4                CLR     A
004A 93                MOVC    A,@A+DPTR
004B 900000      E     MOV     DPTR,#?_draw_line?BYTE+08H
004E F0                MOVX    @DPTR,A
004F A3                INC     DPTR
0050 7407              MOV     A,#07H
0052 F0                MOVX    @DPTR,A
0053 A3                INC     DPTR
0054 74E0              MOV     A,#0E0H
0056 F0                MOVX    @DPTR,A
0057 900000      R     MOV     DPTR,#p
005A E0                MOVX    A,@DPTR
005B FE                MOV     R6,A
005C A3                INC     DPTR
005D E0                MOVX    A,@DPTR
005E FF                MOV     R7,A
005F 120000      E     LCALL   _draw_line
                                           ; SOURCE LINE # 242
0062 900000      R     MOV     DPTR,#p
0065 E0                MOVX    A,@DPTR
0066 FE                MOV     R6,A
0067 A3                INC     DPTR
0068 E0                MOVX    A,@DPTR
0069 FF                MOV     R7,A
006A 7800        R     MOV     R0,#LOW TIME_Y_LEVEL
006C E6                MOV     A,@R0
006D FC                MOV     R4,A
006E 08                INC     R0
006F E6                MOV     A,@R0
0070 FD                MOV     R5,A
0071 120000      E     LCALL   _make_point
0074 7800        R     MOV     R0,#LOW ?draw_number_wtih_touch_centered?BYTE
C51 COMPILER V9.53.0.0   TEMP                                                              12/06/2023 15:46:42 PAGE 44  

0076 7C00        R     MOV     R4,#HIGH ?draw_number_wtih_touch_centered?BYTE
0078 7D01              MOV     R5,#01H
007A 7E00              MOV     R6,#00H
007C 7F04              MOV     R7,#04H
007E 120000      E     LCALL   ?C?COPY
0081 900000      R     MOV     DPTR,#?draw_number_wtih_touch_centered?BYTE+04H
0084 E4                CLR     A
0085 F0                MOVX    @DPTR,A
0086 A3                INC     DPTR
0087 7424              MOV     A,#024H
0089 F0                MOVX    @DPTR,A
008A A3                INC     DPTR
008B 7407              MOV     A,#07H
008D F0                MOVX    @DPTR,A
008E A3                INC     DPTR
008F 74FF              MOV     A,#0FFH
0091 F0                MOVX    @DPTR,A
0092 A3                INC     DPTR
0093 7427              MOV     A,#027H
0095 F0                MOVX    @DPTR,A
0096 120000      R     LCALL   draw_number_wtih_touch_centered
                                           ; SOURCE LINE # 243
0099 7B01              MOV     R3,#01H
009B 7A00        R     MOV     R2,#HIGH p2
009D 7900        R     MOV     R1,#LOW p2
                                           ; SOURCE LINE # 244
009F         ?C0015:
009F 22                RET     
             ; FUNCTION add_t_postflow (END)

             ; FUNCTION add_i_kz (BEGIN)
                                           ; SOURCE LINE # 247
                                           ; SOURCE LINE # 248
                                           ; SOURCE LINE # 250
0000 7800        R     MOV     R0,#LOW LINE_WIDTH
0002 E6                MOV     A,@R0
0003 FE                MOV     R6,A
0004 08                INC     R0
0005 E6                MOV     A,@R0
0006 FF                MOV     R7,A
0007 900000      R     MOV     DPTR,#p+01H
000A E0                MOVX    A,@DPTR
000B 2F                ADD     A,R7
000C FF                MOV     R7,A
000D 900000      R     MOV     DPTR,#p
0010 E0                MOVX    A,@DPTR
0011 3E                ADDC    A,R6
0012 FE                MOV     R6,A
0013 900000      R     MOV     DPTR,#LEVEL_HEIGHT
0016 E4                CLR     A
0017 93                MOVC    A,@A+DPTR
0018 FD                MOV     R5,A
0019 C3                CLR     C
001A 900000      R     MOV     DPTR,#p+03H
001D E0                MOVX    A,@DPTR
001E 9D                SUBB    A,R5
001F FD                MOV     R5,A
0020 900000      R     MOV     DPTR,#p+02H
0023 E0                MOVX    A,@DPTR
0024 9400              SUBB    A,#00H
0026 FC                MOV     R4,A
0027 120000      E     LCALL   _make_point
C51 COMPILER V9.53.0.0   TEMP                                                              12/06/2023 15:46:42 PAGE 45  

002A 7800        R     MOV     R0,#LOW p2
002C 7C00        R     MOV     R4,#HIGH p2
002E 7D01              MOV     R5,#01H
0030 7E00              MOV     R6,#00H
0032 7F04              MOV     R7,#04H
0034 120000      E     LCALL   ?C?COPY
                                           ; SOURCE LINE # 251
0037 900000      R     MOV     DPTR,#p+02H
003A E0                MOVX    A,@DPTR
003B FC                MOV     R4,A
003C A3                INC     DPTR
003D E0                MOVX    A,@DPTR
003E FD                MOV     R5,A
003F A3                INC     DPTR
0040 E0                MOVX    A,@DPTR
0041 FA                MOV     R2,A
0042 A3                INC     DPTR
0043 E0                MOVX    A,@DPTR
0044 FB                MOV     R3,A
0045 A3                INC     DPTR
0046 E0                MOVX    A,@DPTR
0047 FF                MOV     R7,A
0048 A3                INC     DPTR
0049 E0                MOVX    A,@DPTR
004A 900000      E     MOV     DPTR,#?_draw_line?BYTE+06H
004D CF                XCH     A,R7
004E F0                MOVX    @DPTR,A
004F A3                INC     DPTR
0050 EF                MOV     A,R7
0051 F0                MOVX    @DPTR,A
0052 900000      R     MOV     DPTR,#LINE_HIGHT
0055 E4                CLR     A
0056 93                MOVC    A,@A+DPTR
0057 900000      E     MOV     DPTR,#?_draw_line?BYTE+08H
005A F0                MOVX    @DPTR,A
005B A3                INC     DPTR
005C 7407              MOV     A,#07H
005E F0                MOVX    @DPTR,A
005F A3                INC     DPTR
0060 74E0              MOV     A,#0E0H
0062 F0                MOVX    @DPTR,A
0063 900000      R     MOV     DPTR,#p
0066 E0                MOVX    A,@DPTR
0067 FE                MOV     R6,A
0068 A3                INC     DPTR
0069 E0                MOVX    A,@DPTR
006A FF                MOV     R7,A
006B 120000      E     LCALL   _draw_line
                                           ; SOURCE LINE # 253
006E 900000      R     MOV     DPTR,#p
0071 E0                MOVX    A,@DPTR
0072 FE                MOV     R6,A
0073 A3                INC     DPTR
0074 E0                MOVX    A,@DPTR
0075 FF                MOV     R7,A
0076 900000      R     MOV     DPTR,#p2+02H
0079 E0                MOVX    A,@DPTR
007A FC                MOV     R4,A
007B A3                INC     DPTR
007C E0                MOVX    A,@DPTR
007D FD                MOV     R5,A
007E 120000      E     LCALL   _make_point
C51 COMPILER V9.53.0.0   TEMP                                                              12/06/2023 15:46:42 PAGE 46  

0081 7800        R     MOV     R0,#LOW ?draw_number_wtih_touch_centered?BYTE
0083 7C00        R     MOV     R4,#HIGH ?draw_number_wtih_touch_centered?BYTE
0085 7D01              MOV     R5,#01H
0087 7E00              MOV     R6,#00H
0089 7F04              MOV     R7,#04H
008B 120000      E     LCALL   ?C?COPY
008E 7800        R     MOV     R0,#LOW FONT_SIZE
0090 E6                MOV     A,@R0
0091 FF                MOV     R7,A
0092 08                INC     R0
0093 E6                MOV     A,@R0
0094 900000      R     MOV     DPTR,#?draw_number_wtih_touch_centered?BYTE+04H
0097 CF                XCH     A,R7
0098 F0                MOVX    @DPTR,A
0099 A3                INC     DPTR
009A EF                MOV     A,R7
009B F0                MOVX    @DPTR,A
009C A3                INC     DPTR
009D 74FF              MOV     A,#0FFH
009F F0                MOVX    @DPTR,A
00A0 A3                INC     DPTR
00A1 74E0              MOV     A,#0E0H
00A3 F0                MOVX    @DPTR,A
00A4 A3                INC     DPTR
00A5 7428              MOV     A,#028H
00A7 F0                MOVX    @DPTR,A
00A8 120000      R     LCALL   draw_number_wtih_touch_centered
                                           ; SOURCE LINE # 254
00AB 7B01              MOV     R3,#01H
00AD 7A00        R     MOV     R2,#HIGH p2
00AF 7900        R     MOV     R1,#LOW p2
                                           ; SOURCE LINE # 255
00B1         ?C0016:
00B1 22                RET     
             ; FUNCTION add_i_kz (END)

             ; FUNCTION make_bottom_menu (BEGIN)
                                           ; SOURCE LINE # 262
                                           ; SOURCE LINE # 263
                                           ; SOURCE LINE # 264
0000 E4                CLR     A
0001 900000      R     MOV     DPTR,#cur_menu_size
0004 F0                MOVX    @DPTR,A
                                           ; SOURCE LINE # 265
                                           ; SOURCE LINE # 268
0005 900000      R     MOV     DPTR,#start_x
0008 F0                MOVX    @DPTR,A
0009 A3                INC     DPTR
000A F0                MOVX    @DPTR,A
                                           ; SOURCE LINE # 269
000B 900000      R     MOV     DPTR,#ICON_RECT_SZ
000E 93                MOVC    A,@A+DPTR
000F FE                MOV     R6,A
0010 7401              MOV     A,#01H
0012 93                MOVC    A,@A+DPTR
0013 FF                MOV     R7,A
0014 C3                CLR     C
0015 7420              MOV     A,#020H
0017 9F                SUBB    A,R7
0018 900000      R     MOV     DPTR,#start_y+01H
001B F0                MOVX    @DPTR,A
001C 7403              MOV     A,#03H
C51 COMPILER V9.53.0.0   TEMP                                                              12/06/2023 15:46:42 PAGE 47  

001E 9E                SUBB    A,R6
001F 900000      R     MOV     DPTR,#start_y
0022 F0                MOVX    @DPTR,A
                                           ; SOURCE LINE # 270
0023 7800        R     MOV     R0,#LOW main_menu_bm
0025 120000      E     LCALL   ?C?LLDIDATA
0028 900000      R     MOV     DPTR,#id_bm
002B 120000      E     LCALL   ?C?LSTXDATA
                                           ; SOURCE LINE # 271
002E E4                CLR     A
002F 900000      R     MOV     DPTR,#id
0032 F0                MOVX    @DPTR,A
                                           ; SOURCE LINE # 272
0033 900000      R     MOV     DPTR,#i
0036 F0                MOVX    @DPTR,A
0037         ?C0017:
                                           ; SOURCE LINE # 273
0037 E4                CLR     A
0038 FF                MOV     R7,A
0039 FE                MOV     R6,A
003A FD                MOV     R5,A
003B FC                MOV     R4,A
003C 900000      R     MOV     DPTR,#id_bm
003F E0                MOVX    A,@DPTR
0040 F8                MOV     R0,A
0041 A3                INC     DPTR
0042 E0                MOVX    A,@DPTR
0043 F9                MOV     R1,A
0044 A3                INC     DPTR
0045 E0                MOVX    A,@DPTR
0046 FA                MOV     R2,A
0047 A3                INC     DPTR
0048 E0                MOVX    A,@DPTR
0049 FB                MOV     R3,A
004A C3                CLR     C
004B 120000      E     LCALL   ?C?ULCMP
004E 7003              JNZ     $ + 5H
0050 020000      R     LJMP    ?C0018
                                           ; SOURCE LINE # 274
0053 900000      R     MOV     DPTR,#id_bm
0056 A3                INC     DPTR
0057 A3                INC     DPTR
0058 A3                INC     DPTR
0059 E0                MOVX    A,@DPTR
005A 5401              ANL     A,#01H
005C FF                MOV     R7,A
005D EF                MOV     A,R7
005E 7003              JNZ     $ + 5H
0060 020000      R     LJMP    ?C0019
                                           ; SOURCE LINE # 275
0063 900000      R     MOV     DPTR,#start_y
0066 E0                MOVX    A,@DPTR
0067 FC                MOV     R4,A
0068 A3                INC     DPTR
0069 E0                MOVX    A,@DPTR
006A FD                MOV     R5,A
006B 900000      R     MOV     DPTR,#ICON_RECT_SZ
006E E4                CLR     A
006F 93                MOVC    A,@A+DPTR
0070 FE                MOV     R6,A
0071 7401              MOV     A,#01H
0073 93                MOVC    A,@A+DPTR
C51 COMPILER V9.53.0.0   TEMP                                                              12/06/2023 15:46:42 PAGE 48  

0074 FF                MOV     R7,A
0075 900000      R     MOV     DPTR,#start_x
0078 E0                MOVX    A,@DPTR
0079 FA                MOV     R2,A
007A A3                INC     DPTR
007B E0                MOVX    A,@DPTR
007C 2F                ADD     A,R7
007D FB                MOV     R3,A
007E EA                MOV     A,R2
007F 3E                ADDC    A,R6
0080 FA                MOV     R2,A
0081 900000      R     MOV     DPTR,#start_y
0084 E0                MOVX    A,@DPTR
0085 F8                MOV     R0,A
0086 A3                INC     DPTR
0087 E0                MOVX    A,@DPTR
0088 2F                ADD     A,R7
0089 FF                MOV     R7,A
008A E8                MOV     A,R0
008B 3E                ADDC    A,R6
008C 900000      R     MOV     DPTR,#?_add_touch_place?BYTE+06H
008F F0                MOVX    @DPTR,A
0090 A3                INC     DPTR
0091 EF                MOV     A,R7
0092 F0                MOVX    @DPTR,A
0093 900000      R     MOV     DPTR,#id
0096 120000      R     LCALL   L?0219
                                           ; SOURCE LINE # 276
0099 900000      R     MOV     DPTR,#i
009C E0                MOVX    A,@DPTR
009D 25E0              ADD     A,ACC
009F 2400        R     ADD     A,#LOW icon_sp_bottom_menu
00A1 F582              MOV     DPL,A
00A3 E4                CLR     A
00A4 3400        R     ADDC    A,#HIGH icon_sp_bottom_menu
00A6 F583              MOV     DPH,A
00A8 E0                MOVX    A,@DPTR
00A9 FE                MOV     R6,A
00AA A3                INC     DPTR
00AB E0                MOVX    A,@DPTR
00AC FF                MOV     R7,A
00AD 900000      R     MOV     DPTR,#id
00B0 E0                MOVX    A,@DPTR
00B1 FD                MOV     R5,A
00B2 7C00              MOV     R4,#00H
00B4 120000      E     LCALL   _image_change_id
                                           ; SOURCE LINE # 277
00B7 900000      R     MOV     DPTR,#i
00BA E0                MOVX    A,@DPTR
00BB 25E0              ADD     A,ACC
00BD 2400        R     ADD     A,#LOW icon_sp_bottom_menu
00BF F582              MOV     DPL,A
00C1 E4                CLR     A
00C2 3400        R     ADDC    A,#HIGH icon_sp_bottom_menu
00C4 F583              MOV     DPH,A
00C6 E0                MOVX    A,@DPTR
00C7 FE                MOV     R6,A
00C8 A3                INC     DPTR
00C9 E0                MOVX    A,@DPTR
00CA FF                MOV     R7,A
00CB C006              PUSH    AR6
00CD C007              PUSH    AR7
C51 COMPILER V9.53.0.0   TEMP                                                              12/06/2023 15:46:42 PAGE 49  

00CF 900000      R     MOV     DPTR,#start_x
00D2 E0                MOVX    A,@DPTR
00D3 FE                MOV     R6,A
00D4 A3                INC     DPTR
00D5 E0                MOVX    A,@DPTR
00D6 FF                MOV     R7,A
00D7 A3                INC     DPTR
00D8 E0                MOVX    A,@DPTR
00D9 FC                MOV     R4,A
00DA A3                INC     DPTR
00DB E0                MOVX    A,@DPTR
00DC FD                MOV     R5,A
00DD 120000      E     LCALL   _make_point
00E0 7800        E     MOV     R0,#LOW ?_image_change_pos?BYTE+02H
00E2 7C00        E     MOV     R4,#HIGH ?_image_change_pos?BYTE+02H
00E4 7D01              MOV     R5,#01H
00E6 7E00              MOV     R6,#00H
00E8 7F04              MOV     R7,#04H
00EA 120000      E     LCALL   ?C?COPY
00ED D007              POP     AR7
00EF D006              POP     AR6
00F1 120000      E     LCALL   _image_change_pos
                                           ; SOURCE LINE # 278
00F4 900000      R     MOV     DPTR,#ICON_RECT_SZ
00F7 E4                CLR     A
00F8 93                MOVC    A,@A+DPTR
00F9 FE                MOV     R6,A
00FA 7401              MOV     A,#01H
00FC 93                MOVC    A,@A+DPTR
00FD FF                MOV     R7,A
00FE 900000      R     MOV     DPTR,#start_x+01H
0101 E0                MOVX    A,@DPTR
0102 2F                ADD     A,R7
0103 F0                MOVX    @DPTR,A
0104 900000      R     MOV     DPTR,#start_x
0107 E0                MOVX    A,@DPTR
0108 3E                ADDC    A,R6
0109 F0                MOVX    @DPTR,A
                                           ; SOURCE LINE # 279
010A 900000      R     MOV     DPTR,#i
010D E0                MOVX    A,@DPTR
010E 04                INC     A
010F F0                MOVX    @DPTR,A
                                           ; SOURCE LINE # 280
0110         ?C0019:
                                           ; SOURCE LINE # 281
0110 900000      R     MOV     DPTR,#id_bm
0113 E0                MOVX    A,@DPTR
0114 FC                MOV     R4,A
0115 A3                INC     DPTR
0116 E0                MOVX    A,@DPTR
0117 FD                MOV     R5,A
0118 A3                INC     DPTR
0119 E0                MOVX    A,@DPTR
011A FE                MOV     R6,A
011B A3                INC     DPTR
011C E0                MOVX    A,@DPTR
011D FF                MOV     R7,A
011E 7801              MOV     R0,#01H
0120 120000      E     LCALL   ?C?ULSHR
0123 900000      R     MOV     DPTR,#id_bm
0126 120000      E     LCALL   ?C?LSTXDATA
C51 COMPILER V9.53.0.0   TEMP                                                              12/06/2023 15:46:42 PAGE 50  

                                           ; SOURCE LINE # 282
0129 900000      R     MOV     DPTR,#id
012C E0                MOVX    A,@DPTR
012D 04                INC     A
012E F0                MOVX    @DPTR,A
                                           ; SOURCE LINE # 283
012F 020000      R     LJMP    ?C0017
0132         ?C0018:
                                           ; SOURCE LINE # 285
0132 900000      R     MOV     DPTR,#start_y
0135 E0                MOVX    A,@DPTR
0136 FC                MOV     R4,A
0137 A3                INC     DPTR
0138 E0                MOVX    A,@DPTR
0139 FD                MOV     R5,A
013A 900000      R     MOV     DPTR,#ICON_RECT_SZ
013D E4                CLR     A
013E 93                MOVC    A,@A+DPTR
013F FE                MOV     R6,A
0140 7401              MOV     A,#01H
0142 93                MOVC    A,@A+DPTR
0143 FF                MOV     R7,A
0144 120000      R     LCALL   L?0218
                                           ; SOURCE LINE # 287
0147 900000      R     MOV     DPTR,#ICON_RECT_SZ
014A E4                CLR     A
014B 93                MOVC    A,@A+DPTR
014C FE                MOV     R6,A
014D 7401              MOV     A,#01H
014F 93                MOVC    A,@A+DPTR
0150 FF                MOV     R7,A
0151 900000      R     MOV     DPTR,#start_x+01H
0154 E0                MOVX    A,@DPTR
0155 2F                ADD     A,R7
0156 F0                MOVX    @DPTR,A
0157 900000      R     MOV     DPTR,#start_x
015A E0                MOVX    A,@DPTR
015B 3E                ADDC    A,R6
015C F0                MOVX    @DPTR,A
                                           ; SOURCE LINE # 288
015D 900000      R     MOV     DPTR,#start_y
0160 E0                MOVX    A,@DPTR
0161 FC                MOV     R4,A
0162 A3                INC     DPTR
0163 E0                MOVX    A,@DPTR
0164 FD                MOV     R5,A
0165 120000      R     LCALL   L?0218
                                           ; SOURCE LINE # 289
0168 900000      R     MOV     DPTR,#i
016B E0                MOVX    A,@DPTR
016C 25E0              ADD     A,ACC
016E 2400        R     ADD     A,#LOW icon_sp_bottom_menu
0170 F582              MOV     DPL,A
0172 E4                CLR     A
0173 3400        R     ADDC    A,#HIGH icon_sp_bottom_menu
0175 F583              MOV     DPH,A
0177 E0                MOVX    A,@DPTR
0178 FE                MOV     R6,A
0179 A3                INC     DPTR
017A E0                MOVX    A,@DPTR
017B FF                MOV     R7,A
017C E4                CLR     A
C51 COMPILER V9.53.0.0   TEMP                                                              12/06/2023 15:46:42 PAGE 51  

017D FD                MOV     R5,A
017E FC                MOV     R4,A
017F 120000      E     LCALL   _image_change_id
                                           ; SOURCE LINE # 290
0182 900000      R     MOV     DPTR,#i
0185 E0                MOVX    A,@DPTR
0186 25E0              ADD     A,ACC
0188 2400        R     ADD     A,#LOW icon_sp_bottom_menu
018A F582              MOV     DPL,A
018C E4                CLR     A
018D 3400        R     ADDC    A,#HIGH icon_sp_bottom_menu
018F F583              MOV     DPH,A
0191 E0                MOVX    A,@DPTR
0192 FE                MOV     R6,A
0193 A3                INC     DPTR
0194 E0                MOVX    A,@DPTR
0195 FF                MOV     R7,A
0196 C006              PUSH    AR6
0198 C007              PUSH    AR7
019A 900000      R     MOV     DPTR,#start_x
019D E0                MOVX    A,@DPTR
019E FE                MOV     R6,A
019F A3                INC     DPTR
01A0 E0                MOVX    A,@DPTR
01A1 FF                MOV     R7,A
01A2 A3                INC     DPTR
01A3 E0                MOVX    A,@DPTR
01A4 FC                MOV     R4,A
01A5 A3                INC     DPTR
01A6 E0                MOVX    A,@DPTR
01A7 FD                MOV     R5,A
01A8 120000      E     LCALL   _make_point
01AB 7800        E     MOV     R0,#LOW ?_image_change_pos?BYTE+02H
01AD 7C00        E     MOV     R4,#HIGH ?_image_change_pos?BYTE+02H
01AF 7D01              MOV     R5,#01H
01B1 7E00              MOV     R6,#00H
01B3 7F04              MOV     R7,#04H
01B5 120000      E     LCALL   ?C?COPY
01B8 D007              POP     AR7
01BA D006              POP     AR6
01BC 120000      E     LCALL   _image_change_pos
                                           ; SOURCE LINE # 292
01BF E4                CLR     A
01C0 900000      R     MOV     DPTR,#i
01C3 F0                MOVX    @DPTR,A
01C4         ?C0020:
                                           ; SOURCE LINE # 293
01C4 E4                CLR     A
01C5 900000      R     MOV     DPTR,#?_add_touch_place?BYTE+06H
01C8 F0                MOVX    @DPTR,A
01C9 A3                INC     DPTR
01CA F0                MOVX    @DPTR,A
01CB A3                INC     DPTR
01CC F0                MOVX    @DPTR,A
01CD FB                MOV     R3,A
01CE FA                MOV     R2,A
01CF FD                MOV     R5,A
01D0 FC                MOV     R4,A
01D1 FF                MOV     R7,A
01D2 FE                MOV     R6,A
01D3 120000      R     LCALL   _add_touch_place
                                           ; SOURCE LINE # 294
C51 COMPILER V9.53.0.0   TEMP                                                              12/06/2023 15:46:42 PAGE 52  

01D6 900000      R     MOV     DPTR,#i
01D9 E0                MOVX    A,@DPTR
01DA 04                INC     A
01DB F0                MOVX    @DPTR,A
01DC E0                MOVX    A,@DPTR
01DD C3                CLR     C
01DE 9406              SUBB    A,#06H
01E0 40E2              JC      ?C0020
01E2         ?C0021:
                                           ; SOURCE LINE # 296
01E2 900000      R     MOV     DPTR,#_cur_menu_fanc
01E5 74FF              MOV     A,#0FFH
01E7 F0                MOVX    @DPTR,A
01E8 A3                INC     DPTR
01E9 7400        R     MOV     A,#HIGH _bottom_level_controls
01EB F0                MOVX    @DPTR,A
01EC A3                INC     DPTR
01ED 7400        R     MOV     A,#LOW _bottom_level_controls
01EF F0                MOVX    @DPTR,A
                                           ; SOURCE LINE # 297
                                           ; SOURCE LINE # 298
01F0 22                RET     
             ; FUNCTION make_bottom_menu (END)

             ; FUNCTION _bottom_level_controls (BEGIN)
                                           ; SOURCE LINE # 304
0000 900000      R     MOV     DPTR,#item_pos
0003 EF                MOV     A,R7
0004 F0                MOVX    @DPTR,A
                                           ; SOURCE LINE # 305
                                           ; SOURCE LINE # 306
0005 A3                INC     DPTR
0006 120000      E     LCALL   ?C?LSTKXDATA
0009 00                DB      00H
000A 00                DB      00H
000B 00                DB      00H
000C 00                DB      00H
                                           ; SOURCE LINE # 313
000D 900000      R     MOV     DPTR,#i
0010 740A              MOV     A,#0AH
0012 F0                MOVX    @DPTR,A
0013         ?C0024:
0013 900000      R     MOV     DPTR,#i
0016 E0                MOVX    A,@DPTR
0017 FF                MOV     R7,A
0018 C3                CLR     C
0019 9410              SUBB    A,#010H
001B 5070              JNC     ?C0025
                                           ; SOURCE LINE # 314
001D EF                MOV     A,R7
001E 25E0              ADD     A,ACC
0020 2400        R     ADD     A,#LOW icon_sp_bottom_menu
0022 F582              MOV     DPL,A
0024 E4                CLR     A
0025 3400        R     ADDC    A,#HIGH icon_sp_bottom_menu
0027 F583              MOV     DPH,A
0029 E0                MOVX    A,@DPTR
002A FE                MOV     R6,A
002B A3                INC     DPTR
002C E0                MOVX    A,@DPTR
002D FF                MOV     R7,A
002E 74FF              MOV     A,#0FFH
C51 COMPILER V9.53.0.0   TEMP                                                              12/06/2023 15:46:42 PAGE 53  

0030 FD                MOV     R5,A
0031 FC                MOV     R4,A
0032 120000      E     LCALL   _image_change_id
                                           ; SOURCE LINE # 315
0035 900000      R     MOV     DPTR,#i
0038 E0                MOVX    A,@DPTR
0039 FF                MOV     R7,A
003A 75F009            MOV     B,#09H
003D A4                MUL     AB
003E 2400        R     ADD     A,#LOW cur_menu+01H
0040 F582              MOV     DPL,A
0042 E5F0              MOV     A,B
0044 3400        R     ADDC    A,#HIGH cur_menu+01H
0046 F583              MOV     DPH,A
0048 E4                CLR     A
0049 F0                MOVX    @DPTR,A
004A A3                INC     DPTR
004B F0                MOVX    @DPTR,A
                                           ; SOURCE LINE # 316
004C 75F009            MOV     B,#09H
004F EF                MOV     A,R7
0050 A4                MUL     AB
0051 2400        R     ADD     A,#LOW cur_menu+03H
0053 F582              MOV     DPL,A
0055 E5F0              MOV     A,B
0057 3400        R     ADDC    A,#HIGH cur_menu+03H
0059 F583              MOV     DPH,A
005B E4                CLR     A
005C F0                MOVX    @DPTR,A
005D A3                INC     DPTR
005E F0                MOVX    @DPTR,A
                                           ; SOURCE LINE # 317
005F 75F009            MOV     B,#09H
0062 EF                MOV     A,R7
0063 A4                MUL     AB
0064 2400        R     ADD     A,#LOW cur_menu+05H
0066 F582              MOV     DPL,A
0068 E5F0              MOV     A,B
006A 3400        R     ADDC    A,#HIGH cur_menu+05H
006C F583              MOV     DPH,A
006E E4                CLR     A
006F F0                MOVX    @DPTR,A
0070 A3                INC     DPTR
0071 F0                MOVX    @DPTR,A
                                           ; SOURCE LINE # 318
0072 75F009            MOV     B,#09H
0075 EF                MOV     A,R7
0076 A4                MUL     AB
0077 2400        R     ADD     A,#LOW cur_menu+07H
0079 F582              MOV     DPL,A
007B E5F0              MOV     A,B
007D 3400        R     ADDC    A,#HIGH cur_menu+07H
007F F583              MOV     DPH,A
0081 E4                CLR     A
0082 F0                MOVX    @DPTR,A
0083 A3                INC     DPTR
0084 F0                MOVX    @DPTR,A
                                           ; SOURCE LINE # 319
0085 900000      R     MOV     DPTR,#i
0088 E0                MOVX    A,@DPTR
0089 04                INC     A
008A F0                MOVX    @DPTR,A
C51 COMPILER V9.53.0.0   TEMP                                                              12/06/2023 15:46:42 PAGE 54  

008B 8086              SJMP    ?C0024
008D         ?C0025:
                                           ; SOURCE LINE # 321
008D 900000      R     MOV     DPTR,#item_pos
0090 E0                MOVX    A,@DPTR
0091 C3                CLR     C
0092 9408              SUBB    A,#08H
0094 4003              JC      $ + 5H
0096 020000      R     LJMP    ?C0027
                                           ; SOURCE LINE # 322
0099 E4                CLR     A
009A 900000      R     MOV     DPTR,#i
009D F0                MOVX    @DPTR,A
009E         ?C0028:
009E 900000      R     MOV     DPTR,#i
00A1 E0                MOVX    A,@DPTR
00A2 FB                MOV     R3,A
00A3 C3                CLR     C
00A4 9408              SUBB    A,#08H
00A6 4003              JC      $ + 5H
00A8 020000      R     LJMP    ?C0038
                                           ; SOURCE LINE # 323
00AB E4                CLR     A
00AC 7F01              MOV     R7,#01H
00AE FE                MOV     R6,A
00AF FD                MOV     R5,A
00B0 FC                MOV     R4,A
00B1 900000      R     MOV     DPTR,#item_pos
00B4 E0                MOVX    A,@DPTR
00B5 75F009            MOV     B,#09H
00B8 A4                MUL     AB
00B9 2400        R     ADD     A,#LOW cur_menu
00BB F582              MOV     DPL,A
00BD E5F0              MOV     A,B
00BF 3400        R     ADDC    A,#HIGH cur_menu
00C1 F583              MOV     DPH,A
00C3 E0                MOVX    A,@DPTR
00C4 F9                MOV     R1,A
00C5 F8                MOV     R0,A
00C6 120000      E     LCALL   ?C?LSHL
00C9 EB                MOV     A,R3
00CA 25E0              ADD     A,ACC
00CC 25E0              ADD     A,ACC
00CE 2400        R     ADD     A,#LOW menu_item_bm
00D0 F582              MOV     DPL,A
00D2 E4                CLR     A
00D3 3400        R     ADDC    A,#HIGH menu_item_bm
00D5 F583              MOV     DPH,A
00D7 120000      E     LCALL   ?C?LLDCODE0
00DA EB                MOV     A,R3
00DB 5F                ANL     A,R7
00DC FF                MOV     R7,A
00DD EA                MOV     A,R2
00DE 5E                ANL     A,R6
00DF FE                MOV     R6,A
00E0 E9                MOV     A,R1
00E1 5D                ANL     A,R5
00E2 FD                MOV     R5,A
00E3 E8                MOV     A,R0
00E4 5C                ANL     A,R4
00E5 FC                MOV     R4,A
00E6 4D                ORL     A,R5
C51 COMPILER V9.53.0.0   TEMP                                                              12/06/2023 15:46:42 PAGE 55  

00E7 4E                ORL     A,R6
00E8 4F                ORL     A,R7
00E9 7003              JNZ     $ + 5H
00EB 020000      R     LJMP    ?C0030
                                           ; SOURCE LINE # 324
00EE 900000      R     MOV     DPTR,#i
00F1 E0                MOVX    A,@DPTR
00F2 25E0              ADD     A,ACC
00F4 25E0              ADD     A,ACC
00F6 2400        R     ADD     A,#LOW menu_item_bm
00F8 F582              MOV     DPL,A
00FA E4                CLR     A
00FB 3400        R     ADDC    A,#HIGH menu_item_bm
00FD F583              MOV     DPH,A
00FF 120000      E     LCALL   ?C?LLDCODE
0102 7800        R     MOV     R0,#LOW cur_active_items_id
0104 E6                MOV     A,@R0
0105 25E0              ADD     A,ACC
0107 25E0              ADD     A,ACC
0109 2400        R     ADD     A,#LOW active_items
010B F582              MOV     DPL,A
010D E4                CLR     A
010E 3400        R     ADDC    A,#HIGH active_items
0110 F583              MOV     DPH,A
0112 120000      E     LCALL   ?C?LLDCODE0
0115 EB                MOV     A,R3
0116 5F                ANL     A,R7
0117 FF                MOV     R7,A
0118 EA                MOV     A,R2
0119 5E                ANL     A,R6
011A FE                MOV     R6,A
011B E9                MOV     A,R1
011C 5D                ANL     A,R5
011D FD                MOV     R5,A
011E E8                MOV     A,R0
011F 5C                ANL     A,R4
0120 FC                MOV     R4,A
0121 900000      R     MOV     DPTR,#bm
0124 120000      E     LCALL   ?C?LSTXDATA
                                           ; SOURCE LINE # 325
0127 900000      R     MOV     DPTR,#bm
012A E0                MOVX    A,@DPTR
012B F8                MOV     R0,A
012C A3                INC     DPTR
012D E0                MOVX    A,@DPTR
012E F9                MOV     R1,A
012F A3                INC     DPTR
0130 E0                MOVX    A,@DPTR
0131 FA                MOV     R2,A
0132 A3                INC     DPTR
0133 E0                MOVX    A,@DPTR
0134 FB                MOV     R3,A
0135 C000              PUSH    AR0
0137 C001              PUSH    AR1
0139 E4                CLR     A
013A 7F01              MOV     R7,#01H
013C FE                MOV     R6,A
013D FD                MOV     R5,A
013E FC                MOV     R4,A
013F 900000      R     MOV     DPTR,#item_pos
0142 E0                MOVX    A,@DPTR
0143 75F009            MOV     B,#09H
C51 COMPILER V9.53.0.0   TEMP                                                              12/06/2023 15:46:42 PAGE 56  

0146 A4                MUL     AB
0147 2400        R     ADD     A,#LOW cur_menu
0149 F582              MOV     DPL,A
014B E5F0              MOV     A,B
014D 3400        R     ADDC    A,#HIGH cur_menu
014F F583              MOV     DPH,A
0151 E0                MOVX    A,@DPTR
0152 F9                MOV     R1,A
0153 F8                MOV     R0,A
0154 120000      E     LCALL   ?C?LSHL
0157 120000      E     LCALL   ?C?LNOT
015A D001              POP     AR1
015C D000              POP     AR0
015E EB                MOV     A,R3
015F 5F                ANL     A,R7
0160 FF                MOV     R7,A
0161 EA                MOV     A,R2
0162 5E                ANL     A,R6
0163 FE                MOV     R6,A
0164 E9                MOV     A,R1
0165 5D                ANL     A,R5
0166 FD                MOV     R5,A
0167 E8                MOV     A,R0
0168 5C                ANL     A,R4
0169 FC                MOV     R4,A
016A 900000      R     MOV     DPTR,#bm
016D 120000      E     LCALL   ?C?LSTXDATA
                                           ; SOURCE LINE # 326
0170 E4                CLR     A
0171 FF                MOV     R7,A
0172 FE                MOV     R6,A
0173 FD                MOV     R5,A
0174 FC                MOV     R4,A
0175 900000      R     MOV     DPTR,#bm
0178 E0                MOVX    A,@DPTR
0179 F8                MOV     R0,A
017A A3                INC     DPTR
017B E0                MOVX    A,@DPTR
017C F9                MOV     R1,A
017D A3                INC     DPTR
017E E0                MOVX    A,@DPTR
017F FA                MOV     R2,A
0180 A3                INC     DPTR
0181 E0                MOVX    A,@DPTR
0182 FB                MOV     R3,A
0183 C3                CLR     C
0184 120000      E     LCALL   ?C?ULCMP
0187 7003              JNZ     $ + 5H
0189 020000      R     LJMP    ?C0038
                                           ; SOURCE LINE # 329
018C E4                CLR     A
018D 900000      R     MOV     DPTR,#id
0190 F0                MOVX    @DPTR,A
                                           ; SOURCE LINE # 330
0191 900000      R     MOV     DPTR,#i
0194 740A              MOV     A,#0AH
0196 F0                MOVX    @DPTR,A
                                           ; SOURCE LINE # 332
0197 900000      R     MOV     DPTR,#item_pos
019A E0                MOVX    A,@DPTR
019B FF                MOV     R7,A
019C 7E00              MOV     R6,#00H
C51 COMPILER V9.53.0.0   TEMP                                                              12/06/2023 15:46:42 PAGE 57  

019E 900000      R     MOV     DPTR,#ICON_RECT_SZ
01A1 E4                CLR     A
01A2 93                MOVC    A,@A+DPTR
01A3 FA                MOV     R2,A
01A4 7401              MOV     A,#01H
01A6 93                MOVC    A,@A+DPTR
01A7 FB                MOV     R3,A
01A8 FD                MOV     R5,A
01A9 AC02              MOV     R4,AR2
01AB 120000      E     LCALL   ?C?IMUL
01AE 900000      R     MOV     DPTR,#start_x
01B1 EE                MOV     A,R6
01B2 F0                MOVX    @DPTR,A
01B3 A3                INC     DPTR
01B4 EF                MOV     A,R7
01B5 F0                MOVX    @DPTR,A
                                           ; SOURCE LINE # 333
01B6 EB                MOV     A,R3
01B7 25E0              ADD     A,ACC
01B9 FF                MOV     R7,A
01BA EA                MOV     A,R2
01BB 33                RLC     A
01BC FE                MOV     R6,A
01BD C3                CLR     C
01BE 7420              MOV     A,#020H
01C0 9F                SUBB    A,R7
01C1 900000      R     MOV     DPTR,#start_y+01H
01C4 F0                MOVX    @DPTR,A
01C5 7403              MOV     A,#03H
01C7 9E                SUBB    A,R6
01C8 900000      R     MOV     DPTR,#start_y
01CB F0                MOVX    @DPTR,A
01CC         ?C0033:
                                           ; SOURCE LINE # 334
01CC E4                CLR     A
01CD FF                MOV     R7,A
01CE FE                MOV     R6,A
01CF FD                MOV     R5,A
01D0 FC                MOV     R4,A
01D1 900000      R     MOV     DPTR,#bm
01D4 E0                MOVX    A,@DPTR
01D5 F8                MOV     R0,A
01D6 A3                INC     DPTR
01D7 E0                MOVX    A,@DPTR
01D8 F9                MOV     R1,A
01D9 A3                INC     DPTR
01DA E0                MOVX    A,@DPTR
01DB FA                MOV     R2,A
01DC A3                INC     DPTR
01DD E0                MOVX    A,@DPTR
01DE FB                MOV     R3,A
01DF C3                CLR     C
01E0 120000      E     LCALL   ?C?ULCMP
01E3 7003              JNZ     $ + 5H
01E5 020000      R     LJMP    ?C0038
                                           ; SOURCE LINE # 335
01E8 900000      R     MOV     DPTR,#bm
01EB A3                INC     DPTR
01EC A3                INC     DPTR
01ED A3                INC     DPTR
01EE E0                MOVX    A,@DPTR
01EF 5401              ANL     A,#01H
C51 COMPILER V9.53.0.0   TEMP                                                              12/06/2023 15:46:42 PAGE 58  

01F1 FF                MOV     R7,A
01F2 EF                MOV     A,R7
01F3 7003              JNZ     $ + 5H
01F5 020000      R     LJMP    ?C0035
                                           ; SOURCE LINE # 336
01F8 A3                INC     DPTR
01F9 E0                MOVX    A,@DPTR
01FA 25E0              ADD     A,ACC
01FC 2400        R     ADD     A,#LOW icon_sp_bottom_menu
01FE F582              MOV     DPL,A
0200 E4                CLR     A
0201 3400        R     ADDC    A,#HIGH icon_sp_bottom_menu
0203 F583              MOV     DPH,A
0205 E0                MOVX    A,@DPTR
0206 FE                MOV     R6,A
0207 A3                INC     DPTR
0208 E0                MOVX    A,@DPTR
0209 FF                MOV     R7,A
020A C006              PUSH    AR6
020C C007              PUSH    AR7
020E 900000      R     MOV     DPTR,#start_x
0211 E0                MOVX    A,@DPTR
0212 FE                MOV     R6,A
0213 A3                INC     DPTR
0214 E0                MOVX    A,@DPTR
0215 FF                MOV     R7,A
0216 A3                INC     DPTR
0217 E0                MOVX    A,@DPTR
0218 FC                MOV     R4,A
0219 A3                INC     DPTR
021A E0                MOVX    A,@DPTR
021B FD                MOV     R5,A
021C 120000      E     LCALL   _make_point
021F 7800        E     MOV     R0,#LOW ?_image_change_pos?BYTE+02H
0221 7C00        E     MOV     R4,#HIGH ?_image_change_pos?BYTE+02H
0223 7D01              MOV     R5,#01H
0225 7E00              MOV     R6,#00H
0227 7F04              MOV     R7,#04H
0229 120000      E     LCALL   ?C?COPY
022C D007              POP     AR7
022E D006              POP     AR6
0230 120000      E     LCALL   _image_change_pos
                                           ; SOURCE LINE # 337
0233 900000      R     MOV     DPTR,#i
0236 E0                MOVX    A,@DPTR
0237 25E0              ADD     A,ACC
0239 2400        R     ADD     A,#LOW icon_sp_bottom_menu
023B F582              MOV     DPL,A
023D E4                CLR     A
023E 3400        R     ADDC    A,#HIGH icon_sp_bottom_menu
0240 F583              MOV     DPH,A
0242 E0                MOVX    A,@DPTR
0243 FE                MOV     R6,A
0244 A3                INC     DPTR
0245 E0                MOVX    A,@DPTR
0246 FF                MOV     R7,A
0247 900000      R     MOV     DPTR,#id
024A E0                MOVX    A,@DPTR
024B FD                MOV     R5,A
024C 7C00              MOV     R4,#00H
024E 120000      E     LCALL   _image_change_id
                                           ; SOURCE LINE # 339
C51 COMPILER V9.53.0.0   TEMP                                                              12/06/2023 15:46:42 PAGE 59  

0251 900000      R     MOV     DPTR,#start_x
0254 E0                MOVX    A,@DPTR
0255 FE                MOV     R6,A
0256 A3                INC     DPTR
0257 E0                MOVX    A,@DPTR
0258 FF                MOV     R7,A
0259 900000      R     MOV     DPTR,#i
025C E0                MOVX    A,@DPTR
025D FD                MOV     R5,A
025E 75F009            MOV     B,#09H
0261 A4                MUL     AB
0262 2400        R     ADD     A,#LOW cur_menu+01H
0264 F582              MOV     DPL,A
0266 E5F0              MOV     A,B
0268 3400        R     ADDC    A,#HIGH cur_menu+01H
026A F583              MOV     DPH,A
026C EE                MOV     A,R6
026D F0                MOVX    @DPTR,A
026E A3                INC     DPTR
026F EF                MOV     A,R7
0270 F0                MOVX    @DPTR,A
                                           ; SOURCE LINE # 340
0271 900000      R     MOV     DPTR,#start_y
0274 E0                MOVX    A,@DPTR
0275 FA                MOV     R2,A
0276 A3                INC     DPTR
0277 E0                MOVX    A,@DPTR
0278 FB                MOV     R3,A
0279 75F009            MOV     B,#09H
027C ED                MOV     A,R5
027D A4                MUL     AB
027E 2400        R     ADD     A,#LOW cur_menu+03H
0280 F582              MOV     DPL,A
0282 E5F0              MOV     A,B
0284 3400        R     ADDC    A,#HIGH cur_menu+03H
0286 F583              MOV     DPH,A
0288 EA                MOV     A,R2
0289 F0                MOVX    @DPTR,A
028A A3                INC     DPTR
028B EB                MOV     A,R3
028C F0                MOVX    @DPTR,A
                                           ; SOURCE LINE # 341
028D 900000      R     MOV     DPTR,#ICON_RECT_SZ
0290 E4                CLR     A
0291 93                MOVC    A,@A+DPTR
0292 FC                MOV     R4,A
0293 7401              MOV     A,#01H
0295 93                MOVC    A,@A+DPTR
0296 FD                MOV     R5,A
0297 EF                MOV     A,R7
0298 2D                ADD     A,R5
0299 FF                MOV     R7,A
029A EE                MOV     A,R6
029B 3C                ADDC    A,R4
029C FE                MOV     R6,A
029D 900000      R     MOV     DPTR,#i
02A0 E0                MOVX    A,@DPTR
02A1 FD                MOV     R5,A
02A2 75F009            MOV     B,#09H
02A5 A4                MUL     AB
02A6 2400        R     ADD     A,#LOW cur_menu+05H
02A8 F582              MOV     DPL,A
C51 COMPILER V9.53.0.0   TEMP                                                              12/06/2023 15:46:42 PAGE 60  

02AA E5F0              MOV     A,B
02AC 3400        R     ADDC    A,#HIGH cur_menu+05H
02AE F583              MOV     DPH,A
02B0 EE                MOV     A,R6
02B1 F0                MOVX    @DPTR,A
02B2 A3                INC     DPTR
02B3 EF                MOV     A,R7
02B4 F0                MOVX    @DPTR,A
                                           ; SOURCE LINE # 342
02B5 900000      R     MOV     DPTR,#ICON_RECT_SZ
02B8 E4                CLR     A
02B9 93                MOVC    A,@A+DPTR
02BA FE                MOV     R6,A
02BB 7401              MOV     A,#01H
02BD 93                MOVC    A,@A+DPTR
02BE FF                MOV     R7,A
02BF 900000      R     MOV     DPTR,#start_y+01H
02C2 E0                MOVX    A,@DPTR
02C3 2F                ADD     A,R7
02C4 FF                MOV     R7,A
02C5 900000      R     MOV     DPTR,#start_y
02C8 E0                MOVX    A,@DPTR
02C9 3E                ADDC    A,R6
02CA FE                MOV     R6,A
02CB 75F009            MOV     B,#09H
02CE ED                MOV     A,R5
02CF A4                MUL     AB
02D0 2400        R     ADD     A,#LOW cur_menu+07H
02D2 F582              MOV     DPL,A
02D4 E5F0              MOV     A,B
02D6 3400        R     ADDC    A,#HIGH cur_menu+07H
02D8 F583              MOV     DPH,A
02DA EE                MOV     A,R6
02DB F0                MOVX    @DPTR,A
02DC A3                INC     DPTR
02DD EF                MOV     A,R7
02DE F0                MOVX    @DPTR,A
                                           ; SOURCE LINE # 343
02DF 900000      R     MOV     DPTR,#id
02E2 E0                MOVX    A,@DPTR
02E3 FF                MOV     R7,A
02E4 900000      R     MOV     DPTR,#i
02E7 E0                MOVX    A,@DPTR
02E8 75F009            MOV     B,#09H
02EB A4                MUL     AB
02EC 2400        R     ADD     A,#LOW cur_menu
02EE F582              MOV     DPL,A
02F0 E5F0              MOV     A,B
02F2 3400        R     ADDC    A,#HIGH cur_menu
02F4 F583              MOV     DPH,A
02F6 EF                MOV     A,R7
02F7 F0                MOVX    @DPTR,A
                                           ; SOURCE LINE # 344
02F8 900000      R     MOV     DPTR,#ICON_RECT_SZ
02FB E4                CLR     A
02FC 93                MOVC    A,@A+DPTR
02FD FE                MOV     R6,A
02FE 7401              MOV     A,#01H
0300 93                MOVC    A,@A+DPTR
0301 FF                MOV     R7,A
0302 C3                CLR     C
0303 900000      R     MOV     DPTR,#start_y+01H
C51 COMPILER V9.53.0.0   TEMP                                                              12/06/2023 15:46:42 PAGE 61  

0306 E0                MOVX    A,@DPTR
0307 9F                SUBB    A,R7
0308 F0                MOVX    @DPTR,A
0309 900000      R     MOV     DPTR,#start_y
030C E0                MOVX    A,@DPTR
030D 9E                SUBB    A,R6
030E F0                MOVX    @DPTR,A
                                           ; SOURCE LINE # 345
030F 900000      R     MOV     DPTR,#i
0312 E0                MOVX    A,@DPTR
0313 04                INC     A
0314 F0                MOVX    @DPTR,A
                                           ; SOURCE LINE # 346
0315         ?C0035:
                                           ; SOURCE LINE # 347
0315 900000      R     MOV     DPTR,#bm
0318 E0                MOVX    A,@DPTR
0319 FC                MOV     R4,A
031A A3                INC     DPTR
031B E0                MOVX    A,@DPTR
031C FD                MOV     R5,A
031D A3                INC     DPTR
031E E0                MOVX    A,@DPTR
031F FE                MOV     R6,A
0320 A3                INC     DPTR
0321 E0                MOVX    A,@DPTR
0322 FF                MOV     R7,A
0323 7801              MOV     R0,#01H
0325 120000      E     LCALL   ?C?ULSHR
0328 900000      R     MOV     DPTR,#bm
032B 120000      E     LCALL   ?C?LSTXDATA
                                           ; SOURCE LINE # 349
032E 900000      R     MOV     DPTR,#id
0331 E0                MOVX    A,@DPTR
0332 04                INC     A
0333 F0                MOVX    @DPTR,A
                                           ; SOURCE LINE # 350
0334 020000      R     LJMP    ?C0033
                                           ; SOURCE LINE # 351
                                           ; SOURCE LINE # 352
                                           ; SOURCE LINE # 353
                                           ; SOURCE LINE # 354
0337         ?C0030:
0337 900000      R     MOV     DPTR,#i
033A E0                MOVX    A,@DPTR
033B 04                INC     A
033C F0                MOVX    @DPTR,A
033D 020000      R     LJMP    ?C0028
                                           ; SOURCE LINE # 355
0340         ?C0027:
                                           ; SOURCE LINE # 357
0340 900000      R     MOV     DPTR,#item_pos
0343 E0                MOVX    A,@DPTR
0344 FF                MOV     R7,A
0345 D3                SETB    C
0346 940F              SUBB    A,#0FH
0348 4014              JC      ?C0037
                                           ; SOURCE LINE # 358
034A 75F009            MOV     B,#09H
034D EF                MOV     A,R7
034E A4                MUL     AB
034F 2400        R     ADD     A,#LOW cur_menu
C51 COMPILER V9.53.0.0   TEMP                                                              12/06/2023 15:46:42 PAGE 62  

0351 F582              MOV     DPL,A
0353 E5F0              MOV     A,B
0355 3400        R     ADDC    A,#HIGH cur_menu
0357 F583              MOV     DPH,A
0359 E0                MOVX    A,@DPTR
035A FF                MOV     R7,A
035B 020000      R     LJMP    _par_select
                                           ; SOURCE LINE # 360
035E         ?C0037:
                                           ; SOURCE LINE # 363
035E E4                CLR     A
035F 900000      R     MOV     DPTR,#i
0362 F0                MOVX    @DPTR,A
0363         ?C0039:
0363 900000      R     MOV     DPTR,#i
0366 E0                MOVX    A,@DPTR
0367 FB                MOV     R3,A
0368 C3                CLR     C
0369 9408              SUBB    A,#08H
036B 4003              JC      $ + 5H
036D 020000      R     LJMP    ?C0038
                                           ; SOURCE LINE # 364
0370 E4                CLR     A
0371 7F01              MOV     R7,#01H
0373 FE                MOV     R6,A
0374 FD                MOV     R5,A
0375 FC                MOV     R4,A
0376 900000      R     MOV     DPTR,#item_pos
0379 E0                MOVX    A,@DPTR
037A 75F009            MOV     B,#09H
037D A4                MUL     AB
037E 2400        R     ADD     A,#LOW cur_menu
0380 F582              MOV     DPL,A
0382 E5F0              MOV     A,B
0384 3400        R     ADDC    A,#HIGH cur_menu
0386 F583              MOV     DPH,A
0388 E0                MOVX    A,@DPTR
0389 F9                MOV     R1,A
038A F8                MOV     R0,A
038B 120000      E     LCALL   ?C?LSHL
038E EB                MOV     A,R3
038F 25E0              ADD     A,ACC
0391 25E0              ADD     A,ACC
0393 2400        R     ADD     A,#LOW menu_item_bm
0395 F582              MOV     DPL,A
0397 E4                CLR     A
0398 3400        R     ADDC    A,#HIGH menu_item_bm
039A F583              MOV     DPH,A
039C 120000      E     LCALL   ?C?LLDCODE0
039F EB                MOV     A,R3
03A0 5F                ANL     A,R7
03A1 FF                MOV     R7,A
03A2 EA                MOV     A,R2
03A3 5E                ANL     A,R6
03A4 FE                MOV     R6,A
03A5 E9                MOV     A,R1
03A6 5D                ANL     A,R5
03A7 FD                MOV     R5,A
03A8 E8                MOV     A,R0
03A9 5C                ANL     A,R4
03AA FC                MOV     R4,A
03AB 4D                ORL     A,R5
C51 COMPILER V9.53.0.0   TEMP                                                              12/06/2023 15:46:42 PAGE 63  

03AC 4E                ORL     A,R6
03AD 4F                ORL     A,R7
03AE 7003              JNZ     $ + 5H
03B0 020000      R     LJMP    ?C0041
                                           ; SOURCE LINE # 365
03B3 7800        R     MOV     R0,#LOW main_menu_bm
03B5 120000      E     LCALL   ?C?LLDIDATA0
03B8 900000      R     MOV     DPTR,#i
03BB E0                MOVX    A,@DPTR
03BC 25E0              ADD     A,ACC
03BE 25E0              ADD     A,ACC
03C0 2400        R     ADD     A,#LOW menu_item_bm
03C2 F582              MOV     DPL,A
03C4 E4                CLR     A
03C5 3400        R     ADDC    A,#HIGH menu_item_bm
03C7 F583              MOV     DPH,A
03C9 120000      E     LCALL   ?C?LLDCODE
03CC 120000      E     LCALL   ?C?LNOT
03CF EB                MOV     A,R3
03D0 5F                ANL     A,R7
03D1 FF                MOV     R7,A
03D2 EA                MOV     A,R2
03D3 5E                ANL     A,R6
03D4 FE                MOV     R6,A
03D5 E9                MOV     A,R1
03D6 5D                ANL     A,R5
03D7 FD                MOV     R5,A
03D8 E8                MOV     A,R0
03D9 5C                ANL     A,R4
03DA FC                MOV     R4,A
03DB 7800        R     MOV     R0,#LOW main_menu_bm
03DD 120000      E     LCALL   ?C?LSTIDATA
                                           ; SOURCE LINE # 367
03E0 7800        R     MOV     R0,#LOW main_menu_bm
03E2 120000      E     LCALL   ?C?LLDIDATA0
03E5 C000              PUSH    AR0
03E7 C001              PUSH    AR1
03E9 E4                CLR     A
03EA 7F01              MOV     R7,#01H
03EC FE                MOV     R6,A
03ED FD                MOV     R5,A
03EE FC                MOV     R4,A
03EF 900000      R     MOV     DPTR,#item_pos
03F2 E0                MOVX    A,@DPTR
03F3 75F009            MOV     B,#09H
03F6 A4                MUL     AB
03F7 2400        R     ADD     A,#LOW cur_menu
03F9 F582              MOV     DPL,A
03FB E5F0              MOV     A,B
03FD 3400        R     ADDC    A,#HIGH cur_menu
03FF F583              MOV     DPH,A
0401 E0                MOVX    A,@DPTR
0402 F9                MOV     R1,A
0403 F8                MOV     R0,A
0404 120000      E     LCALL   ?C?LSHL
0407 D001              POP     AR1
0409 D000              POP     AR0
040B EB                MOV     A,R3
040C 4F                ORL     A,R7
040D FF                MOV     R7,A
040E EA                MOV     A,R2
040F 4E                ORL     A,R6
C51 COMPILER V9.53.0.0   TEMP                                                              12/06/2023 15:46:42 PAGE 64  

0410 FE                MOV     R6,A
0411 E9                MOV     A,R1
0412 4D                ORL     A,R5
0413 FD                MOV     R5,A
0414 E8                MOV     A,R0
0415 4C                ORL     A,R4
0416 FC                MOV     R4,A
0417 7800        R     MOV     R0,#LOW main_menu_bm
0419 120000      E     LCALL   ?C?LSTIDATA
                                           ; SOURCE LINE # 370
041C 900000      R     MOV     DPTR,#item_pos
041F E0                MOVX    A,@DPTR
0420 75F009            MOV     B,#09H
0423 A4                MUL     AB
0424 2400        R     ADD     A,#LOW cur_menu
0426 F582              MOV     DPL,A
0428 E5F0              MOV     A,B
042A 3400        R     ADDC    A,#HIGH cur_menu
042C F583              MOV     DPH,A
042E E0                MOVX    A,@DPTR
042F FF                MOV     R7,A
0430 7E00              MOV     R6,#00H
0432 E4                CLR     A
0433 FD                MOV     R5,A
0434 120000      R     LCALL   _cur_par_value_change
                                           ; SOURCE LINE # 372
0437 900000      R     MOV     DPTR,#item_pos
043A E0                MOVX    A,@DPTR
043B 75F009            MOV     B,#09H
043E A4                MUL     AB
043F 2400        R     ADD     A,#LOW cur_menu
0441 F582              MOV     DPL,A
0443 E5F0              MOV     A,B
0445 3400        R     ADDC    A,#HIGH cur_menu
0447 F583              MOV     DPH,A
0449 E0                MOVX    A,@DPTR
044A 14                DEC     A
044B 605F              JZ      ?C0046
044D 24FB              ADD     A,#0FBH
044F 24FD              ADD     A,#0FDH
0451 505F              JNC     ?C0049
0453 6011              JZ      ?C0045
0455 24FD              ADD     A,#0FDH
0457 6059              JZ      ?C0049
0459 14                DEC     A
045A 6056              JZ      ?C0049
045C 240D              ADD     A,#0DH
045E 7055              JNZ     ?C0043
                                           ; SOURCE LINE # 373
                                           ; SOURCE LINE # 374
0460         ?C0044:
                                           ; SOURCE LINE # 375
0460 E4                CLR     A
0461 7800        R     MOV     R0,#LOW cur_active_items_id
0463 F6                MOV     @R0,A
                                           ; SOURCE LINE # 376
                                           ; SOURCE LINE # 377
0464 804C              SJMP    ?C0180
                                           ; SOURCE LINE # 379
0466         ?C0045:
                                           ; SOURCE LINE # 380
0466 E4                CLR     A
C51 COMPILER V9.53.0.0   TEMP                                                              12/06/2023 15:46:42 PAGE 65  

0467 7800        R     MOV     R0,#LOW cur_active_items_id
0469 F6                MOV     @R0,A
                                           ; SOURCE LINE # 381
046A 900000      R     MOV     DPTR,#bm
046D E0                MOVX    A,@DPTR
046E F8                MOV     R0,A
046F A3                INC     DPTR
0470 E0                MOVX    A,@DPTR
0471 F9                MOV     R1,A
0472 A3                INC     DPTR
0473 E0                MOVX    A,@DPTR
0474 FA                MOV     R2,A
0475 A3                INC     DPTR
0476 E0                MOVX    A,@DPTR
0477 FB                MOV     R3,A
0478 900000      R     MOV     DPTR,#menu_item_bm+04H
047B 120000      E     LCALL   ?C?LLDCODE
047E 120000      E     LCALL   ?C?LNOT
0481 EB                MOV     A,R3
0482 5F                ANL     A,R7
0483 FF                MOV     R7,A
0484 EA                MOV     A,R2
0485 5E                ANL     A,R6
0486 FE                MOV     R6,A
0487 E9                MOV     A,R1
0488 5D                ANL     A,R5
0489 FD                MOV     R5,A
048A E8                MOV     A,R0
048B 5C                ANL     A,R4
048C FC                MOV     R4,A
048D 900000      R     MOV     DPTR,#bm
0490 120000      E     LCALL   ?C?LSTXDATA
                                           ; SOURCE LINE # 382
0493 900000      R     MOV     DPTR,#bm
0496 E0                MOVX    A,@DPTR
0497 FC                MOV     R4,A
0498 A3                INC     DPTR
0499 E0                MOVX    A,@DPTR
049A FD                MOV     R5,A
049B A3                INC     DPTR
049C E0                MOVX    A,@DPTR
049D FE                MOV     R6,A
049E A3                INC     DPTR
049F E0                MOVX    A,@DPTR
04A0 4440              ORL     A,#040H
04A2 FF                MOV     R7,A
04A3 EC                MOV     A,R4
04A4 900000      R     MOV     DPTR,#bm
04A7 120000      E     LCALL   ?C?LSTXDATA
                                           ; SOURCE LINE # 383
04AA         ?C0179:
                                           ; SOURCE LINE # 384
04AA 8006              SJMP    ?C0180
                                           ; SOURCE LINE # 386
04AC         ?C0046:
                                           ; SOURCE LINE # 387
04AC 7800        R     MOV     R0,#LOW cur_active_items_id
04AE 7601              MOV     @R0,#01H
                                           ; SOURCE LINE # 388
                                           ; SOURCE LINE # 389
04B0 8000              SJMP    ?C0182
                                           ; SOURCE LINE # 391
C51 COMPILER V9.53.0.0   TEMP                                                              12/06/2023 15:46:42 PAGE 66  

                                           ; SOURCE LINE # 392
                                           ; SOURCE LINE # 393
04B2         ?C0049:
                                           ; SOURCE LINE # 394
04B2         ?C0180:
04B2         ?C0181:
                                           ; SOURCE LINE # 395
                                           ; SOURCE LINE # 397
                                           ; SOURCE LINE # 398
04B2         ?C0182:
04B2 120000      R     LCALL   make_scene
                                           ; SOURCE LINE # 400
                                           ; SOURCE LINE # 401
04B5         ?C0043:
                                           ; SOURCE LINE # 403
04B5 7800        R     MOV     R0,#LOW cur_active_items_id
04B7 E6                MOV     A,@R0
04B8 25E0              ADD     A,ACC
04BA 25E0              ADD     A,ACC
04BC 2400        R     ADD     A,#LOW active_items
04BE F582              MOV     DPL,A
04C0 E4                CLR     A
04C1 3400        R     ADDC    A,#HIGH active_items
04C3 F583              MOV     DPH,A
04C5 120000      E     LCALL   ?C?LLDCODE
04C8 08                INC     R0
04C9 120000      E     LCALL   ?C?LLDIDATA0
04CC EF                MOV     A,R7
04CD 5B                ANL     A,R3
04CE FF                MOV     R7,A
04CF EE                MOV     A,R6
04D0 5A                ANL     A,R2
04D1 FE                MOV     R6,A
04D2 ED                MOV     A,R5
04D3 59                ANL     A,R1
04D4 FD                MOV     R5,A
04D5 EC                MOV     A,R4
04D6 58                ANL     A,R0
04D7 FC                MOV     R4,A
04D8 900000      R     MOV     DPTR,#bm
04DB 120000      E     LCALL   ?C?LSTXDATA
                                           ; SOURCE LINE # 407
04DE E4                CLR     A
04DF 900000      R     MOV     DPTR,#i
04E2 F0                MOVX    @DPTR,A
04E3         ?C0052:
04E3 900000      R     MOV     DPTR,#i
04E6 E0                MOVX    A,@DPTR
04E7 FF                MOV     R7,A
04E8 C3                CLR     C
04E9 9408              SUBB    A,#08H
04EB 5020              JNC     ?C0053
                                           ; SOURCE LINE # 408
04ED EF                MOV     A,R7
04EE 25E0              ADD     A,ACC
04F0 2400        R     ADD     A,#LOW icon_sp_bottom_menu
04F2 F582              MOV     DPL,A
04F4 E4                CLR     A
04F5 3400        R     ADDC    A,#HIGH icon_sp_bottom_menu
04F7 F583              MOV     DPH,A
04F9 E0                MOVX    A,@DPTR
04FA FE                MOV     R6,A
C51 COMPILER V9.53.0.0   TEMP                                                              12/06/2023 15:46:42 PAGE 67  

04FB A3                INC     DPTR
04FC E0                MOVX    A,@DPTR
04FD FF                MOV     R7,A
04FE 74FF              MOV     A,#0FFH
0500 FD                MOV     R5,A
0501 FC                MOV     R4,A
0502 120000      E     LCALL   _image_change_id
                                           ; SOURCE LINE # 409
0505 900000      R     MOV     DPTR,#i
0508 E0                MOVX    A,@DPTR
0509 04                INC     A
050A F0                MOVX    @DPTR,A
050B 80D6              SJMP    ?C0052
050D         ?C0053:
                                           ; SOURCE LINE # 411
050D E4                CLR     A
050E 900000      R     MOV     DPTR,#id
0511 F0                MOVX    @DPTR,A
                                           ; SOURCE LINE # 412
0512 900000      R     MOV     DPTR,#i
0515 F0                MOVX    @DPTR,A
                                           ; SOURCE LINE # 413
0516 900000      R     MOV     DPTR,#start_x
0519 F0                MOVX    @DPTR,A
051A A3                INC     DPTR
051B F0                MOVX    @DPTR,A
                                           ; SOURCE LINE # 414
051C 900000      R     MOV     DPTR,#ICON_RECT_SZ
051F 93                MOVC    A,@A+DPTR
0520 FE                MOV     R6,A
0521 7401              MOV     A,#01H
0523 93                MOVC    A,@A+DPTR
0524 FF                MOV     R7,A
0525 C3                CLR     C
0526 7420              MOV     A,#020H
0528 9F                SUBB    A,R7
0529 900000      R     MOV     DPTR,#start_y+01H
052C F0                MOVX    @DPTR,A
052D 7403              MOV     A,#03H
052F 9E                SUBB    A,R6
0530 900000      R     MOV     DPTR,#start_y
0533 F0                MOVX    @DPTR,A
0534         ?C0055:
                                           ; SOURCE LINE # 416
0534 E4                CLR     A
0535 FF                MOV     R7,A
0536 FE                MOV     R6,A
0537 FD                MOV     R5,A
0538 FC                MOV     R4,A
0539 900000      R     MOV     DPTR,#bm
053C E0                MOVX    A,@DPTR
053D F8                MOV     R0,A
053E A3                INC     DPTR
053F E0                MOVX    A,@DPTR
0540 F9                MOV     R1,A
0541 A3                INC     DPTR
0542 E0                MOVX    A,@DPTR
0543 FA                MOV     R2,A
0544 A3                INC     DPTR
0545 E0                MOVX    A,@DPTR
0546 FB                MOV     R3,A
0547 C3                CLR     C
C51 COMPILER V9.53.0.0   TEMP                                                              12/06/2023 15:46:42 PAGE 68  

0548 120000      E     LCALL   ?C?ULCMP
054B 7003              JNZ     $ + 5H
054D 020000      R     LJMP    ?C0058
                                           ; SOURCE LINE # 417
0550 900000      R     MOV     DPTR,#bm
0553 A3                INC     DPTR
0554 A3                INC     DPTR
0555 A3                INC     DPTR
0556 E0                MOVX    A,@DPTR
0557 5401              ANL     A,#01H
0559 FF                MOV     R7,A
055A EF                MOV     A,R7
055B 7003              JNZ     $ + 5H
055D 020000      R     LJMP    ?C0057
                                           ; SOURCE LINE # 418
0560 A3                INC     DPTR
0561 E0                MOVX    A,@DPTR
0562 25E0              ADD     A,ACC
0564 2400        R     ADD     A,#LOW icon_sp_bottom_menu
0566 F582              MOV     DPL,A
0568 E4                CLR     A
0569 3400        R     ADDC    A,#HIGH icon_sp_bottom_menu
056B F583              MOV     DPH,A
056D E0                MOVX    A,@DPTR
056E FE                MOV     R6,A
056F A3                INC     DPTR
0570 E0                MOVX    A,@DPTR
0571 FF                MOV     R7,A
0572 C006              PUSH    AR6
0574 C007              PUSH    AR7
0576 900000      R     MOV     DPTR,#start_x
0579 E0                MOVX    A,@DPTR
057A FE                MOV     R6,A
057B A3                INC     DPTR
057C E0                MOVX    A,@DPTR
057D FF                MOV     R7,A
057E A3                INC     DPTR
057F E0                MOVX    A,@DPTR
0580 FC                MOV     R4,A
0581 A3                INC     DPTR
0582 E0                MOVX    A,@DPTR
0583 FD                MOV     R5,A
0584 120000      E     LCALL   _make_point
0587 7800        E     MOV     R0,#LOW ?_image_change_pos?BYTE+02H
0589 7C00        E     MOV     R4,#HIGH ?_image_change_pos?BYTE+02H
058B 7D01              MOV     R5,#01H
058D 7E00              MOV     R6,#00H
058F 7F04              MOV     R7,#04H
0591 120000      E     LCALL   ?C?COPY
0594 D007              POP     AR7
0596 D006              POP     AR6
0598 120000      E     LCALL   _image_change_pos
                                           ; SOURCE LINE # 419
059B 900000      R     MOV     DPTR,#i
059E E0                MOVX    A,@DPTR
059F 25E0              ADD     A,ACC
05A1 2400        R     ADD     A,#LOW icon_sp_bottom_menu
05A3 F582              MOV     DPL,A
05A5 E4                CLR     A
05A6 3400        R     ADDC    A,#HIGH icon_sp_bottom_menu
05A8 F583              MOV     DPH,A
05AA E0                MOVX    A,@DPTR
C51 COMPILER V9.53.0.0   TEMP                                                              12/06/2023 15:46:42 PAGE 69  

05AB FE                MOV     R6,A
05AC A3                INC     DPTR
05AD E0                MOVX    A,@DPTR
05AE FF                MOV     R7,A
05AF 900000      R     MOV     DPTR,#id
05B2 E0                MOVX    A,@DPTR
05B3 FD                MOV     R5,A
05B4 7C00              MOV     R4,#00H
05B6 120000      E     LCALL   _image_change_id
                                           ; SOURCE LINE # 421
05B9 900000      R     MOV     DPTR,#start_x
05BC E0                MOVX    A,@DPTR
05BD FE                MOV     R6,A
05BE A3                INC     DPTR
05BF E0                MOVX    A,@DPTR
05C0 FF                MOV     R7,A
05C1 900000      R     MOV     DPTR,#i
05C4 E0                MOVX    A,@DPTR
05C5 FD                MOV     R5,A
05C6 75F009            MOV     B,#09H
05C9 A4                MUL     AB
05CA 2400        R     ADD     A,#LOW cur_menu+01H
05CC F582              MOV     DPL,A
05CE E5F0              MOV     A,B
05D0 3400        R     ADDC    A,#HIGH cur_menu+01H
05D2 F583              MOV     DPH,A
05D4 EE                MOV     A,R6
05D5 F0                MOVX    @DPTR,A
05D6 A3                INC     DPTR
05D7 EF                MOV     A,R7
05D8 F0                MOVX    @DPTR,A
                                           ; SOURCE LINE # 422
05D9 900000      R     MOV     DPTR,#start_y
05DC E0                MOVX    A,@DPTR
05DD FA                MOV     R2,A
05DE A3                INC     DPTR
05DF E0                MOVX    A,@DPTR
05E0 FB                MOV     R3,A
05E1 75F009            MOV     B,#09H
05E4 ED                MOV     A,R5
05E5 A4                MUL     AB
05E6 2400        R     ADD     A,#LOW cur_menu+03H
05E8 F582              MOV     DPL,A
05EA E5F0              MOV     A,B
05EC 3400        R     ADDC    A,#HIGH cur_menu+03H
05EE F583              MOV     DPH,A
05F0 EA                MOV     A,R2
05F1 F0                MOVX    @DPTR,A
05F2 A3                INC     DPTR
05F3 EB                MOV     A,R3
05F4 F0                MOVX    @DPTR,A
                                           ; SOURCE LINE # 423
05F5 900000      R     MOV     DPTR,#ICON_RECT_SZ
05F8 E4                CLR     A
05F9 93                MOVC    A,@A+DPTR
05FA FC                MOV     R4,A
05FB 7401              MOV     A,#01H
05FD 93                MOVC    A,@A+DPTR
05FE FD                MOV     R5,A
05FF EF                MOV     A,R7
0600 2D                ADD     A,R5
0601 FF                MOV     R7,A
C51 COMPILER V9.53.0.0   TEMP                                                              12/06/2023 15:46:42 PAGE 70  

0602 EE                MOV     A,R6
0603 3C                ADDC    A,R4
0604 FE                MOV     R6,A
0605 900000      R     MOV     DPTR,#i
0608 E0                MOVX    A,@DPTR
0609 FD                MOV     R5,A
060A 75F009            MOV     B,#09H
060D A4                MUL     AB
060E 2400        R     ADD     A,#LOW cur_menu+05H
0610 F582              MOV     DPL,A
0612 E5F0              MOV     A,B
0614 3400        R     ADDC    A,#HIGH cur_menu+05H
0616 F583              MOV     DPH,A
0618 EE                MOV     A,R6
0619 F0                MOVX    @DPTR,A
061A A3                INC     DPTR
061B EF                MOV     A,R7
061C F0                MOVX    @DPTR,A
                                           ; SOURCE LINE # 424
061D 900000      R     MOV     DPTR,#ICON_RECT_SZ
0620 E4                CLR     A
0621 93                MOVC    A,@A+DPTR
0622 FE                MOV     R6,A
0623 7401              MOV     A,#01H
0625 93                MOVC    A,@A+DPTR
0626 FF                MOV     R7,A
0627 900000      R     MOV     DPTR,#start_y+01H
062A E0                MOVX    A,@DPTR
062B 2F                ADD     A,R7
062C FF                MOV     R7,A
062D 900000      R     MOV     DPTR,#start_y
0630 E0                MOVX    A,@DPTR
0631 3E                ADDC    A,R6
0632 FE                MOV     R6,A
0633 75F009            MOV     B,#09H
0636 ED                MOV     A,R5
0637 A4                MUL     AB
0638 2400        R     ADD     A,#LOW cur_menu+07H
063A F582              MOV     DPL,A
063C E5F0              MOV     A,B
063E 3400        R     ADDC    A,#HIGH cur_menu+07H
0640 F583              MOV     DPH,A
0642 EE                MOV     A,R6
0643 F0                MOVX    @DPTR,A
0644 A3                INC     DPTR
0645 EF                MOV     A,R7
0646 F0                MOVX    @DPTR,A
                                           ; SOURCE LINE # 425
0647 900000      R     MOV     DPTR,#id
064A E0                MOVX    A,@DPTR
064B FF                MOV     R7,A
064C 900000      R     MOV     DPTR,#i
064F E0                MOVX    A,@DPTR
0650 75F009            MOV     B,#09H
0653 A4                MUL     AB
0654 2400        R     ADD     A,#LOW cur_menu
0656 F582              MOV     DPL,A
0658 E5F0              MOV     A,B
065A 3400        R     ADDC    A,#HIGH cur_menu
065C F583              MOV     DPH,A
065E EF                MOV     A,R7
065F F0                MOVX    @DPTR,A
C51 COMPILER V9.53.0.0   TEMP                                                              12/06/2023 15:46:42 PAGE 71  

                                           ; SOURCE LINE # 426
0660 900000      R     MOV     DPTR,#ICON_RECT_SZ
0663 E4                CLR     A
0664 93                MOVC    A,@A+DPTR
0665 FE                MOV     R6,A
0666 7401              MOV     A,#01H
0668 93                MOVC    A,@A+DPTR
0669 FF                MOV     R7,A
066A 900000      R     MOV     DPTR,#start_x+01H
066D E0                MOVX    A,@DPTR
066E 2F                ADD     A,R7
066F F0                MOVX    @DPTR,A
0670 900000      R     MOV     DPTR,#start_x
0673 E0                MOVX    A,@DPTR
0674 3E                ADDC    A,R6
0675 F0                MOVX    @DPTR,A
                                           ; SOURCE LINE # 427
0676 900000      R     MOV     DPTR,#i
0679 E0                MOVX    A,@DPTR
067A 04                INC     A
067B F0                MOVX    @DPTR,A
                                           ; SOURCE LINE # 428
067C         ?C0057:
                                           ; SOURCE LINE # 429
067C 900000      R     MOV     DPTR,#bm
067F E0                MOVX    A,@DPTR
0680 FC                MOV     R4,A
0681 A3                INC     DPTR
0682 E0                MOVX    A,@DPTR
0683 FD                MOV     R5,A
0684 A3                INC     DPTR
0685 E0                MOVX    A,@DPTR
0686 FE                MOV     R6,A
0687 A3                INC     DPTR
0688 E0                MOVX    A,@DPTR
0689 FF                MOV     R7,A
068A 7801              MOV     R0,#01H
068C 120000      E     LCALL   ?C?ULSHR
068F 900000      R     MOV     DPTR,#bm
0692 120000      E     LCALL   ?C?LSTXDATA
                                           ; SOURCE LINE # 430
0695 900000      R     MOV     DPTR,#id
0698 E0                MOVX    A,@DPTR
0699 04                INC     A
069A F0                MOVX    @DPTR,A
                                           ; SOURCE LINE # 431
069B 020000      R     LJMP    ?C0055
                                           ; SOURCE LINE # 432
069E         ?C0058:
069E 900000      R     MOV     DPTR,#i
06A1 E0                MOVX    A,@DPTR
06A2 FF                MOV     R7,A
06A3 C3                CLR     C
06A4 940A              SUBB    A,#0AH
06A6 505D              JNC     ?C0038
                                           ; SOURCE LINE # 433
06A8 75F009            MOV     B,#09H
06AB EF                MOV     A,R7
06AC A4                MUL     AB
06AD 2400        R     ADD     A,#LOW cur_menu+01H
06AF F582              MOV     DPL,A
06B1 E5F0              MOV     A,B
C51 COMPILER V9.53.0.0   TEMP                                                              12/06/2023 15:46:42 PAGE 72  

06B3 3400        R     ADDC    A,#HIGH cur_menu+01H
06B5 F583              MOV     DPH,A
06B7 E4                CLR     A
06B8 F0                MOVX    @DPTR,A
06B9 A3                INC     DPTR
06BA F0                MOVX    @DPTR,A
                                           ; SOURCE LINE # 434
06BB 75F009            MOV     B,#09H
06BE EF                MOV     A,R7
06BF A4                MUL     AB
06C0 2400        R     ADD     A,#LOW cur_menu+03H
06C2 F582              MOV     DPL,A
06C4 E5F0              MOV     A,B
06C6 3400        R     ADDC    A,#HIGH cur_menu+03H
06C8 F583              MOV     DPH,A
06CA E4                CLR     A
06CB F0                MOVX    @DPTR,A
06CC A3                INC     DPTR
06CD F0                MOVX    @DPTR,A
                                           ; SOURCE LINE # 435
06CE 75F009            MOV     B,#09H
06D1 EF                MOV     A,R7
06D2 A4                MUL     AB
06D3 2400        R     ADD     A,#LOW cur_menu+05H
06D5 F582              MOV     DPL,A
06D7 E5F0              MOV     A,B
06D9 3400        R     ADDC    A,#HIGH cur_menu+05H
06DB F583              MOV     DPH,A
06DD E4                CLR     A
06DE F0                MOVX    @DPTR,A
06DF A3                INC     DPTR
06E0 F0                MOVX    @DPTR,A
                                           ; SOURCE LINE # 436
06E1 75F009            MOV     B,#09H
06E4 EF                MOV     A,R7
06E5 A4                MUL     AB
06E6 2400        R     ADD     A,#LOW cur_menu+07H
06E8 F582              MOV     DPL,A
06EA E5F0              MOV     A,B
06EC 3400        R     ADDC    A,#HIGH cur_menu+07H
06EE F583              MOV     DPH,A
06F0 E4                CLR     A
06F1 F0                MOVX    @DPTR,A
06F2 A3                INC     DPTR
06F3 F0                MOVX    @DPTR,A
                                           ; SOURCE LINE # 437
06F4 900000      R     MOV     DPTR,#i
06F7 E0                MOVX    A,@DPTR
06F8 04                INC     A
06F9 F0                MOVX    @DPTR,A
06FA 80A2              SJMP    ?C0058
                                           ; SOURCE LINE # 439
                                           ; SOURCE LINE # 440
                                           ; SOURCE LINE # 441
06FC         ?C0041:
06FC 900000      R     MOV     DPTR,#i
06FF E0                MOVX    A,@DPTR
0700 04                INC     A
0701 F0                MOVX    @DPTR,A
0702 020000      R     LJMP    ?C0039
                                           ; SOURCE LINE # 442
                                           ; SOURCE LINE # 444
C51 COMPILER V9.53.0.0   TEMP                                                              12/06/2023 15:46:42 PAGE 73  

0705         ?C0038:
0705 22                RET     
             ; FUNCTION _bottom_level_controls (END)

             ; FUNCTION _display_par (BEGIN)
                                           ; SOURCE LINE # 449
0000 900000      R     MOV     DPTR,#par_id
0003 EE                MOV     A,R6
0004 F0                MOVX    @DPTR,A
0005 A3                INC     DPTR
0006 EF                MOV     A,R7
0007 F0                MOVX    @DPTR,A
                                           ; SOURCE LINE # 450
                                           ; SOURCE LINE # 451
0008 EE                MOV     A,R6
0009 6003              JZ      $ + 5H
000B 020000      R     LJMP    ?C0078
000E EF                MOV     A,R7
000F 24E6              ADD     A,#0E6H
0011 B41000            CJNE    A,#010H,?C0170
0014         ?C0170:
0014 4003              JC      $ + 5H
0016 020000      R     LJMP    ?C0078
0019 900000      R     MOV     DPTR,#?C0171
001C 75F003            MOV     B,#03H
001F A4                MUL     AB
0020 C583              XCH     A,DPH
0022 25F0              ADD     A,B
0024 C583              XCH     A,DPH
0026 73                JMP     @A+DPTR
0027         ?C0171:
0027 020000      R     LJMP    ?C0066
002A 020000      R     LJMP    ?C0075
002D 020000      R     LJMP    ?C0066
0030 020000      R     LJMP    ?C0066
0033 020000      R     LJMP    ?C0075
0036 020000      R     LJMP    ?C0068
0039 020000      R     LJMP    ?C0075
003C 020000      R     LJMP    ?C0068
003F 020000      R     LJMP    ?C0078
0042 020000      R     LJMP    ?C0078
0045 020000      R     LJMP    ?C0066
0048 020000      R     LJMP    ?C0075
004B 020000      R     LJMP    ?C0066
004E 020000      R     LJMP    ?C0069
0051 020000      R     LJMP    ?C0075
0054 020000      R     LJMP    ?C0075
                                           ; SOURCE LINE # 452
                                           ; SOURCE LINE # 453
                                           ; SOURCE LINE # 454
                                           ; SOURCE LINE # 455
                                           ; SOURCE LINE # 456
                                           ; SOURCE LINE # 457
0057         ?C0066:
                                           ; SOURCE LINE # 458
0057 900000      R     MOV     DPTR,#par_id+01H
005A E0                MOVX    A,@DPTR
005B 25E0              ADD     A,ACC
005D FF                MOV     R7,A
005E 900000      R     MOV     DPTR,#par_id
0061 E0                MOVX    A,@DPTR
0062 33                RLC     A
C51 COMPILER V9.53.0.0   TEMP                                                              12/06/2023 15:46:42 PAGE 74  

0063 FE                MOV     R6,A
0064 7400        R     MOV     A,#LOW text_sp
0066 2F                ADD     A,R7
0067 F582              MOV     DPL,A
0069 7400        R     MOV     A,#HIGH text_sp
006B 3E                ADDC    A,R6
006C F583              MOV     DPH,A
006E E0                MOVX    A,@DPTR
006F FC                MOV     R4,A
0070 A3                INC     DPTR
0071 E0                MOVX    A,@DPTR
0072 FD                MOV     R5,A
0073 C004              PUSH    AR4
0075 C005              PUSH    AR5
0077 7400        R     MOV     A,#LOW par
0079 2F                ADD     A,R7
007A F582              MOV     DPL,A
007C 7400        R     MOV     A,#HIGH par
007E 3E                ADDC    A,R6
007F F583              MOV     DPH,A
0081 E0                MOVX    A,@DPTR
0082 FC                MOV     R4,A
0083 A3                INC     DPTR
0084 E0                MOVX    A,@DPTR
0085 FD                MOV     R5,A
0086 EC                MOV     A,R4
0087 120000      E     LCALL   ?C?FCASTI
008A E4                CLR     A
008B FB                MOV     R3,A
008C FA                MOV     R2,A
008D 7920              MOV     R1,#020H
008F 7841              MOV     R0,#041H
0091 120000      E     LCALL   ?C?FPDIV
0094 900000      E     MOV     DPTR,#?_Draw_text_change_text?BYTE+05H
0097 120000      E     LCALL   ?C?LSTXDATA
009A 7BFF              MOV     R3,#0FFH
009C 7A00        R     MOV     R2,#HIGH ?SC_0
009E 7900        R     MOV     R1,#LOW ?SC_0
00A0 D005              POP     AR5
00A2 D004              POP     AR4
                                           ; SOURCE LINE # 459
00A4 020000      R     LJMP    ?C0185
                                           ; SOURCE LINE # 461
                                           ; SOURCE LINE # 462
00A7         ?C0068:
                                           ; SOURCE LINE # 463
00A7 7BFF              MOV     R3,#0FFH
00A9 7A00        R     MOV     R2,#HIGH ?SC_6
00AB 7900        R     MOV     R1,#LOW ?SC_6
00AD 900000      R     MOV     DPTR,#par_id+01H
00B0 E0                MOVX    A,@DPTR
00B1 25E0              ADD     A,ACC
00B3 FF                MOV     R7,A
00B4 900000      R     MOV     DPTR,#par_id
00B7 E0                MOVX    A,@DPTR
00B8 33                RLC     A
00B9 FE                MOV     R6,A
00BA 7400        R     MOV     A,#LOW text_sp
00BC 2F                ADD     A,R7
00BD F582              MOV     DPL,A
00BF 7400        R     MOV     A,#HIGH text_sp
00C1 3E                ADDC    A,R6
C51 COMPILER V9.53.0.0   TEMP                                                              12/06/2023 15:46:42 PAGE 75  

00C2 F583              MOV     DPH,A
00C4 E0                MOVX    A,@DPTR
00C5 FC                MOV     R4,A
00C6 A3                INC     DPTR
00C7 E0                MOVX    A,@DPTR
00C8 FD                MOV     R5,A
00C9 7400        R     MOV     A,#LOW par
00CB 2F                ADD     A,R7
00CC F582              MOV     DPL,A
00CE 7400        R     MOV     A,#HIGH par
00D0 3E                ADDC    A,R6
00D1 F583              MOV     DPH,A
00D3 E0                MOVX    A,@DPTR
00D4 FF                MOV     R7,A
00D5 A3                INC     DPTR
00D6 E0                MOVX    A,@DPTR
00D7 900000      E     MOV     DPTR,#?_Draw_text_change_text?BYTE+05H
00DA CF                XCH     A,R7
00DB F0                MOVX    @DPTR,A
00DC A3                INC     DPTR
00DD EF                MOV     A,R7
00DE F0                MOVX    @DPTR,A
00DF         ?C0183:
                                           ; SOURCE LINE # 464
00DF 8072              SJMP    ?C0185
                                           ; SOURCE LINE # 466
00E1         ?C0069:
                                           ; SOURCE LINE # 467
00E1 7BFF              MOV     R3,#0FFH
00E3 7A00        R     MOV     R2,#HIGH ?SC_11
00E5 7900        R     MOV     R1,#LOW ?SC_11
00E7 900000      R     MOV     DPTR,#par_id+01H
00EA E0                MOVX    A,@DPTR
00EB 25E0              ADD     A,ACC
00ED FF                MOV     R7,A
00EE 900000      R     MOV     DPTR,#par_id
00F1 E0                MOVX    A,@DPTR
00F2 33                RLC     A
00F3 FE                MOV     R6,A
00F4 7400        R     MOV     A,#LOW text_sp
00F6 2F                ADD     A,R7
00F7 F582              MOV     DPL,A
00F9 7400        R     MOV     A,#HIGH text_sp
00FB 3E                ADDC    A,R6
00FC F583              MOV     DPH,A
00FE E0                MOVX    A,@DPTR
00FF FC                MOV     R4,A
0100 A3                INC     DPTR
0101 E0                MOVX    A,@DPTR
0102 FD                MOV     R5,A
0103 7400        R     MOV     A,#LOW par
0105 2F                ADD     A,R7
0106 F582              MOV     DPL,A
0108 7400        R     MOV     A,#HIGH par
010A 3E                ADDC    A,R6
010B F583              MOV     DPH,A
010D E0                MOVX    A,@DPTR
010E FF                MOV     R7,A
010F A3                INC     DPTR
0110 E0                MOVX    A,@DPTR
0111 900000      E     MOV     DPTR,#?_Draw_text_change_text?BYTE+05H
0114 CF                XCH     A,R7
C51 COMPILER V9.53.0.0   TEMP                                                              12/06/2023 15:46:42 PAGE 76  

0115 F0                MOVX    @DPTR,A
0116 A3                INC     DPTR
0117 EF                MOV     A,R7
0118 F0                MOVX    @DPTR,A
0119         ?C0184:
                                           ; SOURCE LINE # 468
0119 8038              SJMP    ?C0185
                                           ; SOURCE LINE # 470
                                           ; SOURCE LINE # 471
                                           ; SOURCE LINE # 472
                                           ; SOURCE LINE # 473
                                           ; SOURCE LINE # 474
                                           ; SOURCE LINE # 475
011B         ?C0075:
                                           ; SOURCE LINE # 476
011B 7BFF              MOV     R3,#0FFH
011D 7A00        R     MOV     R2,#HIGH ?SC_15
011F 7900        R     MOV     R1,#LOW ?SC_15
0121 900000      R     MOV     DPTR,#par_id+01H
0124 E0                MOVX    A,@DPTR
0125 25E0              ADD     A,ACC
0127 FF                MOV     R7,A
0128 900000      R     MOV     DPTR,#par_id
012B E0                MOVX    A,@DPTR
012C 33                RLC     A
012D FE                MOV     R6,A
012E 7400        R     MOV     A,#LOW text_sp
0130 2F                ADD     A,R7
0131 F582              MOV     DPL,A
0133 7400        R     MOV     A,#HIGH text_sp
0135 3E                ADDC    A,R6
0136 F583              MOV     DPH,A
0138 E0                MOVX    A,@DPTR
0139 FC                MOV     R4,A
013A A3                INC     DPTR
013B E0                MOVX    A,@DPTR
013C FD                MOV     R5,A
013D 7400        R     MOV     A,#LOW par
013F 2F                ADD     A,R7
0140 F582              MOV     DPL,A
0142 7400        R     MOV     A,#HIGH par
0144 3E                ADDC    A,R6
0145 F583              MOV     DPH,A
0147 E0                MOVX    A,@DPTR
0148 FF                MOV     R7,A
0149 A3                INC     DPTR
014A E0                MOVX    A,@DPTR
014B 900000      E     MOV     DPTR,#?_Draw_text_change_text?BYTE+05H
014E CF                XCH     A,R7
014F F0                MOVX    @DPTR,A
0150 A3                INC     DPTR
0151 EF                MOV     A,R7
0152 F0                MOVX    @DPTR,A
0153         ?C0185:
0153 120000      E     LCALL   _Draw_text_change_text
                                           ; SOURCE LINE # 477
                                           ; SOURCE LINE # 479
                                           ; SOURCE LINE # 480
                                           ; SOURCE LINE # 482
                                           ; SOURCE LINE # 483
                                           ; SOURCE LINE # 484
0156         ?C0078:
C51 COMPILER V9.53.0.0   TEMP                                                              12/06/2023 15:46:42 PAGE 77  

0156 22                RET     
             ; FUNCTION _display_par (END)

             ; FUNCTION _cur_par_value_change (BEGIN)
                                           ; SOURCE LINE # 486
0000 900000      R     MOV     DPTR,#cur_par_id
0003 EE                MOV     A,R6
0004 F0                MOVX    @DPTR,A
0005 A3                INC     DPTR
0006 EF                MOV     A,R7
0007 F0                MOVX    @DPTR,A
;---- Variable 'shift' assigned to Register 'R3' ----
0008 AB05              MOV     R3,AR5
                                           ; SOURCE LINE # 487
                                           ; SOURCE LINE # 488
000A EB                MOV     A,R3
000B 7003              JNZ     $ + 5H
000D 020000      R     LJMP    ?C0079
                                           ; SOURCE LINE # 489
0010 E0                MOVX    A,@DPTR
0011 25E0              ADD     A,ACC
0013 FF                MOV     R7,A
0014 900000      R     MOV     DPTR,#cur_par_id
0017 E0                MOVX    A,@DPTR
0018 33                RLC     A
0019 FE                MOV     R6,A
001A 7400        R     MOV     A,#LOW par_step
001C 2F                ADD     A,R7
001D F582              MOV     DPL,A
001F 7400        R     MOV     A,#HIGH par_step
0021 3E                ADDC    A,R6
0022 F583              MOV     DPH,A
0024 E0                MOVX    A,@DPTR
0025 FC                MOV     R4,A
0026 A3                INC     DPTR
0027 E0                MOVX    A,@DPTR
0028 FD                MOV     R5,A
0029 AF03              MOV     R7,AR3
002B EF                MOV     A,R7
002C 33                RLC     A
002D 95E0              SUBB    A,ACC
002F FE                MOV     R6,A
0030 120000      E     LCALL   ?C?IMUL
0033 900000      R     MOV     DPTR,#cur_par_id+01H
0036 E0                MOVX    A,@DPTR
0037 25E0              ADD     A,ACC
0039 FB                MOV     R3,A
003A 900000      R     MOV     DPTR,#cur_par_id
003D E0                MOVX    A,@DPTR
003E 33                RLC     A
003F FA                MOV     R2,A
0040 7400        R     MOV     A,#LOW par
0042 2B                ADD     A,R3
0043 F582              MOV     DPL,A
0045 7400        R     MOV     A,#HIGH par
0047 3A                ADDC    A,R2
0048 F583              MOV     DPH,A
004A EE                MOV     A,R6
004B 8FF0              MOV     B,R7
004D 120000      E     LCALL   ?C?IILDX
                                           ; SOURCE LINE # 490
0050 900000      R     MOV     DPTR,#cur_par_id
C51 COMPILER V9.53.0.0   TEMP                                                              12/06/2023 15:46:42 PAGE 78  

0053 E0                MOVX    A,@DPTR
0054 FE                MOV     R6,A
0055 A3                INC     DPTR
0056 E0                MOVX    A,@DPTR
0057 7802              MOV     R0,#02H
0059         ?C0172:
0059 C3                CLR     C
005A 33                RLC     A
005B CE                XCH     A,R6
005C 33                RLC     A
005D CE                XCH     A,R6
005E D8F9              DJNZ    R0,?C0172
0060 2400        R     ADD     A,#LOW par_lim+02H
0062 F582              MOV     DPL,A
0064 7400        R     MOV     A,#HIGH par_lim+02H
0066 3E                ADDC    A,R6
0067 F583              MOV     DPH,A
0069 E0                MOVX    A,@DPTR
006A FC                MOV     R4,A
006B A3                INC     DPTR
006C E0                MOVX    A,@DPTR
006D FD                MOV     R5,A
006E 7400        R     MOV     A,#LOW par
0070 2B                ADD     A,R3
0071 F582              MOV     DPL,A
0073 7400        R     MOV     A,#HIGH par
0075 3A                ADDC    A,R2
0076 F583              MOV     DPH,A
0078 E0                MOVX    A,@DPTR
0079 FE                MOV     R6,A
007A A3                INC     DPTR
007B E0                MOVX    A,@DPTR
007C D3                SETB    C
007D 9D                SUBB    A,R5
007E EC                MOV     A,R4
007F 6480              XRL     A,#080H
0081 F8                MOV     R0,A
0082 EE                MOV     A,R6
0083 6480              XRL     A,#080H
0085 98                SUBB    A,R0
0086 401E              JC      ?C0080
                                           ; SOURCE LINE # 491
0088 900000      R     MOV     DPTR,#cur_par_id+01H
008B E0                MOVX    A,@DPTR
008C 25E0              ADD     A,ACC
008E FF                MOV     R7,A
008F 900000      R     MOV     DPTR,#cur_par_id
0092 E0                MOVX    A,@DPTR
0093 33                RLC     A
0094 FE                MOV     R6,A
0095 7400        R     MOV     A,#LOW par
0097 2F                ADD     A,R7
0098 F582              MOV     DPL,A
009A 7400        R     MOV     A,#HIGH par
009C 3E                ADDC    A,R6
009D F583              MOV     DPH,A
009F EC                MOV     A,R4
00A0 F0                MOVX    @DPTR,A
00A1 A3                INC     DPTR
00A2 ED                MOV     A,R5
00A3 F0                MOVX    @DPTR,A
00A4 805E              SJMP    ?C0079
C51 COMPILER V9.53.0.0   TEMP                                                              12/06/2023 15:46:42 PAGE 79  

00A6         ?C0080:
                                           ; SOURCE LINE # 492
00A6 900000      R     MOV     DPTR,#cur_par_id
00A9 E0                MOVX    A,@DPTR
00AA FC                MOV     R4,A
00AB A3                INC     DPTR
00AC E0                MOVX    A,@DPTR
00AD FD                MOV     R5,A
00AE AE04              MOV     R6,AR4
00B0 7802              MOV     R0,#02H
00B2         ?C0173:
00B2 C3                CLR     C
00B3 33                RLC     A
00B4 CE                XCH     A,R6
00B5 33                RLC     A
00B6 CE                XCH     A,R6
00B7 D8F9              DJNZ    R0,?C0173
00B9 2400        R     ADD     A,#LOW par_lim
00BB F582              MOV     DPL,A
00BD 7400        R     MOV     A,#HIGH par_lim
00BF 3E                ADDC    A,R6
00C0 F583              MOV     DPH,A
00C2 E0                MOVX    A,@DPTR
00C3 FA                MOV     R2,A
00C4 A3                INC     DPTR
00C5 E0                MOVX    A,@DPTR
00C6 FB                MOV     R3,A
00C7 ED                MOV     A,R5
00C8 25E0              ADD     A,ACC
00CA FF                MOV     R7,A
00CB EC                MOV     A,R4
00CC 33                RLC     A
00CD FE                MOV     R6,A
00CE 7400        R     MOV     A,#LOW par
00D0 2F                ADD     A,R7
00D1 F582              MOV     DPL,A
00D3 7400        R     MOV     A,#HIGH par
00D5 3E                ADDC    A,R6
00D6 F583              MOV     DPH,A
00D8 E0                MOVX    A,@DPTR
00D9 FE                MOV     R6,A
00DA A3                INC     DPTR
00DB E0                MOVX    A,@DPTR
00DC C3                CLR     C
00DD 9B                SUBB    A,R3
00DE EA                MOV     A,R2
00DF 6480              XRL     A,#080H
00E1 F8                MOV     R0,A
00E2 EE                MOV     A,R6
00E3 6480              XRL     A,#080H
00E5 98                SUBB    A,R0
00E6 501C              JNC     ?C0079
                                           ; SOURCE LINE # 493
00E8 900000      R     MOV     DPTR,#cur_par_id+01H
00EB E0                MOVX    A,@DPTR
00EC 25E0              ADD     A,ACC
00EE FF                MOV     R7,A
00EF 900000      R     MOV     DPTR,#cur_par_id
00F2 E0                MOVX    A,@DPTR
00F3 33                RLC     A
00F4 FE                MOV     R6,A
00F5 7400        R     MOV     A,#LOW par
C51 COMPILER V9.53.0.0   TEMP                                                              12/06/2023 15:46:42 PAGE 80  

00F7 2F                ADD     A,R7
00F8 F582              MOV     DPL,A
00FA 7400        R     MOV     A,#HIGH par
00FC 3E                ADDC    A,R6
00FD F583              MOV     DPH,A
00FF EA                MOV     A,R2
0100 F0                MOVX    @DPTR,A
0101 A3                INC     DPTR
0102 EB                MOV     A,R3
0103 F0                MOVX    @DPTR,A
                                           ; SOURCE LINE # 494
0104         ?C0079:
                                           ; SOURCE LINE # 496
0104 900000      R     MOV     DPTR,#cur_par_id
0107 E0                MOVX    A,@DPTR
0108 FE                MOV     R6,A
0109 A3                INC     DPTR
010A E0                MOVX    A,@DPTR
010B FF                MOV     R7,A
010C EE                MOV     A,R6
010D 6003              JZ      $ + 5H
010F 020000      R     LJMP    ?C0151
0112 EF                MOV     A,R7
0113 B42A00            CJNE    A,#02AH,?C0174
0116         ?C0174:
0116 4003              JC      $ + 5H
0118 020000      R     LJMP    ?C0151
011B 900000      R     MOV     DPTR,#?C0175
011E F8                MOV     R0,A
011F 28                ADD     A,R0
0120 28                ADD     A,R0
0121 73                JMP     @A+DPTR
0122         ?C0175:
0122 020000      R     LJMP    ?C0123
0125 020000      R     LJMP    ?C0123
0128 020000      R     LJMP    ?C0123
012B 020000      R     LJMP    ?C0123
012E 020000      R     LJMP    ?C0123
0131 020000      R     LJMP    ?C0123
0134 020000      R     LJMP    ?C0134
0137 020000      R     LJMP    ?C0135
013A 020000      R     LJMP    ?C0136
013D 020000      R     LJMP    ?C0123
0140 020000      R     LJMP    ?C0137
0143 020000      R     LJMP    ?C0138
0146 020000      R     LJMP    ?C0123
0149 020000      R     LJMP    ?C0123
014C 020000      R     LJMP    ?C0141
014F 020000      R     LJMP    ?C0142
0152 020000      R     LJMP    ?C0143
0155 020000      R     LJMP    ?C0144
0158 020000      R     LJMP    ?C0145
015B 020000      R     LJMP    ?C0146
015E 020000      R     LJMP    ?C0147
0161 020000      R     LJMP    ?C0149
0164 020000      R     LJMP    ?C0148
0167 020000      R     LJMP    ?C0150
016A 020000      R     LJMP    ?C0140
016D 020000      R     LJMP    ?C0139
0170 020000      R     LJMP    ?C0088
0173 020000      R     LJMP    ?C0105
0176 020000      R     LJMP    ?C0088
C51 COMPILER V9.53.0.0   TEMP                                                              12/06/2023 15:46:42 PAGE 81  

0179 020000      R     LJMP    ?C0088
017C 020000      R     LJMP    ?C0105
017F 020000      R     LJMP    ?C0097
0182 020000      R     LJMP    ?C0105
0185 020000      R     LJMP    ?C0097
0188 020000      R     LJMP    ?C0105
018B 020000      R     LJMP    ?C0105
018E 020000      R     LJMP    ?C0088
0191 020000      R     LJMP    ?C0105
0194 020000      R     LJMP    ?C0088
0197 020000      R     LJMP    ?C0097
019A 020000      R     LJMP    ?C0105
019D 020000      R     LJMP    ?C0105
                                           ; SOURCE LINE # 497
                                           ; SOURCE LINE # 498
                                           ; SOURCE LINE # 499
                                           ; SOURCE LINE # 500
                                           ; SOURCE LINE # 501
                                           ; SOURCE LINE # 502
01A0         ?C0088:
                                           ; SOURCE LINE # 503
01A0 900000      R     MOV     DPTR,#cur_par_id
01A3 E0                MOVX    A,@DPTR
01A4 FC                MOV     R4,A
01A5 A3                INC     DPTR
01A6 E0                MOVX    A,@DPTR
01A7 FD                MOV     R5,A
01A8 25E0              ADD     A,ACC
01AA FF                MOV     R7,A
01AB EC                MOV     A,R4
01AC 33                RLC     A
01AD FE                MOV     R6,A
01AE 7400        R     MOV     A,#LOW par
01B0 2F                ADD     A,R7
01B1 F582              MOV     DPL,A
01B3 7400        R     MOV     A,#HIGH par
01B5 3E                ADDC    A,R6
01B6 F583              MOV     DPH,A
01B8 E0                MOVX    A,@DPTR
01B9 F500        R     MOV     tmp,A
01BB A3                INC     DPTR
01BC E0                MOVX    A,@DPTR
01BD F500        R     MOV     tmp+01H,A
                                           ; SOURCE LINE # 504
01BF EC                MOV     A,R4
01C0 7032              JNZ     ?C0089
01C2 ED                MOV     A,R5
01C3 24E4              ADD     A,#0E4H
01C5 6014              JZ      ?C0091
01C7 14                DEC     A
01C8 6016              JZ      ?C0092
01CA 24F9              ADD     A,#0F9H
01CC 6017              JZ      ?C0093
01CE 24FE              ADD     A,#0FEH
01D0 6018              JZ      ?C0094
01D2 240C              ADD     A,#0CH
01D4 7020              JNZ     ?C0190
                                           ; SOURCE LINE # 505
                                           ; SOURCE LINE # 506
01D6         ?C0090:
01D6 900000      R     MOV     DPTR,#par_tek+02H
01D9 8012              SJMP    ?C0189
C51 COMPILER V9.53.0.0   TEMP                                                              12/06/2023 15:46:42 PAGE 82  

                                           ; SOURCE LINE # 507
01DB         ?C0091:
01DB 900000      R     MOV     DPTR,#par_tek+06H
01DE         ?C0186:
01DE 800D              SJMP    ?C0189
                                           ; SOURCE LINE # 508
01E0         ?C0092:
01E0 900000      R     MOV     DPTR,#par_tek+08H
01E3         ?C0187:
01E3 8008              SJMP    ?C0189
                                           ; SOURCE LINE # 509
01E5         ?C0093:
01E5 900000      R     MOV     DPTR,#par_tek+016H
01E8         ?C0188:
01E8 8003              SJMP    ?C0189
                                           ; SOURCE LINE # 510
01EA         ?C0094:
01EA 900000      R     MOV     DPTR,#par_tek+01AH
01ED         ?C0189:
01ED E500        R     MOV     A,tmp
01EF F0                MOVX    @DPTR,A
01F0 A3                INC     DPTR
01F1 E500        R     MOV     A,tmp+01H
01F3 F0                MOVX    @DPTR,A
                                           ; SOURCE LINE # 511
01F4         ?C0089:
                                           ; SOURCE LINE # 512
                                           ; SOURCE LINE # 513
01F4 8072              SJMP    ?C0192
                                           ; SOURCE LINE # 515
01F6         ?C0190:
                                           ; SOURCE LINE # 517
01F6 8070              SJMP    ?C0192
                                           ; SOURCE LINE # 519
                                           ; SOURCE LINE # 520
01F8         ?C0097:
                                           ; SOURCE LINE # 521
01F8         ?C0191:
                                           ; SOURCE LINE # 522
01F8 806E              SJMP    ?C0192
                                           ; SOURCE LINE # 524
                                           ; SOURCE LINE # 525
                                           ; SOURCE LINE # 526
                                           ; SOURCE LINE # 527
                                           ; SOURCE LINE # 528
                                           ; SOURCE LINE # 529
                                           ; SOURCE LINE # 530
                                           ; SOURCE LINE # 531
01FA         ?C0105:
                                           ; SOURCE LINE # 532
01FA 900000      R     MOV     DPTR,#cur_par_id
01FD E0                MOVX    A,@DPTR
01FE FC                MOV     R4,A
01FF A3                INC     DPTR
0200 E0                MOVX    A,@DPTR
0201 FD                MOV     R5,A
0202 25E0              ADD     A,ACC
0204 FF                MOV     R7,A
0205 EC                MOV     A,R4
0206 33                RLC     A
0207 FE                MOV     R6,A
0208 7400        R     MOV     A,#LOW par
C51 COMPILER V9.53.0.0   TEMP                                                              12/06/2023 15:46:42 PAGE 83  

020A 2F                ADD     A,R7
020B F582              MOV     DPL,A
020D 7400        R     MOV     A,#HIGH par
020F 3E                ADDC    A,R6
0210 F583              MOV     DPH,A
0212 E0                MOVX    A,@DPTR
0213 F500        R     MOV     tmp,A
0215 A3                INC     DPTR
0216 E0                MOVX    A,@DPTR
0217 F500        R     MOV     tmp+01H,A
                                           ; SOURCE LINE # 533
0219 EC                MOV     A,R4
021A 704C              JNZ     ?C0106
021C ED                MOV     A,R5
021D 24E2              ADD     A,#0E2H
021F 601F              JZ      ?C0108
0221 24FE              ADD     A,#0FEH
0223 6025              JZ      ?C0110
0225 24FE              ADD     A,#0FEH
0227 6030              JZ      ?C0113
0229 14                DEC     A
022A 6032              JZ      ?C0114
022C 24FE              ADD     A,#0FEH
022E 601F              JZ      ?C0111
0230 24FD              ADD     A,#0FDH
0232 6020              JZ      ?C0112
0234 14                DEC     A
0235 600E              JZ      ?C0109
0237 240E              ADD     A,#0EH
0239 702D              JNZ     ?C0106
                                           ; SOURCE LINE # 534
                                           ; SOURCE LINE # 535
023B         ?C0107:
023B 900000      R     MOV     DPTR,#par_tek+04H
023E 8021              SJMP    ?C0199
                                           ; SOURCE LINE # 536
0240         ?C0108:
0240 900000      R     MOV     DPTR,#par_tek+0AH
0243         ?C0193:
0243 801C              SJMP    ?C0199
                                           ; SOURCE LINE # 537
0245         ?C0109:
0245 900000      R     MOV     DPTR,#par_tek+044H
0248         ?C0194:
0248 8017              SJMP    ?C0199
                                           ; SOURCE LINE # 538
024A         ?C0110:
024A 900000      R     MOV     DPTR,#par_tek+0EH
024D         ?C0195:
024D 8012              SJMP    ?C0199
                                           ; SOURCE LINE # 539
024F         ?C0111:
024F 900000      R     MOV     DPTR,#par_tek+018H
0252         ?C0196:
0252 800D              SJMP    ?C0199
                                           ; SOURCE LINE # 540
0254         ?C0112:
0254 900000      R     MOV     DPTR,#par_tek+01EH
0257         ?C0197:
0257 8008              SJMP    ?C0199
                                           ; SOURCE LINE # 541
0259         ?C0113:
C51 COMPILER V9.53.0.0   TEMP                                                              12/06/2023 15:46:42 PAGE 84  

0259 900000      R     MOV     DPTR,#par_tek+012H
025C         ?C0198:
025C 8003              SJMP    ?C0199
                                           ; SOURCE LINE # 542
025E         ?C0114:
025E 900000      R     MOV     DPTR,#par_tek+014H
0261         ?C0199:
0261 E500        R     MOV     A,tmp
0263 F0                MOVX    @DPTR,A
0264 A3                INC     DPTR
0265 E500        R     MOV     A,tmp+01H
0267 F0                MOVX    @DPTR,A
                                           ; SOURCE LINE # 543
0268         ?C0106:
                                           ; SOURCE LINE # 544
0268         ?C0192:
0268 900000      R     MOV     DPTR,#cur_par_id
026B E0                MOVX    A,@DPTR
026C FE                MOV     R6,A
026D A3                INC     DPTR
026E E0                MOVX    A,@DPTR
026F FF                MOV     R7,A
0270 020000      R     LJMP    _display_par
                                           ; SOURCE LINE # 545
                                           ; SOURCE LINE # 547
                                           ; SOURCE LINE # 548
                                           ; SOURCE LINE # 549
                                           ; SOURCE LINE # 550
                                           ; SOURCE LINE # 551
                                           ; SOURCE LINE # 552
                                           ; SOURCE LINE # 553
                                           ; SOURCE LINE # 554
                                           ; SOURCE LINE # 555
0273         ?C0123:
                                           ; SOURCE LINE # 562
0273 900000      R     MOV     DPTR,#par_tek
0276 E0                MOVX    A,@DPTR
0277 FF                MOV     R7,A
0278 A3                INC     DPTR
0279 E0                MOVX    A,@DPTR
027A 900000      R     MOV     DPTR,#tmp
027D CF                XCH     A,R7
027E F0                MOVX    @DPTR,A
027F A3                INC     DPTR
0280 EF                MOV     A,R7
0281 F0                MOVX    @DPTR,A
                                           ; SOURCE LINE # 563
0282 900000      R     MOV     DPTR,#cur_par_id
0285 E0                MOVX    A,@DPTR
0286 FE                MOV     R6,A
0287 A3                INC     DPTR
0288 E0                MOVX    A,@DPTR
0289 FF                MOV     R7,A
028A EE                MOV     A,R6
028B 6003              JZ      $ + 5H
028D 020000      R     LJMP    ?C0124
0290 EF                MOV     A,R7
0291 B40E00            CJNE    A,#0EH,?C0176
0294         ?C0176:
0294 4003              JC      $ + 5H
0296 020000      R     LJMP    ?C0124
0299 900000      R     MOV     DPTR,#?C0177
C51 COMPILER V9.53.0.0   TEMP                                                              12/06/2023 15:46:42 PAGE 85  

029C F8                MOV     R0,A
029D 28                ADD     A,R0
029E 28                ADD     A,R0
029F 73                JMP     @A+DPTR
02A0         ?C0177:
02A0 020000      R     LJMP    ?C0131
02A3 020000      R     LJMP    ?C0132
02A6 020000      R     LJMP    ?C0127
02A9 020000      R     LJMP    ?C0128
02AC 020000      R     LJMP    ?C0129
02AF 020000      R     LJMP    ?C0130
02B2 020000      R     LJMP    ?C0124
02B5 020000      R     LJMP    ?C0124
02B8 020000      R     LJMP    ?C0124
02BB 020000      R     LJMP    ?C0133
02BE 020000      R     LJMP    ?C0124
02C1 020000      R     LJMP    ?C0124
02C4 020000      R     LJMP    ?C0125
02C7 020000      R     LJMP    ?C0126
                                           ; SOURCE LINE # 564
                                           ; SOURCE LINE # 565
02CA         ?C0125:
02CA 900000      R     MOV     DPTR,#tmp
02CD E0                MOVX    A,@DPTR
02CE FE                MOV     R6,A
02CF A3                INC     DPTR
02D0 E0                MOVX    A,@DPTR
02D1 540F              ANL     A,#0FH
02D3 4410              ORL     A,#010H
02D5 FF                MOV     R7,A
02D6 900000      R     MOV     DPTR,#tmp
02D9 EE                MOV     A,R6
02DA 020000      R     LJMP    ?C0203
                                           ; SOURCE LINE # 566
02DD         ?C0126:
02DD 900000      R     MOV     DPTR,#tmp
02E0 E0                MOVX    A,@DPTR
02E1 F0                MOVX    @DPTR,A
02E2 A3                INC     DPTR
02E3 E0                MOVX    A,@DPTR
02E4 540F              ANL     A,#0FH
02E6 F0                MOVX    @DPTR,A
02E7 020000      R     LJMP    ?C0124
                                           ; SOURCE LINE # 567
02EA         ?C0127:
02EA 900000      R     MOV     DPTR,#tmp
02ED E0                MOVX    A,@DPTR
02EE 54F0              ANL     A,#0F0H
02F0 FE                MOV     R6,A
02F1 A3                INC     DPTR
02F2 E0                MOVX    A,@DPTR
02F3 FF                MOV     R7,A
02F4 EE                MOV     A,R6
02F5 4401              ORL     A,#01H
02F7 900000      R     MOV     DPTR,#tmp
02FA         ?C0200:
02FA 8069              SJMP    ?C0203
                                           ; SOURCE LINE # 568
02FC         ?C0128:
02FC 900000      R     MOV     DPTR,#tmp
02FF E0                MOVX    A,@DPTR
0300 54F0              ANL     A,#0F0H
C51 COMPILER V9.53.0.0   TEMP                                                              12/06/2023 15:46:42 PAGE 86  

0302 FE                MOV     R6,A
0303 A3                INC     DPTR
0304 E0                MOVX    A,@DPTR
0305 FF                MOV     R7,A
0306 EE                MOV     A,R6
0307 4402              ORL     A,#02H
0309 900000      R     MOV     DPTR,#tmp
030C         ?C0201:
030C 8057              SJMP    ?C0203
                                           ; SOURCE LINE # 569
030E         ?C0129:
030E 900000      R     MOV     DPTR,#tmp
0311 E0                MOVX    A,@DPTR
0312 54F0              ANL     A,#0F0H
0314 F0                MOVX    @DPTR,A
0315 A3                INC     DPTR
0316 E0                MOVX    A,@DPTR
0317 F0                MOVX    @DPTR,A
0318 900000      R     MOV     DPTR,#par_tek+028H
031B E4                CLR     A
031C F0                MOVX    @DPTR,A
031D A3                INC     DPTR
031E 7402              MOV     A,#02H
0320 F0                MOVX    @DPTR,A
0321 8046              SJMP    ?C0124
                                           ; SOURCE LINE # 570
0323         ?C0130:
0323 900000      R     MOV     DPTR,#tmp
0326 E0                MOVX    A,@DPTR
0327 54F0              ANL     A,#0F0H
0329 F0                MOVX    @DPTR,A
032A A3                INC     DPTR
032B E0                MOVX    A,@DPTR
032C F0                MOVX    @DPTR,A
032D 900000      R     MOV     DPTR,#par_tek+028H
0330 E4                CLR     A
0331 F0                MOVX    @DPTR,A
0332 A3                INC     DPTR
0333 04                INC     A
0334 F0                MOVX    @DPTR,A
0335 8032              SJMP    ?C0124
                                           ; SOURCE LINE # 571
0337         ?C0131:
0337 900000      R     MOV     DPTR,#tmp
033A E0                MOVX    A,@DPTR
033B 540F              ANL     A,#0FH
033D F0                MOVX    @DPTR,A
033E A3                INC     DPTR
033F E0                MOVX    A,@DPTR
0340 F0                MOVX    @DPTR,A
0341 8026              SJMP    ?C0124
                                           ; SOURCE LINE # 572
0343         ?C0132:
0343 900000      R     MOV     DPTR,#tmp
0346 E0                MOVX    A,@DPTR
0347 540F              ANL     A,#0FH
0349 FE                MOV     R6,A
034A A3                INC     DPTR
034B E0                MOVX    A,@DPTR
034C FF                MOV     R7,A
034D EE                MOV     A,R6
034E 4410              ORL     A,#010H
C51 COMPILER V9.53.0.0   TEMP                                                              12/06/2023 15:46:42 PAGE 87  

0350 900000      R     MOV     DPTR,#tmp
0353         ?C0202:
0353 8010              SJMP    ?C0203
                                           ; SOURCE LINE # 573
0355         ?C0133:
0355 900000      R     MOV     DPTR,#tmp
0358 E0                MOVX    A,@DPTR
0359 540F              ANL     A,#0FH
035B FE                MOV     R6,A
035C A3                INC     DPTR
035D E0                MOVX    A,@DPTR
035E FF                MOV     R7,A
035F EE                MOV     A,R6
0360 4420              ORL     A,#020H
0362 900000      R     MOV     DPTR,#tmp
0365         ?C0203:
0365 F0                MOVX    @DPTR,A
0366 A3                INC     DPTR
0367 EF                MOV     A,R7
0368 F0                MOVX    @DPTR,A
                                           ; SOURCE LINE # 574
0369         ?C0124:
                                           ; SOURCE LINE # 575
0369 900000      R     MOV     DPTR,#tmp
036C E0                MOVX    A,@DPTR
036D FF                MOV     R7,A
036E A3                INC     DPTR
036F E0                MOVX    A,@DPTR
0370 900000      R     MOV     DPTR,#par_tek
0373 CF                XCH     A,R7
0374 F0                MOVX    @DPTR,A
0375 A3                INC     DPTR
0376 EF                MOV     A,R7
0377 F0                MOVX    @DPTR,A
                                           ; SOURCE LINE # 576
0378 22                RET     
                                           ; SOURCE LINE # 578
0379         ?C0134:
0379 900000      R     MOV     DPTR,#par_tek+022H
037C 8052              SJMP    ?C0211
                                           ; SOURCE LINE # 579
037E         ?C0135:
037E 900000      R     MOV     DPTR,#par_tek+022H
0381 E4                CLR     A
0382 F0                MOVX    @DPTR,A
0383 A3                INC     DPTR
0384 7402              MOV     A,#02H
0386 F0                MOVX    @DPTR,A
0387 900000      R     MOV     DPTR,#par_tek+046H
038A 804D              SJMP    ?C0212
                                           ; SOURCE LINE # 580
038C         ?C0136:
                                           ; SOURCE LINE # 581
038C 900000      R     MOV     DPTR,#par_tek+046H
038F         ?C0204:
                                           ; SOURCE LINE # 582
038F 803F              SJMP    ?C0211
                                           ; SOURCE LINE # 584
0391         ?C0137:
0391 900000      R     MOV     DPTR,#par_tek+024H
0394         ?C0205:
0394 8043              SJMP    ?C0212
C51 COMPILER V9.53.0.0   TEMP                                                              12/06/2023 15:46:42 PAGE 88  

                                           ; SOURCE LINE # 585
0396         ?C0138:
0396 900000      R     MOV     DPTR,#par_tek+024H
0399         ?C0206:
0399 8035              SJMP    ?C0211
                                           ; SOURCE LINE # 587
039B         ?C0139:
039B 900000      R     MOV     DPTR,#par_tek+026H
039E         ?C0208:
039E 8030              SJMP    ?C0211
                                           ; SOURCE LINE # 588
03A0         ?C0140:
03A0 900000      R     MOV     DPTR,#par_tek+026H
03A3         ?C0207:
03A3 8034              SJMP    ?C0212
                                           ; SOURCE LINE # 590
03A5         ?C0141:
03A5 900000      R     MOV     DPTR,#par_tek+02CH
03A8         ?C0209:
03A8 8026              SJMP    ?C0211
                                           ; SOURCE LINE # 591
03AA         ?C0142:
03AA 900000      R     MOV     DPTR,#par_tek+02CH
03AD         ?C0210:
03AD 802A              SJMP    ?C0212
                                           ; SOURCE LINE # 592
03AF         ?C0143:
03AF 900000      R     MOV     DPTR,#par_tek+02CH
03B2 802F              SJMP    ?C0213
                                           ; SOURCE LINE # 593
03B4         ?C0144:
03B4 900000      R     MOV     DPTR,#par_tek+02CH
03B7 8034              SJMP    ?C0214
                                           ; SOURCE LINE # 594
03B9         ?C0145:
03B9 900000      R     MOV     DPTR,#par_tek+02CH
03BC E4                CLR     A
03BD F0                MOVX    @DPTR,A
03BE A3                INC     DPTR
03BF 7405              MOV     A,#05H
03C1 F0                MOVX    @DPTR,A
03C2 22                RET     
                                           ; SOURCE LINE # 595
03C3         ?C0146:
03C3 900000      R     MOV     DPTR,#par_tek+02CH
03C6 E4                CLR     A
03C7 F0                MOVX    @DPTR,A
03C8 A3                INC     DPTR
03C9 7406              MOV     A,#06H
03CB F0                MOVX    @DPTR,A
03CC 22                RET     
                                           ; SOURCE LINE # 597
03CD         ?C0147:
03CD 900000      R     MOV     DPTR,#par_tek+02AH
03D0         ?C0211:
03D0 E4                CLR     A
03D1 F0                MOVX    @DPTR,A
03D2 A3                INC     DPTR
03D3 04                INC     A
03D4 F0                MOVX    @DPTR,A
03D5 22                RET     
                                           ; SOURCE LINE # 598
C51 COMPILER V9.53.0.0   TEMP                                                              12/06/2023 15:46:42 PAGE 89  

03D6         ?C0148:
03D6 900000      R     MOV     DPTR,#par_tek+02AH
03D9         ?C0212:
03D9 E4                CLR     A
03DA F0                MOVX    @DPTR,A
03DB A3                INC     DPTR
03DC 7402              MOV     A,#02H
03DE F0                MOVX    @DPTR,A
03DF 22                RET     
                                           ; SOURCE LINE # 599
03E0         ?C0149:
03E0 900000      R     MOV     DPTR,#par_tek+02AH
03E3         ?C0213:
03E3 E4                CLR     A
03E4 F0                MOVX    @DPTR,A
03E5 A3                INC     DPTR
03E6 7403              MOV     A,#03H
03E8 F0                MOVX    @DPTR,A
03E9 22                RET     
                                           ; SOURCE LINE # 600
03EA         ?C0150:
03EA 900000      R     MOV     DPTR,#par_tek+02AH
03ED         ?C0214:
03ED E4                CLR     A
03EE F0                MOVX    @DPTR,A
03EF A3                INC     DPTR
03F0 7404              MOV     A,#04H
03F2 F0                MOVX    @DPTR,A
                                           ; SOURCE LINE # 602
                                           ; SOURCE LINE # 604
03F3         ?C0151:
03F3 22                RET     
             ; FUNCTION _cur_par_value_change (END)

             ; FUNCTION _Process_Encoder (BEGIN)
                                           ; SOURCE LINE # 607
;---- Variable 'state' assigned to Register 'R5' ----
0000 AD07              MOV     R5,AR7
                                           ; SOURCE LINE # 608
                                           ; SOURCE LINE # 611
0002 900000      R     MOV     DPTR,#cur_par_id
0005 E0                MOVX    A,@DPTR
0006 FE                MOV     R6,A
0007 A3                INC     DPTR
0008 E0                MOVX    A,@DPTR
0009 FF                MOV     R7,A
000A ED                MOV     A,R5
000B 900000      R     MOV     DPTR,#shifts
000E 93                MOVC    A,@A+DPTR
000F FD                MOV     R5,A
0010 020000      R     LJMP    _cur_par_value_change
             ; FUNCTION _Process_Encoder (END)

             ; FUNCTION _par_select (BEGIN)
                                           ; SOURCE LINE # 617
0000 900000      R     MOV     DPTR,#new_par_id
0003 EF                MOV     A,R7
0004 F0                MOVX    @DPTR,A
                                           ; SOURCE LINE # 618
                                           ; SOURCE LINE # 621
0005 7E00              MOV     R6,#00H
0007 900000      R     MOV     DPTR,#cur_par_id
C51 COMPILER V9.53.0.0   TEMP                                                              12/06/2023 15:46:42 PAGE 90  

000A E0                MOVX    A,@DPTR
000B FC                MOV     R4,A
000C A3                INC     DPTR
000D E0                MOVX    A,@DPTR
000E FD                MOV     R5,A
000F B50705            CJNE    A,AR7,?C0153
0012 EE                MOV     A,R6
0013 B50401            CJNE    A,AR4,?C0153
0016 22                RET     
0017         ?C0153:
                                           ; SOURCE LINE # 623
                                           ; SOURCE LINE # 624
0017 ED                MOV     A,R5
0018 25E0              ADD     A,ACC
001A FF                MOV     R7,A
001B EC                MOV     A,R4
001C 33                RLC     A
001D FE                MOV     R6,A
001E 7400        R     MOV     A,#LOW text_sp
0020 2F                ADD     A,R7
0021 F582              MOV     DPL,A
0023 7400        R     MOV     A,#HIGH text_sp
0025 3E                ADDC    A,R6
0026 F583              MOV     DPH,A
0028 E0                MOVX    A,@DPTR
0029 FE                MOV     R6,A
002A A3                INC     DPTR
002B E0                MOVX    A,@DPTR
002C FF                MOV     R7,A
002D 7800        R     MOV     R0,#LOW old_color
002F E6                MOV     A,@R0
0030 FC                MOV     R4,A
0031 08                INC     R0
0032 E6                MOV     A,@R0
0033 FD                MOV     R5,A
0034 120000      E     LCALL   _Draw_text_change_color
                                           ; SOURCE LINE # 625
0037 900000      R     MOV     DPTR,#new_par_id
003A E0                MOVX    A,@DPTR
003B 25E0              ADD     A,ACC
003D 2400        R     ADD     A,#LOW text_sp
003F F582              MOV     DPL,A
0041 E4                CLR     A
0042 3400        R     ADDC    A,#HIGH text_sp
0044 F583              MOV     DPH,A
0046 E0                MOVX    A,@DPTR
0047 FE                MOV     R6,A
0048 A3                INC     DPTR
0049 E0                MOVX    A,@DPTR
004A FF                MOV     R7,A
004B 120000      E     LCALL   _Draw_text_get_color
004E 7800        R     MOV     R0,#LOW old_color
0050 A606              MOV     @R0,AR6
0052 08                INC     R0
0053 A607              MOV     @R0,AR7
                                           ; SOURCE LINE # 626
0055 900000      R     MOV     DPTR,#new_par_id
0058 E0                MOVX    A,@DPTR
0059 25E0              ADD     A,ACC
005B 2400        R     ADD     A,#LOW text_sp
005D F582              MOV     DPL,A
005F E4                CLR     A
C51 COMPILER V9.53.0.0   TEMP                                                              12/06/2023 15:46:42 PAGE 91  

0060 3400        R     ADDC    A,#HIGH text_sp
0062 F583              MOV     DPH,A
0064 E0                MOVX    A,@DPTR
0065 FE                MOV     R6,A
0066 A3                INC     DPTR
0067 E0                MOVX    A,@DPTR
0068 FF                MOV     R7,A
0069 7D1F              MOV     R5,#01FH
006B 7CF8              MOV     R4,#0F8H
006D 120000      E     LCALL   _Draw_text_change_color
                                           ; SOURCE LINE # 627
0070 900000      R     MOV     DPTR,#new_par_id
0073 E0                MOVX    A,@DPTR
0074 FF                MOV     R7,A
0075 900000      R     MOV     DPTR,#cur_par_id
0078 E4                CLR     A
0079 F0                MOVX    @DPTR,A
007A A3                INC     DPTR
007B EF                MOV     A,R7
007C F0                MOVX    @DPTR,A
                                           ; SOURCE LINE # 628
                                           ; SOURCE LINE # 629
007D         ?C0154:
007D 22                RET     
             ; FUNCTION _par_select (END)

             ; FUNCTION init_par_udgu (BEGIN)
                                           ; SOURCE LINE # 633
                                           ; SOURCE LINE # 634
                                           ; SOURCE LINE # 635
0000 7B01              MOV     R3,#01H
0002 7A00        R     MOV     R2,#HIGH par_lim+068H
0004 7900        R     MOV     R1,#LOW par_lim+068H
0006 900000      R     MOV     DPTR,#?_make_lim?BYTE+05H
0009 E4                CLR     A
000A F0                MOVX    @DPTR,A
000B A3                INC     DPTR
000C 7464              MOV     A,#064H
000E F0                MOVX    @DPTR,A
000F 7D01              MOV     R5,#01H
0011 7C00              MOV     R4,#00H
0013 120000      R     LCALL   _make_lim
                                           ; SOURCE LINE # 636
0016 7A00        R     MOV     R2,#HIGH par_lim+06CH
0018 7900        R     MOV     R1,#LOW par_lim+06CH
001A 120000      R     LCALL   L?0223
                                           ; SOURCE LINE # 637
001D 7A00        R     MOV     R2,#HIGH par_lim+070H
001F 7900        R     MOV     R1,#LOW par_lim+070H
0021 900000      R     MOV     DPTR,#?_make_lim?BYTE+05H
0024 E4                CLR     A
0025 F0                MOVX    @DPTR,A
0026 A3                INC     DPTR
0027 7464              MOV     A,#064H
0029 F0                MOVX    @DPTR,A
002A 7D01              MOV     R5,#01H
002C 120000      R     LCALL   _make_lim
                                           ; SOURCE LINE # 638
002F 7A00        R     MOV     R2,#HIGH par_lim+074H
0031 7900        R     MOV     R1,#LOW par_lim+074H
0033 900000      R     MOV     DPTR,#?_make_lim?BYTE+05H
0036 E4                CLR     A
C51 COMPILER V9.53.0.0   TEMP                                                              12/06/2023 15:46:42 PAGE 92  

0037 F0                MOVX    @DPTR,A
0038 A3                INC     DPTR
0039 7464              MOV     A,#064H
003B F0                MOVX    @DPTR,A
003C 120000      R     LCALL   _make_lim
                                           ; SOURCE LINE # 639
003F 7A00        R     MOV     R2,#HIGH par_lim+078H
0041 7900        R     MOV     R1,#LOW par_lim+078H
0043 120000      R     LCALL   L?0223
                                           ; SOURCE LINE # 640
0046 7A00        R     MOV     R2,#HIGH par_lim+07CH
0048 7900        R     MOV     R1,#LOW par_lim+07CH
004A 900000      R     MOV     DPTR,#?_make_lim?BYTE+05H
004D 7427              MOV     A,#027H
004F F0                MOVX    @DPTR,A
0050 A3                INC     DPTR
0051 7410              MOV     A,#010H
0053 F0                MOVX    @DPTR,A
0054 7D01              MOV     R5,#01H
0056 120000      R     LCALL   _make_lim
                                           ; SOURCE LINE # 641
0059 7A00        R     MOV     R2,#HIGH par_lim+080H
005B 7900        R     MOV     R1,#LOW par_lim+080H
005D 120000      R     LCALL   L?0224
                                           ; SOURCE LINE # 642
0060 7A00        R     MOV     R2,#HIGH par_lim+084H
0062 7900        R     MOV     R1,#LOW par_lim+084H
0064 900000      R     MOV     DPTR,#?_make_lim?BYTE+05H
0067 7427              MOV     A,#027H
0069 F0                MOVX    @DPTR,A
006A A3                INC     DPTR
006B 7410              MOV     A,#010H
006D F0                MOVX    @DPTR,A
006E 7D01              MOV     R5,#01H
0070 120000      R     LCALL   _make_lim
                                           ; SOURCE LINE # 643
0073 7A00        R     MOV     R2,#HIGH par_lim+088H
0075 7900        R     MOV     R1,#LOW par_lim+088H
0077 900000      R     MOV     DPTR,#?_make_lim?BYTE+05H
007A E4                CLR     A
007B F0                MOVX    @DPTR,A
007C A3                INC     DPTR
007D 74C8              MOV     A,#0C8H
007F F0                MOVX    @DPTR,A
0080 7D14              MOV     R5,#014H
0082 120000      R     LCALL   _make_lim
                                           ; SOURCE LINE # 644
0085 7A00        R     MOV     R2,#HIGH par_lim+08CH
0087 7900        R     MOV     R1,#LOW par_lim+08CH
0089 900000      R     MOV     DPTR,#?_make_lim?BYTE+05H
008C E4                CLR     A
008D F0                MOVX    @DPTR,A
008E A3                INC     DPTR
008F 7450              MOV     A,#050H
0091 F0                MOVX    @DPTR,A
0092 7D1E              MOV     R5,#01EH
0094 120000      R     LCALL   _make_lim
                                           ; SOURCE LINE # 645
0097 7A00        R     MOV     R2,#HIGH par_lim+090H
0099 7900        R     MOV     R1,#LOW par_lim+090H
009B 900000      R     MOV     DPTR,#?_make_lim?BYTE+05H
009E E4                CLR     A
C51 COMPILER V9.53.0.0   TEMP                                                              12/06/2023 15:46:42 PAGE 93  

009F F0                MOVX    @DPTR,A
00A0 A3                INC     DPTR
00A1 7464              MOV     A,#064H
00A3 F0                MOVX    @DPTR,A
00A4 7D01              MOV     R5,#01H
00A6 120000      R     LCALL   _make_lim
                                           ; SOURCE LINE # 646
00A9 7A00        R     MOV     R2,#HIGH par_lim+094H
00AB 7900        R     MOV     R1,#LOW par_lim+094H
00AD 120000      R     LCALL   L?0224
                                           ; SOURCE LINE # 647
00B0 7A00        R     MOV     R2,#HIGH par_lim+098H
00B2 7900        R     MOV     R1,#LOW par_lim+098H
00B4 900000      R     MOV     DPTR,#?_make_lim?BYTE+05H
00B7 E4                CLR     A
00B8 F0                MOVX    @DPTR,A
00B9 A3                INC     DPTR
00BA 7464              MOV     A,#064H
00BC F0                MOVX    @DPTR,A
00BD 7D01              MOV     R5,#01H
00BF 120000      R     LCALL   _make_lim
                                           ; SOURCE LINE # 648
00C2 7A00        R     MOV     R2,#HIGH par_lim+09CH
00C4 7900        R     MOV     R1,#LOW par_lim+09CH
00C6 900000      R     MOV     DPTR,#?_make_lim?BYTE+05H
00C9 E4                CLR     A
00CA F0                MOVX    @DPTR,A
00CB A3                INC     DPTR
00CC 743C              MOV     A,#03CH
00CE F0                MOVX    @DPTR,A
00CF 120000      R     LCALL   _make_lim
                                           ; SOURCE LINE # 649
00D2 7A00        R     MOV     R2,#HIGH par_lim+0A0H
00D4 7900        R     MOV     R1,#LOW par_lim+0A0H
00D6 900000      R     MOV     DPTR,#?_make_lim?BYTE+05H
00D9 E4                CLR     A
00DA F0                MOVX    @DPTR,A
00DB A3                INC     DPTR
00DC 7464              MOV     A,#064H
00DE F0                MOVX    @DPTR,A
00DF 1D                DEC     R5
00E0 120000      R     LCALL   _make_lim
                                           ; SOURCE LINE # 650
00E3 7A00        R     MOV     R2,#HIGH par_lim+0A4H
00E5 7900        R     MOV     R1,#LOW par_lim+0A4H
00E7 120000      R     LCALL   L?0224
                                           ; SOURCE LINE # 652
00EA 900000      R     MOV     DPTR,#par_step+034H
00ED E4                CLR     A
00EE F0                MOVX    @DPTR,A
00EF A3                INC     DPTR
00F0 04                INC     A
00F1 F0                MOVX    @DPTR,A
                                           ; SOURCE LINE # 653
00F2 A3                INC     DPTR
00F3 E4                CLR     A
00F4 F0                MOVX    @DPTR,A
00F5 A3                INC     DPTR
00F6 04                INC     A
00F7 F0                MOVX    @DPTR,A
                                           ; SOURCE LINE # 654
00F8 A3                INC     DPTR
C51 COMPILER V9.53.0.0   TEMP                                                              12/06/2023 15:46:42 PAGE 94  

00F9 E4                CLR     A
00FA F0                MOVX    @DPTR,A
00FB A3                INC     DPTR
00FC 04                INC     A
00FD F0                MOVX    @DPTR,A
                                           ; SOURCE LINE # 655
00FE A3                INC     DPTR
00FF E4                CLR     A
0100 F0                MOVX    @DPTR,A
0101 A3                INC     DPTR
0102 04                INC     A
0103 F0                MOVX    @DPTR,A
                                           ; SOURCE LINE # 656
0104 A3                INC     DPTR
0105 E4                CLR     A
0106 F0                MOVX    @DPTR,A
0107 A3                INC     DPTR
0108 04                INC     A
0109 F0                MOVX    @DPTR,A
                                           ; SOURCE LINE # 657
010A A3                INC     DPTR
010B E4                CLR     A
010C F0                MOVX    @DPTR,A
010D A3                INC     DPTR
010E 04                INC     A
010F F0                MOVX    @DPTR,A
                                           ; SOURCE LINE # 658
0110 A3                INC     DPTR
0111 E4                CLR     A
0112 F0                MOVX    @DPTR,A
0113 A3                INC     DPTR
0114 04                INC     A
0115 F0                MOVX    @DPTR,A
                                           ; SOURCE LINE # 659
0116 A3                INC     DPTR
0117 E4                CLR     A
0118 F0                MOVX    @DPTR,A
0119 A3                INC     DPTR
011A 04                INC     A
011B F0                MOVX    @DPTR,A
                                           ; SOURCE LINE # 660
011C A3                INC     DPTR
011D E4                CLR     A
011E F0                MOVX    @DPTR,A
011F A3                INC     DPTR
0120 04                INC     A
0121 F0                MOVX    @DPTR,A
                                           ; SOURCE LINE # 661
0122 A3                INC     DPTR
0123 E4                CLR     A
0124 F0                MOVX    @DPTR,A
0125 A3                INC     DPTR
0126 04                INC     A
0127 F0                MOVX    @DPTR,A
                                           ; SOURCE LINE # 662
0128 A3                INC     DPTR
0129 E4                CLR     A
012A F0                MOVX    @DPTR,A
012B A3                INC     DPTR
012C 04                INC     A
012D F0                MOVX    @DPTR,A
                                           ; SOURCE LINE # 663
C51 COMPILER V9.53.0.0   TEMP                                                              12/06/2023 15:46:42 PAGE 95  

012E A3                INC     DPTR
012F E4                CLR     A
0130 F0                MOVX    @DPTR,A
0131 A3                INC     DPTR
0132 04                INC     A
0133 F0                MOVX    @DPTR,A
                                           ; SOURCE LINE # 664
0134 A3                INC     DPTR
0135 E4                CLR     A
0136 F0                MOVX    @DPTR,A
0137 A3                INC     DPTR
0138 04                INC     A
0139 F0                MOVX    @DPTR,A
                                           ; SOURCE LINE # 665
013A A3                INC     DPTR
013B E4                CLR     A
013C F0                MOVX    @DPTR,A
013D A3                INC     DPTR
013E 04                INC     A
013F F0                MOVX    @DPTR,A
                                           ; SOURCE LINE # 666
0140 A3                INC     DPTR
0141 E4                CLR     A
0142 F0                MOVX    @DPTR,A
0143 A3                INC     DPTR
0144 04                INC     A
0145 F0                MOVX    @DPTR,A
                                           ; SOURCE LINE # 667
0146 A3                INC     DPTR
0147 E4                CLR     A
0148 F0                MOVX    @DPTR,A
0149 A3                INC     DPTR
014A 04                INC     A
014B F0                MOVX    @DPTR,A
                                           ; SOURCE LINE # 670
014C 900000      R     MOV     DPTR,#par_tek
014F F0                MOVX    @DPTR,A
0150 A3                INC     DPTR
0151 E4                CLR     A
0152 F0                MOVX    @DPTR,A
                                           ; SOURCE LINE # 671
0153 A3                INC     DPTR
0154 F0                MOVX    @DPTR,A
0155 A3                INC     DPTR
0156 7435              MOV     A,#035H
0158 F0                MOVX    @DPTR,A
0159 900000      R     MOV     DPTR,#par+034H
015C E4                CLR     A
015D F0                MOVX    @DPTR,A
015E A3                INC     DPTR
015F 7435              MOV     A,#035H
0161 F0                MOVX    @DPTR,A
                                           ; SOURCE LINE # 672
0162 900000      R     MOV     DPTR,#par_tek+04H
0165 E4                CLR     A
0166 F0                MOVX    @DPTR,A
0167 A3                INC     DPTR
0168 7432              MOV     A,#032H
016A F0                MOVX    @DPTR,A
016B 900000      R     MOV     DPTR,#par+036H
016E E4                CLR     A
016F F0                MOVX    @DPTR,A
C51 COMPILER V9.53.0.0   TEMP                                                              12/06/2023 15:46:42 PAGE 96  

0170 A3                INC     DPTR
0171 7432              MOV     A,#032H
0173 F0                MOVX    @DPTR,A
                                           ; SOURCE LINE # 673
0174 900000      R     MOV     DPTR,#par_tek+06H
0177 E4                CLR     A
0178 F0                MOVX    @DPTR,A
0179 A3                INC     DPTR
017A 7414              MOV     A,#014H
017C F0                MOVX    @DPTR,A
017D 900000      R     MOV     DPTR,#par+038H
0180 E4                CLR     A
0181 F0                MOVX    @DPTR,A
0182 A3                INC     DPTR
0183 7414              MOV     A,#014H
0185 F0                MOVX    @DPTR,A
                                           ; SOURCE LINE # 674
0186 900000      R     MOV     DPTR,#par_tek+08H
0189 E4                CLR     A
018A F0                MOVX    @DPTR,A
018B A3                INC     DPTR
018C 7421              MOV     A,#021H
018E F0                MOVX    @DPTR,A
018F 900000      R     MOV     DPTR,#par+03AH
0192 E4                CLR     A
0193 F0                MOVX    @DPTR,A
0194 A3                INC     DPTR
0195 7421              MOV     A,#021H
0197 F0                MOVX    @DPTR,A
                                           ; SOURCE LINE # 675
0198 900000      R     MOV     DPTR,#par_tek+0AH
019B E4                CLR     A
019C F0                MOVX    @DPTR,A
019D A3                INC     DPTR
019E 7464              MOV     A,#064H
01A0 F0                MOVX    @DPTR,A
01A1 900000      R     MOV     DPTR,#par+03CH
01A4 E4                CLR     A
01A5 F0                MOVX    @DPTR,A
01A6 A3                INC     DPTR
01A7 7464              MOV     A,#064H
01A9 F0                MOVX    @DPTR,A
                                           ; SOURCE LINE # 676
01AA 900000      R     MOV     DPTR,#par_tek+0CH
01AD E4                CLR     A
01AE F0                MOVX    @DPTR,A
01AF A3                INC     DPTR
01B0 7402              MOV     A,#02H
01B2 F0                MOVX    @DPTR,A
01B3 900000      R     MOV     DPTR,#par+03EH
01B6 E4                CLR     A
01B7 F0                MOVX    @DPTR,A
01B8 A3                INC     DPTR
01B9 7402              MOV     A,#02H
01BB F0                MOVX    @DPTR,A
                                           ; SOURCE LINE # 677
01BC 900000      R     MOV     DPTR,#par_tek+0EH
01BF E4                CLR     A
01C0 F0                MOVX    @DPTR,A
01C1 A3                INC     DPTR
01C2 7496              MOV     A,#096H
01C4 F0                MOVX    @DPTR,A
C51 COMPILER V9.53.0.0   TEMP                                                              12/06/2023 15:46:42 PAGE 97  

01C5 900000      R     MOV     DPTR,#par+040H
01C8 E4                CLR     A
01C9 F0                MOVX    @DPTR,A
01CA A3                INC     DPTR
01CB 7496              MOV     A,#096H
01CD F0                MOVX    @DPTR,A
                                           ; SOURCE LINE # 678
01CE 900000      R     MOV     DPTR,#par_tek+010H
01D1 E4                CLR     A
01D2 F0                MOVX    @DPTR,A
01D3 A3                INC     DPTR
01D4 7403              MOV     A,#03H
01D6 F0                MOVX    @DPTR,A
01D7 900000      R     MOV     DPTR,#par+042H
01DA E4                CLR     A
01DB F0                MOVX    @DPTR,A
01DC A3                INC     DPTR
01DD 7403              MOV     A,#03H
01DF F0                MOVX    @DPTR,A
                                           ; SOURCE LINE # 679
01E0 900000      R     MOV     DPTR,#par_tek+012H
01E3 E4                CLR     A
01E4 F0                MOVX    @DPTR,A
01E5 A3                INC     DPTR
01E6 7464              MOV     A,#064H
01E8 F0                MOVX    @DPTR,A
01E9 900000      R     MOV     DPTR,#par+044H
01EC E4                CLR     A
01ED F0                MOVX    @DPTR,A
01EE A3                INC     DPTR
01EF 7464              MOV     A,#064H
01F1 F0                MOVX    @DPTR,A
                                           ; SOURCE LINE # 680
01F2 900000      R     MOV     DPTR,#par_tek+014H
01F5 E4                CLR     A
01F6 F0                MOVX    @DPTR,A
01F7 A3                INC     DPTR
01F8 7406              MOV     A,#06H
01FA F0                MOVX    @DPTR,A
01FB 900000      R     MOV     DPTR,#par+046H
01FE E4                CLR     A
01FF F0                MOVX    @DPTR,A
0200 A3                INC     DPTR
0201 7406              MOV     A,#06H
0203 F0                MOVX    @DPTR,A
                                           ; SOURCE LINE # 681
0204 900000      R     MOV     DPTR,#par_tek+016H
0207 E4                CLR     A
0208 F0                MOVX    @DPTR,A
0209 A3                INC     DPTR
020A 740B              MOV     A,#0BH
020C F0                MOVX    @DPTR,A
020D 900000      R     MOV     DPTR,#par+048H
0210 E4                CLR     A
0211 F0                MOVX    @DPTR,A
0212 A3                INC     DPTR
0213 740B              MOV     A,#0BH
0215 F0                MOVX    @DPTR,A
                                           ; SOURCE LINE # 682
0216 900000      R     MOV     DPTR,#par_tek+018H
0219 E4                CLR     A
021A F0                MOVX    @DPTR,A
C51 COMPILER V9.53.0.0   TEMP                                                              12/06/2023 15:46:42 PAGE 98  

021B A3                INC     DPTR
021C 743C              MOV     A,#03CH
021E F0                MOVX    @DPTR,A
021F 900000      R     MOV     DPTR,#par+04AH
0222 E4                CLR     A
0223 F0                MOVX    @DPTR,A
0224 A3                INC     DPTR
0225 743C              MOV     A,#03CH
0227 F0                MOVX    @DPTR,A
                                           ; SOURCE LINE # 683
0228 900000      R     MOV     DPTR,#par_tek+01AH
022B E4                CLR     A
022C F0                MOVX    @DPTR,A
022D A3                INC     DPTR
022E 740B              MOV     A,#0BH
0230 F0                MOVX    @DPTR,A
0231 900000      R     MOV     DPTR,#par+04CH
0234 E4                CLR     A
0235 F0                MOVX    @DPTR,A
0236 A3                INC     DPTR
0237 740B              MOV     A,#0BH
0239 F0                MOVX    @DPTR,A
                                           ; SOURCE LINE # 684
023A 900000      R     MOV     DPTR,#par_tek+01CH
023D E4                CLR     A
023E F0                MOVX    @DPTR,A
023F A3                INC     DPTR
0240 7403              MOV     A,#03H
0242 F0                MOVX    @DPTR,A
0243 900000      R     MOV     DPTR,#par+04EH
0246 E4                CLR     A
0247 F0                MOVX    @DPTR,A
0248 A3                INC     DPTR
0249 7403              MOV     A,#03H
024B F0                MOVX    @DPTR,A
                                           ; SOURCE LINE # 685
024C 900000      R     MOV     DPTR,#par_tek+01EH
024F E4                CLR     A
0250 F0                MOVX    @DPTR,A
0251 A3                INC     DPTR
0252 7437              MOV     A,#037H
0254 F0                MOVX    @DPTR,A
0255 900000      R     MOV     DPTR,#par+050H
0258 E4                CLR     A
0259 F0                MOVX    @DPTR,A
025A A3                INC     DPTR
025B 7437              MOV     A,#037H
025D F0                MOVX    @DPTR,A
                                           ; SOURCE LINE # 686
025E 900000      R     MOV     DPTR,#par_tek+020H
0261 E4                CLR     A
0262 F0                MOVX    @DPTR,A
0263 A3                INC     DPTR
0264 04                INC     A
0265 F0                MOVX    @DPTR,A
                                           ; SOURCE LINE # 687
0266 A3                INC     DPTR
0267 E4                CLR     A
0268 F0                MOVX    @DPTR,A
0269 A3                INC     DPTR
026A 04                INC     A
026B F0                MOVX    @DPTR,A
C51 COMPILER V9.53.0.0   TEMP                                                              12/06/2023 15:46:42 PAGE 99  

                                           ; SOURCE LINE # 688
026C A3                INC     DPTR
026D E4                CLR     A
026E F0                MOVX    @DPTR,A
026F A3                INC     DPTR
0270 7402              MOV     A,#02H
0272 F0                MOVX    @DPTR,A
                                           ; SOURCE LINE # 689
0273 A3                INC     DPTR
0274 E4                CLR     A
0275 F0                MOVX    @DPTR,A
0276 A3                INC     DPTR
0277 04                INC     A
0278 F0                MOVX    @DPTR,A
                                           ; SOURCE LINE # 690
0279 A3                INC     DPTR
027A E4                CLR     A
027B F0                MOVX    @DPTR,A
027C A3                INC     DPTR
027D 7402              MOV     A,#02H
027F F0                MOVX    @DPTR,A
                                           ; SOURCE LINE # 691
0280 900000      R     MOV     DPTR,#par_tek+02CH
0283 E4                CLR     A
0284 F0                MOVX    @DPTR,A
0285 A3                INC     DPTR
0286 7403              MOV     A,#03H
0288 F0                MOVX    @DPTR,A
                                           ; SOURCE LINE # 692
0289 A3                INC     DPTR
028A E4                CLR     A
028B F0                MOVX    @DPTR,A
028C A3                INC     DPTR
028D 04                INC     A
028E F0                MOVX    @DPTR,A
                                           ; SOURCE LINE # 693
028F E4                CLR     A
0290 900000      R     MOV     DPTR,#par_tek+02EH
0293 F0                MOVX    @DPTR,A
0294 A3                INC     DPTR
0295 F0                MOVX    @DPTR,A
                                           ; SOURCE LINE # 694
0296 A3                INC     DPTR
0297 F0                MOVX    @DPTR,A
0298 A3                INC     DPTR
0299 7418              MOV     A,#018H
029B F0                MOVX    @DPTR,A
                                           ; SOURCE LINE # 695
029C A3                INC     DPTR
029D E4                CLR     A
029E F0                MOVX    @DPTR,A
029F A3                INC     DPTR
02A0 7419              MOV     A,#019H
02A2 F0                MOVX    @DPTR,A
                                           ; SOURCE LINE # 696
02A3 A3                INC     DPTR
02A4 E4                CLR     A
02A5 F0                MOVX    @DPTR,A
02A6 A3                INC     DPTR
02A7 741A              MOV     A,#01AH
02A9 F0                MOVX    @DPTR,A
                                           ; SOURCE LINE # 697
C51 COMPILER V9.53.0.0   TEMP                                                              12/06/2023 15:46:42 PAGE 100 

02AA A3                INC     DPTR
02AB E4                CLR     A
02AC F0                MOVX    @DPTR,A
02AD A3                INC     DPTR
02AE 741B              MOV     A,#01BH
02B0 F0                MOVX    @DPTR,A
                                           ; SOURCE LINE # 698
02B1 A3                INC     DPTR
02B2 E4                CLR     A
02B3 F0                MOVX    @DPTR,A
02B4 A3                INC     DPTR
02B5 7402              MOV     A,#02H
02B7 F0                MOVX    @DPTR,A
                                           ; SOURCE LINE # 699
02B8 A3                INC     DPTR
02B9 E4                CLR     A
02BA F0                MOVX    @DPTR,A
02BB A3                INC     DPTR
02BC 741D              MOV     A,#01DH
02BE F0                MOVX    @DPTR,A
                                           ; SOURCE LINE # 700
02BF A3                INC     DPTR
02C0 E4                CLR     A
02C1 F0                MOVX    @DPTR,A
02C2 A3                INC     DPTR
02C3 741E              MOV     A,#01EH
02C5 F0                MOVX    @DPTR,A
                                           ; SOURCE LINE # 701
02C6 A3                INC     DPTR
02C7 E4                CLR     A
02C8 F0                MOVX    @DPTR,A
02C9 A3                INC     DPTR
02CA 741F              MOV     A,#01FH
02CC F0                MOVX    @DPTR,A
                                           ; SOURCE LINE # 702
02CD A3                INC     DPTR
02CE E4                CLR     A
02CF F0                MOVX    @DPTR,A
02D0 A3                INC     DPTR
02D1 7420              MOV     A,#020H
02D3 F0                MOVX    @DPTR,A
                                           ; SOURCE LINE # 703
02D4 A3                INC     DPTR
02D5 E4                CLR     A
02D6 F0                MOVX    @DPTR,A
02D7 A3                INC     DPTR
02D8 7421              MOV     A,#021H
02DA F0                MOVX    @DPTR,A
                                           ; SOURCE LINE # 704
02DB A3                INC     DPTR
02DC E4                CLR     A
02DD F0                MOVX    @DPTR,A
02DE A3                INC     DPTR
02DF 7478              MOV     A,#078H
02E1 F0                MOVX    @DPTR,A
                                           ; SOURCE LINE # 705
02E2 A3                INC     DPTR
02E3 E4                CLR     A
02E4 F0                MOVX    @DPTR,A
02E5 A3                INC     DPTR
02E6 04                INC     A
02E7 F0                MOVX    @DPTR,A
C51 COMPILER V9.53.0.0   TEMP                                                              12/06/2023 15:46:42 PAGE 101 

                                           ; SOURCE LINE # 708
02E8 22                RET     
             ; FUNCTION init_par_udgu (END)

             ; FUNCTION make_scene (BEGIN)
                                           ; SOURCE LINE # 712
                                           ; SOURCE LINE # 713
                                           ; SOURCE LINE # 714
0000 900000      R     MOV     DPTR,#x
0003 E4                CLR     A
0004 F0                MOVX    @DPTR,A
0005 A3                INC     DPTR
0006 7428              MOV     A,#028H
0008 F0                MOVX    @DPTR,A
                                           ; SOURCE LINE # 715
0009 A3                INC     DPTR
000A 7402              MOV     A,#02H
000C F0                MOVX    @DPTR,A
000D A3                INC     DPTR
000E 7426              MOV     A,#026H
0010 F0                MOVX    @DPTR,A
                                           ; SOURCE LINE # 718
0011 120000      E     LCALL   drawing_init
                                           ; SOURCE LINE # 720
0014 120000      E     LCALL   Draw_clear_screen
                                           ; SOURCE LINE # 725
0017 900000      E     MOV     DPTR,#?_draw_filled_rect?BYTE+06H
001A 7403              MOV     A,#03H
001C F0                MOVX    @DPTR,A
001D A3                INC     DPTR
001E 741F              MOV     A,#01FH
0020 F0                MOVX    @DPTR,A
0021 A3                INC     DPTR
0022 746B              MOV     A,#06BH
0024 F0                MOVX    @DPTR,A
0025 A3                INC     DPTR
0026 744D              MOV     A,#04DH
0028 F0                MOVX    @DPTR,A
0029 7BFF              MOV     R3,#0FFH
002B 7A04              MOV     R2,#04H
002D E4                CLR     A
002E FD                MOV     R5,A
002F FC                MOV     R4,A
0030 FF                MOV     R7,A
0031 FE                MOV     R6,A
0032 120000      E     LCALL   _draw_filled_rect
                                           ; SOURCE LINE # 727
0035 900000      E     MOV     DPTR,#?_draw_filled_rect?BYTE+06H
0038 7402              MOV     A,#02H
003A F0                MOVX    @DPTR,A
003B A3                INC     DPTR
003C 748A              MOV     A,#08AH
003E F0                MOVX    @DPTR,A
003F A3                INC     DPTR
0040 7452              MOV     A,#052H
0042 F0                MOVX    @DPTR,A
0043 A3                INC     DPTR
0044 748A              MOV     A,#08AH
0046 F0                MOVX    @DPTR,A
0047 7BBE              MOV     R3,#0BEH
0049 7A00              MOV     R2,#00H
004B 7D18              MOV     R5,#018H
C51 COMPILER V9.53.0.0   TEMP                                                              12/06/2023 15:46:42 PAGE 102 

004D 7C01              MOV     R4,#01H
004F 7F28              MOV     R7,#028H
0051 7E00              MOV     R6,#00H
0053 120000      E     LCALL   _draw_filled_rect
0056 900000      R     MOV     DPTR,#Filled_rect_under_par_sp
0059 EE                MOV     A,R6
005A F0                MOVX    @DPTR,A
005B A3                INC     DPTR
005C EF                MOV     A,R7
005D F0                MOVX    @DPTR,A
                                           ; SOURCE LINE # 729
005E 900000      E     MOV     DPTR,#?_draw_filled_rect?BYTE+06H
0061 E4                CLR     A
0062 F0                MOVX    @DPTR,A
0063 A3                INC     DPTR
0064 74DC              MOV     A,#0DCH
0066 F0                MOVX    @DPTR,A
0067 E4                CLR     A
0068 A3                INC     DPTR
0069 F0                MOVX    @DPTR,A
006A A3                INC     DPTR
006B F0                MOVX    @DPTR,A
006C 7BFE              MOV     R3,#0FEH
006E 7A04              MOV     R2,#04H
0070 7DD2              MOV     R5,#0D2H
0072 FC                MOV     R4,A
0073 FF                MOV     R7,A
0074 FE                MOV     R6,A
0075 120000      E     LCALL   _draw_filled_rect
                                           ; SOURCE LINE # 732
0078 E4                CLR     A
0079 900000      R     MOV     DPTR,#i
007C F0                MOVX    @DPTR,A
007D         ?C0157:
                                           ; SOURCE LINE # 733
007D 74FF              MOV     A,#0FFH
007F FB                MOV     R3,A
0080 FA                MOV     R2,A
0081 E4                CLR     A
0082 FD                MOV     R5,A
0083 FC                MOV     R4,A
0084 FF                MOV     R7,A
0085 FE                MOV     R6,A
0086 120000      E     LCALL   _draw_image
0089 900000      R     MOV     DPTR,#i
008C E0                MOVX    A,@DPTR
008D 25E0              ADD     A,ACC
008F 2400        R     ADD     A,#LOW icon_sp_bottom_menu
0091 F582              MOV     DPL,A
0093 E4                CLR     A
0094 3400        R     ADDC    A,#HIGH icon_sp_bottom_menu
0096 F583              MOV     DPH,A
0098 EE                MOV     A,R6
0099 F0                MOVX    @DPTR,A
009A A3                INC     DPTR
009B EF                MOV     A,R7
009C F0                MOVX    @DPTR,A
                                           ; SOURCE LINE # 734
009D 900000      R     MOV     DPTR,#i
00A0 E0                MOVX    A,@DPTR
00A1 04                INC     A
00A2 F0                MOVX    @DPTR,A
C51 COMPILER V9.53.0.0   TEMP                                                              12/06/2023 15:46:42 PAGE 103 

00A3 E0                MOVX    A,@DPTR
00A4 C3                CLR     C
00A5 9410              SUBB    A,#010H
00A7 40D4              JC      ?C0157
00A9         ?C0158:
                                           ; SOURCE LINE # 736
00A9 120000      R     LCALL   make_bottom_menu
                                           ; SOURCE LINE # 738
00AC 900000      R     MOV     DPTR,#cur_par_id
00AF E4                CLR     A
00B0 F0                MOVX    @DPTR,A
00B1 A3                INC     DPTR
00B2 741E              MOV     A,#01EH
00B4 F0                MOVX    @DPTR,A
                                           ; SOURCE LINE # 741
00B5 7800        R     MOV     R0,#LOW main_menu_bm
00B7 120000      E     LCALL   ?C?LLDIDATA
00BA EF                MOV     A,R7
00BB 5401              ANL     A,#01H
00BD FF                MOV     R7,A
00BE E4                CLR     A
00BF FE                MOV     R6,A
00C0 FD                MOV     R5,A
00C1 FC                MOV     R4,A
00C2 EF                MOV     A,R7
00C3 7003              JNZ     $ + 5H
00C5 020000      R     LJMP    ?C0160
                                           ; SOURCE LINE # 743
00C8 7800        R     MOV     R0,#LOW LINE_WIDTH
00CA 7600              MOV     @R0,#00H
00CC 08                INC     R0
00CD 7696              MOV     @R0,#096H
                                           ; SOURCE LINE # 744
00CF 7800        R     MOV     R0,#LOW FONT_SIZE
00D1 7600              MOV     @R0,#00H
00D3 08                INC     R0
00D4 7623              MOV     @R0,#023H
                                           ; SOURCE LINE # 745
00D6 900000      R     MOV     DPTR,#x
00D9 E0                MOVX    A,@DPTR
00DA FE                MOV     R6,A
00DB A3                INC     DPTR
00DC E0                MOVX    A,@DPTR
00DD FF                MOV     R7,A
00DE A3                INC     DPTR
00DF E0                MOVX    A,@DPTR
00E0 FC                MOV     R4,A
00E1 A3                INC     DPTR
00E2 E0                MOVX    A,@DPTR
00E3 FD                MOV     R5,A
00E4 120000      E     LCALL   _make_point
00E7 7800        R     MOV     R0,#LOW ?add_t_preflow?BYTE
00E9 7C00        R     MOV     R4,#HIGH ?add_t_preflow?BYTE
00EB 7D01              MOV     R5,#01H
00ED 7E00              MOV     R6,#00H
00EF 7F04              MOV     R7,#04H
00F1 120000      E     LCALL   ?C?COPY
00F4 120000      R     LCALL   add_t_preflow
                                           ; SOURCE LINE # 746
00F7 120000      R     LCALL   L?0220
                                           ; SOURCE LINE # 747
00FA 120000      R     LCALL   L?0225
C51 COMPILER V9.53.0.0   TEMP                                                              12/06/2023 15:46:42 PAGE 104 

00FD 7800        R     MOV     R0,#LOW p
00FF 7C00        R     MOV     R4,#HIGH p
0101 7D01              MOV     R5,#01H
0103 7E00              MOV     R6,#00H
0105 7F04              MOV     R7,#04H
0107 120000      E     LCALL   ?C?COPY
                                           ; SOURCE LINE # 748
010A 7800        R     MOV     R0,#LOW ?add_t_up?BYTE
010C 7C00        R     MOV     R4,#HIGH ?add_t_up?BYTE
010E 7D01              MOV     R5,#01H
0110 7B01              MOV     R3,#01H
0112 7A00        R     MOV     R2,#HIGH p
0114 7900        R     MOV     R1,#LOW p
0116 7E00              MOV     R6,#00H
0118 7F04              MOV     R7,#04H
011A 120000      E     LCALL   ?C?COPY
011D 120000      R     LCALL   add_t_up
                                           ; SOURCE LINE # 749
0120 120000      R     LCALL   L?0226
                                           ; SOURCE LINE # 750
0123 120000      R     LCALL   L?0216
                                           ; SOURCE LINE # 751
0126 120000      R     LCALL   L?0227
                                           ; SOURCE LINE # 752
0129 120000      R     LCALL   L?0220
012C 7800        R     MOV     R0,#LOW p
012E 7C00        R     MOV     R4,#HIGH p
0130 7D01              MOV     R5,#01H
0132 7E00              MOV     R6,#00H
0134 7F04              MOV     R7,#04H
0136 120000      E     LCALL   ?C?COPY
                                           ; SOURCE LINE # 753
0139 7800        R     MOV     R0,#LOW ?add_t_down?BYTE
013B 7C00        R     MOV     R4,#HIGH ?add_t_down?BYTE
013D 7D01              MOV     R5,#01H
013F 7B01              MOV     R3,#01H
0141 7A00        R     MOV     R2,#HIGH p
0143 7900        R     MOV     R1,#LOW p
0145 7E00              MOV     R6,#00H
0147 7F04              MOV     R7,#04H
0149 120000      E     LCALL   ?C?COPY
014C 120000      R     LCALL   add_t_down
014F 7800        R     MOV     R0,#LOW p
0151 7C00        R     MOV     R4,#HIGH p
0153 7D01              MOV     R5,#01H
0155 7E00              MOV     R6,#00H
0157 7F04              MOV     R7,#04H
0159 120000      E     LCALL   ?C?COPY
                                           ; SOURCE LINE # 754
015C 7800        R     MOV     R0,#LOW ?add_end_i_t?BYTE
015E 7C00        R     MOV     R4,#HIGH ?add_end_i_t?BYTE
0160 7D01              MOV     R5,#01H
0162 7B01              MOV     R3,#01H
0164 7A00        R     MOV     R2,#HIGH p
0166 7900        R     MOV     R1,#LOW p
0168 7E00              MOV     R6,#00H
016A 7F04              MOV     R7,#04H
016C 120000      E     LCALL   ?C?COPY
016F 120000      R     LCALL   add_end_i_t
                                           ; SOURCE LINE # 755
0172 120000      R     LCALL   L?0216
0175 7800        R     MOV     R0,#LOW p
C51 COMPILER V9.53.0.0   TEMP                                                              12/06/2023 15:46:42 PAGE 105 

0177 7C00        R     MOV     R4,#HIGH p
0179 7D01              MOV     R5,#01H
017B 7E00              MOV     R6,#00H
017D 7F04              MOV     R7,#04H
017F 120000      E     LCALL   ?C?COPY
                                           ; SOURCE LINE # 756
0182 7800        R     MOV     R0,#LOW ?add_t_postflow?BYTE
0184 7C00        R     MOV     R4,#HIGH ?add_t_postflow?BYTE
0186 7D01              MOV     R5,#01H
0188 7B01              MOV     R3,#01H
018A 7A00        R     MOV     R2,#HIGH p
018C 7900        R     MOV     R1,#LOW p
018E 7E00              MOV     R6,#00H
0190 7F04              MOV     R7,#04H
0192 120000      E     LCALL   ?C?COPY
0195 120000      R     LCALL   add_t_postflow
                                           ; SOURCE LINE # 759
0198 020000      R     LJMP    ?C0215
019B         ?C0160:
019B 7800        R     MOV     R0,#LOW main_menu_bm
019D 120000      E     LCALL   ?C?LLDIDATA
01A0 EF                MOV     A,R7
01A1 5402              ANL     A,#02H
01A3 FF                MOV     R7,A
01A4 E4                CLR     A
01A5 FE                MOV     R6,A
01A6 FD                MOV     R5,A
01A7 FC                MOV     R4,A
01A8 EF                MOV     A,R7
01A9 7003              JNZ     $ + 5H
01AB 020000      R     LJMP    ?C0161
                                           ; SOURCE LINE # 761
01AE 7800        R     MOV     R0,#LOW main_menu_bm
01B0 120000      E     LCALL   ?C?LLDIDATA
01B3 EE                MOV     A,R6
01B4 5420              ANL     A,#020H
01B6 FE                MOV     R6,A
01B7 EE                MOV     A,R6
01B8 7800        R     MOV     R0,#LOW LINE_WIDTH
01BA 600E              JZ      ?C0163
                                           ; SOURCE LINE # 762
01BC 7601              MOV     @R0,#01H
01BE 08                INC     R0
01BF 762C              MOV     @R0,#02CH
                                           ; SOURCE LINE # 763
01C1 7800        R     MOV     R0,#LOW FONT_SIZE
01C3 7600              MOV     @R0,#00H
01C5 08                INC     R0
01C6 7630              MOV     @R0,#030H
                                           ; SOURCE LINE # 764
01C8 800C              SJMP    ?C0164
01CA         ?C0163:
                                           ; SOURCE LINE # 765
01CA 7601              MOV     @R0,#01H
01CC 08                INC     R0
01CD 7690              MOV     @R0,#090H
                                           ; SOURCE LINE # 766
01CF 7800        R     MOV     R0,#LOW FONT_SIZE
01D1 7600              MOV     @R0,#00H
01D3 08                INC     R0
01D4 7640              MOV     @R0,#040H
                                           ; SOURCE LINE # 767
C51 COMPILER V9.53.0.0   TEMP                                                              12/06/2023 15:46:42 PAGE 106 

01D6         ?C0164:
                                           ; SOURCE LINE # 769
01D6 7DC2              MOV     R5,#0C2H
01D8 7C01              MOV     R4,#01H
01DA 7F28              MOV     R7,#028H
01DC 7E00              MOV     R6,#00H
01DE 120000      E     LCALL   _make_point
01E1 7800        R     MOV     R0,#LOW ?dummy_line_up?BYTE
01E3 7C00        R     MOV     R4,#HIGH ?dummy_line_up?BYTE
01E5 7D01              MOV     R5,#01H
01E7 120000      R     LCALL   L?0222
                                           ; SOURCE LINE # 770
01EA 120000      R     LCALL   L?0225
                                           ; SOURCE LINE # 771
01ED 120000      R     LCALL   L?0217
                                           ; SOURCE LINE # 772
01F0 120000      R     LCALL   L?0226
01F3 7800        R     MOV     R0,#LOW p
01F5 7C00        R     MOV     R4,#HIGH p
01F7 7D01              MOV     R5,#01H
01F9 7E00              MOV     R6,#00H
01FB 7F04              MOV     R7,#04H
01FD 120000      E     LCALL   ?C?COPY
                                           ; SOURCE LINE # 773
0200 7800        R     MOV     R0,#LOW main_menu_bm
0202 120000      E     LCALL   ?C?LLDIDATA
0205 EE                MOV     A,R6
0206 5420              ANL     A,#020H
0208 FE                MOV     R6,A
0209 E4                CLR     A
020A FD                MOV     R5,A
020B EE                MOV     A,R6
020C 601A              JZ      ?C0165
                                           ; SOURCE LINE # 774
020E 7B01              MOV     R3,#01H
0210 7800        R     MOV     R0,#LOW ?dummy_line_up?BYTE
0212 7C00        R     MOV     R4,#HIGH ?dummy_line_up?BYTE
0214 0D                INC     R5
0215 120000      R     LCALL   L?0221
                                           ; SOURCE LINE # 775
0218 120000      R     LCALL   L?0227
021B 7800        R     MOV     R0,#LOW p
021D 7C00        R     MOV     R4,#HIGH p
021F 7D01              MOV     R5,#01H
0221 7E00              MOV     R6,#00H
0223 7F04              MOV     R7,#04H
0225 120000      E     LCALL   ?C?COPY
                                           ; SOURCE LINE # 776
0228         ?C0165:
                                           ; SOURCE LINE # 777
0228 7800        R     MOV     R0,#LOW ?add_i_kz?BYTE
022A 7C00        R     MOV     R4,#HIGH ?add_i_kz?BYTE
022C 7D01              MOV     R5,#01H
022E 7B01              MOV     R3,#01H
0230 7A00        R     MOV     R2,#HIGH p
0232 7900        R     MOV     R1,#LOW p
0234 7E00              MOV     R6,#00H
0236 7F04              MOV     R7,#04H
0238 120000      E     LCALL   ?C?COPY
023B 120000      R     LCALL   add_i_kz
                                           ; SOURCE LINE # 778
023E 120000      R     LCALL   L?0217
C51 COMPILER V9.53.0.0   TEMP                                                              12/06/2023 15:46:42 PAGE 107 

                                           ; SOURCE LINE # 779
0241 120000      R     LCALL   L?0217
0244         ?C0215:
0244 7800        R     MOV     R0,#LOW p
0246 7C00        R     MOV     R4,#HIGH p
0248 7D01              MOV     R5,#01H
024A 7E00              MOV     R6,#00H
024C 7F04              MOV     R7,#04H
024E 120000      E     LCALL   ?C?COPY
                                           ; SOURCE LINE # 780
0251         ?C0161:
                                           ; SOURCE LINE # 783
                                           ; SOURCE LINE # 785
0251 900000      R     MOV     DPTR,#SCREEN_WIDTH
0254 7401              MOV     A,#01H
0256 93                MOVC    A,@A+DPTR
0257 24D4              ADD     A,#0D4H
0259 FB                MOV     R3,A
025A E4                CLR     A
025B 93                MOVC    A,@A+DPTR
025C 34FE              ADDC    A,#0FEH
025E FA                MOV     R2,A
025F 900000      E     MOV     DPTR,#?_Draw_text?BYTE+06H
0262 E4                CLR     A
0263 F0                MOVX    @DPTR,A
0264 A3                INC     DPTR
0265 74FF              MOV     A,#0FFH
0267 F0                MOVX    @DPTR,A
0268 E4                CLR     A
0269 A3                INC     DPTR
026A F0                MOVX    @DPTR,A
026B A3                INC     DPTR
026C 7426              MOV     A,#026H
026E F0                MOVX    @DPTR,A
026F A3                INC     DPTR
0270 74AF              MOV     A,#0AFH
0272 F0                MOVX    @DPTR,A
0273 A3                INC     DPTR
0274 74FF              MOV     A,#0FFH
0276 F0                MOVX    @DPTR,A
0277 A3                INC     DPTR
0278 E4                CLR     A
0279 F0                MOVX    @DPTR,A
027A A3                INC     DPTR
027B 7420              MOV     A,#020H
027D F0                MOVX    @DPTR,A
027E A3                INC     DPTR
027F 74F8              MOV     A,#0F8H
0281 F0                MOVX    @DPTR,A
0282 A3                INC     DPTR
0283 E4                CLR     A
0284 F0                MOVX    @DPTR,A
0285 FD                MOV     R5,A
0286 FC                MOV     R4,A
0287 FF                MOV     R7,A
0288 FE                MOV     R6,A
0289 120000      E     LCALL   _Draw_text
028C 900000      R     MOV     DPTR,#Amp_text_sp
028F EE                MOV     A,R6
0290 F0                MOVX    @DPTR,A
0291 A3                INC     DPTR
0292 EF                MOV     A,R7
C51 COMPILER V9.53.0.0   TEMP                                                              12/06/2023 15:46:42 PAGE 108 

0293 F0                MOVX    @DPTR,A
                                           ; SOURCE LINE # 795
0294 900000      R     MOV     DPTR,#SCREEN_WIDTH
0297 E4                CLR     A
0298 93                MOVC    A,@A+DPTR
0299 FA                MOV     R2,A
029A 7401              MOV     A,#01H
029C 93                MOVC    A,@A+DPTR
029D FB                MOV     R3,A
029E 900000      E     MOV     DPTR,#?_Draw_text?BYTE+06H
02A1 E4                CLR     A
02A2 F0                MOVX    @DPTR,A
02A3 A3                INC     DPTR
02A4 74CA              MOV     A,#0CAH
02A6 F0                MOVX    @DPTR,A
02A7 E4                CLR     A
02A8 A3                INC     DPTR
02A9 F0                MOVX    @DPTR,A
02AA A3                INC     DPTR
02AB F0                MOVX    @DPTR,A
02AC A3                INC     DPTR
02AD 7440              MOV     A,#040H
02AF F0                MOVX    @DPTR,A
02B0 A3                INC     DPTR
02B1 7480              MOV     A,#080H
02B3 F0                MOVX    @DPTR,A
02B4 A3                INC     DPTR
02B5 E4                CLR     A
02B6 F0                MOVX    @DPTR,A
02B7 A3                INC     DPTR
02B8 7402              MOV     A,#02H
02BA F0                MOVX    @DPTR,A
02BB A3                INC     DPTR
02BC 744D              MOV     A,#04DH
02BE F0                MOVX    @DPTR,A
02BF A3                INC     DPTR
02C0 74E5              MOV     A,#0E5H
02C2 F0                MOVX    @DPTR,A
02C3 7D4A              MOV     R5,#04AH
02C5 7C00              MOV     R4,#00H
02C7 7FA2              MOV     R7,#0A2H
02C9 7E03              MOV     R6,#03H
02CB 120000      E     LCALL   _Draw_text
02CE 900000      R     MOV     DPTR,#Volt_text_sp
02D1 EE                MOV     A,R6
02D2 F0                MOVX    @DPTR,A
02D3 A3                INC     DPTR
02D4 EF                MOV     A,R7
02D5 F0                MOVX    @DPTR,A
                                           ; SOURCE LINE # 804
                                           ; SOURCE LINE # 807
                                           ; SOURCE LINE # 809
02D6 750000      R     MOV     x,#00H
02D9 750028      R     MOV     x+01H,#028H
                                           ; SOURCE LINE # 810
02DC E4                CLR     A
02DD F500        R     MOV     i,A
02DF         ?C0166:
                                           ; SOURCE LINE # 811
02DF 900000      E     MOV     DPTR,#?_draw_line?BYTE+06H
02E2 7402              MOV     A,#02H
02E4 F0                MOVX    @DPTR,A
C51 COMPILER V9.53.0.0   TEMP                                                              12/06/2023 15:46:42 PAGE 109 

02E5 A3                INC     DPTR
02E6 748A              MOV     A,#08AH
02E8 F0                MOVX    @DPTR,A
02E9 A3                INC     DPTR
02EA 7405              MOV     A,#05H
02EC F0                MOVX    @DPTR,A
02ED A3                INC     DPTR
02EE 74DE              MOV     A,#0DEH
02F0 F0                MOVX    @DPTR,A
02F1 A3                INC     DPTR
02F2 74DB              MOV     A,#0DBH
02F4 F0                MOVX    @DPTR,A
02F5 AB00        R     MOV     R3,x+01H
02F7 AA00        R     MOV     R2,x
02F9 7D3A              MOV     R5,#03AH
02FB 7C02              MOV     R4,#02H
02FD AF00        R     MOV     R7,x+01H
02FF AE00        R     MOV     R6,x
0301 120000      E     LCALL   _draw_line
                                           ; SOURCE LINE # 812
0304 7496              MOV     A,#096H
0306 2500        R     ADD     A,x+01H
0308 F500        R     MOV     x+01H,A
030A E4                CLR     A
030B 3500        R     ADDC    A,x
030D F500        R     MOV     x,A
                                           ; SOURCE LINE # 813
030F 0500        R     INC     i
0311 E500        R     MOV     A,i
0313 C3                CLR     C
0314 9409              SUBB    A,#09H
0316 40C7              JC      ?C0166
0318         ?C0167:
                                           ; SOURCE LINE # 814
0318 900000      E     MOV     DPTR,#?_draw_line?BYTE+06H
031B 7402              MOV     A,#02H
031D F0                MOVX    @DPTR,A
031E A3                INC     DPTR
031F 743A              MOV     A,#03AH
0321 F0                MOVX    @DPTR,A
0322 A3                INC     DPTR
0323 7405              MOV     A,#05H
0325 F0                MOVX    @DPTR,A
0326 A3                INC     DPTR
0327 74DE              MOV     A,#0DEH
0329 F0                MOVX    @DPTR,A
032A A3                INC     DPTR
032B 74DB              MOV     A,#0DBH
032D F0                MOVX    @DPTR,A
032E 7BD8              MOV     R3,#0D8H
0330 7A04              MOV     R2,#04H
0332 7D3A              MOV     R5,#03AH
0334 7C02              MOV     R4,#02H
0336 7F28              MOV     R7,#028H
0338 7E00              MOV     R6,#00H
033A 120000      E     LCALL   _draw_line
                                           ; SOURCE LINE # 815
033D 900000      E     MOV     DPTR,#?_draw_line?BYTE+06H
0340 7402              MOV     A,#02H
0342 F0                MOVX    @DPTR,A
0343 A3                INC     DPTR
0344 748A              MOV     A,#08AH
C51 COMPILER V9.53.0.0   TEMP                                                              12/06/2023 15:46:42 PAGE 110 

0346 F0                MOVX    @DPTR,A
0347 A3                INC     DPTR
0348 7405              MOV     A,#05H
034A F0                MOVX    @DPTR,A
034B A3                INC     DPTR
034C 74DE              MOV     A,#0DEH
034E F0                MOVX    @DPTR,A
034F A3                INC     DPTR
0350 74DB              MOV     A,#0DBH
0352 F0                MOVX    @DPTR,A
0353 7BD8              MOV     R3,#0D8H
0355 7A04              MOV     R2,#04H
0357 7D8A              MOV     R5,#08AH
0359 7C02              MOV     R4,#02H
035B 7F28              MOV     R7,#028H
035D 7E00              MOV     R6,#00H
035F 020000      E     LJMP    _draw_line
             ; FUNCTION make_scene (END)

C51 COMPILER V9.53.0.0   TEMP                                                              12/06/2023 15:46:42 PAGE 111 

NAME                                    CLASS   MSPACE  TYPE    OFFSET  SIZE
====                                    =====   ======  ====    ======  ====


ENC_STOP . . . . . . . . . . . . . . .  E_CONST  -----  U_CHAR   -----  1
_image_change_id . . . . . . . . . . .  EXTERN   CODE   PROC     -----  -----
LINE_HIGHT . . . . . . . . . . . . . .  PUBLIC   CODE   U_CHAR   0017H  1
icon_t . . . . . . . . . . . . . . . .  TYPEDEF  -----  STRUCT   -----  9
  ico. . . . . . . . . . . . . . . . .  MEMBER   -----  U_CHAR   0000H  1
  r. . . . . . . . . . . . . . . . . .  MEMBER   -----  STRUCT   0001H  8
EIID_BASE2_I2X . . . . . . . . . . . .  E_CONST  -----  U_CHAR   -----  1
dummy_line_up. . . . . . . . . . . . .  PUBLIC   CODE   PROC     0020H  -----
  p. . . . . . . . . . . . . . . . . .  AUTO     XDATA  STRUCT   0000H  4
  p2 . . . . . . . . . . . . . . . . .  AUTO     XDATA  STRUCT   0004H  4
EPDI_I_MIN_MINUS . . . . . . . . . . .  E_CONST  -----  U_CHAR   -----  1
EIID_AC. . . . . . . . . . . . . . . .  E_CONST  -----  U_CHAR   -----  1
icon_sp_bottom_menu. . . . . . . . . .  PUBLIC   XDATA  ARRAY    0000H  32
cur_menu_size. . . . . . . . . . . . .  PUBLIC   XDATA  U_CHAR   0020H  1
EIID_BASE_T4 . . . . . . . . . . . . .  E_CONST  -----  U_CHAR   -----  1
EIID_D_10. . . . . . . . . . . . . . .  E_CONST  -----  U_CHAR   -----  1
point_t. . . . . . . . . . . . . . . .  TYPEDEF  -----  STRUCT   -----  4
  x. . . . . . . . . . . . . . . . . .  MEMBER   -----  U_INT    0000H  2
  y. . . . . . . . . . . . . . . . . .  MEMBER   -----  U_INT    0002H  2
EPID_IMPULSE_I3. . . . . . . . . . . .  E_CONST  -----  U_CHAR   -----  1
EIID_H2O_OFF . . . . . . . . . . . . .  E_CONST  -----  U_CHAR   -----  1
EIID_D_20. . . . . . . . . . . . . . .  E_CONST  -----  U_CHAR   -----  1
EIID_2T. . . . . . . . . . . . . . . .  E_CONST  -----  U_CHAR   -----  1
EIID_FREQ_F1 . . . . . . . . . . . . .  E_CONST  -----  U_CHAR   -----  1
rect_t . . . . . . . . . . . . . . . .  TYPEDEF  -----  STRUCT   -----  8
  x0 . . . . . . . . . . . . . . . . .  MEMBER   -----  U_INT    0000H  2
  y0 . . . . . . . . . . . . . . . . .  MEMBER   -----  U_INT    0002H  2
  x1 . . . . . . . . . . . . . . . . .  MEMBER   -----  U_INT    0004H  2
  y1 . . . . . . . . . . . . . . . . .  MEMBER   -----  U_INT    0006H  2
EIID_D_40. . . . . . . . . . . . . . .  E_CONST  -----  U_CHAR   -----  1
EIID_4T. . . . . . . . . . . . . . . .  E_CONST  -----  U_CHAR   -----  1
_image_change_pos. . . . . . . . . . .  EXTERN   CODE   PROC     -----  -----
active_items . . . . . . . . . . . . .  PUBLIC   CODE   ARRAY    001CH  8
EIID_D_32. . . . . . . . . . . . . . .  E_CONST  -----  U_CHAR   -----  1
EIID_PULSE_ON. . . . . . . . . . . . .  E_CONST  -----  U_CHAR   -----  1
_Draw_text_change_color. . . . . . . .  EXTERN   CODE   PROC     -----  -----
EPID_BASE2_I2X . . . . . . . . . . . .  E_CONST  -----  U_CHAR   -----  1
EIID_D_24. . . . . . . . . . . . . . .  E_CONST  -----  U_CHAR   -----  1
EPID_KZ_I5 . . . . . . . . . . . . . .  E_CONST  -----  U_CHAR   -----  1
EIID_D_16. . . . . . . . . . . . . . .  E_CONST  -----  U_CHAR   -----  1
drawing_init . . . . . . . . . . . . .  EXTERN   CODE   PROC     -----  -----
_Process_Encoder . . . . . . . . . . .  PUBLIC   CODE   PROC     0000H  -----
  state. . . . . . . . . . . . . . . .  * REG *  DATA   U_CHAR   0005H  1
  shifts . . . . . . . . . . . . . . .  STATIC   CODE   ARRAY    0044H  4
EPID_BASE_T4 . . . . . . . . . . . . .  E_CONST  -----  U_CHAR   -----  1
EIID_IMPULSE_T5. . . . . . . . . . . .  E_CONST  -----  U_CHAR   -----  1
EIID_UP_T3 . . . . . . . . . . . . . .  E_CONST  -----  U_CHAR   -----  1
EIID_TIG_SPOT. . . . . . . . . . . . .  E_CONST  -----  U_CHAR   -----  1
EPID_FREQ_F1 . . . . . . . . . . . . .  E_CONST  -----  U_CHAR   -----  1
EIID_HF. . . . . . . . . . . . . . . .  E_CONST  -----  U_CHAR   -----  1
text_sp. . . . . . . . . . . . . . . .  PUBLIC   XDATA  ARRAY    0021H  84
LINE_WIDTH . . . . . . . . . . . . . .  PUBLIC   IDATA  U_INT    0002H  2
Amp_text_sp. . . . . . . . . . . . . .  PUBLIC   XDATA  U_INT    0075H  2
EPID_IGNITION_TYPE . . . . . . . . . .  E_CONST  -----  U_CHAR   -----  1
dgus_text_display_t. . . . . . . . . .  TYPEDEF  -----  STRUCT   -----  26
  vp . . . . . . . . . . . . . . . . .  MEMBER   -----  U_INT    0000H  2
  start_pos. . . . . . . . . . . . . .  MEMBER   -----  STRUCT   0002H  4
C51 COMPILER V9.53.0.0   TEMP                                                              12/06/2023 15:46:42 PAGE 112 

NAME                                    CLASS   MSPACE  TYPE    OFFSET  SIZE
====                                    =====   ======  ====    ======  ====


  color. . . . . . . . . . . . . . . .  MEMBER   -----  U_INT    0006H  2
  lh . . . . . . . . . . . . . . . . .  MEMBER   -----  STRUCT   0008H  4
  rl . . . . . . . . . . . . . . . . .  MEMBER   -----  STRUCT   000CH  4
  text_len . . . . . . . . . . . . . .  MEMBER   -----  U_INT    0010H  2
  font0_id . . . . . . . . . . . . . .  MEMBER   -----  U_CHAR   0012H  1
  font1_id . . . . . . . . . . . . . .  MEMBER   -----  U_CHAR   0013H  1
  font_x_dots. . . . . . . . . . . . .  MEMBER   -----  U_CHAR   0014H  1
  font_y_dots. . . . . . . . . . . . .  MEMBER   -----  U_CHAR   0015H  1
  encode_mode. . . . . . . . . . . . .  MEMBER   -----  U_CHAR   0016H  1
  hor_dis. . . . . . . . . . . . . . .  MEMBER   -----  U_CHAR   0017H  1
  ver_dis. . . . . . . . . . . . . . .  MEMBER   -----  U_CHAR   0018H  1
  undef. . . . . . . . . . . . . . . .  MEMBER   -----  U_CHAR   0019H  1
dgus_data_variable_display_t . . . . .  TYPEDEF  -----  STRUCT   -----  20
  vp . . . . . . . . . . . . . . . . .  MEMBER   -----  U_INT    0000H  2
  upper_left_point . . . . . . . . . .  MEMBER   -----  STRUCT   0002H  4
  color. . . . . . . . . . . . . . . .  MEMBER   -----  U_INT    0006H  2
  lib_id . . . . . . . . . . . . . . .  MEMBER   -----  U_CHAR   0008H  1
  font_size. . . . . . . . . . . . . .  MEMBER   -----  U_CHAR   0009H  1
  alignment. . . . . . . . . . . . . .  MEMBER   -----  U_CHAR   000AH  1
  integer_digits . . . . . . . . . . .  MEMBER   -----  U_CHAR   000BH  1
  decimal_places . . . . . . . . . . .  MEMBER   -----  U_CHAR   000CH  1
  variable_data_type . . . . . . . . .  MEMBER   -----  U_CHAR   000DH  1
  len_unit . . . . . . . . . . . . . .  MEMBER   -----  U_CHAR   000EH  1
  string_unit. . . . . . . . . . . . .  MEMBER   -----  ARRAY    000FH  5
EPID_IMPULSE_T5. . . . . . . . . . . .  E_CONST  -----  U_CHAR   -----  1
EPID_UP_T3 . . . . . . . . . . . . . .  E_CONST  -----  U_CHAR   -----  1
size_t . . . . . . . . . . . . . . . .  TYPEDEF  -----  U_INT    -----  2
make_scene . . . . . . . . . . . . . .  PUBLIC   CODE   PROC     0000H  -----
  p. . . . . . . . . . . . . . . . . .  AUTO     XDATA  STRUCT   0005H  4
  p. . . . . . . . . . . . . . . . . .  AUTO     XDATA  STRUCT   0005H  4
  i. . . . . . . . . . . . . . . . . .  AUTO     DATA   U_CHAR   0000H  1
  x. . . . . . . . . . . . . . . . . .  AUTO     DATA   U_INT    0001H  2
  x. . . . . . . . . . . . . . . . . .  AUTO     XDATA  U_INT    0000H  2
  y. . . . . . . . . . . . . . . . . .  AUTO     XDATA  U_INT    0002H  2
  i. . . . . . . . . . . . . . . . . .  AUTO     XDATA  U_CHAR   0004H  1
EPID_I_CLEAN . . . . . . . . . . . . .  E_CONST  -----  U_CHAR   -----  1
Volt_text_sp . . . . . . . . . . . . .  PUBLIC   XDATA  U_INT    0077H  2
LEVEL_HEIGHT . . . . . . . . . . . . .  PUBLIC   CODE   U_CHAR   0018H  1
_draw_filled_rect. . . . . . . . . . .  EXTERN   CODE   PROC     -----  -----
_draw_image. . . . . . . . . . . . . .  EXTERN   CODE   PROC     -----  -----
lim_t. . . . . . . . . . . . . . . . .  TYPEDEF  -----  STRUCT   -----  4
  min. . . . . . . . . . . . . . . . .  MEMBER   -----  INT      0000H  2
  max. . . . . . . . . . . . . . . . .  MEMBER   -----  INT      0002H  2
add_t_down . . . . . . . . . . . . . .  PUBLIC   CODE   PROC     0000H  -----
  p. . . . . . . . . . . . . . . . . .  AUTO     XDATA  STRUCT   0000H  4
  p2 . . . . . . . . . . . . . . . . .  AUTO     XDATA  STRUCT   0004H  4
_add_touch_place . . . . . . . . . . .  PUBLIC   CODE   PROC     002EH  -----
  x0 . . . . . . . . . . . . . . . . .  AUTO     XDATA  U_INT    0000H  2
  y0 . . . . . . . . . . . . . . . . .  AUTO     XDATA  U_INT    0002H  2
  x1 . . . . . . . . . . . . . . . . .  AUTO     DATA   U_INT    0002H  2
  y1 . . . . . . . . . . . . . . . . .  AUTO     XDATA  U_INT    0006H  2
  touch_id . . . . . . . . . . . . . .  AUTO     XDATA  U_CHAR   0008H  1
EPID_T_CLEAN . . . . . . . . . . . . .  E_CONST  -----  U_CHAR   -----  1
cur_par_id . . . . . . . . . . . . . .  PUBLIC   XDATA  U_INT    0079H  2
_display_par . . . . . . . . . . . . .  PUBLIC   CODE   PROC     0000H  -----
  par_id . . . . . . . . . . . . . . .  AUTO     XDATA  U_INT    0000H  2
TOUCH_HEIGHT . . . . . . . . . . . . .  PUBLIC   CODE   U_CHAR   0019H  1
C51 COMPILER V9.53.0.0   TEMP                                                              12/06/2023 15:46:42 PAGE 113 

NAME                                    CLASS   MSPACE  TYPE    OFFSET  SIZE
====                                    =====   ======  ====    ======  ====


EIID_DOWN_T6 . . . . . . . . . . . . .  E_CONST  -----  U_CHAR   -----  1
EPID_OSCIL_TYPE. . . . . . . . . . . .  E_CONST  -----  U_CHAR   -----  1
SCREEN_WIDTH . . . . . . . . . . . . .  STATIC   CODE   U_INT    0013H  2
EPID_DOWN_T6 . . . . . . . . . . . . .  E_CONST  -----  U_CHAR   -----  1
_par_select. . . . . . . . . . . . . .  PUBLIC   CODE   PROC     0000H  -----
  new_par_id . . . . . . . . . . . . .  AUTO     XDATA  U_CHAR   0000H  1
  old_color. . . . . . . . . . . . . .  STATIC   IDATA  U_INT    0000H  2
EIID_DC_PLUS . . . . . . . . . . . . .  E_CONST  -----  U_CHAR   -----  1
EIID_4T_PLUS . . . . . . . . . . . . .  E_CONST  -----  U_CHAR   -----  1
_Draw_text_change_text . . . . . . . .  EXTERN   CODE   PROC     -----  -----
MSPIFLASH. . . . . . . . . . . . . . .  TYPEDEF  -----  STRUCT   -----  16
  Mode . . . . . . . . . . . . . . . .  MEMBER   -----  U_CHAR   0000H  1
  ID . . . . . . . . . . . . . . . . .  MEMBER   -----  U_INT    0001H  2
  FLAddr . . . . . . . . . . . . . . .  MEMBER   -----  U_LONG   0003H  4
  VPAddr . . . . . . . . . . . . . . .  MEMBER   -----  U_INT    0007H  2
  Len. . . . . . . . . . . . . . . . .  MEMBER   -----  U_INT    0009H  2
  Buf. . . . . . . . . . . . . . . . .  MEMBER   -----  PTR      000BH  3
  Delay. . . . . . . . . . . . . . . .  MEMBER   -----  U_INT    000EH  2
_mSPIFLASH . . . . . . . . . . . . . .  * TAG *  -----  STRUCT   -----  16
  Mode . . . . . . . . . . . . . . . .  MEMBER   -----  U_CHAR   0000H  1
  ID . . . . . . . . . . . . . . . . .  MEMBER   -----  U_INT    0001H  2
  FLAddr . . . . . . . . . . . . . . .  MEMBER   -----  U_LONG   0003H  4
  VPAddr . . . . . . . . . . . . . . .  MEMBER   -----  U_INT    0007H  2
  Len. . . . . . . . . . . . . . . . .  MEMBER   -----  U_INT    0009H  2
  Buf. . . . . . . . . . . . . . . . .  MEMBER   -----  PTR      000BH  3
  Delay. . . . . . . . . . . . . . . .  MEMBER   -----  U_INT    000EH  2
s8 . . . . . . . . . . . . . . . . . .  TYPEDEF  -----  CHAR     -----  1
EIID_RECT. . . . . . . . . . . . . . .  E_CONST  -----  U_CHAR   -----  1
add_i_t_impulse. . . . . . . . . . . .  PUBLIC   CODE   PROC     0020H  -----
  p. . . . . . . . . . . . . . . . . .  AUTO     XDATA  STRUCT   0000H  4
  p2 . . . . . . . . . . . . . . . . .  AUTO     XDATA  STRUCT   0004H  4
EIID_LIFT. . . . . . . . . . . . . . .  E_CONST  -----  U_CHAR   -----  1
u8 . . . . . . . . . . . . . . . . . .  TYPEDEF  -----  U_CHAR   -----  1
_make_point. . . . . . . . . . . . . .  EXTERN   CODE   PROC     -----  -----
MNORFLASH. . . . . . . . . . . . . . .  TYPEDEF  -----  STRUCT   -----  12
  Mode . . . . . . . . . . . . . . . .  MEMBER   -----  U_CHAR   0000H  1
  FLAddr . . . . . . . . . . . . . . .  MEMBER   -----  U_LONG   0001H  4
  VPAddr . . . . . . . . . . . . . . .  MEMBER   -----  U_INT    0005H  2
  Len. . . . . . . . . . . . . . . . .  MEMBER   -----  U_INT    0007H  2
  Buf. . . . . . . . . . . . . . . . .  MEMBER   -----  PTR      0009H  3
_mNORFLASH . . . . . . . . . . . . . .  * TAG *  -----  STRUCT   -----  12
  Mode . . . . . . . . . . . . . . . .  MEMBER   -----  U_CHAR   0000H  1
  FLAddr . . . . . . . . . . . . . . .  MEMBER   -----  U_LONG   0001H  4
  VPAddr . . . . . . . . . . . . . . .  MEMBER   -----  U_INT    0005H  2
  Len. . . . . . . . . . . . . . . . .  MEMBER   -----  U_INT    0007H  2
  Buf. . . . . . . . . . . . . . . . .  MEMBER   -----  PTR      0009H  3
EPID_IS_PLUS_4T. . . . . . . . . . . .  E_CONST  -----  U_CHAR   -----  1
MEN_WELD_MOD . . . . . . . . . . . . .  E_CONST  -----  U_CHAR   -----  1
make_bottom_menu . . . . . . . . . . .  PUBLIC   CODE   PROC     0000H  -----
  i. . . . . . . . . . . . . . . . . .  AUTO     XDATA  U_CHAR   0000H  1
  id . . . . . . . . . . . . . . . . .  AUTO     XDATA  U_CHAR   0001H  1
  start_x. . . . . . . . . . . . . . .  AUTO     XDATA  U_INT    0002H  2
  start_y. . . . . . . . . . . . . . .  AUTO     XDATA  U_INT    0004H  2
  id_bm. . . . . . . . . . . . . . . .  AUTO     XDATA  U_LONG   0006H  4
EIID_END_I4. . . . . . . . . . . . . .  E_CONST  -----  U_CHAR   -----  1
ENC_L0 . . . . . . . . . . . . . . . .  E_CONST  -----  U_CHAR   -----  1
ENC_L1 . . . . . . . . . . . . . . . .  E_CONST  -----  U_CHAR   -----  1
C51 COMPILER V9.53.0.0   TEMP                                                              12/06/2023 15:46:42 PAGE 114 

NAME                                    CLASS   MSPACE  TYPE    OFFSET  SIZE
====                                    =====   ======  ====    ======  ====


EIID_TRIG. . . . . . . . . . . . . . .  E_CONST  -----  U_CHAR   -----  1
EPID_PLUS_PULSE. . . . . . . . . . . .  E_CONST  -----  U_CHAR   -----  1
EIID_TRAP. . . . . . . . . . . . . . .  E_CONST  -----  U_CHAR   -----  1
dgus_variables_icon_t. . . . . . . . .  TYPEDEF  -----  STRUCT   -----  20
  vp . . . . . . . . . . . . . . . . .  MEMBER   -----  U_INT    0000H  2
  upper_left_point . . . . . . . . . .  MEMBER   -----  STRUCT   0002H  4
  v_min. . . . . . . . . . . . . . . .  MEMBER   -----  U_INT    0006H  2
  v_max. . . . . . . . . . . . . . . .  MEMBER   -----  U_INT    0008H  2
  icon_min . . . . . . . . . . . . . .  MEMBER   -----  U_INT    000AH  2
  icon_max . . . . . . . . . . . . . .  MEMBER   -----  U_INT    000CH  2
  icon_lib . . . . . . . . . . . . . .  MEMBER   -----  U_CHAR   000EH  1
  mode . . . . . . . . . . . . . . . .  MEMBER   -----  U_CHAR   000FH  1
  layer_mode . . . . . . . . . . . . .  MEMBER   -----  U_CHAR   0010H  1
  icon_gamma . . . . . . . . . . . . .  MEMBER   -----  U_CHAR   0011H  1
  pic_gamma. . . . . . . . . . . . . .  MEMBER   -----  U_CHAR   0012H  1
  filter_set . . . . . . . . . . . . .  MEMBER   -----  U_CHAR   0013H  1
EPID_I_MIN_PLUS. . . . . . . . . . . .  E_CONST  -----  U_CHAR   -----  1
_Draw_text . . . . . . . . . . . . . .  EXTERN   CODE   PROC     -----  -----
ENC_R0 . . . . . . . . . . . . . . . .  E_CONST  -----  U_CHAR   -----  1
EPID_END_I4. . . . . . . . . . . . . .  E_CONST  -----  U_CHAR   -----  1
EIID_SIZE. . . . . . . . . . . . . . .  E_CONST  -----  U_CHAR   -----  1
add_i_kz . . . . . . . . . . . . . . .  PUBLIC   CODE   PROC     0000H  -----
  p. . . . . . . . . . . . . . . . . .  AUTO     XDATA  STRUCT   0000H  4
  p2 . . . . . . . . . . . . . . . . .  AUTO     XDATA  STRUCT   0004H  4
ENC_R1 . . . . . . . . . . . . . . . .  E_CONST  -----  U_CHAR   -----  1
EIID_BALANCE_D1. . . . . . . . . . . .  E_CONST  -----  U_CHAR   -----  1
_draw_line . . . . . . . . . . . . . .  EXTERN   CODE   PROC     -----  -----
_cur_par_value_change. . . . . . . . .  PUBLIC   CODE   PROC     0000H  -----
  cur_par_id . . . . . . . . . . . . .  AUTO     XDATA  U_INT    0000H  2
  shift. . . . . . . . . . . . . . . .  * REG *  DATA   CHAR     0003H  1
  tmp. . . . . . . . . . . . . . . . .  AUTO     DATA   U_INT    0000H  2
  tmp. . . . . . . . . . . . . . . . .  AUTO     DATA   U_INT    0002H  2
  mod_submod . . . . . . . . . . . . .  * TAG *  -----  STRUCT   -----  2
  tmp. . . . . . . . . . . . . . . . .  AUTO     XDATA  STRUCT   0002H  2
MEN_FLOW_MOD . . . . . . . . . . . . .  E_CONST  -----  U_CHAR   -----  1
EIID_END_T7. . . . . . . . . . . . . .  E_CONST  -----  U_CHAR   -----  1
EPID_BALANCE_D1. . . . . . . . . . . .  E_CONST  -----  U_CHAR   -----  1
EPID_ELECTRODE_D . . . . . . . . . . .  E_CONST  -----  U_CHAR   -----  1
_make_lim. . . . . . . . . . . . . . .  PUBLIC   CODE   PROC     000CH  -----
  lim. . . . . . . . . . . . . . . . .  AUTO     DATA   PTR      0001H  3
  min. . . . . . . . . . . . . . . . .  AUTO     DATA   INT      0004H  2
  max. . . . . . . . . . . . . . . . .  AUTO     XDATA  INT      0005H  2
cur_menu_active. . . . . . . . . . . .  PUBLIC   XDATA  U_LONG   007BH  4
TIME_Y_LEVEL . . . . . . . . . . . . .  PUBLIC   IDATA  U_INT    0004H  2
par. . . . . . . . . . . . . . . . . .  PUBLIC   XDATA  ARRAY    007FH  84
EPID_MODES_SUBMODES. . . . . . . . . .  E_CONST  -----  U_CHAR   -----  1
EIID_H2O_ON. . . . . . . . . . . . . .  E_CONST  -----  U_CHAR   -----  1
EIID_PULSE_OFF . . . . . . . . . . . .  E_CONST  -----  U_CHAR   -----  1
add_t_up . . . . . . . . . . . . . . .  PUBLIC   CODE   PROC     0000H  -----
  p. . . . . . . . . . . . . . . . . .  AUTO     XDATA  STRUCT   0000H  4
  p2 . . . . . . . . . . . . . . . . .  AUTO     XDATA  STRUCT   0004H  4
MEN_D_MOD. . . . . . . . . . . . . . .  E_CONST  -----  U_CHAR   -----  1
EPID_END_T7. . . . . . . . . . . . . .  E_CONST  -----  U_CHAR   -----  1
ICON_RECT_SZ . . . . . . . . . . . . .  PUBLIC   CODE   U_INT    001AH  2
EIID_POST_FLOW_T8. . . . . . . . . . .  E_CONST  -----  U_CHAR   -----  1
EPID_WAVE_FORM . . . . . . . . . . . .  E_CONST  -----  U_CHAR   -----  1
Filled_rect_under_par_sp . . . . . . .  PUBLIC   XDATA  U_INT    00D3H  2
C51 COMPILER V9.53.0.0   TEMP                                                              12/06/2023 15:46:42 PAGE 115 

NAME                                    CLASS   MSPACE  TYPE    OFFSET  SIZE
====                                    =====   ======  ====    ======  ====


EIID_AC_MIX. . . . . . . . . . . . . .  E_CONST  -----  U_CHAR   -----  1
MMUSIC . . . . . . . . . . . . . . . .  TYPEDEF  -----  STRUCT   -----  35
  IdNmu. . . . . . . . . . . . . . . .  MEMBER   -----  ARRAY    0000H  32
  PlayTail . . . . . . . . . . . . . .  MEMBER   -----  U_CHAR   0020H  1
  PlayHead . . . . . . . . . . . . . .  MEMBER   -----  U_CHAR   0021H  1
  PlayInterrupt. . . . . . . . . . . .  MEMBER   -----  U_CHAR   0022H  1
_mMUSIC. . . . . . . . . . . . . . . .  * TAG *  -----  STRUCT   -----  35
  IdNmu. . . . . . . . . . . . . . . .  MEMBER   -----  ARRAY    0000H  32
  PlayTail . . . . . . . . . . . . . .  MEMBER   -----  U_CHAR   0020H  1
  PlayHead . . . . . . . . . . . . . .  MEMBER   -----  U_CHAR   0021H  1
  PlayInterrupt. . . . . . . . . . . .  MEMBER   -----  U_CHAR   0022H  1
PAR_ID . . . . . . . . . . . . . . . .  * TAG *  -----  ENUM     -----  -----
EPID_POST_FLOW_T8. . . . . . . . . . .  E_CONST  -----  U_CHAR   -----  1
dummy_line_down. . . . . . . . . . . .  PUBLIC   CODE   PROC     0020H  -----
  p. . . . . . . . . . . . . . . . . .  AUTO     XDATA  STRUCT   0000H  4
  p2 . . . . . . . . . . . . . . . . .  AUTO     XDATA  STRUCT   0004H  4
FONT_SIZE. . . . . . . . . . . . . . .  PUBLIC   IDATA  U_INT    0006H  2
EIID_MMA . . . . . . . . . . . . . . .  E_CONST  -----  U_CHAR   -----  1
s32. . . . . . . . . . . . . . . . . .  TYPEDEF  -----  LONG     -----  4
add_t_start_i. . . . . . . . . . . . .  PUBLIC   CODE   PROC     0020H  -----
  p. . . . . . . . . . . . . . . . . .  AUTO     XDATA  STRUCT   0000H  4
  p2 . . . . . . . . . . . . . . . . .  AUTO     XDATA  STRUCT   0004H  4
u32. . . . . . . . . . . . . . . . . .  TYPEDEF  -----  U_LONG   -----  4
s16. . . . . . . . . . . . . . . . . .  TYPEDEF  -----  INT      -----  2
MMA. . . . . . . . . . . . . . . . . .  E_CONST  -----  U_CHAR   -----  1
MEN_PLS_WAVE_SHAPE_MOD . . . . . . . .  E_CONST  -----  U_CHAR   -----  1
EPID_SERVICE_PAR . . . . . . . . . . .  E_CONST  -----  U_CHAR   -----  1
u16. . . . . . . . . . . . . . . . . .  TYPEDEF  -----  U_INT    -----  2
_Draw_text_get_color . . . . . . . . .  EXTERN   CODE   PROC     -----  -----
_cur_menu_fanc . . . . . . . . . . . .  PUBLIC   XDATA  PTR      00D5H  3
SCREEN_HEIGHT. . . . . . . . . . . . .  STATIC   CODE   U_INT    0015H  2
Draw_clear_screen. . . . . . . . . . .  EXTERN   CODE   PROC     -----  -----
cur_active_items_id. . . . . . . . . .  PUBLIC   IDATA  U_CHAR   0008H  1
add_end_i_t. . . . . . . . . . . . . .  PUBLIC   CODE   PROC     0000H  -----
  p. . . . . . . . . . . . . . . . . .  AUTO     XDATA  STRUCT   0000H  4
  p2 . . . . . . . . . . . . . . . . .  AUTO     XDATA  STRUCT   0004H  4
MEN_IGN_MOD. . . . . . . . . . . . . .  E_CONST  -----  U_CHAR   -----  1
EIID_TIG . . . . . . . . . . . . . . .  E_CONST  -----  U_CHAR   -----  1
add_t_postflow . . . . . . . . . . . .  PUBLIC   CODE   PROC     0000H  -----
  p. . . . . . . . . . . . . . . . . .  AUTO     XDATA  STRUCT   0000H  4
  p2 . . . . . . . . . . . . . . . . .  AUTO     XDATA  STRUCT   0004H  4
add_t_preflow. . . . . . . . . . . . .  PUBLIC   CODE   PROC     0000H  -----
  p. . . . . . . . . . . . . . . . . .  AUTO     XDATA  STRUCT   0000H  4
  p2 . . . . . . . . . . . . . . . . .  AUTO     XDATA  STRUCT   0004H  4
par_step . . . . . . . . . . . . . . .  PUBLIC   XDATA  ARRAY    00D8H  84
cur_menu . . . . . . . . . . . . . . .  PUBLIC   XDATA  ARRAY    012CH  432
TIG. . . . . . . . . . . . . . . . . .  E_CONST  -----  U_CHAR   -----  1
EIID_PRE_FLOW_T1 . . . . . . . . . . .  E_CONST  -----  U_CHAR   -----  1
MEN_BTN_MOD. . . . . . . . . . . . . .  E_CONST  -----  U_CHAR   -----  1
EPID_BSN . . . . . . . . . . . . . . .  E_CONST  -----  U_CHAR   -----  1
EIID_START_I1. . . . . . . . . . . . .  E_CONST  -----  U_CHAR   -----  1
EIID_SIN . . . . . . . . . . . . . . .  E_CONST  -----  U_CHAR   -----  1
T2CON. . . . . . . . . . . . . . . . .  SFR      DATA   U_CHAR   00C8H  1
par_lim. . . . . . . . . . . . . . . .  PUBLIC   XDATA  ARRAY    02DCH  168
par_tek. . . . . . . . . . . . . . . .  PUBLIC   XDATA  ARRAY    0384H  72
EPID_PRE_FLOW_T1 . . . . . . . . . . .  E_CONST  -----  U_CHAR   -----  1
EPID_IMPULSE_CNT . . . . . . . . . . .  E_CONST  -----  U_CHAR   -----  1
C51 COMPILER V9.53.0.0   TEMP                                                              12/06/2023 15:46:42 PAGE 116 

NAME                                    CLASS   MSPACE  TYPE    OFFSET  SIZE
====                                    =====   ======  ====    ======  ====


MEN_POL_MOD. . . . . . . . . . . . . .  E_CONST  -----  U_CHAR   -----  1
EPID_START_I1. . . . . . . . . . . . .  E_CONST  -----  U_CHAR   -----  1
_bottom_level_controls . . . . . . . .  PUBLIC   CODE   PROC     0000H  -----
  item_pos . . . . . . . . . . . . . .  AUTO     XDATA  U_CHAR   0000H  1
  bm . . . . . . . . . . . . . . . . .  AUTO     XDATA  U_LONG   0001H  4
  i. . . . . . . . . . . . . . . . . .  AUTO     XDATA  U_CHAR   0005H  1
  id . . . . . . . . . . . . . . . . .  AUTO     XDATA  U_CHAR   0006H  1
  start_x. . . . . . . . . . . . . . .  AUTO     XDATA  U_INT    0007H  2
  start_y. . . . . . . . . . . . . . .  AUTO     XDATA  U_INT    0009H  2
main_menu_bm . . . . . . . . . . . . .  PUBLIC   IDATA  U_LONG   0009H  4
MEN_PLS_MOD. . . . . . . . . . . . . .  E_CONST  -----  U_CHAR   -----  1
EPID_2T_4T . . . . . . . . . . . . . .  E_CONST  -----  U_CHAR   -----  1
EIID_DC_MINUS. . . . . . . . . . . . .  E_CONST  -----  U_CHAR   -----  1
add_base_i1_i2_t . . . . . . . . . . .  PUBLIC   CODE   PROC     0020H  -----
  p. . . . . . . . . . . . . . . . . .  AUTO     XDATA  STRUCT   0000H  4
  p2 . . . . . . . . . . . . . . . . .  AUTO     XDATA  STRUCT   0004H  4
  half_height. . . . . . . . . . . . .  AUTO     XDATA  U_INT    0008H  2
init_par_udgu. . . . . . . . . . . . .  PUBLIC   CODE   PROC     0000H  -----
EPID_KC_RATIO. . . . . . . . . . . . .  E_CONST  -----  U_CHAR   -----  1
EIID_START_T2. . . . . . . . . . . . .  E_CONST  -----  U_CHAR   -----  1
draw_number_wtih_touch_centered. . . .  PUBLIC   CODE   PROC     0000H  -----
  line_start . . . . . . . . . . . . .  AUTO     XDATA  STRUCT   0000H  4
  font_size. . . . . . . . . . . . . .  AUTO     XDATA  U_INT    0004H  2
  color. . . . . . . . . . . . . . . .  AUTO     XDATA  U_INT    0006H  2
  touch_id . . . . . . . . . . . . . .  AUTO     XDATA  U_CHAR   0008H  1
EIID_BASE_I2 . . . . . . . . . . . . .  E_CONST  -----  U_CHAR   -----  1
va_list. . . . . . . . . . . . . . . .  TYPEDEF  -----  PTR      -----  3
EPID_I_IGN_PULSE . . . . . . . . . . .  E_CONST  -----  U_CHAR   -----  1
menu_item_bm . . . . . . . . . . . . .  PUBLIC   CODE   ARRAY    0024H  32
EPID_FLOW_SENSOR . . . . . . . . . . .  E_CONST  -----  U_CHAR   -----  1
EPID_START_T2. . . . . . . . . . . . .  E_CONST  -----  U_CHAR   -----  1
EPID_POLARITY. . . . . . . . . . . . .  E_CONST  -----  U_CHAR   -----  1
EPID_BASE_I2 . . . . . . . . . . . . .  E_CONST  -----  U_CHAR   -----  1
EIDD_KZ_I5 . . . . . . . . . . . . . .  E_CONST  -----  U_CHAR   -----  1
EIID_IMPULSE_I3. . . . . . . . . . . .  E_CONST  -----  U_CHAR   -----  1
EPID_MINUS_PULSE . . . . . . . . . . .  E_CONST  -----  U_CHAR   -----  1


MODULE INFORMATION:   STATIC OVERLAYABLE
   CODE SIZE        =   8050    ----
   CONSTANT SIZE    =     72    ----
   XDATA SIZE       =    972     152
   PDATA SIZE       =   ----    ----
   DATA SIZE        =   ----       7
   IDATA SIZE       =     13    ----
   BIT SIZE         =   ----    ----
END OF MODULE INFORMATION.


C51 COMPILATION COMPLETE.  0 WARNING(S),  0 ERROR(S)
